
./example/error_injector/test.o: formát súboru elf32-littleriscv


Rozloženie sekcie .init:

10000000 <_start>:
10000000:	00012197          	auipc	gp,0x12
10000004:	ad818193          	addi	gp,gp,-1320 # 10011ad8 <__global_pointer$>
10000008:	00014117          	auipc	sp,0x14
1000000c:	d1810113          	addi	sp,sp,-744 # 10013d20 <_sp>
10000010:	00000517          	auipc	a0,0x0
10000014:	05050513          	addi	a0,a0,80 # 10000060 <__vector_start>
10000018:	00156513          	ori	a0,a0,1
1000001c:	30551073          	csrw	mtvec,a0
10000020:	00012517          	auipc	a0,0x12
10000024:	9f050513          	addi	a0,a0,-1552 # 10011a10 <__stdio_exit_handler>
10000028:	00012617          	auipc	a2,0x12
1000002c:	cf460613          	addi	a2,a2,-780 # 10011d1c <__BSS_END__>
10000030:	8e09                	sub	a2,a2,a0
10000032:	4581                	li	a1,0
10000034:	4dc010ef          	jal	10001510 <memset>
10000038:	00001517          	auipc	a0,0x1
1000003c:	47c50513          	addi	a0,a0,1148 # 100014b4 <__libc_fini_array>
10000040:	2955                	jal	100004f4 <atexit>
10000042:	3de010ef          	jal	10001420 <__libc_init_array>
10000046:	450d                	li	a0,3
10000048:	0536                	slli	a0,a0,0xd
1000004a:	30452073          	csrs	mie,a0
1000004e:	30046073          	csrsi	mstatus,8
10000052:	4502                	lw	a0,0(sp)
10000054:	004c                	addi	a1,sp,4
10000056:	4601                	li	a2,0
10000058:	20d5                	jal	1000013c <main>
1000005a:	a85d                	j	10000110 <exit>

1000005c <_fini>:
1000005c:	8082                	ret

Rozloženie sekcie .vectors:

10000060 <__vector_start>:
10000060:	05a0006f          	j	100000ba <_exc_handler>
10000064:	0540006f          	j	100000b8 <_no_irq_handler>
10000068:	0500006f          	j	100000b8 <_no_irq_handler>
1000006c:	04c0006f          	j	100000b8 <_no_irq_handler>
10000070:	0480006f          	j	100000b8 <_no_irq_handler>
10000074:	0440006f          	j	100000b8 <_no_irq_handler>
10000078:	0400006f          	j	100000b8 <_no_irq_handler>
1000007c:	03c0006f          	j	100000b8 <_no_irq_handler>
10000080:	0380006f          	j	100000b8 <_no_irq_handler>
10000084:	0340006f          	j	100000b8 <_no_irq_handler>
10000088:	0300006f          	j	100000b8 <_no_irq_handler>
1000008c:	02c0006f          	j	100000b8 <_no_irq_handler>
10000090:	0280006f          	j	100000b8 <_no_irq_handler>
10000094:	0240006f          	j	100000b8 <_no_irq_handler>
10000098:	0200006f          	j	100000b8 <_no_irq_handler>
1000009c:	01c0006f          	j	100000b8 <_no_irq_handler>
100000a0:	0180006f          	j	100000b8 <_no_irq_handler>
100000a4:	0180006f          	j	100000bc <_fcer_irq_handler>
100000a8:	02c0006f          	j	100000d4 <_lcer_irq_handler>
100000ac:	00c0006f          	j	100000b8 <_no_irq_handler>
100000b0:	0080006f          	j	100000b8 <_no_irq_handler>
100000b4:	0040006f          	j	100000b8 <_no_irq_handler>

100000b8 <_no_irq_handler>:
100000b8:	a115                	.insn	2, 0xa115

100000ba <_exc_handler>:
100000ba:	a10d                	.insn	2, 0xa10d

100000bc <_fcer_irq_handler>:
100000bc:	34051073          	csrw	mscratch,a0
100000c0:	34259073          	csrw	mcause,a1
100000c4:	fc002573          	csrr	a0,0xfc0
100000c8:	00452583          	lw	a1,4(a0)
100000cc:	00b52223          	sw	a1,4(a0)
100000d0:	0100006f          	j	100000e0 <_cer_irq_finish>

100000d4 <_lcer_irq_handler>:
100000d4:	34051073          	csrw	mscratch,a0
100000d8:	34259073          	csrw	mcause,a1
100000dc:	fc002573          	csrr	a0,0xfc0

100000e0 <_cer_irq_finish>:
100000e0:	00052583          	lw	a1,0(a0)
100000e4:	00b52023          	sw	a1,0(a0)
100000e8:	00300513          	li	a0,3
100000ec:	00d51513          	slli	a0,a0,0xd
100000f0:	34453073          	csrc	mip,a0
100000f4:	34002573          	csrr	a0,mscratch
100000f8:	342025f3          	csrr	a1,mcause
100000fc:	30200073          	mret
10000100:	00000013          	nop
10000104:	00000013          	nop

Rozloženie sekcie .text:

10000108 <_exit>:
10000108:	800007b7          	lui	a5,0x80000
1000010c:	c3c8                	sw	a0,4(a5)
	...

10000110 <exit>:
10000110:	ff010113          	addi	sp,sp,-16
10000114:	00000593          	li	a1,0
10000118:	00812423          	sw	s0,8(sp)
1000011c:	00112623          	sw	ra,12(sp)
10000120:	00050413          	mv	s0,a0
10000124:	5e8010ef          	jal	1000170c <__call_exitprocs>
10000128:	f381a783          	lw	a5,-200(gp) # 10011a10 <__stdio_exit_handler>
1000012c:	00078463          	beqz	a5,10000134 <exit+0x24>
10000130:	000780e7          	jalr	a5 # 80000000 <_sp+0x6ffec2e0>
10000134:	00040513          	mv	a0,s0
10000138:	fd1ff0ef          	jal	10000108 <_exit>

1000013c <main>:
1000013c:	715d                	addi	sp,sp,-80
1000013e:	00011517          	auipc	a0,0x11
10000142:	88250513          	addi	a0,a0,-1918 # 100109c0 <__clzsi2+0x4c>
10000146:	c686                	sw	ra,76(sp)
10000148:	c4a2                	sw	s0,72(sp)
1000014a:	c2a6                	sw	s1,68(sp)
1000014c:	c0ca                	sw	s2,64(sp)
1000014e:	de4e                	sw	s3,60(sp)
10000150:	dc52                	sw	s4,56(sp)
10000152:	da56                	sw	s5,52(sp)
10000154:	d85a                	sw	s6,48(sp)
10000156:	d65e                	sw	s7,44(sp)
10000158:	d462                	sw	s8,40(sp)
1000015a:	d266                	sw	s9,36(sp)
1000015c:	d06a                	sw	s10,32(sp)
1000015e:	ce6e                	sw	s11,28(sp)
10000160:	195000ef          	jal	10000af4 <puts>
10000164:	80002737          	lui	a4,0x80002
10000168:	431c                	lw	a5,0(a4)
1000016a:	8b91                	andi	a5,a5,4
1000016c:	dff5                	beqz	a5,10000168 <main+0x2c>
1000016e:	00011517          	auipc	a0,0x11
10000172:	86e50513          	addi	a0,a0,-1938 # 100109dc <__clzsi2+0x68>
10000176:	17f000ef          	jal	10000af4 <puts>
1000017a:	80002737          	lui	a4,0x80002
1000017e:	0e000693          	li	a3,224
10000182:	87ba                	mv	a5,a4
10000184:	c754                	sw	a3,12(a4)
10000186:	4705                	li	a4,1
10000188:	c3d8                	sw	a4,4(a5)
1000018a:	b8002773          	csrr	a4,mcycleh
1000018e:	b00027f3          	csrr	a5,mcycle
10000192:	b80026f3          	csrr	a3,mcycleh
10000196:	fed71ae3          	bne	a4,a3,1000018a <main+0x4e>
1000019a:	023c35b7          	lui	a1,0x23c3
1000019e:	46058593          	addi	a1,a1,1120 # 23c3460 <__heap_size+0x23c2460>
100001a2:	95be                	add	a1,a1,a5
100001a4:	00f5b7b3          	sltu	a5,a1,a5
100001a8:	00e78633          	add	a2,a5,a4
100001ac:	b80027f3          	csrr	a5,mcycleh
100001b0:	b00026f3          	csrr	a3,mcycle
100001b4:	b8002773          	csrr	a4,mcycleh
100001b8:	fee79ae3          	bne	a5,a4,100001ac <main+0x70>
100001bc:	fec7e8e3          	bltu	a5,a2,100001ac <main+0x70>
100001c0:	00f61463          	bne	a2,a5,100001c8 <main+0x8c>
100001c4:	feb6e4e3          	bltu	a3,a1,100001ac <main+0x70>
100001c8:	800027b7          	lui	a5,0x80002
100001cc:	4384                	lw	s1,0(a5)
100001ce:	8891                	andi	s1,s1,4
100001d0:	fcf5                	bnez	s1,100001cc <main+0x90>
100001d2:	00011517          	auipc	a0,0x11
100001d6:	82e50513          	addi	a0,a0,-2002 # 10010a00 <__clzsi2+0x8c>
100001da:	11b000ef          	jal	10000af4 <puts>
100001de:	100207b7          	lui	a5,0x10020
100001e2:	ffc7a403          	lw	s0,-4(a5) # 1001fffc <_sp+0xc2dc>
100001e6:	00011517          	auipc	a0,0x11
100001ea:	83250513          	addi	a0,a0,-1998 # 10010a18 <__clzsi2+0xa4>
100001ee:	85a2                	mv	a1,s0
100001f0:	27d5                	jal	100009d4 <printf>
100001f2:	8522                	mv	a0,s0
100001f4:	2e11                	jal	10000508 <srand>
100001f6:	b8002773          	csrr	a4,mcycleh
100001fa:	b0002873          	csrr	a6,mcycle
100001fe:	b80027f3          	csrr	a5,mcycleh
10000202:	fef71ae3          	bne	a4,a5,100001f6 <main+0xba>
10000206:	4405                	li	s0,1
10000208:	00020bb7          	lui	s7,0x20
1000020c:	80002a37          	lui	s4,0x80002
10000210:	80002b37          	lui	s6,0x80002
10000214:	800029b7          	lui	s3,0x80002
10000218:	8cc2                	mv	s9,a6
1000021a:	8aa2                	mv	s5,s0
1000021c:	1bfd                	addi	s7,s7,-1 # 1ffff <__heap_size+0x1efff>
1000021e:	0a31                	addi	s4,s4,12 # 8000200c <_sp+0x6ffee2ec>
10000220:	0b21                	addi	s6,s6,8 # 80002008 <_sp+0x6ffee2e8>
10000222:	0991                	addi	s3,s3,4 # 80002004 <_sp+0x6ffee2e4>
10000224:	c602                	sw	zero,12(sp)
10000226:	4901                	li	s2,0
10000228:	2cc5                	jal	10000518 <rand>
1000022a:	01757d33          	and	s10,a0,s7
1000022e:	24ed                	jal	10000518 <rand>
10000230:	07f57d93          	andi	s11,a0,127
10000234:	24d5                	jal	10000518 <rand>
10000236:	01f57c13          	andi	s8,a0,31
1000023a:	86ee                	mv	a3,s11
1000023c:	866a                	mv	a2,s10
1000023e:	8762                	mv	a4,s8
10000240:	85a2                	mv	a1,s0
10000242:	00010517          	auipc	a0,0x10
10000246:	7ea50513          	addi	a0,a0,2026 # 10010a2c <__clzsi2+0xb8>
1000024a:	2769                	jal	100009d4 <printf>
1000024c:	0d32                	slli	s10,s10,0xc
1000024e:	0d96                	slli	s11,s11,0x5
10000250:	01bd6d33          	or	s10,s10,s11
10000254:	0c000793          	li	a5,192
10000258:	00fa2023          	sw	a5,0(s4)
1000025c:	018d6d33          	or	s10,s10,s8
10000260:	01ab2023          	sw	s10,0(s6)
10000264:	0159a023          	sw	s5,0(s3)
10000268:	b8002773          	csrr	a4,mcycleh
1000026c:	b0002d73          	csrr	s10,mcycle
10000270:	b80027f3          	csrr	a5,mcycleh
10000274:	fef71ae3          	bne	a4,a5,10000268 <main+0x12c>
10000278:	419d0db3          	sub	s11,s10,s9
1000027c:	94ee                	add	s1,s1,s11
1000027e:	0284dcb3          	divu	s9,s1,s0
10000282:	1b4e85b7          	lui	a1,0x1b4e8
10000286:	1b558593          	addi	a1,a1,437 # 1b4e81b5 <_sp+0xb4d4495>
1000028a:	0bb97933          	maxu	s2,s2,s11
1000028e:	00010517          	auipc	a0,0x10
10000292:	7ea50513          	addi	a0,a0,2026 # 10010a78 <__clzsi2+0x104>
10000296:	02bcb633          	mulhu	a2,s9,a1
1000029a:	02b936b3          	mulhu	a3,s2,a1
1000029e:	820d                	srli	a2,a2,0x3
100002a0:	02bdb5b3          	mulhu	a1,s11,a1
100002a4:	828d                	srli	a3,a3,0x3
100002a6:	818d                	srli	a1,a1,0x3
100002a8:	2735                	jal	100009d4 <printf>
100002aa:	039dddb3          	divu	s11,s11,s9
100002ae:	4789                	li	a5,2
100002b0:	03b7e863          	bltu	a5,s11,100002e0 <main+0x1a4>
100002b4:	800026b7          	lui	a3,0x80002
100002b8:	429c                	lw	a5,0(a3)
100002ba:	0307f713          	andi	a4,a5,48
100002be:	ff6d                	bnez	a4,100002b8 <main+0x17c>
100002c0:	8b91                	andi	a5,a5,4
100002c2:	cf81                	beqz	a5,100002da <main+0x19e>
100002c4:	0e000793          	li	a5,224
100002c8:	00fa2023          	sw	a5,0(s4)
100002cc:	0159a023          	sw	s5,0(s3)
100002d0:	80002737          	lui	a4,0x80002
100002d4:	431c                	lw	a5,0(a4)
100002d6:	8b91                	andi	a5,a5,4
100002d8:	fff5                	bnez	a5,100002d4 <main+0x198>
100002da:	0405                	addi	s0,s0,1
100002dc:	8cea                	mv	s9,s10
100002de:	b7a9                	j	10000228 <main+0xec>
100002e0:	47b2                	lw	a5,12(sp)
100002e2:	00010517          	auipc	a0,0x10
100002e6:	7ca50513          	addi	a0,a0,1994 # 10010aac <__clzsi2+0x138>
100002ea:	0785                	addi	a5,a5,1
100002ec:	85be                	mv	a1,a5
100002ee:	c63e                	sw	a5,12(sp)
100002f0:	25d5                	jal	100009d4 <printf>
100002f2:	b7c9                	j	100002b4 <main+0x178>

100002f4 <register_fini>:
100002f4:	00000793          	li	a5,0
100002f8:	00078863          	beqz	a5,10000308 <register_fini+0x14>
100002fc:	10001537          	lui	a0,0x10001
10000300:	4b450513          	addi	a0,a0,1204 # 100014b4 <__libc_fini_array>
10000304:	1f00006f          	j	100004f4 <atexit>
10000308:	00008067          	ret

1000030c <delay>:
1000030c:	b8002773          	csrr	a4,mcycleh
10000310:	b00027f3          	csrr	a5,mcycle
10000314:	b80026f3          	csrr	a3,mcycleh
10000318:	fed71ae3          	bne	a4,a3,1000030c <delay>
1000031c:	953e                	add	a0,a0,a5
1000031e:	00f537b3          	sltu	a5,a0,a5
10000322:	972e                	add	a4,a4,a1
10000324:	00e78633          	add	a2,a5,a4
10000328:	b80027f3          	csrr	a5,mcycleh
1000032c:	b00026f3          	csrr	a3,mcycle
10000330:	b8002773          	csrr	a4,mcycleh
10000334:	fee79ae3          	bne	a5,a4,10000328 <delay+0x1c>
10000338:	fec7e8e3          	bltu	a5,a2,10000328 <delay+0x1c>
1000033c:	00f61463          	bne	a2,a5,10000344 <delay+0x38>
10000340:	fea6e4e3          	bltu	a3,a0,10000328 <delay+0x1c>
10000344:	8082                	ret

10000346 <unimplemented_syscall>:
10000346:	00010797          	auipc	a5,0x10
1000034a:	78278793          	addi	a5,a5,1922 # 10010ac8 <__clzsi2+0x154>
1000034e:	05500713          	li	a4,85
10000352:	00010617          	auipc	a2,0x10
10000356:	79860613          	addi	a2,a2,1944 # 10010aea <__clzsi2+0x176>
1000035a:	800006b7          	lui	a3,0x80000
1000035e:	0785                	addi	a5,a5,1
10000360:	c298                	sw	a4,0(a3)
10000362:	8398                	lbu	a4,0(a5)
10000364:	fec79de3          	bne	a5,a2,1000035e <unimplemented_syscall+0x18>
10000368:	8082                	ret

1000036a <nanosleep>:
1000036a:	05800793          	li	a5,88
1000036e:	f2f1ae23          	sw	a5,-196(gp) # 10011a14 <errno>
10000372:	557d                	li	a0,-1
10000374:	8082                	ret

10000376 <_access>:
10000376:	05800793          	li	a5,88
1000037a:	f2f1ae23          	sw	a5,-196(gp) # 10011a14 <errno>
1000037e:	557d                	li	a0,-1
10000380:	8082                	ret

10000382 <_chdir>:
10000382:	05800793          	li	a5,88
10000386:	f2f1ae23          	sw	a5,-196(gp) # 10011a14 <errno>
1000038a:	557d                	li	a0,-1
1000038c:	8082                	ret

1000038e <_chmod>:
1000038e:	05800793          	li	a5,88
10000392:	f2f1ae23          	sw	a5,-196(gp) # 10011a14 <errno>
10000396:	557d                	li	a0,-1
10000398:	8082                	ret

1000039a <_chown>:
1000039a:	05800793          	li	a5,88
1000039e:	f2f1ae23          	sw	a5,-196(gp) # 10011a14 <errno>
100003a2:	557d                	li	a0,-1
100003a4:	8082                	ret

100003a6 <_close>:
100003a6:	557d                	li	a0,-1
100003a8:	8082                	ret

100003aa <_execve>:
100003aa:	47b1                	li	a5,12
100003ac:	f2f1ae23          	sw	a5,-196(gp) # 10011a14 <errno>
100003b0:	557d                	li	a0,-1
100003b2:	8082                	ret

100003b4 <_faccessat>:
100003b4:	05800793          	li	a5,88
100003b8:	f2f1ae23          	sw	a5,-196(gp) # 10011a14 <errno>
100003bc:	557d                	li	a0,-1
100003be:	8082                	ret

100003c0 <_fork>:
100003c0:	47ad                	li	a5,11
100003c2:	f2f1ae23          	sw	a5,-196(gp) # 10011a14 <errno>
100003c6:	557d                	li	a0,-1
100003c8:	8082                	ret

100003ca <_fstat>:
100003ca:	6789                	lui	a5,0x2
100003cc:	c1dc                	sw	a5,4(a1)
100003ce:	4501                	li	a0,0
100003d0:	8082                	ret

100003d2 <_fstatat>:
100003d2:	05800793          	li	a5,88
100003d6:	f2f1ae23          	sw	a5,-196(gp) # 10011a14 <errno>
100003da:	557d                	li	a0,-1
100003dc:	8082                	ret

100003de <_ftime>:
100003de:	05800793          	li	a5,88
100003e2:	f2f1ae23          	sw	a5,-196(gp) # 10011a14 <errno>
100003e6:	557d                	li	a0,-1
100003e8:	8082                	ret

100003ea <_getcwd>:
100003ea:	fa800793          	li	a5,-88
100003ee:	f2f1ae23          	sw	a5,-196(gp) # 10011a14 <errno>
100003f2:	4501                	li	a0,0
100003f4:	8082                	ret

100003f6 <_getpid>:
100003f6:	4505                	li	a0,1
100003f8:	8082                	ret

100003fa <_gettimeofday>:
100003fa:	fa800793          	li	a5,-88
100003fe:	f2f1ae23          	sw	a5,-196(gp) # 10011a14 <errno>
10000402:	557d                	li	a0,-1
10000404:	8082                	ret

10000406 <_isatty>:
10000406:	157d                	addi	a0,a0,-1
10000408:	00153513          	seqz	a0,a0
1000040c:	8082                	ret

1000040e <_kill>:
1000040e:	47d9                	li	a5,22
10000410:	f2f1ae23          	sw	a5,-196(gp) # 10011a14 <errno>
10000414:	557d                	li	a0,-1
10000416:	8082                	ret

10000418 <_link>:
10000418:	47fd                	li	a5,31
1000041a:	f2f1ae23          	sw	a5,-196(gp) # 10011a14 <errno>
1000041e:	557d                	li	a0,-1
10000420:	8082                	ret

10000422 <_lseek>:
10000422:	4501                	li	a0,0
10000424:	8082                	ret

10000426 <_lstat>:
10000426:	05800793          	li	a5,88
1000042a:	f2f1ae23          	sw	a5,-196(gp) # 10011a14 <errno>
1000042e:	557d                	li	a0,-1
10000430:	8082                	ret

10000432 <_open>:
10000432:	557d                	li	a0,-1
10000434:	8082                	ret

10000436 <_openat>:
10000436:	05800793          	li	a5,88
1000043a:	f2f1ae23          	sw	a5,-196(gp) # 10011a14 <errno>
1000043e:	557d                	li	a0,-1
10000440:	8082                	ret

10000442 <_read>:
10000442:	4501                	li	a0,0
10000444:	8082                	ret

10000446 <_stat>:
10000446:	6789                	lui	a5,0x2
10000448:	c1dc                	sw	a5,4(a1)
1000044a:	4501                	li	a0,0
1000044c:	8082                	ret

1000044e <_sysconf>:
1000044e:	557d                	li	a0,-1
10000450:	8082                	ret

10000452 <_times>:
10000452:	557d                	li	a0,-1
10000454:	8082                	ret

10000456 <_unlink>:
10000456:	4789                	li	a5,2
10000458:	f2f1ae23          	sw	a5,-196(gp) # 10011a14 <errno>
1000045c:	557d                	li	a0,-1
1000045e:	8082                	ret

10000460 <_utime>:
10000460:	05800793          	li	a5,88
10000464:	f2f1ae23          	sw	a5,-196(gp) # 10011a14 <errno>
10000468:	557d                	li	a0,-1
1000046a:	8082                	ret

1000046c <_wait>:
1000046c:	47a9                	li	a5,10
1000046e:	f2f1ae23          	sw	a5,-196(gp) # 10011a14 <errno>
10000472:	557d                	li	a0,-1
10000474:	8082                	ret

10000476 <_write>:
10000476:	4785                	li	a5,1
10000478:	00f51f63          	bne	a0,a5,10000496 <_write+0x20>
1000047c:	00c58733          	add	a4,a1,a2
10000480:	00e58963          	beq	a1,a4,10000492 <_write+0x1c>
10000484:	800006b7          	lui	a3,0x80000
10000488:	819c                	lbu	a5,0(a1)
1000048a:	0585                	addi	a1,a1,1
1000048c:	c29c                	sw	a5,0(a3)
1000048e:	feb71de3          	bne	a4,a1,10000488 <_write+0x12>
10000492:	8532                	mv	a0,a2
10000494:	8082                	ret
10000496:	05800793          	li	a5,88
1000049a:	f2f1ae23          	sw	a5,-196(gp) # 10011a14 <errno>
1000049e:	557d                	li	a0,-1
100004a0:	8082                	ret

100004a2 <_brk>:
100004a2:	f2a1a423          	sw	a0,-216(gp) # 10011a00 <brk>
100004a6:	4501                	li	a0,0
100004a8:	8082                	ret

100004aa <_sbrk>:
100004aa:	24418713          	addi	a4,gp,580 # 10011d1c <__BSS_END__>
100004ae:	00013797          	auipc	a5,0x13
100004b2:	86e78793          	addi	a5,a5,-1938 # 10012d1c <__heap_end>
100004b6:	02f70163          	beq	a4,a5,100004d8 <_sbrk+0x2e>
100004ba:	f281a683          	lw	a3,-216(gp) # 10011a00 <brk>
100004be:	00a68733          	add	a4,a3,a0
100004c2:	00f76663          	bltu	a4,a5,100004ce <_sbrk+0x24>
100004c6:	f2f1a423          	sw	a5,-216(gp) # 10011a00 <brk>
100004ca:	8536                	mv	a0,a3
100004cc:	8082                	ret
100004ce:	972a                	add	a4,a4,a0
100004d0:	f2e1a423          	sw	a4,-216(gp) # 10011a00 <brk>
100004d4:	8536                	mv	a0,a3
100004d6:	8082                	ret
100004d8:	4681                	li	a3,0
100004da:	bfc5                	j	100004ca <_sbrk+0x20>

100004dc <abort>:
100004dc:	ff010113          	addi	sp,sp,-16
100004e0:	00600513          	li	a0,6
100004e4:	00112623          	sw	ra,12(sp)
100004e8:	1d9000ef          	jal	10000ec0 <raise>
100004ec:	00100513          	li	a0,1
100004f0:	c19ff0ef          	jal	10000108 <_exit>

100004f4 <atexit>:
100004f4:	00050593          	mv	a1,a0
100004f8:	00000693          	li	a3,0
100004fc:	00000613          	li	a2,0
10000500:	00000513          	li	a0,0
10000504:	1740106f          	j	10001678 <__register_exitproc>

10000508 <srand>:
10000508:	f2c1a783          	lw	a5,-212(gp) # 10011a04 <_impure_ptr>
1000050c:	08a7ac23          	sw	a0,152(a5)
10000510:	0807ae23          	sw	zero,156(a5)
10000514:	00008067          	ret

10000518 <rand>:
10000518:	f2c1a803          	lw	a6,-212(gp) # 10011a04 <_impure_ptr>
1000051c:	4c958637          	lui	a2,0x4c958
10000520:	5851f5b7          	lui	a1,0x5851f
10000524:	09882683          	lw	a3,152(a6)
10000528:	09c82703          	lw	a4,156(a6)
1000052c:	f2d60613          	addi	a2,a2,-211 # 4c957f2d <_sp+0x3c94420d>
10000530:	42d58593          	addi	a1,a1,1069 # 5851f42d <_sp+0x4850b70d>
10000534:	02b685b3          	mul	a1,a3,a1
10000538:	02c687b3          	mul	a5,a3,a2
1000053c:	02c70733          	mul	a4,a4,a2
10000540:	02c6b6b3          	mulhu	a3,a3,a2
10000544:	00b70733          	add	a4,a4,a1
10000548:	00178613          	addi	a2,a5,1
1000054c:	00f637b3          	sltu	a5,a2,a5
10000550:	08c82c23          	sw	a2,152(a6)
10000554:	00d70733          	add	a4,a4,a3
10000558:	00e787b3          	add	a5,a5,a4
1000055c:	00179513          	slli	a0,a5,0x1
10000560:	08f82e23          	sw	a5,156(a6)
10000564:	00155513          	srli	a0,a0,0x1
10000568:	00008067          	ret

1000056c <__fp_lock>:
1000056c:	00000513          	li	a0,0
10000570:	00008067          	ret

10000574 <stdio_exit_handler>:
10000574:	10011637          	lui	a2,0x10011
10000578:	100055b7          	lui	a1,0x10005
1000057c:	10011537          	lui	a0,0x10011
10000580:	2d860613          	addi	a2,a2,728 # 100112d8 <__sglue>
10000584:	67458593          	addi	a1,a1,1652 # 10005674 <_fclose_r>
10000588:	2e850513          	addi	a0,a0,744 # 100112e8 <_impure_data>
1000058c:	34c0006f          	j	100008d8 <_fwalk_sglue>

10000590 <cleanup_stdio>:
10000590:	00452583          	lw	a1,4(a0)
10000594:	ff010113          	addi	sp,sp,-16
10000598:	00812423          	sw	s0,8(sp)
1000059c:	00112623          	sw	ra,12(sp)
100005a0:	f5418793          	addi	a5,gp,-172 # 10011a2c <__sf>
100005a4:	00050413          	mv	s0,a0
100005a8:	00f58463          	beq	a1,a5,100005b0 <cleanup_stdio+0x20>
100005ac:	0c8050ef          	jal	10005674 <_fclose_r>
100005b0:	00842583          	lw	a1,8(s0)
100005b4:	fbc18793          	addi	a5,gp,-68 # 10011a94 <__sf+0x68>
100005b8:	00f58663          	beq	a1,a5,100005c4 <cleanup_stdio+0x34>
100005bc:	00040513          	mv	a0,s0
100005c0:	0b4050ef          	jal	10005674 <_fclose_r>
100005c4:	00c42583          	lw	a1,12(s0)
100005c8:	02418793          	addi	a5,gp,36 # 10011afc <__global_pointer$+0x24>
100005cc:	00f58c63          	beq	a1,a5,100005e4 <cleanup_stdio+0x54>
100005d0:	00040513          	mv	a0,s0
100005d4:	00812403          	lw	s0,8(sp)
100005d8:	00c12083          	lw	ra,12(sp)
100005dc:	01010113          	addi	sp,sp,16
100005e0:	0940506f          	j	10005674 <_fclose_r>
100005e4:	00c12083          	lw	ra,12(sp)
100005e8:	00812403          	lw	s0,8(sp)
100005ec:	01010113          	addi	sp,sp,16
100005f0:	00008067          	ret

100005f4 <__fp_unlock>:
100005f4:	00000513          	li	a0,0
100005f8:	00008067          	ret

100005fc <global_stdio_init.part.0>:
100005fc:	fe010113          	addi	sp,sp,-32
10000600:	100007b7          	lui	a5,0x10000
10000604:	00812c23          	sw	s0,24(sp)
10000608:	57478793          	addi	a5,a5,1396 # 10000574 <stdio_exit_handler>
1000060c:	f5418413          	addi	s0,gp,-172 # 10011a2c <__sf>
10000610:	00112e23          	sw	ra,28(sp)
10000614:	00912a23          	sw	s1,20(sp)
10000618:	01212823          	sw	s2,16(sp)
1000061c:	01312623          	sw	s3,12(sp)
10000620:	01412423          	sw	s4,8(sp)
10000624:	f2f1ac23          	sw	a5,-200(gp) # 10011a10 <__stdio_exit_handler>
10000628:	00800613          	li	a2,8
1000062c:	00400793          	li	a5,4
10000630:	00000593          	li	a1,0
10000634:	fb018513          	addi	a0,gp,-80 # 10011a88 <__sf+0x5c>
10000638:	00f42623          	sw	a5,12(s0)
1000063c:	00042023          	sw	zero,0(s0)
10000640:	00042223          	sw	zero,4(s0)
10000644:	00042423          	sw	zero,8(s0)
10000648:	06042223          	sw	zero,100(s0)
1000064c:	00042823          	sw	zero,16(s0)
10000650:	00042a23          	sw	zero,20(s0)
10000654:	00042c23          	sw	zero,24(s0)
10000658:	6b9000ef          	jal	10001510 <memset>
1000065c:	10001a37          	lui	s4,0x10001
10000660:	100019b7          	lui	s3,0x10001
10000664:	10001937          	lui	s2,0x10001
10000668:	100014b7          	lui	s1,0x10001
1000066c:	000107b7          	lui	a5,0x10
10000670:	b00a0a13          	addi	s4,s4,-1280 # 10000b00 <__sread>
10000674:	b6498993          	addi	s3,s3,-1180 # 10000b64 <__swrite>
10000678:	bec90913          	addi	s2,s2,-1044 # 10000bec <__sseek>
1000067c:	c5048493          	addi	s1,s1,-944 # 10000c50 <__sclose>
10000680:	00978793          	addi	a5,a5,9 # 10009 <__heap_size+0xf009>
10000684:	00800613          	li	a2,8
10000688:	00000593          	li	a1,0
1000068c:	01818513          	addi	a0,gp,24 # 10011af0 <__global_pointer$+0x18>
10000690:	06f42a23          	sw	a5,116(s0)
10000694:	03442023          	sw	s4,32(s0)
10000698:	03342223          	sw	s3,36(s0)
1000069c:	03242423          	sw	s2,40(s0)
100006a0:	02942623          	sw	s1,44(s0)
100006a4:	00842e23          	sw	s0,28(s0)
100006a8:	06042423          	sw	zero,104(s0)
100006ac:	06042623          	sw	zero,108(s0)
100006b0:	06042823          	sw	zero,112(s0)
100006b4:	0c042623          	sw	zero,204(s0)
100006b8:	06042c23          	sw	zero,120(s0)
100006bc:	06042e23          	sw	zero,124(s0)
100006c0:	08042023          	sw	zero,128(s0)
100006c4:	64d000ef          	jal	10001510 <memset>
100006c8:	000207b7          	lui	a5,0x20
100006cc:	01278793          	addi	a5,a5,18 # 20012 <__heap_size+0x1f012>
100006d0:	fbc18713          	addi	a4,gp,-68 # 10011a94 <__sf+0x68>
100006d4:	08018513          	addi	a0,gp,128 # 10011b58 <__global_pointer$+0x80>
100006d8:	00800613          	li	a2,8
100006dc:	00000593          	li	a1,0
100006e0:	09442423          	sw	s4,136(s0)
100006e4:	09342623          	sw	s3,140(s0)
100006e8:	09242823          	sw	s2,144(s0)
100006ec:	08942a23          	sw	s1,148(s0)
100006f0:	0cf42e23          	sw	a5,220(s0)
100006f4:	0c042823          	sw	zero,208(s0)
100006f8:	0c042a23          	sw	zero,212(s0)
100006fc:	0c042c23          	sw	zero,216(s0)
10000700:	12042a23          	sw	zero,308(s0)
10000704:	0e042023          	sw	zero,224(s0)
10000708:	0e042223          	sw	zero,228(s0)
1000070c:	0e042423          	sw	zero,232(s0)
10000710:	08e42223          	sw	a4,132(s0)
10000714:	5fd000ef          	jal	10001510 <memset>
10000718:	02418793          	addi	a5,gp,36 # 10011afc <__global_pointer$+0x24>
1000071c:	0f442823          	sw	s4,240(s0)
10000720:	0f342a23          	sw	s3,244(s0)
10000724:	0f242c23          	sw	s2,248(s0)
10000728:	0e942e23          	sw	s1,252(s0)
1000072c:	01c12083          	lw	ra,28(sp)
10000730:	0ef42623          	sw	a5,236(s0)
10000734:	01812403          	lw	s0,24(sp)
10000738:	01412483          	lw	s1,20(sp)
1000073c:	01012903          	lw	s2,16(sp)
10000740:	00c12983          	lw	s3,12(sp)
10000744:	00812a03          	lw	s4,8(sp)
10000748:	02010113          	addi	sp,sp,32
1000074c:	00008067          	ret

10000750 <__sfp>:
10000750:	f381a783          	lw	a5,-200(gp) # 10011a10 <__stdio_exit_handler>
10000754:	fe010113          	addi	sp,sp,-32
10000758:	00912a23          	sw	s1,20(sp)
1000075c:	00112e23          	sw	ra,28(sp)
10000760:	00812c23          	sw	s0,24(sp)
10000764:	00050493          	mv	s1,a0
10000768:	0e078e63          	beqz	a5,10000864 <__sfp+0x114>
1000076c:	10011837          	lui	a6,0x10011
10000770:	2d880813          	addi	a6,a6,728 # 100112d8 <__sglue>
10000774:	fff00693          	li	a3,-1
10000778:	00482783          	lw	a5,4(a6)
1000077c:	fff78793          	addi	a5,a5,-1
10000780:	0807c063          	bltz	a5,10000800 <__sfp+0xb0>
10000784:	00882403          	lw	s0,8(a6)
10000788:	00c0006f          	j	10000794 <__sfp+0x44>
1000078c:	06840413          	addi	s0,s0,104
10000790:	06d78863          	beq	a5,a3,10000800 <__sfp+0xb0>
10000794:	00c41703          	lh	a4,12(s0)
10000798:	fff78793          	addi	a5,a5,-1
1000079c:	fe0718e3          	bnez	a4,1000078c <__sfp+0x3c>
100007a0:	ffff07b7          	lui	a5,0xffff0
100007a4:	00178793          	addi	a5,a5,1 # ffff0001 <_sp+0xeffdc2e1>
100007a8:	00f42623          	sw	a5,12(s0)
100007ac:	06042223          	sw	zero,100(s0)
100007b0:	00042023          	sw	zero,0(s0)
100007b4:	00042423          	sw	zero,8(s0)
100007b8:	00042223          	sw	zero,4(s0)
100007bc:	00042823          	sw	zero,16(s0)
100007c0:	00042a23          	sw	zero,20(s0)
100007c4:	00042c23          	sw	zero,24(s0)
100007c8:	00800613          	li	a2,8
100007cc:	00000593          	li	a1,0
100007d0:	05c40513          	addi	a0,s0,92
100007d4:	53d000ef          	jal	10001510 <memset>
100007d8:	02042823          	sw	zero,48(s0)
100007dc:	02042a23          	sw	zero,52(s0)
100007e0:	04042223          	sw	zero,68(s0)
100007e4:	04042423          	sw	zero,72(s0)
100007e8:	01c12083          	lw	ra,28(sp)
100007ec:	00040513          	mv	a0,s0
100007f0:	01812403          	lw	s0,24(sp)
100007f4:	01412483          	lw	s1,20(sp)
100007f8:	02010113          	addi	sp,sp,32
100007fc:	00008067          	ret
10000800:	00082403          	lw	s0,0(a6)
10000804:	00040663          	beqz	s0,10000810 <__sfp+0xc0>
10000808:	00040813          	mv	a6,s0
1000080c:	f6dff06f          	j	10000778 <__sfp+0x28>
10000810:	1ac00593          	li	a1,428
10000814:	00048513          	mv	a0,s1
10000818:	01012623          	sw	a6,12(sp)
1000081c:	44c010ef          	jal	10001c68 <_malloc_r>
10000820:	00c12803          	lw	a6,12(sp)
10000824:	00050413          	mv	s0,a0
10000828:	04050263          	beqz	a0,1000086c <__sfp+0x11c>
1000082c:	00400793          	li	a5,4
10000830:	00f52223          	sw	a5,4(a0)
10000834:	00c50513          	addi	a0,a0,12
10000838:	00042023          	sw	zero,0(s0)
1000083c:	00a42423          	sw	a0,8(s0)
10000840:	1a000613          	li	a2,416
10000844:	00000593          	li	a1,0
10000848:	01012623          	sw	a6,12(sp)
1000084c:	4c5000ef          	jal	10001510 <memset>
10000850:	00c12803          	lw	a6,12(sp)
10000854:	fff00693          	li	a3,-1
10000858:	00882023          	sw	s0,0(a6)
1000085c:	00040813          	mv	a6,s0
10000860:	f19ff06f          	j	10000778 <__sfp+0x28>
10000864:	d99ff0ef          	jal	100005fc <global_stdio_init.part.0>
10000868:	f05ff06f          	j	1000076c <__sfp+0x1c>
1000086c:	00082023          	sw	zero,0(a6)
10000870:	00c00793          	li	a5,12
10000874:	00f4a023          	sw	a5,0(s1)
10000878:	f71ff06f          	j	100007e8 <__sfp+0x98>

1000087c <__sinit>:
1000087c:	03452783          	lw	a5,52(a0)
10000880:	00078463          	beqz	a5,10000888 <__sinit+0xc>
10000884:	00008067          	ret
10000888:	100007b7          	lui	a5,0x10000
1000088c:	f381a703          	lw	a4,-200(gp) # 10011a10 <__stdio_exit_handler>
10000890:	59078793          	addi	a5,a5,1424 # 10000590 <cleanup_stdio>
10000894:	02f52a23          	sw	a5,52(a0)
10000898:	fe0716e3          	bnez	a4,10000884 <__sinit+0x8>
1000089c:	d61ff06f          	j	100005fc <global_stdio_init.part.0>

100008a0 <__sfp_lock_acquire>:
100008a0:	00008067          	ret

100008a4 <__sfp_lock_release>:
100008a4:	00008067          	ret

100008a8 <__fp_lock_all>:
100008a8:	10011637          	lui	a2,0x10011
100008ac:	100005b7          	lui	a1,0x10000
100008b0:	2d860613          	addi	a2,a2,728 # 100112d8 <__sglue>
100008b4:	56c58593          	addi	a1,a1,1388 # 1000056c <__fp_lock>
100008b8:	00000513          	li	a0,0
100008bc:	01c0006f          	j	100008d8 <_fwalk_sglue>

100008c0 <__fp_unlock_all>:
100008c0:	10011637          	lui	a2,0x10011
100008c4:	100005b7          	lui	a1,0x10000
100008c8:	2d860613          	addi	a2,a2,728 # 100112d8 <__sglue>
100008cc:	5f458593          	addi	a1,a1,1524 # 100005f4 <__fp_unlock>
100008d0:	00000513          	li	a0,0
100008d4:	0040006f          	j	100008d8 <_fwalk_sglue>

100008d8 <_fwalk_sglue>:
100008d8:	fd010113          	addi	sp,sp,-48
100008dc:	03212023          	sw	s2,32(sp)
100008e0:	01312e23          	sw	s3,28(sp)
100008e4:	01412c23          	sw	s4,24(sp)
100008e8:	01512a23          	sw	s5,20(sp)
100008ec:	01612823          	sw	s6,16(sp)
100008f0:	01712623          	sw	s7,12(sp)
100008f4:	02112623          	sw	ra,44(sp)
100008f8:	02812423          	sw	s0,40(sp)
100008fc:	02912223          	sw	s1,36(sp)
10000900:	00060a93          	mv	s5,a2
10000904:	00050b13          	mv	s6,a0
10000908:	00058b93          	mv	s7,a1
1000090c:	00000a13          	li	s4,0
10000910:	00100993          	li	s3,1
10000914:	fff00913          	li	s2,-1
10000918:	004aa483          	lw	s1,4(s5)
1000091c:	fff48493          	addi	s1,s1,-1
10000920:	0204ca63          	bltz	s1,10000954 <_fwalk_sglue+0x7c>
10000924:	008aa403          	lw	s0,8(s5)
10000928:	00c45783          	lhu	a5,12(s0)
1000092c:	00f9fe63          	bgeu	s3,a5,10000948 <_fwalk_sglue+0x70>
10000930:	00e41783          	lh	a5,14(s0)
10000934:	00040593          	mv	a1,s0
10000938:	000b0513          	mv	a0,s6
1000093c:	01278663          	beq	a5,s2,10000948 <_fwalk_sglue+0x70>
10000940:	000b80e7          	jalr	s7
10000944:	00aa6a33          	or	s4,s4,a0
10000948:	fff48493          	addi	s1,s1,-1
1000094c:	06840413          	addi	s0,s0,104
10000950:	fd249ce3          	bne	s1,s2,10000928 <_fwalk_sglue+0x50>
10000954:	000aaa83          	lw	s5,0(s5)
10000958:	fc0a90e3          	bnez	s5,10000918 <_fwalk_sglue+0x40>
1000095c:	02c12083          	lw	ra,44(sp)
10000960:	02812403          	lw	s0,40(sp)
10000964:	02412483          	lw	s1,36(sp)
10000968:	02012903          	lw	s2,32(sp)
1000096c:	01c12983          	lw	s3,28(sp)
10000970:	01412a83          	lw	s5,20(sp)
10000974:	01012b03          	lw	s6,16(sp)
10000978:	00c12b83          	lw	s7,12(sp)
1000097c:	000a0513          	mv	a0,s4
10000980:	01812a03          	lw	s4,24(sp)
10000984:	03010113          	addi	sp,sp,48
10000988:	00008067          	ret

1000098c <_printf_r>:
1000098c:	fc010113          	addi	sp,sp,-64
10000990:	00058e13          	mv	t3,a1
10000994:	00852583          	lw	a1,8(a0)
10000998:	02810313          	addi	t1,sp,40
1000099c:	02c12423          	sw	a2,40(sp)
100009a0:	02d12623          	sw	a3,44(sp)
100009a4:	000e0613          	mv	a2,t3
100009a8:	00030693          	mv	a3,t1
100009ac:	00112e23          	sw	ra,28(sp)
100009b0:	02e12823          	sw	a4,48(sp)
100009b4:	02f12a23          	sw	a5,52(sp)
100009b8:	03012c23          	sw	a6,56(sp)
100009bc:	03112e23          	sw	a7,60(sp)
100009c0:	00612623          	sw	t1,12(sp)
100009c4:	329010ef          	jal	100024ec <_vfprintf_r>
100009c8:	01c12083          	lw	ra,28(sp)
100009cc:	04010113          	addi	sp,sp,64
100009d0:	00008067          	ret

100009d4 <printf>:
100009d4:	f2c1a303          	lw	t1,-212(gp) # 10011a04 <_impure_ptr>
100009d8:	fc010113          	addi	sp,sp,-64
100009dc:	02c12423          	sw	a2,40(sp)
100009e0:	02d12623          	sw	a3,44(sp)
100009e4:	02b12223          	sw	a1,36(sp)
100009e8:	02e12823          	sw	a4,48(sp)
100009ec:	02f12a23          	sw	a5,52(sp)
100009f0:	03012c23          	sw	a6,56(sp)
100009f4:	03112e23          	sw	a7,60(sp)
100009f8:	00832583          	lw	a1,8(t1)
100009fc:	02410693          	addi	a3,sp,36
10000a00:	00050613          	mv	a2,a0
10000a04:	00030513          	mv	a0,t1
10000a08:	00112e23          	sw	ra,28(sp)
10000a0c:	00d12623          	sw	a3,12(sp)
10000a10:	2dd010ef          	jal	100024ec <_vfprintf_r>
10000a14:	01c12083          	lw	ra,28(sp)
10000a18:	04010113          	addi	sp,sp,64
10000a1c:	00008067          	ret

10000a20 <_puts_r>:
10000a20:	fc010113          	addi	sp,sp,-64
10000a24:	02812c23          	sw	s0,56(sp)
10000a28:	00050413          	mv	s0,a0
10000a2c:	00058513          	mv	a0,a1
10000a30:	00b12623          	sw	a1,12(sp)
10000a34:	02112e23          	sw	ra,60(sp)
10000a38:	3b5000ef          	jal	100015ec <strlen>
10000a3c:	00c12583          	lw	a1,12(sp)
10000a40:	100117b7          	lui	a5,0x10011
10000a44:	03442703          	lw	a4,52(s0)
10000a48:	00150893          	addi	a7,a0,1
10000a4c:	aec78793          	addi	a5,a5,-1300 # 10010aec <__clzsi2+0x178>
10000a50:	00100813          	li	a6,1
10000a54:	02010613          	addi	a2,sp,32
10000a58:	00200693          	li	a3,2
10000a5c:	02b12023          	sw	a1,32(sp)
10000a60:	02a12223          	sw	a0,36(sp)
10000a64:	01112e23          	sw	a7,28(sp)
10000a68:	02f12423          	sw	a5,40(sp)
10000a6c:	03012623          	sw	a6,44(sp)
10000a70:	00c12a23          	sw	a2,20(sp)
10000a74:	00d12c23          	sw	a3,24(sp)
10000a78:	00842583          	lw	a1,8(s0)
10000a7c:	04070e63          	beqz	a4,10000ad8 <_puts_r+0xb8>
10000a80:	00c59703          	lh	a4,12(a1)
10000a84:	0645a783          	lw	a5,100(a1)
10000a88:	00002637          	lui	a2,0x2
10000a8c:	01271693          	slli	a3,a4,0x12
10000a90:	0006ce63          	bltz	a3,10000aac <_puts_r+0x8c>
10000a94:	ffffe6b7          	lui	a3,0xffffe
10000a98:	fff68693          	addi	a3,a3,-1 # ffffdfff <_sp+0xeffea2df>
10000a9c:	00c76733          	or	a4,a4,a2
10000aa0:	00d7f7b3          	and	a5,a5,a3
10000aa4:	00e59623          	sh	a4,12(a1)
10000aa8:	06f5a223          	sw	a5,100(a1)
10000aac:	01279713          	slli	a4,a5,0x12
10000ab0:	02074e63          	bltz	a4,10000aec <_puts_r+0xcc>
10000ab4:	00040513          	mv	a0,s0
10000ab8:	01410613          	addi	a2,sp,20
10000abc:	01c050ef          	jal	10005ad8 <__sfvwrite_r>
10000ac0:	02051663          	bnez	a0,10000aec <_puts_r+0xcc>
10000ac4:	00a00513          	li	a0,10
10000ac8:	03c12083          	lw	ra,60(sp)
10000acc:	03812403          	lw	s0,56(sp)
10000ad0:	04010113          	addi	sp,sp,64
10000ad4:	00008067          	ret
10000ad8:	00040513          	mv	a0,s0
10000adc:	00b12623          	sw	a1,12(sp)
10000ae0:	d9dff0ef          	jal	1000087c <__sinit>
10000ae4:	00c12583          	lw	a1,12(sp)
10000ae8:	f99ff06f          	j	10000a80 <_puts_r+0x60>
10000aec:	fff00513          	li	a0,-1
10000af0:	fd9ff06f          	j	10000ac8 <_puts_r+0xa8>

10000af4 <puts>:
10000af4:	00050593          	mv	a1,a0
10000af8:	f2c1a503          	lw	a0,-212(gp) # 10011a04 <_impure_ptr>
10000afc:	f25ff06f          	j	10000a20 <_puts_r>

10000b00 <__sread>:
10000b00:	ff010113          	addi	sp,sp,-16
10000b04:	00812423          	sw	s0,8(sp)
10000b08:	00058413          	mv	s0,a1
10000b0c:	00e59583          	lh	a1,14(a1)
10000b10:	00112623          	sw	ra,12(sp)
10000b14:	7d4000ef          	jal	100012e8 <_read_r>
10000b18:	02054063          	bltz	a0,10000b38 <__sread+0x38>
10000b1c:	05042783          	lw	a5,80(s0)
10000b20:	00c12083          	lw	ra,12(sp)
10000b24:	00a787b3          	add	a5,a5,a0
10000b28:	04f42823          	sw	a5,80(s0)
10000b2c:	00812403          	lw	s0,8(sp)
10000b30:	01010113          	addi	sp,sp,16
10000b34:	00008067          	ret
10000b38:	00c45783          	lhu	a5,12(s0)
10000b3c:	fffff737          	lui	a4,0xfffff
10000b40:	fff70713          	addi	a4,a4,-1 # ffffefff <_sp+0xeffeb2df>
10000b44:	00e7f7b3          	and	a5,a5,a4
10000b48:	00c12083          	lw	ra,12(sp)
10000b4c:	00f41623          	sh	a5,12(s0)
10000b50:	00812403          	lw	s0,8(sp)
10000b54:	01010113          	addi	sp,sp,16
10000b58:	00008067          	ret

10000b5c <__seofread>:
10000b5c:	00000513          	li	a0,0
10000b60:	00008067          	ret

10000b64 <__swrite>:
10000b64:	00c59783          	lh	a5,12(a1)
10000b68:	fe010113          	addi	sp,sp,-32
10000b6c:	00068313          	mv	t1,a3
10000b70:	00112e23          	sw	ra,28(sp)
10000b74:	1007f693          	andi	a3,a5,256
10000b78:	00058713          	mv	a4,a1
10000b7c:	00060893          	mv	a7,a2
10000b80:	00050813          	mv	a6,a0
10000b84:	02069863          	bnez	a3,10000bb4 <__swrite+0x50>
10000b88:	fffff6b7          	lui	a3,0xfffff
10000b8c:	fff68693          	addi	a3,a3,-1 # ffffefff <_sp+0xeffeb2df>
10000b90:	01c12083          	lw	ra,28(sp)
10000b94:	00d7f7b3          	and	a5,a5,a3
10000b98:	00e71583          	lh	a1,14(a4)
10000b9c:	00f71623          	sh	a5,12(a4)
10000ba0:	00030693          	mv	a3,t1
10000ba4:	00088613          	mv	a2,a7
10000ba8:	00080513          	mv	a0,a6
10000bac:	02010113          	addi	sp,sp,32
10000bb0:	0090006f          	j	100013b8 <_write_r>
10000bb4:	00e59583          	lh	a1,14(a1)
10000bb8:	00c12423          	sw	a2,8(sp)
10000bbc:	00200693          	li	a3,2
10000bc0:	00000613          	li	a2,0
10000bc4:	00612623          	sw	t1,12(sp)
10000bc8:	00e12023          	sw	a4,0(sp)
10000bcc:	00a12223          	sw	a0,4(sp)
10000bd0:	6b0000ef          	jal	10001280 <_lseek_r>
10000bd4:	00012703          	lw	a4,0(sp)
10000bd8:	00c12303          	lw	t1,12(sp)
10000bdc:	00812883          	lw	a7,8(sp)
10000be0:	00c71783          	lh	a5,12(a4)
10000be4:	00412803          	lw	a6,4(sp)
10000be8:	fa1ff06f          	j	10000b88 <__swrite+0x24>

10000bec <__sseek>:
10000bec:	ff010113          	addi	sp,sp,-16
10000bf0:	00812423          	sw	s0,8(sp)
10000bf4:	00058413          	mv	s0,a1
10000bf8:	00e59583          	lh	a1,14(a1)
10000bfc:	00112623          	sw	ra,12(sp)
10000c00:	680000ef          	jal	10001280 <_lseek_r>
10000c04:	fff00713          	li	a4,-1
10000c08:	00c41783          	lh	a5,12(s0)
10000c0c:	02e50263          	beq	a0,a4,10000c30 <__sseek+0x44>
10000c10:	00001737          	lui	a4,0x1
10000c14:	00e7e7b3          	or	a5,a5,a4
10000c18:	00c12083          	lw	ra,12(sp)
10000c1c:	04a42823          	sw	a0,80(s0)
10000c20:	00f41623          	sh	a5,12(s0)
10000c24:	00812403          	lw	s0,8(sp)
10000c28:	01010113          	addi	sp,sp,16
10000c2c:	00008067          	ret
10000c30:	80050713          	addi	a4,a0,-2048
10000c34:	80070713          	addi	a4,a4,-2048 # 800 <__heap_size-0x800>
10000c38:	00e7f7b3          	and	a5,a5,a4
10000c3c:	00c12083          	lw	ra,12(sp)
10000c40:	00f41623          	sh	a5,12(s0)
10000c44:	00812403          	lw	s0,8(sp)
10000c48:	01010113          	addi	sp,sp,16
10000c4c:	00008067          	ret

10000c50 <__sclose>:
10000c50:	00e59583          	lh	a1,14(a1)
10000c54:	4ec0006f          	j	10001140 <_close_r>

10000c58 <_init_signal_r>:
10000c58:	13852703          	lw	a4,312(a0)
10000c5c:	00070663          	beqz	a4,10000c68 <_init_signal_r+0x10>
10000c60:	00000513          	li	a0,0
10000c64:	00008067          	ret
10000c68:	fe010113          	addi	sp,sp,-32
10000c6c:	08000593          	li	a1,128
10000c70:	00112e23          	sw	ra,28(sp)
10000c74:	00a12623          	sw	a0,12(sp)
10000c78:	7f1000ef          	jal	10001c68 <_malloc_r>
10000c7c:	00c12783          	lw	a5,12(sp)
10000c80:	12a7ac23          	sw	a0,312(a5)
10000c84:	02050263          	beqz	a0,10000ca8 <_init_signal_r+0x50>
10000c88:	08050793          	addi	a5,a0,128
10000c8c:	00052023          	sw	zero,0(a0)
10000c90:	00450513          	addi	a0,a0,4
10000c94:	fef51ce3          	bne	a0,a5,10000c8c <_init_signal_r+0x34>
10000c98:	00000513          	li	a0,0
10000c9c:	01c12083          	lw	ra,28(sp)
10000ca0:	02010113          	addi	sp,sp,32
10000ca4:	00008067          	ret
10000ca8:	fff00513          	li	a0,-1
10000cac:	ff1ff06f          	j	10000c9c <_init_signal_r+0x44>

10000cb0 <_signal_r>:
10000cb0:	01f00713          	li	a4,31
10000cb4:	02b76063          	bltu	a4,a1,10000cd4 <_signal_r+0x24>
10000cb8:	13852703          	lw	a4,312(a0)
10000cbc:	02070463          	beqz	a4,10000ce4 <_signal_r+0x34>
10000cc0:	00259593          	slli	a1,a1,0x2
10000cc4:	00b70733          	add	a4,a4,a1
10000cc8:	00072503          	lw	a0,0(a4)
10000ccc:	00c72023          	sw	a2,0(a4)
10000cd0:	00008067          	ret
10000cd4:	01600713          	li	a4,22
10000cd8:	00e52023          	sw	a4,0(a0)
10000cdc:	fff00513          	li	a0,-1
10000ce0:	00008067          	ret
10000ce4:	fe010113          	addi	sp,sp,-32
10000ce8:	00b12223          	sw	a1,4(sp)
10000cec:	08000593          	li	a1,128
10000cf0:	00c12423          	sw	a2,8(sp)
10000cf4:	00112e23          	sw	ra,28(sp)
10000cf8:	00a12623          	sw	a0,12(sp)
10000cfc:	76d000ef          	jal	10001c68 <_malloc_r>
10000d00:	00c12683          	lw	a3,12(sp)
10000d04:	00050713          	mv	a4,a0
10000d08:	08050593          	addi	a1,a0,128
10000d0c:	12a6ac23          	sw	a0,312(a3)
10000d10:	00412783          	lw	a5,4(sp)
10000d14:	00050693          	mv	a3,a0
10000d18:	00812603          	lw	a2,8(sp)
10000d1c:	fff00513          	li	a0,-1
10000d20:	02070063          	beqz	a4,10000d40 <_signal_r+0x90>
10000d24:	0006a023          	sw	zero,0(a3)
10000d28:	00468693          	addi	a3,a3,4
10000d2c:	feb69ce3          	bne	a3,a1,10000d24 <_signal_r+0x74>
10000d30:	00279593          	slli	a1,a5,0x2
10000d34:	00b70733          	add	a4,a4,a1
10000d38:	00072503          	lw	a0,0(a4)
10000d3c:	00c72023          	sw	a2,0(a4)
10000d40:	01c12083          	lw	ra,28(sp)
10000d44:	02010113          	addi	sp,sp,32
10000d48:	00008067          	ret

10000d4c <_raise_r>:
10000d4c:	01f00793          	li	a5,31
10000d50:	08b7ea63          	bltu	a5,a1,10000de4 <_raise_r+0x98>
10000d54:	13852783          	lw	a5,312(a0)
10000d58:	fe010113          	addi	sp,sp,-32
10000d5c:	00112e23          	sw	ra,28(sp)
10000d60:	00050713          	mv	a4,a0
10000d64:	00058613          	mv	a2,a1
10000d68:	04078063          	beqz	a5,10000da8 <_raise_r+0x5c>
10000d6c:	00259693          	slli	a3,a1,0x2
10000d70:	00d787b3          	add	a5,a5,a3
10000d74:	0007a683          	lw	a3,0(a5)
10000d78:	02068863          	beqz	a3,10000da8 <_raise_r+0x5c>
10000d7c:	00100513          	li	a0,1
10000d80:	00a68c63          	beq	a3,a0,10000d98 <_raise_r+0x4c>
10000d84:	fff00593          	li	a1,-1
10000d88:	04b68463          	beq	a3,a1,10000dd0 <_raise_r+0x84>
10000d8c:	0007a023          	sw	zero,0(a5)
10000d90:	00060513          	mv	a0,a2
10000d94:	000680e7          	jalr	a3
10000d98:	01c12083          	lw	ra,28(sp)
10000d9c:	00000513          	li	a0,0
10000da0:	02010113          	addi	sp,sp,32
10000da4:	00008067          	ret
10000da8:	00070513          	mv	a0,a4
10000dac:	00c12623          	sw	a2,12(sp)
10000db0:	00e12423          	sw	a4,8(sp)
10000db4:	600000ef          	jal	100013b4 <_getpid_r>
10000db8:	00c12603          	lw	a2,12(sp)
10000dbc:	01c12083          	lw	ra,28(sp)
10000dc0:	00050593          	mv	a1,a0
10000dc4:	00812503          	lw	a0,8(sp)
10000dc8:	02010113          	addi	sp,sp,32
10000dcc:	5840006f          	j	10001350 <_kill_r>
10000dd0:	01c12083          	lw	ra,28(sp)
10000dd4:	01600793          	li	a5,22
10000dd8:	00f72023          	sw	a5,0(a4)
10000ddc:	02010113          	addi	sp,sp,32
10000de0:	00008067          	ret
10000de4:	01600793          	li	a5,22
10000de8:	00f52023          	sw	a5,0(a0)
10000dec:	fff00513          	li	a0,-1
10000df0:	00008067          	ret

10000df4 <__sigtramp_r>:
10000df4:	01f00793          	li	a5,31
10000df8:	0cb7e063          	bltu	a5,a1,10000eb8 <__sigtramp_r+0xc4>
10000dfc:	13852783          	lw	a5,312(a0)
10000e00:	fe010113          	addi	sp,sp,-32
10000e04:	00112e23          	sw	ra,28(sp)
10000e08:	00058713          	mv	a4,a1
10000e0c:	06078463          	beqz	a5,10000e74 <__sigtramp_r+0x80>
10000e10:	00271693          	slli	a3,a4,0x2
10000e14:	00d787b3          	add	a5,a5,a3
10000e18:	0007a683          	lw	a3,0(a5)
10000e1c:	02068863          	beqz	a3,10000e4c <__sigtramp_r+0x58>
10000e20:	fff00613          	li	a2,-1
10000e24:	04c68463          	beq	a3,a2,10000e6c <__sigtramp_r+0x78>
10000e28:	00100613          	li	a2,1
10000e2c:	02c68863          	beq	a3,a2,10000e5c <__sigtramp_r+0x68>
10000e30:	00070513          	mv	a0,a4
10000e34:	0007a023          	sw	zero,0(a5)
10000e38:	000680e7          	jalr	a3
10000e3c:	00000513          	li	a0,0
10000e40:	01c12083          	lw	ra,28(sp)
10000e44:	02010113          	addi	sp,sp,32
10000e48:	00008067          	ret
10000e4c:	01c12083          	lw	ra,28(sp)
10000e50:	00100513          	li	a0,1
10000e54:	02010113          	addi	sp,sp,32
10000e58:	00008067          	ret
10000e5c:	01c12083          	lw	ra,28(sp)
10000e60:	00300513          	li	a0,3
10000e64:	02010113          	addi	sp,sp,32
10000e68:	00008067          	ret
10000e6c:	00200513          	li	a0,2
10000e70:	fd1ff06f          	j	10000e40 <__sigtramp_r+0x4c>
10000e74:	00b12623          	sw	a1,12(sp)
10000e78:	08000593          	li	a1,128
10000e7c:	00a12423          	sw	a0,8(sp)
10000e80:	5e9000ef          	jal	10001c68 <_malloc_r>
10000e84:	00812683          	lw	a3,8(sp)
10000e88:	00050793          	mv	a5,a0
10000e8c:	12a6ac23          	sw	a0,312(a3)
10000e90:	02050063          	beqz	a0,10000eb0 <__sigtramp_r+0xbc>
10000e94:	00c12703          	lw	a4,12(sp)
10000e98:	00050693          	mv	a3,a0
10000e9c:	08050613          	addi	a2,a0,128
10000ea0:	0006a023          	sw	zero,0(a3)
10000ea4:	00468693          	addi	a3,a3,4
10000ea8:	fec69ce3          	bne	a3,a2,10000ea0 <__sigtramp_r+0xac>
10000eac:	f65ff06f          	j	10000e10 <__sigtramp_r+0x1c>
10000eb0:	fff00513          	li	a0,-1
10000eb4:	f8dff06f          	j	10000e40 <__sigtramp_r+0x4c>
10000eb8:	fff00513          	li	a0,-1
10000ebc:	00008067          	ret

10000ec0 <raise>:
10000ec0:	01f00793          	li	a5,31
10000ec4:	f2c1a803          	lw	a6,-212(gp) # 10011a04 <_impure_ptr>
10000ec8:	08a7e863          	bltu	a5,a0,10000f58 <raise+0x98>
10000ecc:	13882783          	lw	a5,312(a6)
10000ed0:	fe010113          	addi	sp,sp,-32
10000ed4:	00112e23          	sw	ra,28(sp)
10000ed8:	00050613          	mv	a2,a0
10000edc:	02078e63          	beqz	a5,10000f18 <raise+0x58>
10000ee0:	00251713          	slli	a4,a0,0x2
10000ee4:	00e787b3          	add	a5,a5,a4
10000ee8:	0007a703          	lw	a4,0(a5)
10000eec:	02070663          	beqz	a4,10000f18 <raise+0x58>
10000ef0:	00100693          	li	a3,1
10000ef4:	00d70a63          	beq	a4,a3,10000f08 <raise+0x48>
10000ef8:	fff00613          	li	a2,-1
10000efc:	04c70263          	beq	a4,a2,10000f40 <raise+0x80>
10000f00:	0007a023          	sw	zero,0(a5)
10000f04:	000700e7          	jalr	a4
10000f08:	01c12083          	lw	ra,28(sp)
10000f0c:	00000513          	li	a0,0
10000f10:	02010113          	addi	sp,sp,32
10000f14:	00008067          	ret
10000f18:	00080513          	mv	a0,a6
10000f1c:	00c12623          	sw	a2,12(sp)
10000f20:	01012423          	sw	a6,8(sp)
10000f24:	490000ef          	jal	100013b4 <_getpid_r>
10000f28:	00c12603          	lw	a2,12(sp)
10000f2c:	01c12083          	lw	ra,28(sp)
10000f30:	00050593          	mv	a1,a0
10000f34:	00812503          	lw	a0,8(sp)
10000f38:	02010113          	addi	sp,sp,32
10000f3c:	4140006f          	j	10001350 <_kill_r>
10000f40:	01c12083          	lw	ra,28(sp)
10000f44:	01600793          	li	a5,22
10000f48:	00f82023          	sw	a5,0(a6)
10000f4c:	00068513          	mv	a0,a3
10000f50:	02010113          	addi	sp,sp,32
10000f54:	00008067          	ret
10000f58:	01600793          	li	a5,22
10000f5c:	00f82023          	sw	a5,0(a6)
10000f60:	fff00513          	li	a0,-1
10000f64:	00008067          	ret

10000f68 <signal>:
10000f68:	01f00793          	li	a5,31
10000f6c:	f2c1a603          	lw	a2,-212(gp) # 10011a04 <_impure_ptr>
10000f70:	02a7e063          	bltu	a5,a0,10000f90 <signal+0x28>
10000f74:	13862703          	lw	a4,312(a2) # 2138 <__heap_size+0x1138>
10000f78:	02070463          	beqz	a4,10000fa0 <signal+0x38>
10000f7c:	00251513          	slli	a0,a0,0x2
10000f80:	00a70733          	add	a4,a4,a0
10000f84:	00072503          	lw	a0,0(a4)
10000f88:	00b72023          	sw	a1,0(a4)
10000f8c:	00008067          	ret
10000f90:	01600793          	li	a5,22
10000f94:	00f62023          	sw	a5,0(a2)
10000f98:	fff00513          	li	a0,-1
10000f9c:	00008067          	ret
10000fa0:	fe010113          	addi	sp,sp,-32
10000fa4:	00b12623          	sw	a1,12(sp)
10000fa8:	00a12423          	sw	a0,8(sp)
10000fac:	08000593          	li	a1,128
10000fb0:	00060513          	mv	a0,a2
10000fb4:	00c12223          	sw	a2,4(sp)
10000fb8:	00112e23          	sw	ra,28(sp)
10000fbc:	4ad000ef          	jal	10001c68 <_malloc_r>
10000fc0:	00412603          	lw	a2,4(sp)
10000fc4:	00050713          	mv	a4,a0
10000fc8:	08050593          	addi	a1,a0,128
10000fcc:	12a62c23          	sw	a0,312(a2)
10000fd0:	00812783          	lw	a5,8(sp)
10000fd4:	00050613          	mv	a2,a0
10000fd8:	00c12683          	lw	a3,12(sp)
10000fdc:	fff00513          	li	a0,-1
10000fe0:	02070063          	beqz	a4,10001000 <signal+0x98>
10000fe4:	00062023          	sw	zero,0(a2)
10000fe8:	00460613          	addi	a2,a2,4
10000fec:	fec59ce3          	bne	a1,a2,10000fe4 <signal+0x7c>
10000ff0:	00279513          	slli	a0,a5,0x2
10000ff4:	00a70733          	add	a4,a4,a0
10000ff8:	00072503          	lw	a0,0(a4)
10000ffc:	00d72023          	sw	a3,0(a4)
10001000:	01c12083          	lw	ra,28(sp)
10001004:	02010113          	addi	sp,sp,32
10001008:	00008067          	ret

1000100c <_init_signal>:
1000100c:	f2c1a783          	lw	a5,-212(gp) # 10011a04 <_impure_ptr>
10001010:	1387a703          	lw	a4,312(a5)
10001014:	00070663          	beqz	a4,10001020 <_init_signal+0x14>
10001018:	00000513          	li	a0,0
1000101c:	00008067          	ret
10001020:	fe010113          	addi	sp,sp,-32
10001024:	00078513          	mv	a0,a5
10001028:	08000593          	li	a1,128
1000102c:	00f12623          	sw	a5,12(sp)
10001030:	00112e23          	sw	ra,28(sp)
10001034:	435000ef          	jal	10001c68 <_malloc_r>
10001038:	00c12783          	lw	a5,12(sp)
1000103c:	12a7ac23          	sw	a0,312(a5)
10001040:	02050263          	beqz	a0,10001064 <_init_signal+0x58>
10001044:	08050793          	addi	a5,a0,128
10001048:	00052023          	sw	zero,0(a0)
1000104c:	00450513          	addi	a0,a0,4
10001050:	fef51ce3          	bne	a0,a5,10001048 <_init_signal+0x3c>
10001054:	00000513          	li	a0,0
10001058:	01c12083          	lw	ra,28(sp)
1000105c:	02010113          	addi	sp,sp,32
10001060:	00008067          	ret
10001064:	fff00513          	li	a0,-1
10001068:	ff1ff06f          	j	10001058 <_init_signal+0x4c>

1000106c <__sigtramp>:
1000106c:	01f00793          	li	a5,31
10001070:	0ca7e463          	bltu	a5,a0,10001138 <__sigtramp+0xcc>
10001074:	f2c1a683          	lw	a3,-212(gp) # 10011a04 <_impure_ptr>
10001078:	fe010113          	addi	sp,sp,-32
1000107c:	00112e23          	sw	ra,28(sp)
10001080:	1386a783          	lw	a5,312(a3)
10001084:	00050713          	mv	a4,a0
10001088:	06078463          	beqz	a5,100010f0 <__sigtramp+0x84>
1000108c:	00271693          	slli	a3,a4,0x2
10001090:	00d787b3          	add	a5,a5,a3
10001094:	0007a683          	lw	a3,0(a5)
10001098:	02068863          	beqz	a3,100010c8 <__sigtramp+0x5c>
1000109c:	fff00613          	li	a2,-1
100010a0:	04c68463          	beq	a3,a2,100010e8 <__sigtramp+0x7c>
100010a4:	00100613          	li	a2,1
100010a8:	02c68863          	beq	a3,a2,100010d8 <__sigtramp+0x6c>
100010ac:	00070513          	mv	a0,a4
100010b0:	0007a023          	sw	zero,0(a5)
100010b4:	000680e7          	jalr	a3
100010b8:	00000513          	li	a0,0
100010bc:	01c12083          	lw	ra,28(sp)
100010c0:	02010113          	addi	sp,sp,32
100010c4:	00008067          	ret
100010c8:	01c12083          	lw	ra,28(sp)
100010cc:	00100513          	li	a0,1
100010d0:	02010113          	addi	sp,sp,32
100010d4:	00008067          	ret
100010d8:	01c12083          	lw	ra,28(sp)
100010dc:	00300513          	li	a0,3
100010e0:	02010113          	addi	sp,sp,32
100010e4:	00008067          	ret
100010e8:	00200513          	li	a0,2
100010ec:	fd1ff06f          	j	100010bc <__sigtramp+0x50>
100010f0:	00a12623          	sw	a0,12(sp)
100010f4:	08000593          	li	a1,128
100010f8:	00068513          	mv	a0,a3
100010fc:	00d12423          	sw	a3,8(sp)
10001100:	369000ef          	jal	10001c68 <_malloc_r>
10001104:	00812683          	lw	a3,8(sp)
10001108:	00050793          	mv	a5,a0
1000110c:	12a6ac23          	sw	a0,312(a3)
10001110:	02050063          	beqz	a0,10001130 <__sigtramp+0xc4>
10001114:	00c12703          	lw	a4,12(sp)
10001118:	00050693          	mv	a3,a0
1000111c:	08050613          	addi	a2,a0,128
10001120:	0006a023          	sw	zero,0(a3)
10001124:	00468693          	addi	a3,a3,4
10001128:	fed61ce3          	bne	a2,a3,10001120 <__sigtramp+0xb4>
1000112c:	f61ff06f          	j	1000108c <__sigtramp+0x20>
10001130:	fff00513          	li	a0,-1
10001134:	f89ff06f          	j	100010bc <__sigtramp+0x50>
10001138:	fff00513          	li	a0,-1
1000113c:	00008067          	ret

10001140 <_close_r>:
10001140:	ff010113          	addi	sp,sp,-16
10001144:	00812423          	sw	s0,8(sp)
10001148:	00912223          	sw	s1,4(sp)
1000114c:	00050493          	mv	s1,a0
10001150:	00058513          	mv	a0,a1
10001154:	00112623          	sw	ra,12(sp)
10001158:	f201ae23          	sw	zero,-196(gp) # 10011a14 <errno>
1000115c:	a4aff0ef          	jal	100003a6 <_close>
10001160:	fff00793          	li	a5,-1
10001164:	00f50c63          	beq	a0,a5,1000117c <_close_r+0x3c>
10001168:	00c12083          	lw	ra,12(sp)
1000116c:	00812403          	lw	s0,8(sp)
10001170:	00412483          	lw	s1,4(sp)
10001174:	01010113          	addi	sp,sp,16
10001178:	00008067          	ret
1000117c:	f3c1a783          	lw	a5,-196(gp) # 10011a14 <errno>
10001180:	fe0784e3          	beqz	a5,10001168 <_close_r+0x28>
10001184:	00c12083          	lw	ra,12(sp)
10001188:	00812403          	lw	s0,8(sp)
1000118c:	00f4a023          	sw	a5,0(s1)
10001190:	00412483          	lw	s1,4(sp)
10001194:	01010113          	addi	sp,sp,16
10001198:	00008067          	ret

1000119c <_reclaim_reent>:
1000119c:	f2c1a783          	lw	a5,-212(gp) # 10011a04 <_impure_ptr>
100011a0:	0ca78e63          	beq	a5,a0,1000127c <_reclaim_reent+0xe0>
100011a4:	04452583          	lw	a1,68(a0)
100011a8:	fe010113          	addi	sp,sp,-32
100011ac:	00912a23          	sw	s1,20(sp)
100011b0:	00112e23          	sw	ra,28(sp)
100011b4:	00812c23          	sw	s0,24(sp)
100011b8:	00050493          	mv	s1,a0
100011bc:	04058863          	beqz	a1,1000120c <_reclaim_reent+0x70>
100011c0:	01212823          	sw	s2,16(sp)
100011c4:	01312623          	sw	s3,12(sp)
100011c8:	00000913          	li	s2,0
100011cc:	08000993          	li	s3,128
100011d0:	012587b3          	add	a5,a1,s2
100011d4:	0007a403          	lw	s0,0(a5)
100011d8:	00040e63          	beqz	s0,100011f4 <_reclaim_reent+0x58>
100011dc:	00040593          	mv	a1,s0
100011e0:	00042403          	lw	s0,0(s0)
100011e4:	00048513          	mv	a0,s1
100011e8:	798000ef          	jal	10001980 <_free_r>
100011ec:	fe0418e3          	bnez	s0,100011dc <_reclaim_reent+0x40>
100011f0:	0444a583          	lw	a1,68(s1)
100011f4:	00490913          	addi	s2,s2,4
100011f8:	fd391ce3          	bne	s2,s3,100011d0 <_reclaim_reent+0x34>
100011fc:	00048513          	mv	a0,s1
10001200:	780000ef          	jal	10001980 <_free_r>
10001204:	01012903          	lw	s2,16(sp)
10001208:	00c12983          	lw	s3,12(sp)
1000120c:	0384a583          	lw	a1,56(s1)
10001210:	00058663          	beqz	a1,1000121c <_reclaim_reent+0x80>
10001214:	00048513          	mv	a0,s1
10001218:	768000ef          	jal	10001980 <_free_r>
1000121c:	0404a403          	lw	s0,64(s1)
10001220:	00040c63          	beqz	s0,10001238 <_reclaim_reent+0x9c>
10001224:	00040593          	mv	a1,s0
10001228:	00042403          	lw	s0,0(s0)
1000122c:	00048513          	mv	a0,s1
10001230:	750000ef          	jal	10001980 <_free_r>
10001234:	fe0418e3          	bnez	s0,10001224 <_reclaim_reent+0x88>
10001238:	04c4a583          	lw	a1,76(s1)
1000123c:	00058663          	beqz	a1,10001248 <_reclaim_reent+0xac>
10001240:	00048513          	mv	a0,s1
10001244:	73c000ef          	jal	10001980 <_free_r>
10001248:	0344a783          	lw	a5,52(s1)
1000124c:	00078e63          	beqz	a5,10001268 <_reclaim_reent+0xcc>
10001250:	01812403          	lw	s0,24(sp)
10001254:	01c12083          	lw	ra,28(sp)
10001258:	00048513          	mv	a0,s1
1000125c:	01412483          	lw	s1,20(sp)
10001260:	02010113          	addi	sp,sp,32
10001264:	00078067          	jr	a5
10001268:	01c12083          	lw	ra,28(sp)
1000126c:	01812403          	lw	s0,24(sp)
10001270:	01412483          	lw	s1,20(sp)
10001274:	02010113          	addi	sp,sp,32
10001278:	00008067          	ret
1000127c:	00008067          	ret

10001280 <_lseek_r>:
10001280:	ff010113          	addi	sp,sp,-16
10001284:	00058793          	mv	a5,a1
10001288:	00812423          	sw	s0,8(sp)
1000128c:	00912223          	sw	s1,4(sp)
10001290:	00060593          	mv	a1,a2
10001294:	00050493          	mv	s1,a0
10001298:	00068613          	mv	a2,a3
1000129c:	00078513          	mv	a0,a5
100012a0:	00112623          	sw	ra,12(sp)
100012a4:	f201ae23          	sw	zero,-196(gp) # 10011a14 <errno>
100012a8:	97aff0ef          	jal	10000422 <_lseek>
100012ac:	fff00793          	li	a5,-1
100012b0:	00f50c63          	beq	a0,a5,100012c8 <_lseek_r+0x48>
100012b4:	00c12083          	lw	ra,12(sp)
100012b8:	00812403          	lw	s0,8(sp)
100012bc:	00412483          	lw	s1,4(sp)
100012c0:	01010113          	addi	sp,sp,16
100012c4:	00008067          	ret
100012c8:	f3c1a783          	lw	a5,-196(gp) # 10011a14 <errno>
100012cc:	fe0784e3          	beqz	a5,100012b4 <_lseek_r+0x34>
100012d0:	00c12083          	lw	ra,12(sp)
100012d4:	00812403          	lw	s0,8(sp)
100012d8:	00f4a023          	sw	a5,0(s1)
100012dc:	00412483          	lw	s1,4(sp)
100012e0:	01010113          	addi	sp,sp,16
100012e4:	00008067          	ret

100012e8 <_read_r>:
100012e8:	ff010113          	addi	sp,sp,-16
100012ec:	00058793          	mv	a5,a1
100012f0:	00812423          	sw	s0,8(sp)
100012f4:	00912223          	sw	s1,4(sp)
100012f8:	00060593          	mv	a1,a2
100012fc:	00050493          	mv	s1,a0
10001300:	00068613          	mv	a2,a3
10001304:	00078513          	mv	a0,a5
10001308:	00112623          	sw	ra,12(sp)
1000130c:	f201ae23          	sw	zero,-196(gp) # 10011a14 <errno>
10001310:	932ff0ef          	jal	10000442 <_read>
10001314:	fff00793          	li	a5,-1
10001318:	00f50c63          	beq	a0,a5,10001330 <_read_r+0x48>
1000131c:	00c12083          	lw	ra,12(sp)
10001320:	00812403          	lw	s0,8(sp)
10001324:	00412483          	lw	s1,4(sp)
10001328:	01010113          	addi	sp,sp,16
1000132c:	00008067          	ret
10001330:	f3c1a783          	lw	a5,-196(gp) # 10011a14 <errno>
10001334:	fe0784e3          	beqz	a5,1000131c <_read_r+0x34>
10001338:	00c12083          	lw	ra,12(sp)
1000133c:	00812403          	lw	s0,8(sp)
10001340:	00f4a023          	sw	a5,0(s1)
10001344:	00412483          	lw	s1,4(sp)
10001348:	01010113          	addi	sp,sp,16
1000134c:	00008067          	ret

10001350 <_kill_r>:
10001350:	ff010113          	addi	sp,sp,-16
10001354:	00058793          	mv	a5,a1
10001358:	00812423          	sw	s0,8(sp)
1000135c:	00912223          	sw	s1,4(sp)
10001360:	00060593          	mv	a1,a2
10001364:	00050493          	mv	s1,a0
10001368:	00078513          	mv	a0,a5
1000136c:	00112623          	sw	ra,12(sp)
10001370:	f201ae23          	sw	zero,-196(gp) # 10011a14 <errno>
10001374:	89aff0ef          	jal	1000040e <_kill>
10001378:	fff00793          	li	a5,-1
1000137c:	00f50c63          	beq	a0,a5,10001394 <_kill_r+0x44>
10001380:	00c12083          	lw	ra,12(sp)
10001384:	00812403          	lw	s0,8(sp)
10001388:	00412483          	lw	s1,4(sp)
1000138c:	01010113          	addi	sp,sp,16
10001390:	00008067          	ret
10001394:	f3c1a783          	lw	a5,-196(gp) # 10011a14 <errno>
10001398:	fe0784e3          	beqz	a5,10001380 <_kill_r+0x30>
1000139c:	00c12083          	lw	ra,12(sp)
100013a0:	00812403          	lw	s0,8(sp)
100013a4:	00f4a023          	sw	a5,0(s1)
100013a8:	00412483          	lw	s1,4(sp)
100013ac:	01010113          	addi	sp,sp,16
100013b0:	00008067          	ret

100013b4 <_getpid_r>:
100013b4:	842ff06f          	j	100003f6 <_getpid>

100013b8 <_write_r>:
100013b8:	ff010113          	addi	sp,sp,-16
100013bc:	00058793          	mv	a5,a1
100013c0:	00812423          	sw	s0,8(sp)
100013c4:	00912223          	sw	s1,4(sp)
100013c8:	00060593          	mv	a1,a2
100013cc:	00050493          	mv	s1,a0
100013d0:	00068613          	mv	a2,a3
100013d4:	00078513          	mv	a0,a5
100013d8:	00112623          	sw	ra,12(sp)
100013dc:	f201ae23          	sw	zero,-196(gp) # 10011a14 <errno>
100013e0:	896ff0ef          	jal	10000476 <_write>
100013e4:	fff00793          	li	a5,-1
100013e8:	00f50c63          	beq	a0,a5,10001400 <_write_r+0x48>
100013ec:	00c12083          	lw	ra,12(sp)
100013f0:	00812403          	lw	s0,8(sp)
100013f4:	00412483          	lw	s1,4(sp)
100013f8:	01010113          	addi	sp,sp,16
100013fc:	00008067          	ret
10001400:	f3c1a783          	lw	a5,-196(gp) # 10011a14 <errno>
10001404:	fe0784e3          	beqz	a5,100013ec <_write_r+0x34>
10001408:	00c12083          	lw	ra,12(sp)
1000140c:	00812403          	lw	s0,8(sp)
10001410:	00f4a023          	sw	a5,0(s1)
10001414:	00412483          	lw	s1,4(sp)
10001418:	01010113          	addi	sp,sp,16
1000141c:	00008067          	ret

10001420 <__libc_init_array>:
10001420:	ff010113          	addi	sp,sp,-16
10001424:	00812423          	sw	s0,8(sp)
10001428:	01212023          	sw	s2,0(sp)
1000142c:	10011437          	lui	s0,0x10011
10001430:	10011937          	lui	s2,0x10011
10001434:	00112623          	sw	ra,12(sp)
10001438:	00912223          	sw	s1,4(sp)
1000143c:	2d490913          	addi	s2,s2,724 # 100112d4 <__init_array_start>
10001440:	2d440413          	addi	s0,s0,724 # 100112d4 <__init_array_start>
10001444:	02890263          	beq	s2,s0,10001468 <__libc_init_array+0x48>
10001448:	40890933          	sub	s2,s2,s0
1000144c:	40295913          	srai	s2,s2,0x2
10001450:	00000493          	li	s1,0
10001454:	00042783          	lw	a5,0(s0)
10001458:	00148493          	addi	s1,s1,1
1000145c:	00440413          	addi	s0,s0,4
10001460:	000780e7          	jalr	a5
10001464:	ff24e8e3          	bltu	s1,s2,10001454 <__libc_init_array+0x34>
10001468:	10011937          	lui	s2,0x10011
1000146c:	10011437          	lui	s0,0x10011
10001470:	2d890913          	addi	s2,s2,728 # 100112d8 <__sglue>
10001474:	2d440413          	addi	s0,s0,724 # 100112d4 <__init_array_start>
10001478:	02890263          	beq	s2,s0,1000149c <__libc_init_array+0x7c>
1000147c:	40890933          	sub	s2,s2,s0
10001480:	40295913          	srai	s2,s2,0x2
10001484:	00000493          	li	s1,0
10001488:	00042783          	lw	a5,0(s0)
1000148c:	00148493          	addi	s1,s1,1
10001490:	00440413          	addi	s0,s0,4
10001494:	000780e7          	jalr	a5
10001498:	ff24e8e3          	bltu	s1,s2,10001488 <__libc_init_array+0x68>
1000149c:	00c12083          	lw	ra,12(sp)
100014a0:	00812403          	lw	s0,8(sp)
100014a4:	00412483          	lw	s1,4(sp)
100014a8:	00012903          	lw	s2,0(sp)
100014ac:	01010113          	addi	sp,sp,16
100014b0:	00008067          	ret

100014b4 <__libc_fini_array>:
100014b4:	ff010113          	addi	sp,sp,-16
100014b8:	00812423          	sw	s0,8(sp)
100014bc:	100117b7          	lui	a5,0x10011
100014c0:	10011437          	lui	s0,0x10011
100014c4:	2d878793          	addi	a5,a5,728 # 100112d8 <__sglue>
100014c8:	2d840413          	addi	s0,s0,728 # 100112d8 <__sglue>
100014cc:	408787b3          	sub	a5,a5,s0
100014d0:	00912223          	sw	s1,4(sp)
100014d4:	00112623          	sw	ra,12(sp)
100014d8:	4027d493          	srai	s1,a5,0x2
100014dc:	02048063          	beqz	s1,100014fc <__libc_fini_array+0x48>
100014e0:	ffc40413          	addi	s0,s0,-4
100014e4:	00f40433          	add	s0,s0,a5
100014e8:	00042783          	lw	a5,0(s0)
100014ec:	fff48493          	addi	s1,s1,-1
100014f0:	ffc40413          	addi	s0,s0,-4
100014f4:	000780e7          	jalr	a5
100014f8:	fe0498e3          	bnez	s1,100014e8 <__libc_fini_array+0x34>
100014fc:	00c12083          	lw	ra,12(sp)
10001500:	00812403          	lw	s0,8(sp)
10001504:	00412483          	lw	s1,4(sp)
10001508:	01010113          	addi	sp,sp,16
1000150c:	00008067          	ret

10001510 <memset>:
10001510:	00f00313          	li	t1,15
10001514:	00050713          	mv	a4,a0
10001518:	02c37e63          	bgeu	t1,a2,10001554 <memset+0x44>
1000151c:	00f77793          	andi	a5,a4,15
10001520:	0a079063          	bnez	a5,100015c0 <memset+0xb0>
10001524:	08059263          	bnez	a1,100015a8 <memset+0x98>
10001528:	ff067693          	andi	a3,a2,-16
1000152c:	00f67613          	andi	a2,a2,15
10001530:	00e686b3          	add	a3,a3,a4
10001534:	00b72023          	sw	a1,0(a4)
10001538:	00b72223          	sw	a1,4(a4)
1000153c:	00b72423          	sw	a1,8(a4)
10001540:	00b72623          	sw	a1,12(a4)
10001544:	01070713          	addi	a4,a4,16
10001548:	fed766e3          	bltu	a4,a3,10001534 <memset+0x24>
1000154c:	00061463          	bnez	a2,10001554 <memset+0x44>
10001550:	00008067          	ret
10001554:	40c306b3          	sub	a3,t1,a2
10001558:	00269693          	slli	a3,a3,0x2
1000155c:	00000297          	auipc	t0,0x0
10001560:	005686b3          	add	a3,a3,t0
10001564:	00c68067          	jr	12(a3)
10001568:	00b70723          	sb	a1,14(a4)
1000156c:	00b706a3          	sb	a1,13(a4)
10001570:	00b70623          	sb	a1,12(a4)
10001574:	00b705a3          	sb	a1,11(a4)
10001578:	00b70523          	sb	a1,10(a4)
1000157c:	00b704a3          	sb	a1,9(a4)
10001580:	00b70423          	sb	a1,8(a4)
10001584:	00b703a3          	sb	a1,7(a4)
10001588:	00b70323          	sb	a1,6(a4)
1000158c:	00b702a3          	sb	a1,5(a4)
10001590:	00b70223          	sb	a1,4(a4)
10001594:	00b701a3          	sb	a1,3(a4)
10001598:	00b70123          	sb	a1,2(a4)
1000159c:	00b700a3          	sb	a1,1(a4)
100015a0:	00b70023          	sb	a1,0(a4)
100015a4:	00008067          	ret
100015a8:	0ff5f593          	zext.b	a1,a1
100015ac:	00859693          	slli	a3,a1,0x8
100015b0:	00d5e5b3          	or	a1,a1,a3
100015b4:	01059693          	slli	a3,a1,0x10
100015b8:	00d5e5b3          	or	a1,a1,a3
100015bc:	f6dff06f          	j	10001528 <memset+0x18>
100015c0:	00279693          	slli	a3,a5,0x2
100015c4:	00000297          	auipc	t0,0x0
100015c8:	005686b3          	add	a3,a3,t0
100015cc:	00008293          	mv	t0,ra
100015d0:	fa0680e7          	jalr	-96(a3)
100015d4:	00028093          	mv	ra,t0
100015d8:	ff078793          	addi	a5,a5,-16
100015dc:	40f70733          	sub	a4,a4,a5
100015e0:	00f60633          	add	a2,a2,a5
100015e4:	f6c378e3          	bgeu	t1,a2,10001554 <memset+0x44>
100015e8:	f3dff06f          	j	10001524 <memset+0x14>

100015ec <strlen>:
100015ec:	00357793          	andi	a5,a0,3
100015f0:	00050713          	mv	a4,a0
100015f4:	04079c63          	bnez	a5,1000164c <strlen+0x60>
100015f8:	7f7f86b7          	lui	a3,0x7f7f8
100015fc:	f7f68693          	addi	a3,a3,-129 # 7f7f7f7f <_sp+0x6f7e425f>
10001600:	fff00593          	li	a1,-1
10001604:	00072603          	lw	a2,0(a4)
10001608:	00470713          	addi	a4,a4,4
1000160c:	00d677b3          	and	a5,a2,a3
10001610:	00d787b3          	add	a5,a5,a3
10001614:	00c7e7b3          	or	a5,a5,a2
10001618:	00d7e7b3          	or	a5,a5,a3
1000161c:	feb784e3          	beq	a5,a1,10001604 <strlen+0x18>
10001620:	ffc74683          	lbu	a3,-4(a4)
10001624:	40a707b3          	sub	a5,a4,a0
10001628:	04068463          	beqz	a3,10001670 <strlen+0x84>
1000162c:	ffd74683          	lbu	a3,-3(a4)
10001630:	02068c63          	beqz	a3,10001668 <strlen+0x7c>
10001634:	ffe74503          	lbu	a0,-2(a4)
10001638:	00a03533          	snez	a0,a0
1000163c:	00f50533          	add	a0,a0,a5
10001640:	ffe50513          	addi	a0,a0,-2
10001644:	00008067          	ret
10001648:	fa0688e3          	beqz	a3,100015f8 <strlen+0xc>
1000164c:	00074783          	lbu	a5,0(a4)
10001650:	00170713          	addi	a4,a4,1
10001654:	00377693          	andi	a3,a4,3
10001658:	fe0798e3          	bnez	a5,10001648 <strlen+0x5c>
1000165c:	40a70733          	sub	a4,a4,a0
10001660:	fff70513          	addi	a0,a4,-1
10001664:	00008067          	ret
10001668:	ffd78513          	addi	a0,a5,-3
1000166c:	00008067          	ret
10001670:	ffc78513          	addi	a0,a5,-4
10001674:	00008067          	ret

10001678 <__register_exitproc>:
10001678:	f401a783          	lw	a5,-192(gp) # 10011a18 <__atexit>
1000167c:	04078c63          	beqz	a5,100016d4 <__register_exitproc+0x5c>
10001680:	0047a703          	lw	a4,4(a5)
10001684:	01f00813          	li	a6,31
10001688:	06e84e63          	blt	a6,a4,10001704 <__register_exitproc+0x8c>
1000168c:	00271813          	slli	a6,a4,0x2
10001690:	02050663          	beqz	a0,100016bc <__register_exitproc+0x44>
10001694:	01078333          	add	t1,a5,a6
10001698:	08c32423          	sw	a2,136(t1)
1000169c:	1887a883          	lw	a7,392(a5)
100016a0:	00100613          	li	a2,1
100016a4:	00e61633          	sll	a2,a2,a4
100016a8:	00c8e8b3          	or	a7,a7,a2
100016ac:	1917a423          	sw	a7,392(a5)
100016b0:	10d32423          	sw	a3,264(t1)
100016b4:	00200693          	li	a3,2
100016b8:	02d50463          	beq	a0,a3,100016e0 <__register_exitproc+0x68>
100016bc:	00170713          	addi	a4,a4,1
100016c0:	00e7a223          	sw	a4,4(a5)
100016c4:	010787b3          	add	a5,a5,a6
100016c8:	00b7a423          	sw	a1,8(a5)
100016cc:	00000513          	li	a0,0
100016d0:	00008067          	ret
100016d4:	08c18793          	addi	a5,gp,140 # 10011b64 <__atexit0>
100016d8:	f4f1a023          	sw	a5,-192(gp) # 10011a18 <__atexit>
100016dc:	fa5ff06f          	j	10001680 <__register_exitproc+0x8>
100016e0:	18c7a683          	lw	a3,396(a5)
100016e4:	00170713          	addi	a4,a4,1
100016e8:	00e7a223          	sw	a4,4(a5)
100016ec:	00c6e6b3          	or	a3,a3,a2
100016f0:	18d7a623          	sw	a3,396(a5)
100016f4:	010787b3          	add	a5,a5,a6
100016f8:	00b7a423          	sw	a1,8(a5)
100016fc:	00000513          	li	a0,0
10001700:	00008067          	ret
10001704:	fff00513          	li	a0,-1
10001708:	00008067          	ret

1000170c <__call_exitprocs>:
1000170c:	fd010113          	addi	sp,sp,-48
10001710:	01412c23          	sw	s4,24(sp)
10001714:	03212023          	sw	s2,32(sp)
10001718:	f401a903          	lw	s2,-192(gp) # 10011a18 <__atexit>
1000171c:	02112623          	sw	ra,44(sp)
10001720:	0a090863          	beqz	s2,100017d0 <__call_exitprocs+0xc4>
10001724:	01312e23          	sw	s3,28(sp)
10001728:	01512a23          	sw	s5,20(sp)
1000172c:	01612823          	sw	s6,16(sp)
10001730:	01712623          	sw	s7,12(sp)
10001734:	02812423          	sw	s0,40(sp)
10001738:	02912223          	sw	s1,36(sp)
1000173c:	01812423          	sw	s8,8(sp)
10001740:	00050b13          	mv	s6,a0
10001744:	00058b93          	mv	s7,a1
10001748:	fff00993          	li	s3,-1
1000174c:	00100a93          	li	s5,1
10001750:	00492483          	lw	s1,4(s2)
10001754:	fff48413          	addi	s0,s1,-1
10001758:	04044e63          	bltz	s0,100017b4 <__call_exitprocs+0xa8>
1000175c:	00249493          	slli	s1,s1,0x2
10001760:	009904b3          	add	s1,s2,s1
10001764:	080b9063          	bnez	s7,100017e4 <__call_exitprocs+0xd8>
10001768:	00492783          	lw	a5,4(s2)
1000176c:	0044a683          	lw	a3,4(s1)
10001770:	fff78793          	addi	a5,a5,-1
10001774:	0c878463          	beq	a5,s0,1000183c <__call_exitprocs+0x130>
10001778:	0004a223          	sw	zero,4(s1)
1000177c:	02068663          	beqz	a3,100017a8 <__call_exitprocs+0x9c>
10001780:	18892783          	lw	a5,392(s2)
10001784:	008a9733          	sll	a4,s5,s0
10001788:	00492c03          	lw	s8,4(s2)
1000178c:	00f777b3          	and	a5,a4,a5
10001790:	06079e63          	bnez	a5,1000180c <__call_exitprocs+0x100>
10001794:	000680e7          	jalr	a3
10001798:	00492703          	lw	a4,4(s2)
1000179c:	f401a783          	lw	a5,-192(gp) # 10011a18 <__atexit>
100017a0:	09871863          	bne	a4,s8,10001830 <__call_exitprocs+0x124>
100017a4:	09279663          	bne	a5,s2,10001830 <__call_exitprocs+0x124>
100017a8:	fff40413          	addi	s0,s0,-1
100017ac:	ffc48493          	addi	s1,s1,-4
100017b0:	fb341ae3          	bne	s0,s3,10001764 <__call_exitprocs+0x58>
100017b4:	02812403          	lw	s0,40(sp)
100017b8:	02412483          	lw	s1,36(sp)
100017bc:	01c12983          	lw	s3,28(sp)
100017c0:	01412a83          	lw	s5,20(sp)
100017c4:	01012b03          	lw	s6,16(sp)
100017c8:	00c12b83          	lw	s7,12(sp)
100017cc:	00812c03          	lw	s8,8(sp)
100017d0:	02c12083          	lw	ra,44(sp)
100017d4:	02012903          	lw	s2,32(sp)
100017d8:	01812a03          	lw	s4,24(sp)
100017dc:	03010113          	addi	sp,sp,48
100017e0:	00008067          	ret
100017e4:	1044a783          	lw	a5,260(s1)
100017e8:	fff40713          	addi	a4,s0,-1
100017ec:	f6fb8ee3          	beq	s7,a5,10001768 <__call_exitprocs+0x5c>
100017f0:	ffe40413          	addi	s0,s0,-2
100017f4:	fd3700e3          	beq	a4,s3,100017b4 <__call_exitprocs+0xa8>
100017f8:	1004a783          	lw	a5,256(s1)
100017fc:	05778463          	beq	a5,s7,10001844 <__call_exitprocs+0x138>
10001800:	ff848493          	addi	s1,s1,-8
10001804:	ff3410e3          	bne	s0,s3,100017e4 <__call_exitprocs+0xd8>
10001808:	fadff06f          	j	100017b4 <__call_exitprocs+0xa8>
1000180c:	18c92783          	lw	a5,396(s2)
10001810:	0844a583          	lw	a1,132(s1)
10001814:	00f77733          	and	a4,a4,a5
10001818:	02071c63          	bnez	a4,10001850 <__call_exitprocs+0x144>
1000181c:	000b0513          	mv	a0,s6
10001820:	000680e7          	jalr	a3
10001824:	00492703          	lw	a4,4(s2)
10001828:	f401a783          	lw	a5,-192(gp) # 10011a18 <__atexit>
1000182c:	f7870ce3          	beq	a4,s8,100017a4 <__call_exitprocs+0x98>
10001830:	f80782e3          	beqz	a5,100017b4 <__call_exitprocs+0xa8>
10001834:	00078913          	mv	s2,a5
10001838:	f19ff06f          	j	10001750 <__call_exitprocs+0x44>
1000183c:	00892223          	sw	s0,4(s2)
10001840:	f3dff06f          	j	1000177c <__call_exitprocs+0x70>
10001844:	00070413          	mv	s0,a4
10001848:	ffc48493          	addi	s1,s1,-4
1000184c:	f1dff06f          	j	10001768 <__call_exitprocs+0x5c>
10001850:	00058513          	mv	a0,a1
10001854:	000680e7          	jalr	a3
10001858:	f41ff06f          	j	10001798 <__call_exitprocs+0x8c>

1000185c <_malloc_trim_r>:
1000185c:	fe010113          	addi	sp,sp,-32
10001860:	01212823          	sw	s2,16(sp)
10001864:	10011937          	lui	s2,0x10011
10001868:	00812c23          	sw	s0,24(sp)
1000186c:	00912a23          	sw	s1,20(sp)
10001870:	01312623          	sw	s3,12(sp)
10001874:	00058413          	mv	s0,a1
10001878:	00112e23          	sw	ra,28(sp)
1000187c:	00050993          	mv	s3,a0
10001880:	42890913          	addi	s2,s2,1064 # 10011428 <__malloc_av_>
10001884:	461000ef          	jal	100024e4 <__malloc_lock>
10001888:	00892783          	lw	a5,8(s2)
1000188c:	00001737          	lui	a4,0x1
10001890:	0047a483          	lw	s1,4(a5)
10001894:	ffc4f493          	andi	s1,s1,-4
10001898:	7ff48793          	addi	a5,s1,2047
1000189c:	7f078793          	addi	a5,a5,2032
100018a0:	40878433          	sub	s0,a5,s0
100018a4:	00c45413          	srli	s0,s0,0xc
100018a8:	fff40413          	addi	s0,s0,-1
100018ac:	00c41413          	slli	s0,s0,0xc
100018b0:	00e44e63          	blt	s0,a4,100018cc <_malloc_trim_r+0x70>
100018b4:	00000593          	li	a1,0
100018b8:	00098513          	mv	a0,s3
100018bc:	1a5040ef          	jal	10006260 <_sbrk_r>
100018c0:	00892783          	lw	a5,8(s2)
100018c4:	009787b3          	add	a5,a5,s1
100018c8:	02f50663          	beq	a0,a5,100018f4 <_malloc_trim_r+0x98>
100018cc:	00098513          	mv	a0,s3
100018d0:	419000ef          	jal	100024e8 <__malloc_unlock>
100018d4:	01c12083          	lw	ra,28(sp)
100018d8:	01812403          	lw	s0,24(sp)
100018dc:	01412483          	lw	s1,20(sp)
100018e0:	01012903          	lw	s2,16(sp)
100018e4:	00c12983          	lw	s3,12(sp)
100018e8:	00000513          	li	a0,0
100018ec:	02010113          	addi	sp,sp,32
100018f0:	00008067          	ret
100018f4:	408005b3          	neg	a1,s0
100018f8:	00098513          	mv	a0,s3
100018fc:	165040ef          	jal	10006260 <_sbrk_r>
10001900:	fff00793          	li	a5,-1
10001904:	04f50463          	beq	a0,a5,1000194c <_malloc_trim_r+0xf0>
10001908:	00892683          	lw	a3,8(s2)
1000190c:	21c1a783          	lw	a5,540(gp) # 10011cf4 <__malloc_current_mallinfo>
10001910:	408484b3          	sub	s1,s1,s0
10001914:	0014e493          	ori	s1,s1,1
10001918:	00098513          	mv	a0,s3
1000191c:	408787b3          	sub	a5,a5,s0
10001920:	0096a223          	sw	s1,4(a3)
10001924:	20f1ae23          	sw	a5,540(gp) # 10011cf4 <__malloc_current_mallinfo>
10001928:	3c1000ef          	jal	100024e8 <__malloc_unlock>
1000192c:	01c12083          	lw	ra,28(sp)
10001930:	01812403          	lw	s0,24(sp)
10001934:	01412483          	lw	s1,20(sp)
10001938:	01012903          	lw	s2,16(sp)
1000193c:	00c12983          	lw	s3,12(sp)
10001940:	00100513          	li	a0,1
10001944:	02010113          	addi	sp,sp,32
10001948:	00008067          	ret
1000194c:	00000593          	li	a1,0
10001950:	00098513          	mv	a0,s3
10001954:	10d040ef          	jal	10006260 <_sbrk_r>
10001958:	00892703          	lw	a4,8(s2)
1000195c:	00f00693          	li	a3,15
10001960:	40e507b3          	sub	a5,a0,a4
10001964:	f6f6d4e3          	bge	a3,a5,100018cc <_malloc_trim_r+0x70>
10001968:	f301a603          	lw	a2,-208(gp) # 10011a08 <__malloc_sbrk_base>
1000196c:	0017e793          	ori	a5,a5,1
10001970:	40c50533          	sub	a0,a0,a2
10001974:	00f72223          	sw	a5,4(a4) # 1004 <__heap_size+0x4>
10001978:	20a1ae23          	sw	a0,540(gp) # 10011cf4 <__malloc_current_mallinfo>
1000197c:	f51ff06f          	j	100018cc <_malloc_trim_r+0x70>

10001980 <_free_r>:
10001980:	12058463          	beqz	a1,10001aa8 <_free_r+0x128>
10001984:	fe010113          	addi	sp,sp,-32
10001988:	00812c23          	sw	s0,24(sp)
1000198c:	00b12623          	sw	a1,12(sp)
10001990:	00050413          	mv	s0,a0
10001994:	00112e23          	sw	ra,28(sp)
10001998:	34d000ef          	jal	100024e4 <__malloc_lock>
1000199c:	00c12583          	lw	a1,12(sp)
100019a0:	10011837          	lui	a6,0x10011
100019a4:	42880813          	addi	a6,a6,1064 # 10011428 <__malloc_av_>
100019a8:	ffc5a503          	lw	a0,-4(a1)
100019ac:	ff858713          	addi	a4,a1,-8
100019b0:	00882883          	lw	a7,8(a6)
100019b4:	ffe57793          	andi	a5,a0,-2
100019b8:	00f70633          	add	a2,a4,a5
100019bc:	00462683          	lw	a3,4(a2)
100019c0:	00157313          	andi	t1,a0,1
100019c4:	ffc6f693          	andi	a3,a3,-4
100019c8:	18c88863          	beq	a7,a2,10001b58 <_free_r+0x1d8>
100019cc:	00d62223          	sw	a3,4(a2)
100019d0:	00d608b3          	add	a7,a2,a3
100019d4:	0048a883          	lw	a7,4(a7)
100019d8:	0018f893          	andi	a7,a7,1
100019dc:	08031a63          	bnez	t1,10001a70 <_free_r+0xf0>
100019e0:	ff85a303          	lw	t1,-8(a1)
100019e4:	100115b7          	lui	a1,0x10011
100019e8:	43058593          	addi	a1,a1,1072 # 10011430 <__malloc_av_+0x8>
100019ec:	40670733          	sub	a4,a4,t1
100019f0:	00872503          	lw	a0,8(a4)
100019f4:	006787b3          	add	a5,a5,t1
100019f8:	12b50a63          	beq	a0,a1,10001b2c <_free_r+0x1ac>
100019fc:	00c72303          	lw	t1,12(a4)
10001a00:	00652623          	sw	t1,12(a0)
10001a04:	00a32423          	sw	a0,8(t1)
10001a08:	18088c63          	beqz	a7,10001ba0 <_free_r+0x220>
10001a0c:	0017e693          	ori	a3,a5,1
10001a10:	00d72223          	sw	a3,4(a4)
10001a14:	00f62023          	sw	a5,0(a2)
10001a18:	1ff00693          	li	a3,511
10001a1c:	0af6e263          	bltu	a3,a5,10001ac0 <_free_r+0x140>
10001a20:	ff87f693          	andi	a3,a5,-8
10001a24:	00868693          	addi	a3,a3,8
10001a28:	00482583          	lw	a1,4(a6)
10001a2c:	00d806b3          	add	a3,a6,a3
10001a30:	0006a603          	lw	a2,0(a3)
10001a34:	0057d513          	srli	a0,a5,0x5
10001a38:	00100793          	li	a5,1
10001a3c:	00a797b3          	sll	a5,a5,a0
10001a40:	00b7e7b3          	or	a5,a5,a1
10001a44:	ff868593          	addi	a1,a3,-8
10001a48:	00c72423          	sw	a2,8(a4)
10001a4c:	00b72623          	sw	a1,12(a4)
10001a50:	00f82223          	sw	a5,4(a6)
10001a54:	00e6a023          	sw	a4,0(a3)
10001a58:	00e62623          	sw	a4,12(a2)
10001a5c:	00040513          	mv	a0,s0
10001a60:	01812403          	lw	s0,24(sp)
10001a64:	01c12083          	lw	ra,28(sp)
10001a68:	02010113          	addi	sp,sp,32
10001a6c:	27d0006f          	j	100024e8 <__malloc_unlock>
10001a70:	02089e63          	bnez	a7,10001aac <_free_r+0x12c>
10001a74:	100115b7          	lui	a1,0x10011
10001a78:	00d787b3          	add	a5,a5,a3
10001a7c:	43058593          	addi	a1,a1,1072 # 10011430 <__malloc_av_+0x8>
10001a80:	00862683          	lw	a3,8(a2)
10001a84:	0017e893          	ori	a7,a5,1
10001a88:	00f70533          	add	a0,a4,a5
10001a8c:	16b68063          	beq	a3,a1,10001bec <_free_r+0x26c>
10001a90:	00c62603          	lw	a2,12(a2)
10001a94:	00c6a623          	sw	a2,12(a3)
10001a98:	00d62423          	sw	a3,8(a2)
10001a9c:	01172223          	sw	a7,4(a4)
10001aa0:	00f52023          	sw	a5,0(a0)
10001aa4:	f75ff06f          	j	10001a18 <_free_r+0x98>
10001aa8:	00008067          	ret
10001aac:	00156513          	ori	a0,a0,1
10001ab0:	fea5ae23          	sw	a0,-4(a1)
10001ab4:	00f62023          	sw	a5,0(a2)
10001ab8:	1ff00693          	li	a3,511
10001abc:	f6f6f2e3          	bgeu	a3,a5,10001a20 <_free_r+0xa0>
10001ac0:	0097d693          	srli	a3,a5,0x9
10001ac4:	00400613          	li	a2,4
10001ac8:	0ed66063          	bltu	a2,a3,10001ba8 <_free_r+0x228>
10001acc:	0067d693          	srli	a3,a5,0x6
10001ad0:	03968593          	addi	a1,a3,57
10001ad4:	00359593          	slli	a1,a1,0x3
10001ad8:	03868613          	addi	a2,a3,56
10001adc:	00b805b3          	add	a1,a6,a1
10001ae0:	0005a683          	lw	a3,0(a1)
10001ae4:	ff858593          	addi	a1,a1,-8
10001ae8:	00d59863          	bne	a1,a3,10001af8 <_free_r+0x178>
10001aec:	11c0006f          	j	10001c08 <_free_r+0x288>
10001af0:	0086a683          	lw	a3,8(a3)
10001af4:	00d58863          	beq	a1,a3,10001b04 <_free_r+0x184>
10001af8:	0046a603          	lw	a2,4(a3)
10001afc:	ffc67613          	andi	a2,a2,-4
10001b00:	fec7e8e3          	bltu	a5,a2,10001af0 <_free_r+0x170>
10001b04:	00c6a583          	lw	a1,12(a3)
10001b08:	00b72623          	sw	a1,12(a4)
10001b0c:	00d72423          	sw	a3,8(a4)
10001b10:	00040513          	mv	a0,s0
10001b14:	01812403          	lw	s0,24(sp)
10001b18:	01c12083          	lw	ra,28(sp)
10001b1c:	00e5a423          	sw	a4,8(a1)
10001b20:	00e6a623          	sw	a4,12(a3)
10001b24:	02010113          	addi	sp,sp,32
10001b28:	1c10006f          	j	100024e8 <__malloc_unlock>
10001b2c:	0a089063          	bnez	a7,10001bcc <_free_r+0x24c>
10001b30:	00c62583          	lw	a1,12(a2)
10001b34:	00862603          	lw	a2,8(a2)
10001b38:	00f686b3          	add	a3,a3,a5
10001b3c:	0016e793          	ori	a5,a3,1
10001b40:	00b62623          	sw	a1,12(a2)
10001b44:	00c5a423          	sw	a2,8(a1)
10001b48:	00f72223          	sw	a5,4(a4)
10001b4c:	00d70733          	add	a4,a4,a3
10001b50:	00d72023          	sw	a3,0(a4)
10001b54:	f09ff06f          	j	10001a5c <_free_r+0xdc>
10001b58:	00d786b3          	add	a3,a5,a3
10001b5c:	02031063          	bnez	t1,10001b7c <_free_r+0x1fc>
10001b60:	ff85a783          	lw	a5,-8(a1)
10001b64:	40f70733          	sub	a4,a4,a5
10001b68:	00872603          	lw	a2,8(a4)
10001b6c:	00f686b3          	add	a3,a3,a5
10001b70:	00c72783          	lw	a5,12(a4)
10001b74:	00f62623          	sw	a5,12(a2)
10001b78:	00c7a423          	sw	a2,8(a5)
10001b7c:	0016e613          	ori	a2,a3,1
10001b80:	f341a783          	lw	a5,-204(gp) # 10011a0c <__malloc_trim_threshold>
10001b84:	00c72223          	sw	a2,4(a4)
10001b88:	00e82423          	sw	a4,8(a6)
10001b8c:	ecf6e8e3          	bltu	a3,a5,10001a5c <_free_r+0xdc>
10001b90:	f4c1a583          	lw	a1,-180(gp) # 10011a24 <__malloc_top_pad>
10001b94:	00040513          	mv	a0,s0
10001b98:	cc5ff0ef          	jal	1000185c <_malloc_trim_r>
10001b9c:	ec1ff06f          	j	10001a5c <_free_r+0xdc>
10001ba0:	00d787b3          	add	a5,a5,a3
10001ba4:	eddff06f          	j	10001a80 <_free_r+0x100>
10001ba8:	01400613          	li	a2,20
10001bac:	02d67863          	bgeu	a2,a3,10001bdc <_free_r+0x25c>
10001bb0:	05400613          	li	a2,84
10001bb4:	06d66863          	bltu	a2,a3,10001c24 <_free_r+0x2a4>
10001bb8:	00c7d693          	srli	a3,a5,0xc
10001bbc:	06f68593          	addi	a1,a3,111
10001bc0:	00359593          	slli	a1,a1,0x3
10001bc4:	06e68613          	addi	a2,a3,110
10001bc8:	f15ff06f          	j	10001adc <_free_r+0x15c>
10001bcc:	0017e693          	ori	a3,a5,1
10001bd0:	00d72223          	sw	a3,4(a4)
10001bd4:	00f62023          	sw	a5,0(a2)
10001bd8:	e85ff06f          	j	10001a5c <_free_r+0xdc>
10001bdc:	05c68593          	addi	a1,a3,92
10001be0:	00359593          	slli	a1,a1,0x3
10001be4:	05b68613          	addi	a2,a3,91
10001be8:	ef5ff06f          	j	10001adc <_free_r+0x15c>
10001bec:	00e82a23          	sw	a4,20(a6)
10001bf0:	00e82823          	sw	a4,16(a6)
10001bf4:	00b72623          	sw	a1,12(a4)
10001bf8:	00b72423          	sw	a1,8(a4)
10001bfc:	01172223          	sw	a7,4(a4)
10001c00:	00f52023          	sw	a5,0(a0)
10001c04:	e59ff06f          	j	10001a5c <_free_r+0xdc>
10001c08:	00482503          	lw	a0,4(a6)
10001c0c:	40265613          	srai	a2,a2,0x2
10001c10:	00100793          	li	a5,1
10001c14:	00c797b3          	sll	a5,a5,a2
10001c18:	00a7e7b3          	or	a5,a5,a0
10001c1c:	00f82223          	sw	a5,4(a6)
10001c20:	ee9ff06f          	j	10001b08 <_free_r+0x188>
10001c24:	15400613          	li	a2,340
10001c28:	00d66c63          	bltu	a2,a3,10001c40 <_free_r+0x2c0>
10001c2c:	00f7d693          	srli	a3,a5,0xf
10001c30:	07868593          	addi	a1,a3,120
10001c34:	00359593          	slli	a1,a1,0x3
10001c38:	07768613          	addi	a2,a3,119
10001c3c:	ea1ff06f          	j	10001adc <_free_r+0x15c>
10001c40:	55400613          	li	a2,1364
10001c44:	00d66c63          	bltu	a2,a3,10001c5c <_free_r+0x2dc>
10001c48:	0127d693          	srli	a3,a5,0x12
10001c4c:	07d68593          	addi	a1,a3,125
10001c50:	00359593          	slli	a1,a1,0x3
10001c54:	07c68613          	addi	a2,a3,124
10001c58:	e85ff06f          	j	10001adc <_free_r+0x15c>
10001c5c:	3f800593          	li	a1,1016
10001c60:	07e00613          	li	a2,126
10001c64:	e79ff06f          	j	10001adc <_free_r+0x15c>

10001c68 <_malloc_r>:
10001c68:	fc010113          	addi	sp,sp,-64
10001c6c:	02812c23          	sw	s0,56(sp)
10001c70:	02112e23          	sw	ra,60(sp)
10001c74:	00b58793          	addi	a5,a1,11
10001c78:	01600713          	li	a4,22
10001c7c:	00050413          	mv	s0,a0
10001c80:	08f76e63          	bltu	a4,a5,10001d1c <_malloc_r+0xb4>
10001c84:	01000693          	li	a3,16
10001c88:	06b6ec63          	bltu	a3,a1,10001d00 <_malloc_r+0x98>
10001c8c:	059000ef          	jal	100024e4 <__malloc_lock>
10001c90:	01000693          	li	a3,16
10001c94:	01800713          	li	a4,24
10001c98:	00200893          	li	a7,2
10001c9c:	10011837          	lui	a6,0x10011
10001ca0:	42880813          	addi	a6,a6,1064 # 10011428 <__malloc_av_>
10001ca4:	00e80733          	add	a4,a6,a4
10001ca8:	00472783          	lw	a5,4(a4)
10001cac:	ff870613          	addi	a2,a4,-8
10001cb0:	44c78c63          	beq	a5,a2,10002108 <_malloc_r+0x4a0>
10001cb4:	0047a703          	lw	a4,4(a5)
10001cb8:	00c7a603          	lw	a2,12(a5)
10001cbc:	0087a583          	lw	a1,8(a5)
10001cc0:	ffc77713          	andi	a4,a4,-4
10001cc4:	00e78733          	add	a4,a5,a4
10001cc8:	00472683          	lw	a3,4(a4)
10001ccc:	00c5a623          	sw	a2,12(a1)
10001cd0:	00f12623          	sw	a5,12(sp)
10001cd4:	00b62423          	sw	a1,8(a2)
10001cd8:	0016e693          	ori	a3,a3,1
10001cdc:	00040513          	mv	a0,s0
10001ce0:	00d72223          	sw	a3,4(a4)
10001ce4:	005000ef          	jal	100024e8 <__malloc_unlock>
10001ce8:	00c12783          	lw	a5,12(sp)
10001cec:	03c12083          	lw	ra,60(sp)
10001cf0:	03812403          	lw	s0,56(sp)
10001cf4:	00878513          	addi	a0,a5,8
10001cf8:	04010113          	addi	sp,sp,64
10001cfc:	00008067          	ret
10001d00:	00c00793          	li	a5,12
10001d04:	00f42023          	sw	a5,0(s0)
10001d08:	00000513          	li	a0,0
10001d0c:	03c12083          	lw	ra,60(sp)
10001d10:	03812403          	lw	s0,56(sp)
10001d14:	04010113          	addi	sp,sp,64
10001d18:	00008067          	ret
10001d1c:	ff87f693          	andi	a3,a5,-8
10001d20:	fe07c0e3          	bltz	a5,10001d00 <_malloc_r+0x98>
10001d24:	fcb6eee3          	bltu	a3,a1,10001d00 <_malloc_r+0x98>
10001d28:	00d12623          	sw	a3,12(sp)
10001d2c:	7b8000ef          	jal	100024e4 <__malloc_lock>
10001d30:	00c12683          	lw	a3,12(sp)
10001d34:	1f700793          	li	a5,503
10001d38:	4cd7f663          	bgeu	a5,a3,10002204 <_malloc_r+0x59c>
10001d3c:	0096d793          	srli	a5,a3,0x9
10001d40:	16078e63          	beqz	a5,10001ebc <_malloc_r+0x254>
10001d44:	00400713          	li	a4,4
10001d48:	42f76863          	bltu	a4,a5,10002178 <_malloc_r+0x510>
10001d4c:	0066d793          	srli	a5,a3,0x6
10001d50:	03978893          	addi	a7,a5,57
10001d54:	03878e13          	addi	t3,a5,56
10001d58:	00389513          	slli	a0,a7,0x3
10001d5c:	10011837          	lui	a6,0x10011
10001d60:	42880813          	addi	a6,a6,1064 # 10011428 <__malloc_av_>
10001d64:	00a80533          	add	a0,a6,a0
10001d68:	00452783          	lw	a5,4(a0)
10001d6c:	ff850513          	addi	a0,a0,-8
10001d70:	02f50863          	beq	a0,a5,10001da0 <_malloc_r+0x138>
10001d74:	00f00313          	li	t1,15
10001d78:	0140006f          	j	10001d8c <_malloc_r+0x124>
10001d7c:	00c7a583          	lw	a1,12(a5)
10001d80:	34065463          	bgez	a2,100020c8 <_malloc_r+0x460>
10001d84:	00b50e63          	beq	a0,a1,10001da0 <_malloc_r+0x138>
10001d88:	00058793          	mv	a5,a1
10001d8c:	0047a703          	lw	a4,4(a5)
10001d90:	ffc77713          	andi	a4,a4,-4
10001d94:	40d70633          	sub	a2,a4,a3
10001d98:	fec352e3          	bge	t1,a2,10001d7c <_malloc_r+0x114>
10001d9c:	000e0893          	mv	a7,t3
10001da0:	01082783          	lw	a5,16(a6)
10001da4:	10011e37          	lui	t3,0x10011
10001da8:	430e0e13          	addi	t3,t3,1072 # 10011430 <__malloc_av_+0x8>
10001dac:	2dc78c63          	beq	a5,t3,10002084 <_malloc_r+0x41c>
10001db0:	0047a703          	lw	a4,4(a5)
10001db4:	00f00593          	li	a1,15
10001db8:	ffc77713          	andi	a4,a4,-4
10001dbc:	40d70633          	sub	a2,a4,a3
10001dc0:	46c5cc63          	blt	a1,a2,10002238 <_malloc_r+0x5d0>
10001dc4:	01c82a23          	sw	t3,20(a6)
10001dc8:	01c82823          	sw	t3,16(a6)
10001dcc:	44065263          	bgez	a2,10002210 <_malloc_r+0x5a8>
10001dd0:	1ff00613          	li	a2,511
10001dd4:	00482303          	lw	t1,4(a6)
10001dd8:	34e66063          	bltu	a2,a4,10002118 <_malloc_r+0x4b0>
10001ddc:	ff877613          	andi	a2,a4,-8
10001de0:	00860613          	addi	a2,a2,8
10001de4:	00c80633          	add	a2,a6,a2
10001de8:	00062583          	lw	a1,0(a2)
10001dec:	00575513          	srli	a0,a4,0x5
10001df0:	00100713          	li	a4,1
10001df4:	00a71733          	sll	a4,a4,a0
10001df8:	00e36333          	or	t1,t1,a4
10001dfc:	ff860713          	addi	a4,a2,-8
10001e00:	00b7a423          	sw	a1,8(a5)
10001e04:	00e7a623          	sw	a4,12(a5)
10001e08:	00682223          	sw	t1,4(a6)
10001e0c:	00f62023          	sw	a5,0(a2)
10001e10:	00f5a623          	sw	a5,12(a1)
10001e14:	4028d793          	srai	a5,a7,0x2
10001e18:	00100513          	li	a0,1
10001e1c:	00f51533          	sll	a0,a0,a5
10001e20:	0aa36663          	bltu	t1,a0,10001ecc <_malloc_r+0x264>
10001e24:	006577b3          	and	a5,a0,t1
10001e28:	02079463          	bnez	a5,10001e50 <_malloc_r+0x1e8>
10001e2c:	00151513          	slli	a0,a0,0x1
10001e30:	ffc8f893          	andi	a7,a7,-4
10001e34:	006577b3          	and	a5,a0,t1
10001e38:	00488893          	addi	a7,a7,4
10001e3c:	00079a63          	bnez	a5,10001e50 <_malloc_r+0x1e8>
10001e40:	00151513          	slli	a0,a0,0x1
10001e44:	006577b3          	and	a5,a0,t1
10001e48:	00488893          	addi	a7,a7,4
10001e4c:	fe078ae3          	beqz	a5,10001e40 <_malloc_r+0x1d8>
10001e50:	00f00e93          	li	t4,15
10001e54:	00389f13          	slli	t5,a7,0x3
10001e58:	01e80f33          	add	t5,a6,t5
10001e5c:	000f0313          	mv	t1,t5
10001e60:	00c32703          	lw	a4,12(t1)
10001e64:	00088f93          	mv	t6,a7
10001e68:	32e30a63          	beq	t1,a4,1000219c <_malloc_r+0x534>
10001e6c:	00472603          	lw	a2,4(a4)
10001e70:	00070793          	mv	a5,a4
10001e74:	00c72703          	lw	a4,12(a4)
10001e78:	ffc67613          	andi	a2,a2,-4
10001e7c:	40d605b3          	sub	a1,a2,a3
10001e80:	32beca63          	blt	t4,a1,100021b4 <_malloc_r+0x54c>
10001e84:	fe05c2e3          	bltz	a1,10001e68 <_malloc_r+0x200>
10001e88:	00c78633          	add	a2,a5,a2
10001e8c:	00462683          	lw	a3,4(a2)
10001e90:	0087a583          	lw	a1,8(a5)
10001e94:	00040513          	mv	a0,s0
10001e98:	0016e693          	ori	a3,a3,1
10001e9c:	00d62223          	sw	a3,4(a2)
10001ea0:	00e5a623          	sw	a4,12(a1)
10001ea4:	00b72423          	sw	a1,8(a4)
10001ea8:	00f12623          	sw	a5,12(sp)
10001eac:	63c000ef          	jal	100024e8 <__malloc_unlock>
10001eb0:	00c12783          	lw	a5,12(sp)
10001eb4:	00878513          	addi	a0,a5,8
10001eb8:	e55ff06f          	j	10001d0c <_malloc_r+0xa4>
10001ebc:	20000513          	li	a0,512
10001ec0:	04000893          	li	a7,64
10001ec4:	03f00e13          	li	t3,63
10001ec8:	e95ff06f          	j	10001d5c <_malloc_r+0xf4>
10001ecc:	00882783          	lw	a5,8(a6)
10001ed0:	0047a703          	lw	a4,4(a5)
10001ed4:	ffc77313          	andi	t1,a4,-4
10001ed8:	40d30633          	sub	a2,t1,a3
10001edc:	00d36663          	bltu	t1,a3,10001ee8 <_malloc_r+0x280>
10001ee0:	01062713          	slti	a4,a2,16
10001ee4:	1a070463          	beqz	a4,1000208c <_malloc_r+0x424>
10001ee8:	f4c1a583          	lw	a1,-180(gp) # 10011a24 <__malloc_top_pad>
10001eec:	f301a603          	lw	a2,-208(gp) # 10011a08 <__malloc_sbrk_base>
10001ef0:	fff00713          	li	a4,-1
10001ef4:	00b685b3          	add	a1,a3,a1
10001ef8:	42e60463          	beq	a2,a4,10002320 <_malloc_r+0x6b8>
10001efc:	00001737          	lui	a4,0x1
10001f00:	00f70713          	addi	a4,a4,15 # 100f <__heap_size+0xf>
10001f04:	00e585b3          	add	a1,a1,a4
10001f08:	fffff737          	lui	a4,0xfffff
10001f0c:	00e5f5b3          	and	a1,a1,a4
10001f10:	00040513          	mv	a0,s0
10001f14:	01012e23          	sw	a6,28(sp)
10001f18:	00f12c23          	sw	a5,24(sp)
10001f1c:	00d12a23          	sw	a3,20(sp)
10001f20:	00612823          	sw	t1,16(sp)
10001f24:	00b12623          	sw	a1,12(sp)
10001f28:	338040ef          	jal	10006260 <_sbrk_r>
10001f2c:	fff00713          	li	a4,-1
10001f30:	00c12583          	lw	a1,12(sp)
10001f34:	01012303          	lw	t1,16(sp)
10001f38:	01412683          	lw	a3,20(sp)
10001f3c:	01812783          	lw	a5,24(sp)
10001f40:	01c12803          	lw	a6,28(sp)
10001f44:	00050e13          	mv	t3,a0
10001f48:	34e50663          	beq	a0,a4,10002294 <_malloc_r+0x62c>
10001f4c:	00678733          	add	a4,a5,t1
10001f50:	34e56063          	bltu	a0,a4,10002290 <_malloc_r+0x628>
10001f54:	21c18e93          	addi	t4,gp,540 # 10011cf4 <__malloc_current_mallinfo>
10001f58:	000ea603          	lw	a2,0(t4)
10001f5c:	00c58633          	add	a2,a1,a2
10001f60:	00cea023          	sw	a2,0(t4)
10001f64:	48a70a63          	beq	a4,a0,100023f8 <_malloc_r+0x790>
10001f68:	f301af03          	lw	t5,-208(gp) # 10011a08 <__malloc_sbrk_base>
10001f6c:	fff00513          	li	a0,-1
10001f70:	4aaf0263          	beq	t5,a0,10002414 <_malloc_r+0x7ac>
10001f74:	40ee0733          	sub	a4,t3,a4
10001f78:	00c70733          	add	a4,a4,a2
10001f7c:	00eea023          	sw	a4,0(t4)
10001f80:	007e7f13          	andi	t5,t3,7
10001f84:	3a0f0e63          	beqz	t5,10002340 <_malloc_r+0x6d8>
10001f88:	ff8e7e13          	andi	t3,t3,-8
10001f8c:	000018b7          	lui	a7,0x1
10001f90:	008e0e13          	addi	t3,t3,8
10001f94:	00888893          	addi	a7,a7,8 # 1008 <__heap_size+0x8>
10001f98:	00be0633          	add	a2,t3,a1
10001f9c:	41e885b3          	sub	a1,a7,t5
10001fa0:	40c585b3          	sub	a1,a1,a2
10001fa4:	01459593          	slli	a1,a1,0x14
10001fa8:	0145d593          	srli	a1,a1,0x14
10001fac:	00040513          	mv	a0,s0
10001fb0:	03012623          	sw	a6,44(sp)
10001fb4:	03d12423          	sw	t4,40(sp)
10001fb8:	02f12223          	sw	a5,36(sp)
10001fbc:	02d12023          	sw	a3,32(sp)
10001fc0:	00612e23          	sw	t1,28(sp)
10001fc4:	01c12c23          	sw	t3,24(sp)
10001fc8:	01e12a23          	sw	t5,20(sp)
10001fcc:	00c12823          	sw	a2,16(sp)
10001fd0:	00b12623          	sw	a1,12(sp)
10001fd4:	28c040ef          	jal	10006260 <_sbrk_r>
10001fd8:	00050713          	mv	a4,a0
10001fdc:	fff00513          	li	a0,-1
10001fe0:	00c12583          	lw	a1,12(sp)
10001fe4:	01012603          	lw	a2,16(sp)
10001fe8:	01412f03          	lw	t5,20(sp)
10001fec:	01812e03          	lw	t3,24(sp)
10001ff0:	01c12303          	lw	t1,28(sp)
10001ff4:	02012683          	lw	a3,32(sp)
10001ff8:	02412783          	lw	a5,36(sp)
10001ffc:	02812e83          	lw	t4,40(sp)
10002000:	02c12803          	lw	a6,44(sp)
10002004:	44a70e63          	beq	a4,a0,10002460 <_malloc_r+0x7f8>
10002008:	000ea603          	lw	a2,0(t4)
1000200c:	41c70733          	sub	a4,a4,t3
10002010:	00b70733          	add	a4,a4,a1
10002014:	00176713          	ori	a4,a4,1
10002018:	01c82423          	sw	t3,8(a6)
1000201c:	00c58633          	add	a2,a1,a2
10002020:	00ee2223          	sw	a4,4(t3)
10002024:	00cea023          	sw	a2,0(t4)
10002028:	03078e63          	beq	a5,a6,10002064 <_malloc_r+0x3fc>
1000202c:	00f00513          	li	a0,15
10002030:	3e657663          	bgeu	a0,t1,1000241c <_malloc_r+0x7b4>
10002034:	0047a583          	lw	a1,4(a5)
10002038:	ff430713          	addi	a4,t1,-12
1000203c:	ff877713          	andi	a4,a4,-8
10002040:	0015f593          	andi	a1,a1,1
10002044:	00e5e5b3          	or	a1,a1,a4
10002048:	00b7a223          	sw	a1,4(a5)
1000204c:	00500893          	li	a7,5
10002050:	00e785b3          	add	a1,a5,a4
10002054:	0115a223          	sw	a7,4(a1)
10002058:	0115a423          	sw	a7,8(a1)
1000205c:	40e56a63          	bltu	a0,a4,10002470 <_malloc_r+0x808>
10002060:	004e2703          	lw	a4,4(t3)
10002064:	f481a583          	lw	a1,-184(gp) # 10011a20 <__malloc_max_sbrked_mem>
10002068:	00c5f463          	bgeu	a1,a2,10002070 <_malloc_r+0x408>
1000206c:	f4c1a423          	sw	a2,-184(gp) # 10011a20 <__malloc_max_sbrked_mem>
10002070:	f441a583          	lw	a1,-188(gp) # 10011a1c <__malloc_max_total_mem>
10002074:	00c5f463          	bgeu	a1,a2,1000207c <_malloc_r+0x414>
10002078:	f4c1a223          	sw	a2,-188(gp) # 10011a1c <__malloc_max_total_mem>
1000207c:	000e0793          	mv	a5,t3
10002080:	21c0006f          	j	1000229c <_malloc_r+0x634>
10002084:	00482303          	lw	t1,4(a6)
10002088:	d8dff06f          	j	10001e14 <_malloc_r+0x1ac>
1000208c:	0016e713          	ori	a4,a3,1
10002090:	00e7a223          	sw	a4,4(a5)
10002094:	00d786b3          	add	a3,a5,a3
10002098:	00166613          	ori	a2,a2,1
1000209c:	00d82423          	sw	a3,8(a6)
100020a0:	00040513          	mv	a0,s0
100020a4:	00c6a223          	sw	a2,4(a3)
100020a8:	00f12623          	sw	a5,12(sp)
100020ac:	43c000ef          	jal	100024e8 <__malloc_unlock>
100020b0:	00c12783          	lw	a5,12(sp)
100020b4:	03c12083          	lw	ra,60(sp)
100020b8:	03812403          	lw	s0,56(sp)
100020bc:	00878513          	addi	a0,a5,8
100020c0:	04010113          	addi	sp,sp,64
100020c4:	00008067          	ret
100020c8:	0087a603          	lw	a2,8(a5)
100020cc:	00e78733          	add	a4,a5,a4
100020d0:	00472683          	lw	a3,4(a4) # fffff004 <_sp+0xeffeb2e4>
100020d4:	00b62623          	sw	a1,12(a2)
100020d8:	00f12623          	sw	a5,12(sp)
100020dc:	0016e693          	ori	a3,a3,1
100020e0:	00c5a423          	sw	a2,8(a1)
100020e4:	00040513          	mv	a0,s0
100020e8:	00d72223          	sw	a3,4(a4)
100020ec:	3fc000ef          	jal	100024e8 <__malloc_unlock>
100020f0:	00c12783          	lw	a5,12(sp)
100020f4:	03c12083          	lw	ra,60(sp)
100020f8:	03812403          	lw	s0,56(sp)
100020fc:	00878513          	addi	a0,a5,8
10002100:	04010113          	addi	sp,sp,64
10002104:	00008067          	ret
10002108:	00c72783          	lw	a5,12(a4)
1000210c:	00288893          	addi	a7,a7,2
10002110:	c8f708e3          	beq	a4,a5,10001da0 <_malloc_r+0x138>
10002114:	ba1ff06f          	j	10001cb4 <_malloc_r+0x4c>
10002118:	00975613          	srli	a2,a4,0x9
1000211c:	00400593          	li	a1,4
10002120:	14c5fe63          	bgeu	a1,a2,1000227c <_malloc_r+0x614>
10002124:	01400593          	li	a1,20
10002128:	28c5e263          	bltu	a1,a2,100023ac <_malloc_r+0x744>
1000212c:	05c60513          	addi	a0,a2,92
10002130:	00351513          	slli	a0,a0,0x3
10002134:	05b60593          	addi	a1,a2,91
10002138:	00a80533          	add	a0,a6,a0
1000213c:	00052603          	lw	a2,0(a0)
10002140:	ff850513          	addi	a0,a0,-8
10002144:	00c51863          	bne	a0,a2,10002154 <_malloc_r+0x4ec>
10002148:	1e00006f          	j	10002328 <_malloc_r+0x6c0>
1000214c:	00862603          	lw	a2,8(a2)
10002150:	00c50863          	beq	a0,a2,10002160 <_malloc_r+0x4f8>
10002154:	00462583          	lw	a1,4(a2)
10002158:	ffc5f593          	andi	a1,a1,-4
1000215c:	feb768e3          	bltu	a4,a1,1000214c <_malloc_r+0x4e4>
10002160:	00c62503          	lw	a0,12(a2)
10002164:	00a7a623          	sw	a0,12(a5)
10002168:	00c7a423          	sw	a2,8(a5)
1000216c:	00f52423          	sw	a5,8(a0)
10002170:	00f62623          	sw	a5,12(a2)
10002174:	ca1ff06f          	j	10001e14 <_malloc_r+0x1ac>
10002178:	01400713          	li	a4,20
1000217c:	14f77063          	bgeu	a4,a5,100022bc <_malloc_r+0x654>
10002180:	05400713          	li	a4,84
10002184:	24f76263          	bltu	a4,a5,100023c8 <_malloc_r+0x760>
10002188:	00c6d793          	srli	a5,a3,0xc
1000218c:	06f78893          	addi	a7,a5,111
10002190:	06e78e13          	addi	t3,a5,110
10002194:	00389513          	slli	a0,a7,0x3
10002198:	bc5ff06f          	j	10001d5c <_malloc_r+0xf4>
1000219c:	001f8f93          	addi	t6,t6,1
100021a0:	003ff793          	andi	a5,t6,3
100021a4:	00830313          	addi	t1,t1,8
100021a8:	12078863          	beqz	a5,100022d8 <_malloc_r+0x670>
100021ac:	00c32703          	lw	a4,12(t1)
100021b0:	cb9ff06f          	j	10001e68 <_malloc_r+0x200>
100021b4:	0087a503          	lw	a0,8(a5)
100021b8:	0016e893          	ori	a7,a3,1
100021bc:	0117a223          	sw	a7,4(a5)
100021c0:	00e52623          	sw	a4,12(a0)
100021c4:	00a72423          	sw	a0,8(a4)
100021c8:	00d786b3          	add	a3,a5,a3
100021cc:	00d82a23          	sw	a3,20(a6)
100021d0:	00d82823          	sw	a3,16(a6)
100021d4:	0015e713          	ori	a4,a1,1
100021d8:	00c78633          	add	a2,a5,a2
100021dc:	01c6a623          	sw	t3,12(a3)
100021e0:	01c6a423          	sw	t3,8(a3)
100021e4:	00e6a223          	sw	a4,4(a3)
100021e8:	00040513          	mv	a0,s0
100021ec:	00b62023          	sw	a1,0(a2)
100021f0:	00f12623          	sw	a5,12(sp)
100021f4:	2f4000ef          	jal	100024e8 <__malloc_unlock>
100021f8:	00c12783          	lw	a5,12(sp)
100021fc:	00878513          	addi	a0,a5,8
10002200:	b0dff06f          	j	10001d0c <_malloc_r+0xa4>
10002204:	0036d893          	srli	a7,a3,0x3
10002208:	00868713          	addi	a4,a3,8
1000220c:	a91ff06f          	j	10001c9c <_malloc_r+0x34>
10002210:	00e78733          	add	a4,a5,a4
10002214:	00472683          	lw	a3,4(a4)
10002218:	00f12623          	sw	a5,12(sp)
1000221c:	00040513          	mv	a0,s0
10002220:	0016e693          	ori	a3,a3,1
10002224:	00d72223          	sw	a3,4(a4)
10002228:	2c0000ef          	jal	100024e8 <__malloc_unlock>
1000222c:	00c12783          	lw	a5,12(sp)
10002230:	00878513          	addi	a0,a5,8
10002234:	ad9ff06f          	j	10001d0c <_malloc_r+0xa4>
10002238:	0016e593          	ori	a1,a3,1
1000223c:	00b7a223          	sw	a1,4(a5)
10002240:	00d786b3          	add	a3,a5,a3
10002244:	00d82a23          	sw	a3,20(a6)
10002248:	00d82823          	sw	a3,16(a6)
1000224c:	00166593          	ori	a1,a2,1
10002250:	00e78733          	add	a4,a5,a4
10002254:	01c6a623          	sw	t3,12(a3)
10002258:	01c6a423          	sw	t3,8(a3)
1000225c:	00b6a223          	sw	a1,4(a3)
10002260:	00040513          	mv	a0,s0
10002264:	00c72023          	sw	a2,0(a4)
10002268:	00f12623          	sw	a5,12(sp)
1000226c:	27c000ef          	jal	100024e8 <__malloc_unlock>
10002270:	00c12783          	lw	a5,12(sp)
10002274:	00878513          	addi	a0,a5,8
10002278:	a95ff06f          	j	10001d0c <_malloc_r+0xa4>
1000227c:	00675613          	srli	a2,a4,0x6
10002280:	03960513          	addi	a0,a2,57
10002284:	00351513          	slli	a0,a0,0x3
10002288:	03860593          	addi	a1,a2,56
1000228c:	eadff06f          	j	10002138 <_malloc_r+0x4d0>
10002290:	15078a63          	beq	a5,a6,100023e4 <_malloc_r+0x77c>
10002294:	00882783          	lw	a5,8(a6)
10002298:	0047a703          	lw	a4,4(a5)
1000229c:	ffc77713          	andi	a4,a4,-4
100022a0:	40d70633          	sub	a2,a4,a3
100022a4:	00d76663          	bltu	a4,a3,100022b0 <_malloc_r+0x648>
100022a8:	01062713          	slti	a4,a2,16
100022ac:	de0700e3          	beqz	a4,1000208c <_malloc_r+0x424>
100022b0:	00040513          	mv	a0,s0
100022b4:	234000ef          	jal	100024e8 <__malloc_unlock>
100022b8:	a51ff06f          	j	10001d08 <_malloc_r+0xa0>
100022bc:	05c78893          	addi	a7,a5,92
100022c0:	05b78e13          	addi	t3,a5,91
100022c4:	00389513          	slli	a0,a7,0x3
100022c8:	a95ff06f          	j	10001d5c <_malloc_r+0xf4>
100022cc:	008f2783          	lw	a5,8(t5)
100022d0:	fff88893          	addi	a7,a7,-1
100022d4:	21e79463          	bne	a5,t5,100024dc <_malloc_r+0x874>
100022d8:	0038f793          	andi	a5,a7,3
100022dc:	ff8f0f13          	addi	t5,t5,-8
100022e0:	fe0796e3          	bnez	a5,100022cc <_malloc_r+0x664>
100022e4:	00482703          	lw	a4,4(a6)
100022e8:	fff54793          	not	a5,a0
100022ec:	00e7f7b3          	and	a5,a5,a4
100022f0:	00f82223          	sw	a5,4(a6)
100022f4:	00151513          	slli	a0,a0,0x1
100022f8:	fff50713          	addi	a4,a0,-1
100022fc:	bcf778e3          	bgeu	a4,a5,10001ecc <_malloc_r+0x264>
10002300:	00f57733          	and	a4,a0,a5
10002304:	00071a63          	bnez	a4,10002318 <_malloc_r+0x6b0>
10002308:	00151513          	slli	a0,a0,0x1
1000230c:	00f57733          	and	a4,a0,a5
10002310:	004f8f93          	addi	t6,t6,4
10002314:	fe070ae3          	beqz	a4,10002308 <_malloc_r+0x6a0>
10002318:	000f8893          	mv	a7,t6
1000231c:	b39ff06f          	j	10001e54 <_malloc_r+0x1ec>
10002320:	01058593          	addi	a1,a1,16
10002324:	bedff06f          	j	10001f10 <_malloc_r+0x2a8>
10002328:	4025d593          	srai	a1,a1,0x2
1000232c:	00100713          	li	a4,1
10002330:	00b71733          	sll	a4,a4,a1
10002334:	00e36333          	or	t1,t1,a4
10002338:	00682223          	sw	t1,4(a6)
1000233c:	e29ff06f          	j	10002164 <_malloc_r+0x4fc>
10002340:	00be0633          	add	a2,t3,a1
10002344:	40c005b3          	neg	a1,a2
10002348:	01459593          	slli	a1,a1,0x14
1000234c:	0145d593          	srli	a1,a1,0x14
10002350:	00040513          	mv	a0,s0
10002354:	03012423          	sw	a6,40(sp)
10002358:	03d12223          	sw	t4,36(sp)
1000235c:	02f12023          	sw	a5,32(sp)
10002360:	00d12e23          	sw	a3,28(sp)
10002364:	00612c23          	sw	t1,24(sp)
10002368:	01c12a23          	sw	t3,20(sp)
1000236c:	00b12623          	sw	a1,12(sp)
10002370:	00c12823          	sw	a2,16(sp)
10002374:	6ed030ef          	jal	10006260 <_sbrk_r>
10002378:	00050713          	mv	a4,a0
1000237c:	fff00513          	li	a0,-1
10002380:	00c12583          	lw	a1,12(sp)
10002384:	01412e03          	lw	t3,20(sp)
10002388:	01812303          	lw	t1,24(sp)
1000238c:	01c12683          	lw	a3,28(sp)
10002390:	02012783          	lw	a5,32(sp)
10002394:	02412e83          	lw	t4,36(sp)
10002398:	02812803          	lw	a6,40(sp)
1000239c:	c6a716e3          	bne	a4,a0,10002008 <_malloc_r+0x3a0>
100023a0:	01012703          	lw	a4,16(sp)
100023a4:	00000593          	li	a1,0
100023a8:	c61ff06f          	j	10002008 <_malloc_r+0x3a0>
100023ac:	05400593          	li	a1,84
100023b0:	06c5ec63          	bltu	a1,a2,10002428 <_malloc_r+0x7c0>
100023b4:	00c75613          	srli	a2,a4,0xc
100023b8:	06f60513          	addi	a0,a2,111
100023bc:	00351513          	slli	a0,a0,0x3
100023c0:	06e60593          	addi	a1,a2,110
100023c4:	d75ff06f          	j	10002138 <_malloc_r+0x4d0>
100023c8:	15400713          	li	a4,340
100023cc:	06f76c63          	bltu	a4,a5,10002444 <_malloc_r+0x7dc>
100023d0:	00f6d793          	srli	a5,a3,0xf
100023d4:	07878893          	addi	a7,a5,120
100023d8:	07778e13          	addi	t3,a5,119
100023dc:	00389513          	slli	a0,a7,0x3
100023e0:	97dff06f          	j	10001d5c <_malloc_r+0xf4>
100023e4:	21c18e93          	addi	t4,gp,540 # 10011cf4 <__malloc_current_mallinfo>
100023e8:	000ea603          	lw	a2,0(t4)
100023ec:	00c58633          	add	a2,a1,a2
100023f0:	00cea023          	sw	a2,0(t4)
100023f4:	b75ff06f          	j	10001f68 <_malloc_r+0x300>
100023f8:	01451513          	slli	a0,a0,0x14
100023fc:	b60516e3          	bnez	a0,10001f68 <_malloc_r+0x300>
10002400:	00882e03          	lw	t3,8(a6)
10002404:	00b305b3          	add	a1,t1,a1
10002408:	0015e713          	ori	a4,a1,1
1000240c:	00ee2223          	sw	a4,4(t3)
10002410:	c55ff06f          	j	10002064 <_malloc_r+0x3fc>
10002414:	f3c1a823          	sw	t3,-208(gp) # 10011a08 <__malloc_sbrk_base>
10002418:	b69ff06f          	j	10001f80 <_malloc_r+0x318>
1000241c:	00100793          	li	a5,1
10002420:	00fe2223          	sw	a5,4(t3)
10002424:	e8dff06f          	j	100022b0 <_malloc_r+0x648>
10002428:	15400593          	li	a1,340
1000242c:	06c5ec63          	bltu	a1,a2,100024a4 <_malloc_r+0x83c>
10002430:	00f75613          	srli	a2,a4,0xf
10002434:	07860513          	addi	a0,a2,120
10002438:	00351513          	slli	a0,a0,0x3
1000243c:	07760593          	addi	a1,a2,119
10002440:	cf9ff06f          	j	10002138 <_malloc_r+0x4d0>
10002444:	55400713          	li	a4,1364
10002448:	06f76c63          	bltu	a4,a5,100024c0 <_malloc_r+0x858>
1000244c:	0126d793          	srli	a5,a3,0x12
10002450:	07d78893          	addi	a7,a5,125
10002454:	07c78e13          	addi	t3,a5,124
10002458:	00389513          	slli	a0,a7,0x3
1000245c:	901ff06f          	j	10001d5c <_malloc_r+0xf4>
10002460:	ff8f0f13          	addi	t5,t5,-8
10002464:	01e60733          	add	a4,a2,t5
10002468:	00000593          	li	a1,0
1000246c:	b9dff06f          	j	10002008 <_malloc_r+0x3a0>
10002470:	00878593          	addi	a1,a5,8
10002474:	00040513          	mv	a0,s0
10002478:	01012a23          	sw	a6,20(sp)
1000247c:	01d12823          	sw	t4,16(sp)
10002480:	00d12623          	sw	a3,12(sp)
10002484:	cfcff0ef          	jal	10001980 <_free_r>
10002488:	01412803          	lw	a6,20(sp)
1000248c:	01012e83          	lw	t4,16(sp)
10002490:	00c12683          	lw	a3,12(sp)
10002494:	00882e03          	lw	t3,8(a6)
10002498:	000ea603          	lw	a2,0(t4)
1000249c:	004e2703          	lw	a4,4(t3)
100024a0:	bc5ff06f          	j	10002064 <_malloc_r+0x3fc>
100024a4:	55400593          	li	a1,1364
100024a8:	02c5e463          	bltu	a1,a2,100024d0 <_malloc_r+0x868>
100024ac:	01275613          	srli	a2,a4,0x12
100024b0:	07d60513          	addi	a0,a2,125
100024b4:	00351513          	slli	a0,a0,0x3
100024b8:	07c60593          	addi	a1,a2,124
100024bc:	c7dff06f          	j	10002138 <_malloc_r+0x4d0>
100024c0:	3f800513          	li	a0,1016
100024c4:	07f00893          	li	a7,127
100024c8:	07e00e13          	li	t3,126
100024cc:	891ff06f          	j	10001d5c <_malloc_r+0xf4>
100024d0:	3f800513          	li	a0,1016
100024d4:	07e00593          	li	a1,126
100024d8:	c61ff06f          	j	10002138 <_malloc_r+0x4d0>
100024dc:	00482783          	lw	a5,4(a6)
100024e0:	e15ff06f          	j	100022f4 <_malloc_r+0x68c>

100024e4 <__malloc_lock>:
100024e4:	00008067          	ret

100024e8 <__malloc_unlock>:
100024e8:	00008067          	ret

100024ec <_vfprintf_r>:
100024ec:	e4010113          	addi	sp,sp,-448
100024f0:	1a112e23          	sw	ra,444(sp)
100024f4:	1a912a23          	sw	s1,436(sp)
100024f8:	1b212823          	sw	s2,432(sp)
100024fc:	19a12823          	sw	s10,400(sp)
10002500:	00d12623          	sw	a3,12(sp)
10002504:	00060d13          	mv	s10,a2
10002508:	00058493          	mv	s1,a1
1000250c:	00050913          	mv	s2,a0
10002510:	541030ef          	jal	10006250 <_localeconv_r>
10002514:	00052783          	lw	a5,0(a0)
10002518:	00078513          	mv	a0,a5
1000251c:	02f12423          	sw	a5,40(sp)
10002520:	8ccff0ef          	jal	100015ec <strlen>
10002524:	02a12223          	sw	a0,36(sp)
10002528:	0c012023          	sw	zero,192(sp)
1000252c:	00090863          	beqz	s2,1000253c <_vfprintf_r+0x50>
10002530:	03492783          	lw	a5,52(s2)
10002534:	00079463          	bnez	a5,1000253c <_vfprintf_r+0x50>
10002538:	5ad0106f          	j	100042e4 <_vfprintf_r+0x1df8>
1000253c:	00c49703          	lh	a4,12(s1)
10002540:	0644a783          	lw	a5,100(s1)
10002544:	00002637          	lui	a2,0x2
10002548:	01271693          	slli	a3,a4,0x12
1000254c:	0006ce63          	bltz	a3,10002568 <_vfprintf_r+0x7c>
10002550:	ffffe6b7          	lui	a3,0xffffe
10002554:	fff68693          	addi	a3,a3,-1 # ffffdfff <_sp+0xeffea2df>
10002558:	00c76733          	or	a4,a4,a2
1000255c:	00d7f7b3          	and	a5,a5,a3
10002560:	00e49623          	sh	a4,12(s1)
10002564:	06f4a223          	sw	a5,100(s1)
10002568:	01279713          	slli	a4,a5,0x12
1000256c:	00075463          	bgez	a4,10002574 <_vfprintf_r+0x88>
10002570:	2a90206f          	j	10005018 <_vfprintf_r+0x2b2c>
10002574:	00c49783          	lh	a5,12(s1)
10002578:	0087f713          	andi	a4,a5,8
1000257c:	2c070463          	beqz	a4,10002844 <_vfprintf_r+0x358>
10002580:	0104a703          	lw	a4,16(s1)
10002584:	2c070063          	beqz	a4,10002844 <_vfprintf_r+0x358>
10002588:	01a7f793          	andi	a5,a5,26
1000258c:	00a00713          	li	a4,10
10002590:	2ce78c63          	beq	a5,a4,10002868 <_vfprintf_r+0x37c>
10002594:	100117b7          	lui	a5,0x10011
10002598:	1b312623          	sw	s3,428(sp)
1000259c:	1b412423          	sw	s4,424(sp)
100025a0:	0dc10993          	addi	s3,sp,220
100025a4:	10011a37          	lui	s4,0x10011
100025a8:	c4078793          	addi	a5,a5,-960 # 10010c40 <__clzsi2+0x2cc>
100025ac:	1a812c23          	sw	s0,440(sp)
100025b0:	1b612023          	sw	s6,416(sp)
100025b4:	1b512223          	sw	s5,420(sp)
100025b8:	19712e23          	sw	s7,412(sp)
100025bc:	19812c23          	sw	s8,408(sp)
100025c0:	19912a23          	sw	s9,404(sp)
100025c4:	19b12623          	sw	s11,396(sp)
100025c8:	0a012e23          	sw	zero,188(sp)
100025cc:	0a012c23          	sw	zero,184(sp)
100025d0:	0b312a23          	sw	s3,180(sp)
100025d4:	00098b13          	mv	s6,s3
100025d8:	00f12a23          	sw	a5,20(sp)
100025dc:	daca0a13          	addi	s4,s4,-596 # 10010dac <zeroes.0>
100025e0:	00012c23          	sw	zero,24(sp)
100025e4:	02012623          	sw	zero,44(sp)
100025e8:	02012823          	sw	zero,48(sp)
100025ec:	04012223          	sw	zero,68(sp)
100025f0:	02012a23          	sw	zero,52(sp)
100025f4:	00012423          	sw	zero,8(sp)
100025f8:	01000413          	li	s0,16
100025fc:	00912223          	sw	s1,4(sp)
10002600:	000d4783          	lbu	a5,0(s10)
10002604:	000d0a93          	mv	s5,s10
10002608:	fdb78713          	addi	a4,a5,-37
1000260c:	06070263          	beqz	a4,10002670 <_vfprintf_r+0x184>
10002610:	06078063          	beqz	a5,10002670 <_vfprintf_r+0x184>
10002614:	000a8c13          	mv	s8,s5
10002618:	001ac783          	lbu	a5,1(s5)
1000261c:	001a8a93          	addi	s5,s5,1
10002620:	00078663          	beqz	a5,1000262c <_vfprintf_r+0x140>
10002624:	fdb78713          	addi	a4,a5,-37
10002628:	fe0716e3          	bnez	a4,10002614 <_vfprintf_r+0x128>
1000262c:	41aa8cb3          	sub	s9,s5,s10
10002630:	05aa8063          	beq	s5,s10,10002670 <_vfprintf_r+0x184>
10002634:	0bc12783          	lw	a5,188(sp)
10002638:	0b812503          	lw	a0,184(sp)
1000263c:	01ab2023          	sw	s10,0(s6)
10002640:	019787b3          	add	a5,a5,s9
10002644:	00150513          	addi	a0,a0,1
10002648:	019b2223          	sw	s9,4(s6)
1000264c:	0af12e23          	sw	a5,188(sp)
10002650:	0aa12c23          	sw	a0,184(sp)
10002654:	00700793          	li	a5,7
10002658:	008b0b13          	addi	s6,s6,8
1000265c:	24a7c263          	blt	a5,a0,100028a0 <_vfprintf_r+0x3b4>
10002660:	00812783          	lw	a5,8(sp)
10002664:	019787b3          	add	a5,a5,s9
10002668:	00f12423          	sw	a5,8(sp)
1000266c:	001c4783          	lbu	a5,1(s8)
10002670:	00079463          	bnez	a5,10002678 <_vfprintf_r+0x18c>
10002674:	5a90106f          	j	1000441c <_vfprintf_r+0x1f30>
10002678:	001ac883          	lbu	a7,1(s5)
1000267c:	001a8d13          	addi	s10,s5,1
10002680:	080109a3          	sb	zero,147(sp)
10002684:	fff00a93          	li	s5,-1
10002688:	00012023          	sw	zero,0(sp)
1000268c:	00000b93          	li	s7,0
10002690:	05a00c13          	li	s8,90
10002694:	001d0d13          	addi	s10,s10,1
10002698:	fe088793          	addi	a5,a7,-32
1000269c:	04fc6c63          	bltu	s8,a5,100026f4 <_vfprintf_r+0x208>
100026a0:	01412703          	lw	a4,20(sp)
100026a4:	00279793          	slli	a5,a5,0x2
100026a8:	00e787b3          	add	a5,a5,a4
100026ac:	0007a783          	lw	a5,0(a5)
100026b0:	00078067          	jr	a5
100026b4:	fd088793          	addi	a5,a7,-48
100026b8:	00012023          	sw	zero,0(sp)
100026bc:	00900693          	li	a3,9
100026c0:	00012703          	lw	a4,0(sp)
100026c4:	00012603          	lw	a2,0(sp)
100026c8:	000d4883          	lbu	a7,0(s10)
100026cc:	00271713          	slli	a4,a4,0x2
100026d0:	00c70733          	add	a4,a4,a2
100026d4:	00171713          	slli	a4,a4,0x1
100026d8:	00e787b3          	add	a5,a5,a4
100026dc:	00f12023          	sw	a5,0(sp)
100026e0:	fd088793          	addi	a5,a7,-48
100026e4:	001d0d13          	addi	s10,s10,1
100026e8:	fcf6fce3          	bgeu	a3,a5,100026c0 <_vfprintf_r+0x1d4>
100026ec:	fe088793          	addi	a5,a7,-32
100026f0:	fafc78e3          	bgeu	s8,a5,100026a0 <_vfprintf_r+0x1b4>
100026f4:	00089463          	bnez	a7,100026fc <_vfprintf_r+0x210>
100026f8:	5250106f          	j	1000441c <_vfprintf_r+0x1f30>
100026fc:	00100c93          	li	s9,1
10002700:	11110e23          	sb	a7,284(sp)
10002704:	080109a3          	sb	zero,147(sp)
10002708:	000c8c13          	mv	s8,s9
1000270c:	00012823          	sw	zero,16(sp)
10002710:	00000a93          	li	s5,0
10002714:	02012023          	sw	zero,32(sp)
10002718:	00012e23          	sw	zero,28(sp)
1000271c:	00000313          	li	t1,0
10002720:	11c10793          	addi	a5,sp,284
10002724:	0bc12603          	lw	a2,188(sp)
10002728:	084bfd93          	andi	s11,s7,132
1000272c:	00060813          	mv	a6,a2
10002730:	7c0d8e63          	beqz	s11,10002f0c <_vfprintf_r+0xa20>
10002734:	09314703          	lbu	a4,147(sp)
10002738:	06070863          	beqz	a4,100027a8 <_vfprintf_r+0x2bc>
1000273c:	0b812583          	lw	a1,184(sp)
10002740:	00000713          	li	a4,0
10002744:	09310513          	addi	a0,sp,147
10002748:	00ab2023          	sw	a0,0(s6)
1000274c:	00160613          	addi	a2,a2,1 # 2001 <__heap_size+0x1001>
10002750:	00100513          	li	a0,1
10002754:	00158593          	addi	a1,a1,1
10002758:	00ab2223          	sw	a0,4(s6)
1000275c:	0ac12e23          	sw	a2,188(sp)
10002760:	0ab12c23          	sw	a1,184(sp)
10002764:	00700513          	li	a0,7
10002768:	008b0b13          	addi	s6,s6,8
1000276c:	58b54663          	blt	a0,a1,10002cf8 <_vfprintf_r+0x80c>
10002770:	02070c63          	beqz	a4,100027a8 <_vfprintf_r+0x2bc>
10002774:	0b812583          	lw	a1,184(sp)
10002778:	09410713          	addi	a4,sp,148
1000277c:	00eb2023          	sw	a4,0(s6)
10002780:	00260613          	addi	a2,a2,2
10002784:	00200713          	li	a4,2
10002788:	00158593          	addi	a1,a1,1
1000278c:	00eb2223          	sw	a4,4(s6)
10002790:	0ac12e23          	sw	a2,188(sp)
10002794:	0ab12c23          	sw	a1,184(sp)
10002798:	00700713          	li	a4,7
1000279c:	008b0b13          	addi	s6,s6,8
100027a0:	00b75463          	bge	a4,a1,100027a8 <_vfprintf_r+0x2bc>
100027a4:	1900106f          	j	10003934 <_vfprintf_r+0x1448>
100027a8:	08000713          	li	a4,128
100027ac:	00ed9463          	bne	s11,a4,100027b4 <_vfprintf_r+0x2c8>
100027b0:	7bd0006f          	j	1000376c <_vfprintf_r+0x1280>
100027b4:	419a8ab3          	sub	s5,s5,s9
100027b8:	77504863          	bgtz	s5,10002f28 <_vfprintf_r+0xa3c>
100027bc:	100bf713          	andi	a4,s7,256
100027c0:	060710e3          	bnez	a4,10003020 <_vfprintf_r+0xb34>
100027c4:	00fb2023          	sw	a5,0(s6)
100027c8:	0b812783          	lw	a5,184(sp)
100027cc:	01960633          	add	a2,a2,s9
100027d0:	0ac12e23          	sw	a2,188(sp)
100027d4:	00178793          	addi	a5,a5,1
100027d8:	019b2223          	sw	s9,4(s6)
100027dc:	00700713          	li	a4,7
100027e0:	0af12c23          	sw	a5,184(sp)
100027e4:	66f74a63          	blt	a4,a5,10002e58 <_vfprintf_r+0x96c>
100027e8:	008b0b13          	addi	s6,s6,8
100027ec:	004bfe13          	andi	t3,s7,4
100027f0:	000e0a63          	beqz	t3,10002804 <_vfprintf_r+0x318>
100027f4:	00012783          	lw	a5,0(sp)
100027f8:	41878ab3          	sub	s5,a5,s8
100027fc:	01505463          	blez	s5,10002804 <_vfprintf_r+0x318>
10002800:	16c0106f          	j	1000396c <_vfprintf_r+0x1480>
10002804:	00012303          	lw	t1,0(sp)
10002808:	01835463          	bge	t1,s8,10002810 <_vfprintf_r+0x324>
1000280c:	000c0313          	mv	t1,s8
10002810:	00812783          	lw	a5,8(sp)
10002814:	006787b3          	add	a5,a5,t1
10002818:	00f12423          	sw	a5,8(sp)
1000281c:	00060463          	beqz	a2,10002824 <_vfprintf_r+0x338>
10002820:	0700106f          	j	10003890 <_vfprintf_r+0x13a4>
10002824:	01012783          	lw	a5,16(sp)
10002828:	0a012c23          	sw	zero,184(sp)
1000282c:	00078863          	beqz	a5,1000283c <_vfprintf_r+0x350>
10002830:	01012583          	lw	a1,16(sp)
10002834:	00090513          	mv	a0,s2
10002838:	948ff0ef          	jal	10001980 <_free_r>
1000283c:	00098b13          	mv	s6,s3
10002840:	dc1ff06f          	j	10002600 <_vfprintf_r+0x114>
10002844:	00048593          	mv	a1,s1
10002848:	00090513          	mv	a0,s2
1000284c:	74c030ef          	jal	10005f98 <__swsetup_r>
10002850:	00050463          	beqz	a0,10002858 <_vfprintf_r+0x36c>
10002854:	7c40206f          	j	10005018 <_vfprintf_r+0x2b2c>
10002858:	00c49783          	lh	a5,12(s1)
1000285c:	00a00713          	li	a4,10
10002860:	01a7f793          	andi	a5,a5,26
10002864:	d2e798e3          	bne	a5,a4,10002594 <_vfprintf_r+0xa8>
10002868:	00e49783          	lh	a5,14(s1)
1000286c:	d207c4e3          	bltz	a5,10002594 <_vfprintf_r+0xa8>
10002870:	00c12683          	lw	a3,12(sp)
10002874:	000d0613          	mv	a2,s10
10002878:	00048593          	mv	a1,s1
1000287c:	00090513          	mv	a0,s2
10002880:	4f9020ef          	jal	10005578 <__sbprintf>
10002884:	00a12423          	sw	a0,8(sp)
10002888:	0680106f          	j	100038f0 <_vfprintf_r+0x1404>
1000288c:	000d4883          	lbu	a7,0(s10)
10002890:	e05ff06f          	j	10002694 <_vfprintf_r+0x1a8>
10002894:	000d4883          	lbu	a7,0(s10)
10002898:	020beb93          	ori	s7,s7,32
1000289c:	df9ff06f          	j	10002694 <_vfprintf_r+0x1a8>
100028a0:	00412583          	lw	a1,4(sp)
100028a4:	0b410613          	addi	a2,sp,180
100028a8:	00090513          	mv	a0,s2
100028ac:	58d020ef          	jal	10005638 <__sprint_r>
100028b0:	00050463          	beqz	a0,100028b8 <_vfprintf_r+0x3cc>
100028b4:	1990206f          	j	1000524c <_vfprintf_r+0x2d60>
100028b8:	00098b13          	mv	s6,s3
100028bc:	da5ff06f          	j	10002660 <_vfprintf_r+0x174>
100028c0:	008bf793          	andi	a5,s7,8
100028c4:	00078463          	beqz	a5,100028cc <_vfprintf_r+0x3e0>
100028c8:	5a80106f          	j	10003e70 <_vfprintf_r+0x1984>
100028cc:	00c12783          	lw	a5,12(sp)
100028d0:	08010513          	addi	a0,sp,128
100028d4:	01112823          	sw	a7,16(sp)
100028d8:	00778793          	addi	a5,a5,7
100028dc:	ff87f793          	andi	a5,a5,-8
100028e0:	0047a603          	lw	a2,4(a5)
100028e4:	0007a583          	lw	a1,0(a5)
100028e8:	00878793          	addi	a5,a5,8
100028ec:	00f12623          	sw	a5,12(sp)
100028f0:	68d0d0ef          	jal	1001077c <__extenddftf2>
100028f4:	08012603          	lw	a2,128(sp)
100028f8:	08412683          	lw	a3,132(sp)
100028fc:	08812703          	lw	a4,136(sp)
10002900:	08c12783          	lw	a5,140(sp)
10002904:	01012883          	lw	a7,16(sp)
10002908:	0c010513          	addi	a0,sp,192
1000290c:	01112823          	sw	a7,16(sp)
10002910:	0cf12623          	sw	a5,204(sp)
10002914:	0cc12023          	sw	a2,192(sp)
10002918:	0cd12223          	sw	a3,196(sp)
1000291c:	0ce12423          	sw	a4,200(sp)
10002920:	7f9030ef          	jal	10006918 <_ldcheck>
10002924:	08a12c23          	sw	a0,152(sp)
10002928:	00200793          	li	a5,2
1000292c:	01012883          	lw	a7,16(sp)
10002930:	00f51463          	bne	a0,a5,10002938 <_vfprintf_r+0x44c>
10002934:	2490106f          	j	1000437c <_vfprintf_r+0x1e90>
10002938:	00100793          	li	a5,1
1000293c:	00f51463          	bne	a0,a5,10002944 <_vfprintf_r+0x458>
10002940:	3c50106f          	j	10004504 <_vfprintf_r+0x2018>
10002944:	fdf8fc13          	andi	s8,a7,-33
10002948:	04100793          	li	a5,65
1000294c:	00fc0463          	beq	s8,a5,10002954 <_vfprintf_r+0x468>
10002950:	4010106f          	j	10004550 <_vfprintf_r+0x2064>
10002954:	03000793          	li	a5,48
10002958:	08f10a23          	sb	a5,148(sp)
1000295c:	06100713          	li	a4,97
10002960:	05800793          	li	a5,88
10002964:	00e89463          	bne	a7,a4,1000296c <_vfprintf_r+0x480>
10002968:	1540206f          	j	10004abc <_vfprintf_r+0x25d0>
1000296c:	08f10aa3          	sb	a5,149(sp)
10002970:	06300793          	li	a5,99
10002974:	0157d463          	bge	a5,s5,1000297c <_vfprintf_r+0x490>
10002978:	1080206f          	j	10004a80 <_vfprintf_r+0x2594>
1000297c:	0cc12703          	lw	a4,204(sp)
10002980:	0c012683          	lw	a3,192(sp)
10002984:	0c412603          	lw	a2,196(sp)
10002988:	0c812583          	lw	a1,200(sp)
1000298c:	00075463          	bgez	a4,10002994 <_vfprintf_r+0x4a8>
10002990:	0210206f          	j	100051b0 <_vfprintf_r+0x2cc4>
10002994:	02012c23          	sw	zero,56(sp)
10002998:	00012823          	sw	zero,16(sp)
1000299c:	11c10793          	addi	a5,sp,284
100029a0:	08010d93          	addi	s11,sp,128
100029a4:	04f12023          	sw	a5,64(sp)
100029a8:	06c12a23          	sw	a2,116(sp)
100029ac:	002be793          	ori	a5,s7,2
100029b0:	06b12c23          	sw	a1,120(sp)
100029b4:	000d8513          	mv	a0,s11
100029b8:	07010593          	addi	a1,sp,112
100029bc:	09810613          	addi	a2,sp,152
100029c0:	03112e23          	sw	a7,60(sp)
100029c4:	00f12e23          	sw	a5,28(sp)
100029c8:	06d12823          	sw	a3,112(sp)
100029cc:	06e12e23          	sw	a4,124(sp)
100029d0:	33d030ef          	jal	1000650c <frexpl>
100029d4:	08812703          	lw	a4,136(sp)
100029d8:	08012603          	lw	a2,128(sp)
100029dc:	08412683          	lw	a3,132(sp)
100029e0:	06e12c23          	sw	a4,120(sp)
100029e4:	08c12703          	lw	a4,140(sp)
100029e8:	06c12823          	sw	a2,112(sp)
100029ec:	06d12a23          	sw	a3,116(sp)
100029f0:	06010613          	addi	a2,sp,96
100029f4:	3ffc06b7          	lui	a3,0x3ffc0
100029f8:	07010593          	addi	a1,sp,112
100029fc:	000d8513          	mv	a0,s11
10002a00:	06d12623          	sw	a3,108(sp)
10002a04:	06e12e23          	sw	a4,124(sp)
10002a08:	06012023          	sw	zero,96(sp)
10002a0c:	06012223          	sw	zero,100(sp)
10002a10:	06012423          	sw	zero,104(sp)
10002a14:	0450b0ef          	jal	1000e258 <__multf3>
10002a18:	08012e03          	lw	t3,128(sp)
10002a1c:	08412803          	lw	a6,132(sp)
10002a20:	08812603          	lw	a2,136(sp)
10002a24:	07010593          	addi	a1,sp,112
10002a28:	000d8513          	mv	a0,s11
10002a2c:	03c12623          	sw	t3,44(sp)
10002a30:	03012023          	sw	a6,32(sp)
10002a34:	00c12c23          	sw	a2,24(sp)
10002a38:	06012823          	sw	zero,112(sp)
10002a3c:	06012a23          	sw	zero,116(sp)
10002a40:	06012c23          	sw	zero,120(sp)
10002a44:	06012e23          	sw	zero,124(sp)
10002a48:	4b80b0ef          	jal	1000df00 <__eqtf2>
10002a4c:	08c12b83          	lw	s7,140(sp)
10002a50:	01812603          	lw	a2,24(sp)
10002a54:	02012803          	lw	a6,32(sp)
10002a58:	02c12e03          	lw	t3,44(sp)
10002a5c:	03c12883          	lw	a7,60(sp)
10002a60:	04012783          	lw	a5,64(sp)
10002a64:	00051663          	bnez	a0,10002a70 <_vfprintf_r+0x584>
10002a68:	00100693          	li	a3,1
10002a6c:	08d12c23          	sw	a3,152(sp)
10002a70:	06100693          	li	a3,97
10002a74:	00d89463          	bne	a7,a3,10002a7c <_vfprintf_r+0x590>
10002a78:	2050206f          	j	1000547c <_vfprintf_r+0x2f90>
10002a7c:	100116b7          	lui	a3,0x10011
10002a80:	b1468713          	addi	a4,a3,-1260 # 10010b14 <__clzsi2+0x1a0>
10002a84:	00e12c23          	sw	a4,24(sp)
10002a88:	03612023          	sw	s6,32(sp)
10002a8c:	000b8c93          	mv	s9,s7
10002a90:	05212423          	sw	s2,72(sp)
10002a94:	01812483          	lw	s1,24(sp)
10002a98:	00078c13          	mv	s8,a5
10002a9c:	03112623          	sw	a7,44(sp)
10002aa0:	02f12e23          	sw	a5,60(sp)
10002aa4:	05a12023          	sw	s10,64(sp)
10002aa8:	00080b13          	mv	s6,a6
10002aac:	00060b93          	mv	s7,a2
10002ab0:	000e0913          	mv	s2,t3
10002ab4:	03c0006f          	j	10002af0 <_vfprintf_r+0x604>
10002ab8:	07010593          	addi	a1,sp,112
10002abc:	000d8513          	mv	a0,s11
10002ac0:	09212023          	sw	s2,128(sp)
10002ac4:	09612223          	sw	s6,132(sp)
10002ac8:	09712423          	sw	s7,136(sp)
10002acc:	09912623          	sw	s9,140(sp)
10002ad0:	06012823          	sw	zero,112(sp)
10002ad4:	06012a23          	sw	zero,116(sp)
10002ad8:	06012c23          	sw	zero,120(sp)
10002adc:	06012e23          	sw	zero,124(sp)
10002ae0:	4200b0ef          	jal	1000df00 <__eqtf2>
10002ae4:	00051463          	bnez	a0,10002aec <_vfprintf_r+0x600>
10002ae8:	7cc0206f          	j	100052b4 <_vfprintf_r+0x2dc8>
10002aec:	fffa8a93          	addi	s5,s5,-1
10002af0:	400307b7          	lui	a5,0x40030
10002af4:	06010613          	addi	a2,sp,96
10002af8:	07010593          	addi	a1,sp,112
10002afc:	000d8513          	mv	a0,s11
10002b00:	06f12623          	sw	a5,108(sp)
10002b04:	07212823          	sw	s2,112(sp)
10002b08:	07612a23          	sw	s6,116(sp)
10002b0c:	07712c23          	sw	s7,120(sp)
10002b10:	07912e23          	sw	s9,124(sp)
10002b14:	06012023          	sw	zero,96(sp)
10002b18:	06012223          	sw	zero,100(sp)
10002b1c:	06012423          	sw	zero,104(sp)
10002b20:	7380b0ef          	jal	1000e258 <__multf3>
10002b24:	000d8513          	mv	a0,s11
10002b28:	2150d0ef          	jal	1001053c <__fixtfsi>
10002b2c:	00050593          	mv	a1,a0
10002b30:	00050d13          	mv	s10,a0
10002b34:	000d8513          	mv	a0,s11
10002b38:	08012c83          	lw	s9,128(sp)
10002b3c:	08412b83          	lw	s7,132(sp)
10002b40:	08812b03          	lw	s6,136(sp)
10002b44:	08c12903          	lw	s2,140(sp)
10002b48:	2e90d0ef          	jal	10010630 <__floatsitf>
10002b4c:	08812783          	lw	a5,136(sp)
10002b50:	08012603          	lw	a2,128(sp)
10002b54:	08412683          	lw	a3,132(sp)
10002b58:	04f12c23          	sw	a5,88(sp)
10002b5c:	08c12783          	lw	a5,140(sp)
10002b60:	04c12823          	sw	a2,80(sp)
10002b64:	06010593          	addi	a1,sp,96
10002b68:	05010613          	addi	a2,sp,80
10002b6c:	07010513          	addi	a0,sp,112
10002b70:	07912023          	sw	s9,96(sp)
10002b74:	07712223          	sw	s7,100(sp)
10002b78:	07612423          	sw	s6,104(sp)
10002b7c:	07212623          	sw	s2,108(sp)
10002b80:	04d12a23          	sw	a3,84(sp)
10002b84:	04f12e23          	sw	a5,92(sp)
10002b88:	6100c0ef          	jal	1000f198 <__subtf3>
10002b8c:	01a487b3          	add	a5,s1,s10
10002b90:	0007c683          	lbu	a3,0(a5) # 40030000 <_sp+0x3001c2e0>
10002b94:	000c0593          	mv	a1,s8
10002b98:	001c0c13          	addi	s8,s8,1
10002b9c:	07012903          	lw	s2,112(sp)
10002ba0:	07412b03          	lw	s6,116(sp)
10002ba4:	07812b83          	lw	s7,120(sp)
10002ba8:	07c12c83          	lw	s9,124(sp)
10002bac:	fedc0fa3          	sb	a3,-1(s8)
10002bb0:	f00a94e3          	bnez	s5,10002ab8 <_vfprintf_r+0x5cc>
10002bb4:	02c12883          	lw	a7,44(sp)
10002bb8:	03c12783          	lw	a5,60(sp)
10002bbc:	00090e13          	mv	t3,s2
10002bc0:	000b0813          	mv	a6,s6
10002bc4:	000b8613          	mv	a2,s7
10002bc8:	00058493          	mv	s1,a1
10002bcc:	000c8b93          	mv	s7,s9
10002bd0:	3ffe0ab7          	lui	s5,0x3ffe0
10002bd4:	07010593          	addi	a1,sp,112
10002bd8:	000d8513          	mv	a0,s11
10002bdc:	05112623          	sw	a7,76(sp)
10002be0:	02f12623          	sw	a5,44(sp)
10002be4:	04812903          	lw	s2,72(sp)
10002be8:	000d0c93          	mv	s9,s10
10002bec:	09c12023          	sw	t3,128(sp)
10002bf0:	04012d03          	lw	s10,64(sp)
10002bf4:	05c12423          	sw	t3,72(sp)
10002bf8:	09012223          	sw	a6,132(sp)
10002bfc:	05012023          	sw	a6,64(sp)
10002c00:	08c12423          	sw	a2,136(sp)
10002c04:	02c12e23          	sw	a2,60(sp)
10002c08:	09712623          	sw	s7,140(sp)
10002c0c:	06012823          	sw	zero,112(sp)
10002c10:	06012a23          	sw	zero,116(sp)
10002c14:	06012c23          	sw	zero,120(sp)
10002c18:	07512e23          	sw	s5,124(sp)
10002c1c:	3d40b0ef          	jal	1000dff0 <__getf2>
10002c20:	02012b03          	lw	s6,32(sp)
10002c24:	02c12783          	lw	a5,44(sp)
10002c28:	04c12883          	lw	a7,76(sp)
10002c2c:	02a04463          	bgtz	a0,10002c54 <_vfprintf_r+0x768>
10002c30:	07010593          	addi	a1,sp,112
10002c34:	000d8513          	mv	a0,s11
10002c38:	03112023          	sw	a7,32(sp)
10002c3c:	2c40b0ef          	jal	1000df00 <__eqtf2>
10002c40:	02012883          	lw	a7,32(sp)
10002c44:	02c12783          	lw	a5,44(sp)
10002c48:	04051c63          	bnez	a0,10002ca0 <_vfprintf_r+0x7b4>
10002c4c:	001cfc93          	andi	s9,s9,1
10002c50:	040c8863          	beqz	s9,10002ca0 <_vfprintf_r+0x7b4>
10002c54:	01812703          	lw	a4,24(sp)
10002c58:	0a912023          	sw	s1,160(sp)
10002c5c:	fffc4603          	lbu	a2,-1(s8)
10002c60:	00f74583          	lbu	a1,15(a4)
10002c64:	000c0713          	mv	a4,s8
10002c68:	02c59063          	bne	a1,a2,10002c88 <_vfprintf_r+0x79c>
10002c6c:	03000513          	li	a0,48
10002c70:	fea70fa3          	sb	a0,-1(a4)
10002c74:	0a012703          	lw	a4,160(sp)
10002c78:	fff70693          	addi	a3,a4,-1
10002c7c:	0ad12023          	sw	a3,160(sp)
10002c80:	fff74603          	lbu	a2,-1(a4)
10002c84:	fec586e3          	beq	a1,a2,10002c70 <_vfprintf_r+0x784>
10002c88:	00160593          	addi	a1,a2,1
10002c8c:	03900513          	li	a0,57
10002c90:	0ff5f593          	zext.b	a1,a1
10002c94:	00a61463          	bne	a2,a0,10002c9c <_vfprintf_r+0x7b0>
10002c98:	1840206f          	j	10004e1c <_vfprintf_r+0x2930>
10002c9c:	feb70fa3          	sb	a1,-1(a4)
10002ca0:	09812603          	lw	a2,152(sp)
10002ca4:	00f88713          	addi	a4,a7,15
10002ca8:	0ae10223          	sb	a4,164(sp)
10002cac:	40fc06b3          	sub	a3,s8,a5
10002cb0:	fff60713          	addi	a4,a2,-1
10002cb4:	08e12c23          	sw	a4,152(sp)
10002cb8:	00d12c23          	sw	a3,24(sp)
10002cbc:	00075463          	bgez	a4,10002cc4 <_vfprintf_r+0x7d8>
10002cc0:	7cc0206f          	j	1000548c <_vfprintf_r+0x2fa0>
10002cc4:	02b00693          	li	a3,43
10002cc8:	0ad102a3          	sb	a3,165(sp)
10002ccc:	00900693          	li	a3,9
10002cd0:	00e6d463          	bge	a3,a4,10002cd8 <_vfprintf_r+0x7ec>
10002cd4:	0680206f          	j	10004d3c <_vfprintf_r+0x2850>
10002cd8:	0a610693          	addi	a3,sp,166
10002cdc:	03070713          	addi	a4,a4,48
10002ce0:	00e68023          	sb	a4,0(a3)
10002ce4:	18010713          	addi	a4,sp,384
10002ce8:	40e686b3          	sub	a3,a3,a4
10002cec:	0dd68713          	addi	a4,a3,221
10002cf0:	02e12623          	sw	a4,44(sp)
10002cf4:	0d40206f          	j	10004dc8 <_vfprintf_r+0x28dc>
10002cf8:	00412583          	lw	a1,4(sp)
10002cfc:	0b410613          	addi	a2,sp,180
10002d00:	00090513          	mv	a0,s2
10002d04:	04612423          	sw	t1,72(sp)
10002d08:	04f12023          	sw	a5,64(sp)
10002d0c:	03112e23          	sw	a7,60(sp)
10002d10:	02e12c23          	sw	a4,56(sp)
10002d14:	125020ef          	jal	10005638 <__sprint_r>
10002d18:	380518e3          	bnez	a0,100038a8 <_vfprintf_r+0x13bc>
10002d1c:	0bc12603          	lw	a2,188(sp)
10002d20:	04812303          	lw	t1,72(sp)
10002d24:	04012783          	lw	a5,64(sp)
10002d28:	03c12883          	lw	a7,60(sp)
10002d2c:	03812703          	lw	a4,56(sp)
10002d30:	00098b13          	mv	s6,s3
10002d34:	a3dff06f          	j	10002770 <_vfprintf_r+0x284>
10002d38:	0b812a83          	lw	s5,184(sp)
10002d3c:	01812683          	lw	a3,24(sp)
10002d40:	00100713          	li	a4,1
10002d44:	00e60633          	add	a2,a2,a4
10002d48:	00ea8ab3          	add	s5,s5,a4
10002d4c:	008b0d93          	addi	s11,s6,8
10002d50:	76d75ee3          	bge	a4,a3,10003ccc <_vfprintf_r+0x17e0>
10002d54:	00100713          	li	a4,1
10002d58:	00eb2223          	sw	a4,4(s6)
10002d5c:	00fb2023          	sw	a5,0(s6)
10002d60:	0ac12e23          	sw	a2,188(sp)
10002d64:	0b512c23          	sw	s5,184(sp)
10002d68:	00700713          	li	a4,7
10002d6c:	01575463          	bge	a4,s5,10002d74 <_vfprintf_r+0x888>
10002d70:	4100106f          	j	10004180 <_vfprintf_r+0x1c94>
10002d74:	02412703          	lw	a4,36(sp)
10002d78:	001a8a93          	addi	s5,s5,1 # 3ffe0001 <_sp+0x2ffcc2e1>
10002d7c:	0b512c23          	sw	s5,184(sp)
10002d80:	00e60633          	add	a2,a2,a4
10002d84:	02812703          	lw	a4,40(sp)
10002d88:	0ac12e23          	sw	a2,188(sp)
10002d8c:	008d8d93          	addi	s11,s11,8
10002d90:	feedac23          	sw	a4,-8(s11)
10002d94:	02412703          	lw	a4,36(sp)
10002d98:	feedae23          	sw	a4,-4(s11)
10002d9c:	00700713          	li	a4,7
10002da0:	01575463          	bge	a4,s5,10002da8 <_vfprintf_r+0x8bc>
10002da4:	3b00106f          	j	10004154 <_vfprintf_r+0x1c68>
10002da8:	0c812703          	lw	a4,200(sp)
10002dac:	0c012503          	lw	a0,192(sp)
10002db0:	0c412583          	lw	a1,196(sp)
10002db4:	02f12023          	sw	a5,32(sp)
10002db8:	08e12423          	sw	a4,136(sp)
10002dbc:	01812783          	lw	a5,24(sp)
10002dc0:	0cc12703          	lw	a4,204(sp)
10002dc4:	08a12023          	sw	a0,128(sp)
10002dc8:	08b12223          	sw	a1,132(sp)
10002dcc:	08010513          	addi	a0,sp,128
10002dd0:	07010593          	addi	a1,sp,112
10002dd4:	00c12e23          	sw	a2,28(sp)
10002dd8:	06012823          	sw	zero,112(sp)
10002ddc:	06012a23          	sw	zero,116(sp)
10002de0:	06012c23          	sw	zero,120(sp)
10002de4:	06012e23          	sw	zero,124(sp)
10002de8:	08e12623          	sw	a4,140(sp)
10002dec:	fff78b13          	addi	s6,a5,-1
10002df0:	1100b0ef          	jal	1000df00 <__eqtf2>
10002df4:	01c12603          	lw	a2,28(sp)
10002df8:	70050ce3          	beqz	a0,10003d10 <_vfprintf_r+0x1824>
10002dfc:	02012783          	lw	a5,32(sp)
10002e00:	001a8a93          	addi	s5,s5,1
10002e04:	01660633          	add	a2,a2,s6
10002e08:	00178793          	addi	a5,a5,1
10002e0c:	0b512c23          	sw	s5,184(sp)
10002e10:	0ac12e23          	sw	a2,188(sp)
10002e14:	00fda023          	sw	a5,0(s11)
10002e18:	016da223          	sw	s6,4(s11)
10002e1c:	00700793          	li	a5,7
10002e20:	6d57c6e3          	blt	a5,s5,10003cec <_vfprintf_r+0x1800>
10002e24:	008d8d93          	addi	s11,s11,8
10002e28:	02c12783          	lw	a5,44(sp)
10002e2c:	02c12683          	lw	a3,44(sp)
10002e30:	0a410713          	addi	a4,sp,164
10002e34:	00c78633          	add	a2,a5,a2
10002e38:	001a8793          	addi	a5,s5,1
10002e3c:	00eda023          	sw	a4,0(s11)
10002e40:	0ac12e23          	sw	a2,188(sp)
10002e44:	0af12c23          	sw	a5,184(sp)
10002e48:	00dda223          	sw	a3,4(s11)
10002e4c:	00700713          	li	a4,7
10002e50:	008d8b13          	addi	s6,s11,8
10002e54:	98f75ce3          	bge	a4,a5,100027ec <_vfprintf_r+0x300>
10002e58:	00412583          	lw	a1,4(sp)
10002e5c:	0b410613          	addi	a2,sp,180
10002e60:	00090513          	mv	a0,s2
10002e64:	7d4020ef          	jal	10005638 <__sprint_r>
10002e68:	240510e3          	bnez	a0,100038a8 <_vfprintf_r+0x13bc>
10002e6c:	0bc12603          	lw	a2,188(sp)
10002e70:	00098b13          	mv	s6,s3
10002e74:	979ff06f          	j	100027ec <_vfprintf_r+0x300>
10002e78:	00c12783          	lw	a5,12(sp)
10002e7c:	00c12703          	lw	a4,12(sp)
10002e80:	080109a3          	sb	zero,147(sp)
10002e84:	0007a783          	lw	a5,0(a5)
10002e88:	00470493          	addi	s1,a4,4
10002e8c:	00079463          	bnez	a5,10002e94 <_vfprintf_r+0x9a8>
10002e90:	1580106f          	j	10003fe8 <_vfprintf_r+0x1afc>
10002e94:	000ad463          	bgez	s5,10002e9c <_vfprintf_r+0x9b0>
10002e98:	24c0106f          	j	100040e4 <_vfprintf_r+0x1bf8>
10002e9c:	00078513          	mv	a0,a5
10002ea0:	000a8613          	mv	a2,s5
10002ea4:	00000593          	li	a1,0
10002ea8:	01112e23          	sw	a7,28(sp)
10002eac:	00f12623          	sw	a5,12(sp)
10002eb0:	24c030ef          	jal	100060fc <memchr>
10002eb4:	00a12823          	sw	a0,16(sp)
10002eb8:	09314703          	lbu	a4,147(sp)
10002ebc:	00c12783          	lw	a5,12(sp)
10002ec0:	01c12883          	lw	a7,28(sp)
10002ec4:	00051463          	bnez	a0,10002ecc <_vfprintf_r+0x9e0>
10002ec8:	16c0206f          	j	10005034 <_vfprintf_r+0x2b48>
10002ecc:	40f50cb3          	sub	s9,a0,a5
10002ed0:	fffcc693          	not	a3,s9
10002ed4:	41f6d693          	srai	a3,a3,0x1f
10002ed8:	00dcfc33          	and	s8,s9,a3
10002edc:	00070463          	beqz	a4,10002ee4 <_vfprintf_r+0x9f8>
10002ee0:	2380106f          	j	10004118 <_vfprintf_r+0x1c2c>
10002ee4:	00912623          	sw	s1,12(sp)
10002ee8:	0bc12603          	lw	a2,188(sp)
10002eec:	00012823          	sw	zero,16(sp)
10002ef0:	02012023          	sw	zero,32(sp)
10002ef4:	00012e23          	sw	zero,28(sp)
10002ef8:	084bfd93          	andi	s11,s7,132
10002efc:	00000a93          	li	s5,0
10002f00:	00000313          	li	t1,0
10002f04:	00060813          	mv	a6,a2
10002f08:	820d96e3          	bnez	s11,10002734 <_vfprintf_r+0x248>
10002f0c:	00012703          	lw	a4,0(sp)
10002f10:	41870733          	sub	a4,a4,s8
10002f14:	58e048e3          	bgtz	a4,10003ca4 <_vfprintf_r+0x17b8>
10002f18:	09314703          	lbu	a4,147(sp)
10002f1c:	820710e3          	bnez	a4,1000273c <_vfprintf_r+0x250>
10002f20:	419a8ab3          	sub	s5,s5,s9
10002f24:	89505ce3          	blez	s5,100027bc <_vfprintf_r+0x2d0>
10002f28:	10011837          	lui	a6,0x10011
10002f2c:	0b812583          	lw	a1,184(sp)
10002f30:	dac80813          	addi	a6,a6,-596 # 10010dac <zeroes.0>
10002f34:	09545663          	bge	s0,s5,10002fc0 <_vfprintf_r+0xad4>
10002f38:	000a8493          	mv	s1,s5
10002f3c:	02f12e23          	sw	a5,60(sp)
10002f40:	00700d93          	li	s11,7
10002f44:	000b0793          	mv	a5,s6
10002f48:	03112c23          	sw	a7,56(sp)
10002f4c:	00030a93          	mv	s5,t1
10002f50:	000a0b13          	mv	s6,s4
10002f54:	00c0006f          	j	10002f60 <_vfprintf_r+0xa74>
10002f58:	ff048493          	addi	s1,s1,-16
10002f5c:	04945663          	bge	s0,s1,10002fa8 <_vfprintf_r+0xabc>
10002f60:	01060613          	addi	a2,a2,16
10002f64:	00158593          	addi	a1,a1,1
10002f68:	0147a023          	sw	s4,0(a5)
10002f6c:	0087a223          	sw	s0,4(a5)
10002f70:	0ac12e23          	sw	a2,188(sp)
10002f74:	0ab12c23          	sw	a1,184(sp)
10002f78:	00878793          	addi	a5,a5,8
10002f7c:	fcbddee3          	bge	s11,a1,10002f58 <_vfprintf_r+0xa6c>
10002f80:	00412583          	lw	a1,4(sp)
10002f84:	0b410613          	addi	a2,sp,180
10002f88:	00090513          	mv	a0,s2
10002f8c:	6ac020ef          	jal	10005638 <__sprint_r>
10002f90:	10051ce3          	bnez	a0,100038a8 <_vfprintf_r+0x13bc>
10002f94:	ff048493          	addi	s1,s1,-16
10002f98:	0bc12603          	lw	a2,188(sp)
10002f9c:	0b812583          	lw	a1,184(sp)
10002fa0:	00098793          	mv	a5,s3
10002fa4:	fa944ee3          	blt	s0,s1,10002f60 <_vfprintf_r+0xa74>
10002fa8:	000b0813          	mv	a6,s6
10002fac:	03812883          	lw	a7,56(sp)
10002fb0:	00078b13          	mv	s6,a5
10002fb4:	03c12783          	lw	a5,60(sp)
10002fb8:	000a8313          	mv	t1,s5
10002fbc:	00048a93          	mv	s5,s1
10002fc0:	01560633          	add	a2,a2,s5
10002fc4:	00158593          	addi	a1,a1,1
10002fc8:	010b2023          	sw	a6,0(s6)
10002fcc:	015b2223          	sw	s5,4(s6)
10002fd0:	0ac12e23          	sw	a2,188(sp)
10002fd4:	0ab12c23          	sw	a1,184(sp)
10002fd8:	00700713          	li	a4,7
10002fdc:	008b0b13          	addi	s6,s6,8
10002fe0:	fcb75e63          	bge	a4,a1,100027bc <_vfprintf_r+0x2d0>
10002fe4:	00412583          	lw	a1,4(sp)
10002fe8:	0b410613          	addi	a2,sp,180
10002fec:	00090513          	mv	a0,s2
10002ff0:	04612023          	sw	t1,64(sp)
10002ff4:	02f12e23          	sw	a5,60(sp)
10002ff8:	03112c23          	sw	a7,56(sp)
10002ffc:	63c020ef          	jal	10005638 <__sprint_r>
10003000:	0a0514e3          	bnez	a0,100038a8 <_vfprintf_r+0x13bc>
10003004:	100bf713          	andi	a4,s7,256
10003008:	0bc12603          	lw	a2,188(sp)
1000300c:	04012303          	lw	t1,64(sp)
10003010:	03c12783          	lw	a5,60(sp)
10003014:	03812883          	lw	a7,56(sp)
10003018:	00098b13          	mv	s6,s3
1000301c:	fa070463          	beqz	a4,100027c4 <_vfprintf_r+0x2d8>
10003020:	06500713          	li	a4,101
10003024:	d1175ae3          	bge	a4,a7,10002d38 <_vfprintf_r+0x84c>
10003028:	0c412703          	lw	a4,196(sp)
1000302c:	0c012583          	lw	a1,192(sp)
10003030:	0c812503          	lw	a0,200(sp)
10003034:	08e12223          	sw	a4,132(sp)
10003038:	0cc12703          	lw	a4,204(sp)
1000303c:	08b12023          	sw	a1,128(sp)
10003040:	08a12423          	sw	a0,136(sp)
10003044:	07010593          	addi	a1,sp,112
10003048:	08010513          	addi	a0,sp,128
1000304c:	02c12e23          	sw	a2,60(sp)
10003050:	02f12c23          	sw	a5,56(sp)
10003054:	04612023          	sw	t1,64(sp)
10003058:	06012823          	sw	zero,112(sp)
1000305c:	06012a23          	sw	zero,116(sp)
10003060:	06012c23          	sw	zero,120(sp)
10003064:	06012e23          	sw	zero,124(sp)
10003068:	08e12623          	sw	a4,140(sp)
1000306c:	6950a0ef          	jal	1000df00 <__eqtf2>
10003070:	03812783          	lw	a5,56(sp)
10003074:	03c12603          	lw	a2,60(sp)
10003078:	04012303          	lw	t1,64(sp)
1000307c:	200516e3          	bnez	a0,10003a88 <_vfprintf_r+0x159c>
10003080:	0b812783          	lw	a5,184(sp)
10003084:	10011737          	lui	a4,0x10011
10003088:	b3070713          	addi	a4,a4,-1232 # 10010b30 <__clzsi2+0x1bc>
1000308c:	00eb2023          	sw	a4,0(s6)
10003090:	00160613          	addi	a2,a2,1
10003094:	00100713          	li	a4,1
10003098:	00178793          	addi	a5,a5,1
1000309c:	00eb2223          	sw	a4,4(s6)
100030a0:	0ac12e23          	sw	a2,188(sp)
100030a4:	0af12c23          	sw	a5,184(sp)
100030a8:	00700713          	li	a4,7
100030ac:	008b0b13          	addi	s6,s6,8
100030b0:	00f75463          	bge	a4,a5,100030b8 <_vfprintf_r+0xbcc>
100030b4:	23c0106f          	j	100042f0 <_vfprintf_r+0x1e04>
100030b8:	09812783          	lw	a5,152(sp)
100030bc:	01812703          	lw	a4,24(sp)
100030c0:	4ce7d6e3          	bge	a5,a4,10003d8c <_vfprintf_r+0x18a0>
100030c4:	02412703          	lw	a4,36(sp)
100030c8:	0b812783          	lw	a5,184(sp)
100030cc:	008b0b13          	addi	s6,s6,8
100030d0:	00e60633          	add	a2,a2,a4
100030d4:	02812703          	lw	a4,40(sp)
100030d8:	00178793          	addi	a5,a5,1
100030dc:	0ac12e23          	sw	a2,188(sp)
100030e0:	feeb2c23          	sw	a4,-8(s6)
100030e4:	02412703          	lw	a4,36(sp)
100030e8:	0af12c23          	sw	a5,184(sp)
100030ec:	feeb2e23          	sw	a4,-4(s6)
100030f0:	00700713          	li	a4,7
100030f4:	64f746e3          	blt	a4,a5,10003f40 <_vfprintf_r+0x1a54>
100030f8:	01812783          	lw	a5,24(sp)
100030fc:	fff78a93          	addi	s5,a5,-1
10003100:	ef505663          	blez	s5,100027ec <_vfprintf_r+0x300>
10003104:	10011837          	lui	a6,0x10011
10003108:	01000c93          	li	s9,16
1000310c:	0b812783          	lw	a5,184(sp)
10003110:	00700d93          	li	s11,7
10003114:	dac80493          	addi	s1,a6,-596 # 10010dac <zeroes.0>
10003118:	015cca63          	blt	s9,s5,1000312c <_vfprintf_r+0xc40>
1000311c:	2910006f          	j	10003bac <_vfprintf_r+0x16c0>
10003120:	ff0a8a93          	addi	s5,s5,-16
10003124:	015cc463          	blt	s9,s5,1000312c <_vfprintf_r+0xc40>
10003128:	2280106f          	j	10004350 <_vfprintf_r+0x1e64>
1000312c:	01060613          	addi	a2,a2,16
10003130:	00178793          	addi	a5,a5,1
10003134:	009b2023          	sw	s1,0(s6)
10003138:	019b2223          	sw	s9,4(s6)
1000313c:	0ac12e23          	sw	a2,188(sp)
10003140:	0af12c23          	sw	a5,184(sp)
10003144:	008b0b13          	addi	s6,s6,8
10003148:	fcfddce3          	bge	s11,a5,10003120 <_vfprintf_r+0xc34>
1000314c:	00412583          	lw	a1,4(sp)
10003150:	0b410613          	addi	a2,sp,180
10003154:	00090513          	mv	a0,s2
10003158:	4e0020ef          	jal	10005638 <__sprint_r>
1000315c:	74051663          	bnez	a0,100038a8 <_vfprintf_r+0x13bc>
10003160:	0bc12603          	lw	a2,188(sp)
10003164:	0b812783          	lw	a5,184(sp)
10003168:	00098b13          	mv	s6,s3
1000316c:	fb5ff06f          	j	10003120 <_vfprintf_r+0xc34>
10003170:	020bf793          	andi	a5,s7,32
10003174:	0e079863          	bnez	a5,10003264 <_vfprintf_r+0xd78>
10003178:	00c12783          	lw	a5,12(sp)
1000317c:	010bf713          	andi	a4,s7,16
10003180:	00478793          	addi	a5,a5,4
10003184:	00070463          	beqz	a4,1000318c <_vfprintf_r+0xca0>
10003188:	7310106f          	j	100050b8 <_vfprintf_r+0x2bcc>
1000318c:	00c12683          	lw	a3,12(sp)
10003190:	040bf713          	andi	a4,s7,64
10003194:	0006ac03          	lw	s8,0(a3)
10003198:	00071463          	bnez	a4,100031a0 <_vfprintf_r+0xcb4>
1000319c:	3280106f          	j	100044c4 <_vfprintf_r+0x1fd8>
100031a0:	010c1c13          	slli	s8,s8,0x10
100031a4:	410c5c13          	srai	s8,s8,0x10
100031a8:	41fc5e93          	srai	t4,s8,0x1f
100031ac:	00f12623          	sw	a5,12(sp)
100031b0:	000e8713          	mv	a4,t4
100031b4:	0c074a63          	bltz	a4,10003288 <_vfprintf_r+0xd9c>
100031b8:	0e0ac863          	bltz	s5,100032a8 <_vfprintf_r+0xdbc>
100031bc:	01dc67b3          	or	a5,s8,t4
100031c0:	f7fbfb93          	andi	s7,s7,-129
100031c4:	0e079263          	bnez	a5,100032a8 <_vfprintf_r+0xdbc>
100031c8:	0e0a9063          	bnez	s5,100032a8 <_vfprintf_r+0xdbc>
100031cc:	09314e83          	lbu	t4,147(sp)
100031d0:	000e9463          	bnez	t4,100031d8 <_vfprintf_r+0xcec>
100031d4:	3100106f          	j	100044e4 <_vfprintf_r+0x1ff8>
100031d8:	00000c13          	li	s8,0
100031dc:	00000313          	li	t1,0
100031e0:	00012823          	sw	zero,16(sp)
100031e4:	00000c93          	li	s9,0
100031e8:	00000a93          	li	s5,0
100031ec:	18010793          	addi	a5,sp,384
100031f0:	001c0c13          	addi	s8,s8,1
100031f4:	00031463          	bnez	t1,100031fc <_vfprintf_r+0xd10>
100031f8:	3540206f          	j	1000554c <_vfprintf_r+0x3060>
100031fc:	0bc12603          	lw	a2,188(sp)
10003200:	0b812583          	lw	a1,184(sp)
10003204:	084bfd93          	andi	s11,s7,132
10003208:	002c0c13          	addi	s8,s8,2
1000320c:	00060813          	mv	a6,a2
10003210:	00058513          	mv	a0,a1
10003214:	6e0d8c63          	beqz	s11,1000390c <_vfprintf_r+0x1420>
10003218:	02012023          	sw	zero,32(sp)
1000321c:	00012e23          	sw	zero,28(sp)
10003220:	00000313          	li	t1,0
10003224:	d40e8a63          	beqz	t4,10002778 <_vfprintf_r+0x28c>
10003228:	00200713          	li	a4,2
1000322c:	d18ff06f          	j	10002744 <_vfprintf_r+0x258>
10003230:	00c12783          	lw	a5,12(sp)
10003234:	00100c93          	li	s9,1
10003238:	080109a3          	sb	zero,147(sp)
1000323c:	0007a783          	lw	a5,0(a5)
10003240:	10f10e23          	sb	a5,284(sp)
10003244:	00c12783          	lw	a5,12(sp)
10003248:	00478793          	addi	a5,a5,4
1000324c:	00f12623          	sw	a5,12(sp)
10003250:	cb8ff06f          	j	10002708 <_vfprintf_r+0x21c>
10003254:	020bf793          	andi	a5,s7,32
10003258:	010bee13          	ori	t3,s7,16
1000325c:	3e0788e3          	beqz	a5,10003e4c <_vfprintf_r+0x1960>
10003260:	000e0b93          	mv	s7,t3
10003264:	00c12783          	lw	a5,12(sp)
10003268:	00778793          	addi	a5,a5,7
1000326c:	ff87f793          	andi	a5,a5,-8
10003270:	0047a703          	lw	a4,4(a5)
10003274:	00878693          	addi	a3,a5,8
10003278:	00d12623          	sw	a3,12(sp)
1000327c:	0007ac03          	lw	s8,0(a5)
10003280:	00070e93          	mv	t4,a4
10003284:	f2075ae3          	bgez	a4,100031b8 <_vfprintf_r+0xccc>
10003288:	018037b3          	snez	a5,s8
1000328c:	41d00eb3          	neg	t4,t4
10003290:	40fe8eb3          	sub	t4,t4,a5
10003294:	02d00793          	li	a5,45
10003298:	08f109a3          	sb	a5,147(sp)
1000329c:	41800c33          	neg	s8,s8
100032a0:	000ac463          	bltz	s5,100032a8 <_vfprintf_r+0xdbc>
100032a4:	f7fbfb93          	andi	s7,s7,-129
100032a8:	260e9c63          	bnez	t4,10003520 <_vfprintf_r+0x1034>
100032ac:	00900793          	li	a5,9
100032b0:	2787e863          	bltu	a5,s8,10003520 <_vfprintf_r+0x1034>
100032b4:	030c0c13          	addi	s8,s8,48
100032b8:	17810fa3          	sb	s8,383(sp)
100032bc:	000a8c13          	mv	s8,s5
100032c0:	3f5050e3          	blez	s5,10003ea0 <_vfprintf_r+0x19b4>
100032c4:	09314e83          	lbu	t4,147(sp)
100032c8:	00000313          	li	t1,0
100032cc:	00100c93          	li	s9,1
100032d0:	17f10793          	addi	a5,sp,383
100032d4:	00012823          	sw	zero,16(sp)
100032d8:	f00e8ee3          	beqz	t4,100031f4 <_vfprintf_r+0xd08>
100032dc:	001c0c13          	addi	s8,s8,1
100032e0:	f15ff06f          	j	100031f4 <_vfprintf_r+0xd08>
100032e4:	00c12783          	lw	a5,12(sp)
100032e8:	0007a783          	lw	a5,0(a5)
100032ec:	00f12023          	sw	a5,0(sp)
100032f0:	2a07d6e3          	bgez	a5,10003d9c <_vfprintf_r+0x18b0>
100032f4:	00012783          	lw	a5,0(sp)
100032f8:	40f007b3          	neg	a5,a5
100032fc:	00f12023          	sw	a5,0(sp)
10003300:	00c12783          	lw	a5,12(sp)
10003304:	00478793          	addi	a5,a5,4
10003308:	00f12623          	sw	a5,12(sp)
1000330c:	000d4883          	lbu	a7,0(s10)
10003310:	004beb93          	ori	s7,s7,4
10003314:	b80ff06f          	j	10002694 <_vfprintf_r+0x1a8>
10003318:	02b00793          	li	a5,43
1000331c:	000d4883          	lbu	a7,0(s10)
10003320:	08f109a3          	sb	a5,147(sp)
10003324:	b70ff06f          	j	10002694 <_vfprintf_r+0x1a8>
10003328:	000d4883          	lbu	a7,0(s10)
1000332c:	080beb93          	ori	s7,s7,128
10003330:	b64ff06f          	j	10002694 <_vfprintf_r+0x1a8>
10003334:	000d4883          	lbu	a7,0(s10)
10003338:	02a00793          	li	a5,42
1000333c:	001d0693          	addi	a3,s10,1
10003340:	00f89463          	bne	a7,a5,10003348 <_vfprintf_r+0xe5c>
10003344:	1040206f          	j	10005448 <_vfprintf_r+0x2f5c>
10003348:	fd088793          	addi	a5,a7,-48
1000334c:	00900613          	li	a2,9
10003350:	00000a93          	li	s5,0
10003354:	02f66463          	bltu	a2,a5,1000337c <_vfprintf_r+0xe90>
10003358:	002a9713          	slli	a4,s5,0x2
1000335c:	0006c883          	lbu	a7,0(a3)
10003360:	01570ab3          	add	s5,a4,s5
10003364:	001a9a93          	slli	s5,s5,0x1
10003368:	00fa8ab3          	add	s5,s5,a5
1000336c:	fd088793          	addi	a5,a7,-48
10003370:	00168693          	addi	a3,a3,1
10003374:	fef672e3          	bgeu	a2,a5,10003358 <_vfprintf_r+0xe6c>
10003378:	3a0acee3          	bltz	s5,10003f34 <_vfprintf_r+0x1a48>
1000337c:	00068d13          	mv	s10,a3
10003380:	b18ff06f          	j	10002698 <_vfprintf_r+0x1ac>
10003384:	00090513          	mv	a0,s2
10003388:	6c9020ef          	jal	10006250 <_localeconv_r>
1000338c:	00452783          	lw	a5,4(a0)
10003390:	00078513          	mv	a0,a5
10003394:	02f12a23          	sw	a5,52(sp)
10003398:	a54fe0ef          	jal	100015ec <strlen>
1000339c:	00050493          	mv	s1,a0
100033a0:	00090513          	mv	a0,s2
100033a4:	04912223          	sw	s1,68(sp)
100033a8:	6a9020ef          	jal	10006250 <_localeconv_r>
100033ac:	00852703          	lw	a4,8(a0)
100033b0:	000d4883          	lbu	a7,0(s10)
100033b4:	02e12823          	sw	a4,48(sp)
100033b8:	ac048e63          	beqz	s1,10002694 <_vfprintf_r+0x1a8>
100033bc:	ac070c63          	beqz	a4,10002694 <_vfprintf_r+0x1a8>
100033c0:	00074783          	lbu	a5,0(a4)
100033c4:	ac078863          	beqz	a5,10002694 <_vfprintf_r+0x1a8>
100033c8:	400beb93          	ori	s7,s7,1024
100033cc:	ac8ff06f          	j	10002694 <_vfprintf_r+0x1a8>
100033d0:	000d4883          	lbu	a7,0(s10)
100033d4:	001beb93          	ori	s7,s7,1
100033d8:	abcff06f          	j	10002694 <_vfprintf_r+0x1a8>
100033dc:	09314783          	lbu	a5,147(sp)
100033e0:	000d4883          	lbu	a7,0(s10)
100033e4:	aa079863          	bnez	a5,10002694 <_vfprintf_r+0x1a8>
100033e8:	02000793          	li	a5,32
100033ec:	08f109a3          	sb	a5,147(sp)
100033f0:	aa4ff06f          	j	10002694 <_vfprintf_r+0x1a8>
100033f4:	020bf793          	andi	a5,s7,32
100033f8:	010be693          	ori	a3,s7,16
100033fc:	1c078ce3          	beqz	a5,10003dd4 <_vfprintf_r+0x18e8>
10003400:	00c12783          	lw	a5,12(sp)
10003404:	00778793          	addi	a5,a5,7
10003408:	ff87f793          	andi	a5,a5,-8
1000340c:	00878713          	addi	a4,a5,8
10003410:	00e12623          	sw	a4,12(sp)
10003414:	0047a603          	lw	a2,4(a5)
10003418:	0007a703          	lw	a4,0(a5)
1000341c:	080109a3          	sb	zero,147(sp)
10003420:	bff6fb93          	andi	s7,a3,-1025
10003424:	600ac063          	bltz	s5,10003a24 <_vfprintf_r+0x1538>
10003428:	00c767b3          	or	a5,a4,a2
1000342c:	b7f6fb93          	andi	s7,a3,-1153
10003430:	5e079a63          	bnez	a5,10003a24 <_vfprintf_r+0x1538>
10003434:	5e0a9863          	bnez	s5,10003a24 <_vfprintf_r+0x1538>
10003438:	0016fc13          	andi	s8,a3,1
1000343c:	060c08e3          	beqz	s8,10003cac <_vfprintf_r+0x17c0>
10003440:	03000793          	li	a5,48
10003444:	16f10fa3          	sb	a5,383(sp)
10003448:	000c0c93          	mv	s9,s8
1000344c:	00012823          	sw	zero,16(sp)
10003450:	02012023          	sw	zero,32(sp)
10003454:	00012e23          	sw	zero,28(sp)
10003458:	00000313          	li	t1,0
1000345c:	17f10793          	addi	a5,sp,383
10003460:	ac4ff06f          	j	10002724 <_vfprintf_r+0x238>
10003464:	000d4883          	lbu	a7,0(s10)
10003468:	06800793          	li	a5,104
1000346c:	30f882e3          	beq	a7,a5,10003f70 <_vfprintf_r+0x1a84>
10003470:	040beb93          	ori	s7,s7,64
10003474:	a20ff06f          	j	10002694 <_vfprintf_r+0x1a8>
10003478:	00c12703          	lw	a4,12(sp)
1000347c:	020bf793          	andi	a5,s7,32
10003480:	00470713          	addi	a4,a4,4
10003484:	160796e3          	bnez	a5,10003df0 <_vfprintf_r+0x1904>
10003488:	010bf793          	andi	a5,s7,16
1000348c:	74079ee3          	bnez	a5,100043e8 <_vfprintf_r+0x1efc>
10003490:	040bf793          	andi	a5,s7,64
10003494:	00078463          	beqz	a5,1000349c <_vfprintf_r+0xfb0>
10003498:	4380106f          	j	100048d0 <_vfprintf_r+0x23e4>
1000349c:	200bfe13          	andi	t3,s7,512
100034a0:	740e04e3          	beqz	t3,100043e8 <_vfprintf_r+0x1efc>
100034a4:	00c12783          	lw	a5,12(sp)
100034a8:	00812683          	lw	a3,8(sp)
100034ac:	00e12623          	sw	a4,12(sp)
100034b0:	0007a783          	lw	a5,0(a5)
100034b4:	00d78023          	sb	a3,0(a5)
100034b8:	948ff06f          	j	10002600 <_vfprintf_r+0x114>
100034bc:	000d4883          	lbu	a7,0(s10)
100034c0:	06c00793          	li	a5,108
100034c4:	28f88ee3          	beq	a7,a5,10003f60 <_vfprintf_r+0x1a74>
100034c8:	010beb93          	ori	s7,s7,16
100034cc:	9c8ff06f          	j	10002694 <_vfprintf_r+0x1a8>
100034d0:	020bf793          	andi	a5,s7,32
100034d4:	24079663          	bnez	a5,10003720 <_vfprintf_r+0x1234>
100034d8:	010bf793          	andi	a5,s7,16
100034dc:	00078463          	beqz	a5,100034e4 <_vfprintf_r+0xff8>
100034e0:	3d10106f          	j	100050b0 <_vfprintf_r+0x2bc4>
100034e4:	00c12703          	lw	a4,12(sp)
100034e8:	040bf793          	andi	a5,s7,64
100034ec:	00072c03          	lw	s8,0(a4)
100034f0:	00470713          	addi	a4,a4,4
100034f4:	00e12623          	sw	a4,12(sp)
100034f8:	7a0780e3          	beqz	a5,10004498 <_vfprintf_r+0x1fac>
100034fc:	010c1c13          	slli	s8,s8,0x10
10003500:	080109a3          	sb	zero,147(sp)
10003504:	010c5c13          	srli	s8,s8,0x10
10003508:	00000e93          	li	t4,0
1000350c:	d80acee3          	bltz	s5,100032a8 <_vfprintf_r+0xdbc>
10003510:	018ae333          	or	t1,s5,s8
10003514:	f7fbfb93          	andi	s7,s7,-129
10003518:	16030463          	beqz	t1,10003680 <_vfprintf_r+0x1194>
1000351c:	d80e88e3          	beqz	t4,100032ac <_vfprintf_r+0xdc0>
10003520:	ccccdcb7          	lui	s9,0xccccd
10003524:	ccccddb7          	lui	s11,0xccccd
10003528:	ccdc8c93          	addi	s9,s9,-819 # cccccccd <_sp+0xbccb8fad>
1000352c:	cccd8d93          	addi	s11,s11,-820 # cccccccc <_sp+0xbccb8fac>
10003530:	400bf813          	andi	a6,s7,1024
10003534:	00000593          	li	a1,0
10003538:	18010613          	addi	a2,sp,384
1000353c:	00088493          	mv	s1,a7
10003540:	0800006f          	j	100035c0 <_vfprintf_r+0x10d4>
10003544:	03012703          	lw	a4,48(sp)
10003548:	00074703          	lbu	a4,0(a4)
1000354c:	f0170693          	addi	a3,a4,-255
10003550:	00068463          	beqz	a3,10003558 <_vfprintf_r+0x106c>
10003554:	5cb702e3          	beq	a4,a1,10004318 <_vfprintf_r+0x1e2c>
10003558:	000c0313          	mv	t1,s8
1000355c:	000e8513          	mv	a0,t4
10003560:	00078613          	mv	a2,a5
10003564:	01dc0733          	add	a4,s8,t4
10003568:	018736b3          	sltu	a3,a4,s8
1000356c:	00d70733          	add	a4,a4,a3
10003570:	039736b3          	mulhu	a3,a4,s9
10003574:	0026de13          	srli	t3,a3,0x2
10003578:	ffc6f693          	andi	a3,a3,-4
1000357c:	01c686b3          	add	a3,a3,t3
10003580:	40d70733          	sub	a4,a4,a3
10003584:	40ec0733          	sub	a4,s8,a4
10003588:	00ec36b3          	sltu	a3,s8,a4
1000358c:	40de86b3          	sub	a3,t4,a3
10003590:	039686b3          	mul	a3,a3,s9
10003594:	03b70eb3          	mul	t4,a4,s11
10003598:	03973e33          	mulhu	t3,a4,s9
1000359c:	01d686b3          	add	a3,a3,t4
100035a0:	03970733          	mul	a4,a4,s9
100035a4:	01c686b3          	add	a3,a3,t3
100035a8:	01f69e13          	slli	t3,a3,0x1f
100035ac:	0016de93          	srli	t4,a3,0x1
100035b0:	00175713          	srli	a4,a4,0x1
100035b4:	00ee0c33          	add	s8,t3,a4
100035b8:	00051463          	bnez	a0,100035c0 <_vfprintf_r+0x10d4>
100035bc:	2690106f          	j	10005024 <_vfprintf_r+0x2b38>
100035c0:	01dc0733          	add	a4,s8,t4
100035c4:	018736b3          	sltu	a3,a4,s8
100035c8:	00d706b3          	add	a3,a4,a3
100035cc:	0396b533          	mulhu	a0,a3,s9
100035d0:	00158593          	addi	a1,a1,1
100035d4:	fff60793          	addi	a5,a2,-1
100035d8:	00255313          	srli	t1,a0,0x2
100035dc:	ffc57513          	andi	a0,a0,-4
100035e0:	00650533          	add	a0,a0,t1
100035e4:	40a686b3          	sub	a3,a3,a0
100035e8:	40dc06b3          	sub	a3,s8,a3
100035ec:	00dc3533          	sltu	a0,s8,a3
100035f0:	40ae8533          	sub	a0,t4,a0
100035f4:	0396b333          	mulhu	t1,a3,s9
100035f8:	03950533          	mul	a0,a0,s9
100035fc:	039686b3          	mul	a3,a3,s9
10003600:	00650533          	add	a0,a0,t1
10003604:	01f51513          	slli	a0,a0,0x1f
10003608:	0016d693          	srli	a3,a3,0x1
1000360c:	00d506b3          	add	a3,a0,a3
10003610:	00269513          	slli	a0,a3,0x2
10003614:	00d506b3          	add	a3,a0,a3
10003618:	00169693          	slli	a3,a3,0x1
1000361c:	40dc06b3          	sub	a3,s8,a3
10003620:	03068693          	addi	a3,a3,48
10003624:	fed60fa3          	sb	a3,-1(a2)
10003628:	f0081ee3          	bnez	a6,10003544 <_vfprintf_r+0x1058>
1000362c:	000c0313          	mv	t1,s8
10003630:	000e8513          	mv	a0,t4
10003634:	00078613          	mv	a2,a5
10003638:	f31ff06f          	j	10003568 <_vfprintf_r+0x107c>
1000363c:	000087b7          	lui	a5,0x8
10003640:	83078793          	addi	a5,a5,-2000 # 7830 <__heap_size+0x6830>
10003644:	00c12703          	lw	a4,12(sp)
10003648:	08f11a23          	sh	a5,148(sp)
1000364c:	00c12783          	lw	a5,12(sp)
10003650:	080109a3          	sb	zero,147(sp)
10003654:	00072703          	lw	a4,0(a4)
10003658:	00478793          	addi	a5,a5,4
1000365c:	00000613          	li	a2,0
10003660:	040acce3          	bltz	s5,10003eb8 <_vfprintf_r+0x19cc>
10003664:	f7fbfe13          	andi	t3,s7,-129
10003668:	002e6b93          	ori	s7,t3,2
1000366c:	58071ae3          	bnez	a4,10004400 <_vfprintf_r+0x1f14>
10003670:	580a98e3          	bnez	s5,10004400 <_vfprintf_r+0x1f14>
10003674:	00f12623          	sw	a5,12(sp)
10003678:	00200313          	li	t1,2
1000367c:	07800893          	li	a7,120
10003680:	09314e83          	lbu	t4,147(sp)
10003684:	00000a93          	li	s5,0
10003688:	00000c13          	li	s8,0
1000368c:	00000c93          	li	s9,0
10003690:	18010793          	addi	a5,sp,384
10003694:	00012823          	sw	zero,16(sp)
10003698:	c41ff06f          	j	100032d8 <_vfprintf_r+0xdec>
1000369c:	020bf793          	andi	a5,s7,32
100036a0:	7e079c63          	bnez	a5,10003e98 <_vfprintf_r+0x19ac>
100036a4:	00c12783          	lw	a5,12(sp)
100036a8:	010bf713          	andi	a4,s7,16
100036ac:	00478793          	addi	a5,a5,4
100036b0:	00070463          	beqz	a4,100036b8 <_vfprintf_r+0x11cc>
100036b4:	1ed0106f          	j	100050a0 <_vfprintf_r+0x2bb4>
100036b8:	00c12703          	lw	a4,12(sp)
100036bc:	040bf693          	andi	a3,s7,64
100036c0:	00072703          	lw	a4,0(a4)
100036c4:	5a068ce3          	beqz	a3,1000447c <_vfprintf_r+0x1f90>
100036c8:	01071713          	slli	a4,a4,0x10
100036cc:	01075713          	srli	a4,a4,0x10
100036d0:	00f12623          	sw	a5,12(sp)
100036d4:	000b8693          	mv	a3,s7
100036d8:	00000613          	li	a2,0
100036dc:	d41ff06f          	j	1000341c <_vfprintf_r+0xf30>
100036e0:	020bf793          	andi	a5,s7,32
100036e4:	010bee13          	ori	t3,s7,16
100036e8:	02079e63          	bnez	a5,10003724 <_vfprintf_r+0x1238>
100036ec:	00c12783          	lw	a5,12(sp)
100036f0:	00c12703          	lw	a4,12(sp)
100036f4:	080109a3          	sb	zero,147(sp)
100036f8:	00478793          	addi	a5,a5,4
100036fc:	00072c03          	lw	s8,0(a4)
10003700:	00000e93          	li	t4,0
10003704:	680ac2e3          	bltz	s5,10004588 <_vfprintf_r+0x209c>
10003708:	00f12623          	sw	a5,12(sp)
1000370c:	f7fe7b93          	andi	s7,t3,-129
10003710:	b80c1ee3          	bnez	s8,100032ac <_vfprintf_r+0xdc0>
10003714:	b80a9ce3          	bnez	s5,100032ac <_vfprintf_r+0xdc0>
10003718:	00000313          	li	t1,0
1000371c:	f65ff06f          	j	10003680 <_vfprintf_r+0x1194>
10003720:	000b8e13          	mv	t3,s7
10003724:	00c12783          	lw	a5,12(sp)
10003728:	080109a3          	sb	zero,147(sp)
1000372c:	00778793          	addi	a5,a5,7
10003730:	ff87f793          	andi	a5,a5,-8
10003734:	00878713          	addi	a4,a5,8
10003738:	00e12623          	sw	a4,12(sp)
1000373c:	0007ac03          	lw	s8,0(a5)
10003740:	0047ae83          	lw	t4,4(a5)
10003744:	7e0ac463          	bltz	s5,10003f2c <_vfprintf_r+0x1a40>
10003748:	f7fe7b93          	andi	s7,t3,-129
1000374c:	b40a9ee3          	bnez	s5,100032a8 <_vfprintf_r+0xdbc>
10003750:	01dc67b3          	or	a5,s8,t4
10003754:	b4079ae3          	bnez	a5,100032a8 <_vfprintf_r+0xdbc>
10003758:	00000313          	li	t1,0
1000375c:	f25ff06f          	j	10003680 <_vfprintf_r+0x1194>
10003760:	000d4883          	lbu	a7,0(s10)
10003764:	008beb93          	ori	s7,s7,8
10003768:	f2dfe06f          	j	10002694 <_vfprintf_r+0x1a8>
1000376c:	00012703          	lw	a4,0(sp)
10003770:	41870db3          	sub	s11,a4,s8
10003774:	01b04463          	bgtz	s11,1000377c <_vfprintf_r+0x1290>
10003778:	83cff06f          	j	100027b4 <_vfprintf_r+0x2c8>
1000377c:	01000e93          	li	t4,16
10003780:	0b812583          	lw	a1,184(sp)
10003784:	10011837          	lui	a6,0x10011
10003788:	01bec463          	blt	t4,s11,10003790 <_vfprintf_r+0x12a4>
1000378c:	1e90106f          	j	10005174 <_vfprintf_r+0x2c88>
10003790:	000d8493          	mv	s1,s11
10003794:	02f12e23          	sw	a5,60(sp)
10003798:	000d0d93          	mv	s11,s10
1000379c:	000b0793          	mv	a5,s6
100037a0:	00700293          	li	t0,7
100037a4:	000a8b13          	mv	s6,s5
100037a8:	03112c23          	sw	a7,56(sp)
100037ac:	00030d13          	mv	s10,t1
100037b0:	dac80a93          	addi	s5,a6,-596 # 10010dac <zeroes.0>
100037b4:	00c0006f          	j	100037c0 <_vfprintf_r+0x12d4>
100037b8:	ff048493          	addi	s1,s1,-16
100037bc:	049eda63          	bge	t4,s1,10003810 <_vfprintf_r+0x1324>
100037c0:	01060613          	addi	a2,a2,16
100037c4:	00158593          	addi	a1,a1,1
100037c8:	0157a023          	sw	s5,0(a5)
100037cc:	01d7a223          	sw	t4,4(a5)
100037d0:	0ac12e23          	sw	a2,188(sp)
100037d4:	0ab12c23          	sw	a1,184(sp)
100037d8:	00878793          	addi	a5,a5,8
100037dc:	fcb2dee3          	bge	t0,a1,100037b8 <_vfprintf_r+0x12cc>
100037e0:	00412583          	lw	a1,4(sp)
100037e4:	0b410613          	addi	a2,sp,180
100037e8:	00090513          	mv	a0,s2
100037ec:	64d010ef          	jal	10005638 <__sprint_r>
100037f0:	0a051c63          	bnez	a0,100038a8 <_vfprintf_r+0x13bc>
100037f4:	01000e93          	li	t4,16
100037f8:	ff048493          	addi	s1,s1,-16
100037fc:	0bc12603          	lw	a2,188(sp)
10003800:	0b812583          	lw	a1,184(sp)
10003804:	00098793          	mv	a5,s3
10003808:	00700293          	li	t0,7
1000380c:	fa9ecae3          	blt	t4,s1,100037c0 <_vfprintf_r+0x12d4>
10003810:	000a8813          	mv	a6,s5
10003814:	03812883          	lw	a7,56(sp)
10003818:	000b0a93          	mv	s5,s6
1000381c:	00078b13          	mv	s6,a5
10003820:	03c12783          	lw	a5,60(sp)
10003824:	000d0313          	mv	t1,s10
10003828:	000d8d13          	mv	s10,s11
1000382c:	00048d93          	mv	s11,s1
10003830:	01b60633          	add	a2,a2,s11
10003834:	00158593          	addi	a1,a1,1
10003838:	010b2023          	sw	a6,0(s6)
1000383c:	01bb2223          	sw	s11,4(s6)
10003840:	0ac12e23          	sw	a2,188(sp)
10003844:	0ab12c23          	sw	a1,184(sp)
10003848:	00700713          	li	a4,7
1000384c:	008b0b13          	addi	s6,s6,8
10003850:	00b74463          	blt	a4,a1,10003858 <_vfprintf_r+0x136c>
10003854:	f61fe06f          	j	100027b4 <_vfprintf_r+0x2c8>
10003858:	00412583          	lw	a1,4(sp)
1000385c:	0b410613          	addi	a2,sp,180
10003860:	00090513          	mv	a0,s2
10003864:	04612023          	sw	t1,64(sp)
10003868:	02f12e23          	sw	a5,60(sp)
1000386c:	03112c23          	sw	a7,56(sp)
10003870:	5c9010ef          	jal	10005638 <__sprint_r>
10003874:	02051a63          	bnez	a0,100038a8 <_vfprintf_r+0x13bc>
10003878:	0bc12603          	lw	a2,188(sp)
1000387c:	03812883          	lw	a7,56(sp)
10003880:	03c12783          	lw	a5,60(sp)
10003884:	04012303          	lw	t1,64(sp)
10003888:	00098b13          	mv	s6,s3
1000388c:	f29fe06f          	j	100027b4 <_vfprintf_r+0x2c8>
10003890:	00412583          	lw	a1,4(sp)
10003894:	0b410613          	addi	a2,sp,180
10003898:	00090513          	mv	a0,s2
1000389c:	59d010ef          	jal	10005638 <__sprint_r>
100038a0:	00051463          	bnez	a0,100038a8 <_vfprintf_r+0x13bc>
100038a4:	f81fe06f          	j	10002824 <_vfprintf_r+0x338>
100038a8:	01012583          	lw	a1,16(sp)
100038ac:	00412483          	lw	s1,4(sp)
100038b0:	00058663          	beqz	a1,100038bc <_vfprintf_r+0x13d0>
100038b4:	00090513          	mv	a0,s2
100038b8:	8c8fe0ef          	jal	10001980 <_free_r>
100038bc:	00c4d783          	lhu	a5,12(s1)
100038c0:	1b812403          	lw	s0,440(sp)
100038c4:	1ac12983          	lw	s3,428(sp)
100038c8:	0407f793          	andi	a5,a5,64
100038cc:	1a812a03          	lw	s4,424(sp)
100038d0:	1a412a83          	lw	s5,420(sp)
100038d4:	1a012b03          	lw	s6,416(sp)
100038d8:	19c12b83          	lw	s7,412(sp)
100038dc:	19812c03          	lw	s8,408(sp)
100038e0:	19412c83          	lw	s9,404(sp)
100038e4:	18c12d83          	lw	s11,396(sp)
100038e8:	00078463          	beqz	a5,100038f0 <_vfprintf_r+0x1404>
100038ec:	72c0106f          	j	10005018 <_vfprintf_r+0x2b2c>
100038f0:	1bc12083          	lw	ra,444(sp)
100038f4:	00812503          	lw	a0,8(sp)
100038f8:	1b412483          	lw	s1,436(sp)
100038fc:	1b012903          	lw	s2,432(sp)
10003900:	19012d03          	lw	s10,400(sp)
10003904:	1c010113          	addi	sp,sp,448
10003908:	00008067          	ret
1000390c:	00012703          	lw	a4,0(sp)
10003910:	02012023          	sw	zero,32(sp)
10003914:	00012e23          	sw	zero,28(sp)
10003918:	41870733          	sub	a4,a4,s8
1000391c:	00000313          	li	t1,0
10003920:	28e04a63          	bgtz	a4,10003bb4 <_vfprintf_r+0x16c8>
10003924:	000e9463          	bnez	t4,1000392c <_vfprintf_r+0x1440>
10003928:	e51fe06f          	j	10002778 <_vfprintf_r+0x28c>
1000392c:	00200713          	li	a4,2
10003930:	e15fe06f          	j	10002744 <_vfprintf_r+0x258>
10003934:	00412583          	lw	a1,4(sp)
10003938:	0b410613          	addi	a2,sp,180
1000393c:	00090513          	mv	a0,s2
10003940:	04612023          	sw	t1,64(sp)
10003944:	02f12e23          	sw	a5,60(sp)
10003948:	03112c23          	sw	a7,56(sp)
1000394c:	4ed010ef          	jal	10005638 <__sprint_r>
10003950:	f4051ce3          	bnez	a0,100038a8 <_vfprintf_r+0x13bc>
10003954:	0bc12603          	lw	a2,188(sp)
10003958:	04012303          	lw	t1,64(sp)
1000395c:	03c12783          	lw	a5,60(sp)
10003960:	03812883          	lw	a7,56(sp)
10003964:	00098b13          	mv	s6,s3
10003968:	e41fe06f          	j	100027a8 <_vfprintf_r+0x2bc>
1000396c:	01000c93          	li	s9,16
10003970:	0b812783          	lw	a5,184(sp)
10003974:	10011837          	lui	a6,0x10011
10003978:	015cc463          	blt	s9,s5,10003980 <_vfprintf_r+0x1494>
1000397c:	72c0106f          	j	100050a8 <_vfprintf_r+0x2bbc>
10003980:	00412483          	lw	s1,4(sp)
10003984:	00700d93          	li	s11,7
10003988:	dbc80b93          	addi	s7,a6,-580 # 10010dbc <blanks.1>
1000398c:	00c0006f          	j	10003998 <_vfprintf_r+0x14ac>
10003990:	ff0a8a93          	addi	s5,s5,-16
10003994:	055cd663          	bge	s9,s5,100039e0 <_vfprintf_r+0x14f4>
10003998:	01060613          	addi	a2,a2,16
1000399c:	00178793          	addi	a5,a5,1
100039a0:	017b2023          	sw	s7,0(s6)
100039a4:	019b2223          	sw	s9,4(s6)
100039a8:	0ac12e23          	sw	a2,188(sp)
100039ac:	0af12c23          	sw	a5,184(sp)
100039b0:	008b0b13          	addi	s6,s6,8
100039b4:	fcfddee3          	bge	s11,a5,10003990 <_vfprintf_r+0x14a4>
100039b8:	0b410613          	addi	a2,sp,180
100039bc:	00048593          	mv	a1,s1
100039c0:	00090513          	mv	a0,s2
100039c4:	475010ef          	jal	10005638 <__sprint_r>
100039c8:	140514e3          	bnez	a0,10004310 <_vfprintf_r+0x1e24>
100039cc:	ff0a8a93          	addi	s5,s5,-16
100039d0:	0bc12603          	lw	a2,188(sp)
100039d4:	0b812783          	lw	a5,184(sp)
100039d8:	00098b13          	mv	s6,s3
100039dc:	fb5ccee3          	blt	s9,s5,10003998 <_vfprintf_r+0x14ac>
100039e0:	000b8813          	mv	a6,s7
100039e4:	01560633          	add	a2,a2,s5
100039e8:	00178793          	addi	a5,a5,1
100039ec:	0ac12e23          	sw	a2,188(sp)
100039f0:	0af12c23          	sw	a5,184(sp)
100039f4:	010b2023          	sw	a6,0(s6)
100039f8:	015b2223          	sw	s5,4(s6)
100039fc:	00700713          	li	a4,7
10003a00:	00f74463          	blt	a4,a5,10003a08 <_vfprintf_r+0x151c>
10003a04:	e01fe06f          	j	10002804 <_vfprintf_r+0x318>
10003a08:	00412583          	lw	a1,4(sp)
10003a0c:	0b410613          	addi	a2,sp,180
10003a10:	00090513          	mv	a0,s2
10003a14:	425010ef          	jal	10005638 <__sprint_r>
10003a18:	e80518e3          	bnez	a0,100038a8 <_vfprintf_r+0x13bc>
10003a1c:	0bc12603          	lw	a2,188(sp)
10003a20:	de5fe06f          	j	10002804 <_vfprintf_r+0x318>
10003a24:	18010793          	addi	a5,sp,384
10003a28:	01d61593          	slli	a1,a2,0x1d
10003a2c:	00777693          	andi	a3,a4,7
10003a30:	00375713          	srli	a4,a4,0x3
10003a34:	00078513          	mv	a0,a5
10003a38:	00e58733          	add	a4,a1,a4
10003a3c:	03068693          	addi	a3,a3,48
10003a40:	00365613          	srli	a2,a2,0x3
10003a44:	00c765b3          	or	a1,a4,a2
10003a48:	fed78fa3          	sb	a3,-1(a5)
10003a4c:	fff78793          	addi	a5,a5,-1
10003a50:	fc059ce3          	bnez	a1,10003a28 <_vfprintf_r+0x153c>
10003a54:	fd068693          	addi	a3,a3,-48
10003a58:	00068663          	beqz	a3,10003a64 <_vfprintf_r+0x1578>
10003a5c:	001bf713          	andi	a4,s7,1
10003a60:	3a071a63          	bnez	a4,10003e14 <_vfprintf_r+0x1928>
10003a64:	18010713          	addi	a4,sp,384
10003a68:	40f70cb3          	sub	s9,a4,a5
10003a6c:	000a8c13          	mv	s8,s5
10003a70:	359ac663          	blt	s5,s9,10003dbc <_vfprintf_r+0x18d0>
10003a74:	00012823          	sw	zero,16(sp)
10003a78:	02012023          	sw	zero,32(sp)
10003a7c:	00012e23          	sw	zero,28(sp)
10003a80:	00000313          	li	t1,0
10003a84:	ca1fe06f          	j	10002724 <_vfprintf_r+0x238>
10003a88:	09812503          	lw	a0,152(sp)
10003a8c:	78a05663          	blez	a0,10004218 <_vfprintf_r+0x1d2c>
10003a90:	01812703          	lw	a4,24(sp)
10003a94:	00030a93          	mv	s5,t1
10003a98:	48674463          	blt	a4,t1,10003f20 <_vfprintf_r+0x1a34>
10003a9c:	03505663          	blez	s5,10003ac8 <_vfprintf_r+0x15dc>
10003aa0:	0b812703          	lw	a4,184(sp)
10003aa4:	01560633          	add	a2,a2,s5
10003aa8:	00fb2023          	sw	a5,0(s6)
10003aac:	00170713          	addi	a4,a4,1
10003ab0:	015b2223          	sw	s5,4(s6)
10003ab4:	0ac12e23          	sw	a2,188(sp)
10003ab8:	0ae12c23          	sw	a4,184(sp)
10003abc:	00700593          	li	a1,7
10003ac0:	008b0b13          	addi	s6,s6,8
10003ac4:	54e5c4e3          	blt	a1,a4,1000480c <_vfprintf_r+0x2320>
10003ac8:	fffac713          	not	a4,s5
10003acc:	41f75713          	srai	a4,a4,0x1f
10003ad0:	00eafab3          	and	s5,s5,a4
10003ad4:	41530ab3          	sub	s5,t1,s5
10003ad8:	55504263          	bgtz	s5,1000401c <_vfprintf_r+0x1b30>
10003adc:	400bf713          	andi	a4,s7,1024
10003ae0:	00678db3          	add	s11,a5,t1
10003ae4:	2c0712e3          	bnez	a4,100045a8 <_vfprintf_r+0x20bc>
10003ae8:	09812a83          	lw	s5,152(sp)
10003aec:	01812703          	lw	a4,24(sp)
10003af0:	00eac663          	blt	s5,a4,10003afc <_vfprintf_r+0x1610>
10003af4:	001bf713          	andi	a4,s7,1
10003af8:	5a070ae3          	beqz	a4,100048ac <_vfprintf_r+0x23c0>
10003afc:	02412683          	lw	a3,36(sp)
10003b00:	0b812703          	lw	a4,184(sp)
10003b04:	00700593          	li	a1,7
10003b08:	00d60633          	add	a2,a2,a3
10003b0c:	02812683          	lw	a3,40(sp)
10003b10:	00170713          	addi	a4,a4,1
10003b14:	0ac12e23          	sw	a2,188(sp)
10003b18:	00db2023          	sw	a3,0(s6)
10003b1c:	02412683          	lw	a3,36(sp)
10003b20:	0ae12c23          	sw	a4,184(sp)
10003b24:	008b0b13          	addi	s6,s6,8
10003b28:	fedb2e23          	sw	a3,-4(s6)
10003b2c:	00e5d463          	bge	a1,a4,10003b34 <_vfprintf_r+0x1648>
10003b30:	3cc0106f          	j	10004efc <_vfprintf_r+0x2a10>
10003b34:	01812703          	lw	a4,24(sp)
10003b38:	00e787b3          	add	a5,a5,a4
10003b3c:	41b78cb3          	sub	s9,a5,s11
10003b40:	41570ab3          	sub	s5,a4,s5
10003b44:	019ad463          	bge	s5,s9,10003b4c <_vfprintf_r+0x1660>
10003b48:	000a8c93          	mv	s9,s5
10003b4c:	03905863          	blez	s9,10003b7c <_vfprintf_r+0x1690>
10003b50:	0b812703          	lw	a4,184(sp)
10003b54:	01960633          	add	a2,a2,s9
10003b58:	01bb2023          	sw	s11,0(s6)
10003b5c:	00170713          	addi	a4,a4,1
10003b60:	019b2223          	sw	s9,4(s6)
10003b64:	0ac12e23          	sw	a2,188(sp)
10003b68:	0ae12c23          	sw	a4,184(sp)
10003b6c:	00700793          	li	a5,7
10003b70:	008b0b13          	addi	s6,s6,8
10003b74:	00e7d463          	bge	a5,a4,10003b7c <_vfprintf_r+0x1690>
10003b78:	4e80106f          	j	10005060 <_vfprintf_r+0x2b74>
10003b7c:	fffcc713          	not	a4,s9
10003b80:	41f75713          	srai	a4,a4,0x1f
10003b84:	00ecf7b3          	and	a5,s9,a4
10003b88:	40fa8ab3          	sub	s5,s5,a5
10003b8c:	01504463          	bgtz	s5,10003b94 <_vfprintf_r+0x16a8>
10003b90:	c5dfe06f          	j	100027ec <_vfprintf_r+0x300>
10003b94:	10011837          	lui	a6,0x10011
10003b98:	01000c93          	li	s9,16
10003b9c:	0b812783          	lw	a5,184(sp)
10003ba0:	00700d93          	li	s11,7
10003ba4:	dac80493          	addi	s1,a6,-596 # 10010dac <zeroes.0>
10003ba8:	515ccc63          	blt	s9,s5,100040c0 <_vfprintf_r+0x1bd4>
10003bac:	dac80813          	addi	a6,a6,-596
10003bb0:	7a40006f          	j	10004354 <_vfprintf_r+0x1e68>
10003bb4:	00200d93          	li	s11,2
10003bb8:	01000e93          	li	t4,16
10003bbc:	00080613          	mv	a2,a6
10003bc0:	00050593          	mv	a1,a0
10003bc4:	10011837          	lui	a6,0x10011
10003bc8:	00eec463          	blt	t4,a4,10003bd0 <_vfprintf_r+0x16e4>
10003bcc:	48c0106f          	j	10005058 <_vfprintf_r+0x2b6c>
10003bd0:	02f12e23          	sw	a5,60(sp)
10003bd4:	05512023          	sw	s5,64(sp)
10003bd8:	000b0793          	mv	a5,s6
10003bdc:	00700393          	li	t2,7
10003be0:	00070493          	mv	s1,a4
10003be4:	03112c23          	sw	a7,56(sp)
10003be8:	00030b13          	mv	s6,t1
10003bec:	dbc80a93          	addi	s5,a6,-580 # 10010dbc <blanks.1>
10003bf0:	00c0006f          	j	10003bfc <_vfprintf_r+0x1710>
10003bf4:	ff048493          	addi	s1,s1,-16
10003bf8:	049eda63          	bge	t4,s1,10003c4c <_vfprintf_r+0x1760>
10003bfc:	01060613          	addi	a2,a2,16
10003c00:	00158593          	addi	a1,a1,1
10003c04:	0157a023          	sw	s5,0(a5)
10003c08:	01d7a223          	sw	t4,4(a5)
10003c0c:	0ac12e23          	sw	a2,188(sp)
10003c10:	0ab12c23          	sw	a1,184(sp)
10003c14:	00878793          	addi	a5,a5,8
10003c18:	fcb3dee3          	bge	t2,a1,10003bf4 <_vfprintf_r+0x1708>
10003c1c:	00412583          	lw	a1,4(sp)
10003c20:	0b410613          	addi	a2,sp,180
10003c24:	00090513          	mv	a0,s2
10003c28:	211010ef          	jal	10005638 <__sprint_r>
10003c2c:	c6051ee3          	bnez	a0,100038a8 <_vfprintf_r+0x13bc>
10003c30:	01000e93          	li	t4,16
10003c34:	ff048493          	addi	s1,s1,-16
10003c38:	0bc12603          	lw	a2,188(sp)
10003c3c:	0b812583          	lw	a1,184(sp)
10003c40:	00098793          	mv	a5,s3
10003c44:	00700393          	li	t2,7
10003c48:	fa9ecae3          	blt	t4,s1,10003bfc <_vfprintf_r+0x1710>
10003c4c:	000b0313          	mv	t1,s6
10003c50:	000a8813          	mv	a6,s5
10003c54:	00078b13          	mv	s6,a5
10003c58:	03812883          	lw	a7,56(sp)
10003c5c:	03c12783          	lw	a5,60(sp)
10003c60:	04012a83          	lw	s5,64(sp)
10003c64:	00048713          	mv	a4,s1
10003c68:	00c70633          	add	a2,a4,a2
10003c6c:	00158593          	addi	a1,a1,1
10003c70:	00eb2223          	sw	a4,4(s6)
10003c74:	0ac12e23          	sw	a2,188(sp)
10003c78:	0ab12c23          	sw	a1,184(sp)
10003c7c:	010b2023          	sw	a6,0(s6)
10003c80:	00700713          	li	a4,7
10003c84:	54b74463          	blt	a4,a1,100041cc <_vfprintf_r+0x1ce0>
10003c88:	09314703          	lbu	a4,147(sp)
10003c8c:	008b0b13          	addi	s6,s6,8
10003c90:	12071063          	bnez	a4,10003db0 <_vfprintf_r+0x18c4>
10003c94:	000d9463          	bnez	s11,10003c9c <_vfprintf_r+0x17b0>
10003c98:	b1dfe06f          	j	100027b4 <_vfprintf_r+0x2c8>
10003c9c:	00000d93          	li	s11,0
10003ca0:	ad9fe06f          	j	10002778 <_vfprintf_r+0x28c>
10003ca4:	0b812503          	lw	a0,184(sp)
10003ca8:	f11ff06f          	j	10003bb8 <_vfprintf_r+0x16cc>
10003cac:	00000c93          	li	s9,0
10003cb0:	00000a93          	li	s5,0
10003cb4:	02012023          	sw	zero,32(sp)
10003cb8:	00012e23          	sw	zero,28(sp)
10003cbc:	00000313          	li	t1,0
10003cc0:	00012823          	sw	zero,16(sp)
10003cc4:	18010793          	addi	a5,sp,384
10003cc8:	a5dfe06f          	j	10002724 <_vfprintf_r+0x238>
10003ccc:	00ebf5b3          	and	a1,s7,a4
10003cd0:	88059263          	bnez	a1,10002d54 <_vfprintf_r+0x868>
10003cd4:	00fb2023          	sw	a5,0(s6)
10003cd8:	00eb2223          	sw	a4,4(s6)
10003cdc:	0ac12e23          	sw	a2,188(sp)
10003ce0:	0b512c23          	sw	s5,184(sp)
10003ce4:	00700793          	li	a5,7
10003ce8:	9557d063          	bge	a5,s5,10002e28 <_vfprintf_r+0x93c>
10003cec:	00412583          	lw	a1,4(sp)
10003cf0:	0b410613          	addi	a2,sp,180
10003cf4:	00090513          	mv	a0,s2
10003cf8:	141010ef          	jal	10005638 <__sprint_r>
10003cfc:	ba0516e3          	bnez	a0,100038a8 <_vfprintf_r+0x13bc>
10003d00:	0bc12603          	lw	a2,188(sp)
10003d04:	0b812a83          	lw	s5,184(sp)
10003d08:	00098d93          	mv	s11,s3
10003d0c:	91cff06f          	j	10002e28 <_vfprintf_r+0x93c>
10003d10:	01812703          	lw	a4,24(sp)
10003d14:	00100793          	li	a5,1
10003d18:	90e7d863          	bge	a5,a4,10002e28 <_vfprintf_r+0x93c>
10003d1c:	01100793          	li	a5,17
10003d20:	10011837          	lui	a6,0x10011
10003d24:	00e7c463          	blt	a5,a4,10003d2c <_vfprintf_r+0x1840>
10003d28:	7440106f          	j	1000546c <_vfprintf_r+0x2f80>
10003d2c:	01000c93          	li	s9,16
10003d30:	00700793          	li	a5,7
10003d34:	dac80493          	addi	s1,a6,-596 # 10010dac <zeroes.0>
10003d38:	00c0006f          	j	10003d44 <_vfprintf_r+0x1858>
10003d3c:	ff0b0b13          	addi	s6,s6,-16
10003d40:	716cd863          	bge	s9,s6,10004450 <_vfprintf_r+0x1f64>
10003d44:	01060613          	addi	a2,a2,16
10003d48:	001a8a93          	addi	s5,s5,1
10003d4c:	009da023          	sw	s1,0(s11)
10003d50:	019da223          	sw	s9,4(s11)
10003d54:	0ac12e23          	sw	a2,188(sp)
10003d58:	0b512c23          	sw	s5,184(sp)
10003d5c:	008d8d93          	addi	s11,s11,8
10003d60:	fd57dee3          	bge	a5,s5,10003d3c <_vfprintf_r+0x1850>
10003d64:	00412583          	lw	a1,4(sp)
10003d68:	0b410613          	addi	a2,sp,180
10003d6c:	00090513          	mv	a0,s2
10003d70:	0c9010ef          	jal	10005638 <__sprint_r>
10003d74:	b2051ae3          	bnez	a0,100038a8 <_vfprintf_r+0x13bc>
10003d78:	0bc12603          	lw	a2,188(sp)
10003d7c:	0b812a83          	lw	s5,184(sp)
10003d80:	00098d93          	mv	s11,s3
10003d84:	00700793          	li	a5,7
10003d88:	fb5ff06f          	j	10003d3c <_vfprintf_r+0x1850>
10003d8c:	001bf793          	andi	a5,s7,1
10003d90:	00079463          	bnez	a5,10003d98 <_vfprintf_r+0x18ac>
10003d94:	a59fe06f          	j	100027ec <_vfprintf_r+0x300>
10003d98:	b2cff06f          	j	100030c4 <_vfprintf_r+0xbd8>
10003d9c:	00c12783          	lw	a5,12(sp)
10003da0:	000d4883          	lbu	a7,0(s10)
10003da4:	00478793          	addi	a5,a5,4
10003da8:	00f12623          	sw	a5,12(sp)
10003dac:	8e9fe06f          	j	10002694 <_vfprintf_r+0x1a8>
10003db0:	000d8713          	mv	a4,s11
10003db4:	00000d93          	li	s11,0
10003db8:	98dfe06f          	j	10002744 <_vfprintf_r+0x258>
10003dbc:	000c8c13          	mv	s8,s9
10003dc0:	00012823          	sw	zero,16(sp)
10003dc4:	02012023          	sw	zero,32(sp)
10003dc8:	00012e23          	sw	zero,28(sp)
10003dcc:	00000313          	li	t1,0
10003dd0:	955fe06f          	j	10002724 <_vfprintf_r+0x238>
10003dd4:	00c12783          	lw	a5,12(sp)
10003dd8:	00478793          	addi	a5,a5,4
10003ddc:	00c12703          	lw	a4,12(sp)
10003de0:	00000613          	li	a2,0
10003de4:	00f12623          	sw	a5,12(sp)
10003de8:	00072703          	lw	a4,0(a4)
10003dec:	e30ff06f          	j	1000341c <_vfprintf_r+0xf30>
10003df0:	00c12783          	lw	a5,12(sp)
10003df4:	00812683          	lw	a3,8(sp)
10003df8:	00812603          	lw	a2,8(sp)
10003dfc:	0007a783          	lw	a5,0(a5)
10003e00:	41f6d693          	srai	a3,a3,0x1f
10003e04:	00e12623          	sw	a4,12(sp)
10003e08:	00c7a023          	sw	a2,0(a5)
10003e0c:	00d7a223          	sw	a3,4(a5)
10003e10:	ff0fe06f          	j	10002600 <_vfprintf_r+0x114>
10003e14:	ffe50513          	addi	a0,a0,-2
10003e18:	03000713          	li	a4,48
10003e1c:	18010693          	addi	a3,sp,384
10003e20:	40a68cb3          	sub	s9,a3,a0
10003e24:	fee78fa3          	sb	a4,-1(a5)
10003e28:	000a8c13          	mv	s8,s5
10003e2c:	019ad463          	bge	s5,s9,10003e34 <_vfprintf_r+0x1948>
10003e30:	000c8c13          	mv	s8,s9
10003e34:	00050793          	mv	a5,a0
10003e38:	00012823          	sw	zero,16(sp)
10003e3c:	02012023          	sw	zero,32(sp)
10003e40:	00012e23          	sw	zero,28(sp)
10003e44:	00000313          	li	t1,0
10003e48:	8ddfe06f          	j	10002724 <_vfprintf_r+0x238>
10003e4c:	00c12783          	lw	a5,12(sp)
10003e50:	00478793          	addi	a5,a5,4
10003e54:	00c12703          	lw	a4,12(sp)
10003e58:	000e0b93          	mv	s7,t3
10003e5c:	00f12623          	sw	a5,12(sp)
10003e60:	00072c03          	lw	s8,0(a4)
10003e64:	41fc5e93          	srai	t4,s8,0x1f
10003e68:	000e8713          	mv	a4,t4
10003e6c:	b48ff06f          	j	100031b4 <_vfprintf_r+0xcc8>
10003e70:	00c12783          	lw	a5,12(sp)
10003e74:	00c12703          	lw	a4,12(sp)
10003e78:	0007a783          	lw	a5,0(a5)
10003e7c:	00470713          	addi	a4,a4,4
10003e80:	00e12623          	sw	a4,12(sp)
10003e84:	0007a603          	lw	a2,0(a5)
10003e88:	0047a683          	lw	a3,4(a5)
10003e8c:	0087a703          	lw	a4,8(a5)
10003e90:	00c7a783          	lw	a5,12(a5)
10003e94:	a75fe06f          	j	10002908 <_vfprintf_r+0x41c>
10003e98:	000b8693          	mv	a3,s7
10003e9c:	d64ff06f          	j	10003400 <_vfprintf_r+0xf14>
10003ea0:	09314e83          	lbu	t4,147(sp)
10003ea4:	00100c13          	li	s8,1
10003ea8:	00000313          	li	t1,0
10003eac:	00100c93          	li	s9,1
10003eb0:	17f10793          	addi	a5,sp,383
10003eb4:	c20ff06f          	j	100032d4 <_vfprintf_r+0xde8>
10003eb8:	100115b7          	lui	a1,0x10011
10003ebc:	002beb93          	ori	s7,s7,2
10003ec0:	00f12623          	sw	a5,12(sp)
10003ec4:	b0058593          	addi	a1,a1,-1280 # 10010b00 <__clzsi2+0x18c>
10003ec8:	00200313          	li	t1,2
10003ecc:	00000e93          	li	t4,0
10003ed0:	07800893          	li	a7,120
10003ed4:	18010793          	addi	a5,sp,384
10003ed8:	00f77693          	andi	a3,a4,15
10003edc:	00d586b3          	add	a3,a1,a3
10003ee0:	0006c683          	lbu	a3,0(a3)
10003ee4:	00475713          	srli	a4,a4,0x4
10003ee8:	fff78793          	addi	a5,a5,-1
10003eec:	00d78023          	sb	a3,0(a5)
10003ef0:	01c61693          	slli	a3,a2,0x1c
10003ef4:	00e68733          	add	a4,a3,a4
10003ef8:	00465613          	srli	a2,a2,0x4
10003efc:	00c766b3          	or	a3,a4,a2
10003f00:	fc069ce3          	bnez	a3,10003ed8 <_vfprintf_r+0x19ec>
10003f04:	18010713          	addi	a4,sp,384
10003f08:	40f70cb3          	sub	s9,a4,a5
10003f0c:	000a8c13          	mv	s8,s5
10003f10:	bd9ad263          	bge	s5,s9,100032d4 <_vfprintf_r+0xde8>
10003f14:	000c8c13          	mv	s8,s9
10003f18:	00012823          	sw	zero,16(sp)
10003f1c:	bbcff06f          	j	100032d8 <_vfprintf_r+0xdec>
10003f20:	00070a93          	mv	s5,a4
10003f24:	b7504ee3          	bgtz	s5,10003aa0 <_vfprintf_r+0x15b4>
10003f28:	ba1ff06f          	j	10003ac8 <_vfprintf_r+0x15dc>
10003f2c:	000e0b93          	mv	s7,t3
10003f30:	b78ff06f          	j	100032a8 <_vfprintf_r+0xdbc>
10003f34:	fff00a93          	li	s5,-1
10003f38:	00068d13          	mv	s10,a3
10003f3c:	f5cfe06f          	j	10002698 <_vfprintf_r+0x1ac>
10003f40:	00412583          	lw	a1,4(sp)
10003f44:	0b410613          	addi	a2,sp,180
10003f48:	00090513          	mv	a0,s2
10003f4c:	6ec010ef          	jal	10005638 <__sprint_r>
10003f50:	94051ce3          	bnez	a0,100038a8 <_vfprintf_r+0x13bc>
10003f54:	0bc12603          	lw	a2,188(sp)
10003f58:	00098b13          	mv	s6,s3
10003f5c:	99cff06f          	j	100030f8 <_vfprintf_r+0xc0c>
10003f60:	001d4883          	lbu	a7,1(s10)
10003f64:	020beb93          	ori	s7,s7,32
10003f68:	001d0d13          	addi	s10,s10,1
10003f6c:	f28fe06f          	j	10002694 <_vfprintf_r+0x1a8>
10003f70:	001d4883          	lbu	a7,1(s10)
10003f74:	200beb93          	ori	s7,s7,512
10003f78:	001d0d13          	addi	s10,s10,1
10003f7c:	f18fe06f          	j	10002694 <_vfprintf_r+0x1a8>
10003f80:	100115b7          	lui	a1,0x10011
10003f84:	b1458593          	addi	a1,a1,-1260 # 10010b14 <__clzsi2+0x1a0>
10003f88:	020bf793          	andi	a5,s7,32
10003f8c:	18078a63          	beqz	a5,10004120 <_vfprintf_r+0x1c34>
10003f90:	00c12783          	lw	a5,12(sp)
10003f94:	00778793          	addi	a5,a5,7
10003f98:	ff87f793          	andi	a5,a5,-8
10003f9c:	00878713          	addi	a4,a5,8
10003fa0:	00e12623          	sw	a4,12(sp)
10003fa4:	0047a603          	lw	a2,4(a5)
10003fa8:	0007a703          	lw	a4,0(a5)
10003fac:	001bf793          	andi	a5,s7,1
10003fb0:	00c766b3          	or	a3,a4,a2
10003fb4:	00078463          	beqz	a5,10003fbc <_vfprintf_r+0x1ad0>
10003fb8:	30069263          	bnez	a3,100042bc <_vfprintf_r+0x1dd0>
10003fbc:	080109a3          	sb	zero,147(sp)
10003fc0:	1e0ace63          	bltz	s5,100041bc <_vfprintf_r+0x1cd0>
10003fc4:	b7fbfb93          	andi	s7,s7,-1153
10003fc8:	00000313          	li	t1,0
10003fcc:	000a9463          	bnez	s5,10003fd4 <_vfprintf_r+0x1ae8>
10003fd0:	ea068863          	beqz	a3,10003680 <_vfprintf_r+0x1194>
10003fd4:	09314e83          	lbu	t4,147(sp)
10003fd8:	efdff06f          	j	10003ed4 <_vfprintf_r+0x19e8>
10003fdc:	100115b7          	lui	a1,0x10011
10003fe0:	b0058593          	addi	a1,a1,-1280 # 10010b00 <__clzsi2+0x18c>
10003fe4:	fa5ff06f          	j	10003f88 <_vfprintf_r+0x1a9c>
10003fe8:	00600793          	li	a5,6
10003fec:	000a8c13          	mv	s8,s5
10003ff0:	0157eae3          	bltu	a5,s5,10004804 <_vfprintf_r+0x2318>
10003ff4:	100117b7          	lui	a5,0x10011
10003ff8:	00912623          	sw	s1,12(sp)
10003ffc:	b2878793          	addi	a5,a5,-1240 # 10010b28 <__clzsi2+0x1b4>
10004000:	00012823          	sw	zero,16(sp)
10004004:	000c0c93          	mv	s9,s8
10004008:	00000a93          	li	s5,0
1000400c:	02012023          	sw	zero,32(sp)
10004010:	00012e23          	sw	zero,28(sp)
10004014:	00000313          	li	t1,0
10004018:	f0cfe06f          	j	10002724 <_vfprintf_r+0x238>
1000401c:	01000893          	li	a7,16
10004020:	0b812703          	lw	a4,184(sp)
10004024:	10011837          	lui	a6,0x10011
10004028:	0158c463          	blt	a7,s5,10004030 <_vfprintf_r+0x1b44>
1000402c:	4a40106f          	j	100054d0 <_vfprintf_r+0x2fe4>
10004030:	000a8493          	mv	s1,s5
10004034:	00700c93          	li	s9,7
10004038:	00078d93          	mv	s11,a5
1000403c:	02612c23          	sw	t1,56(sp)
10004040:	dac80a93          	addi	s5,a6,-596 # 10010dac <zeroes.0>
10004044:	00c0006f          	j	10004050 <_vfprintf_r+0x1b64>
10004048:	ff048493          	addi	s1,s1,-16
1000404c:	7498da63          	bge	a7,s1,100047a0 <_vfprintf_r+0x22b4>
10004050:	01060613          	addi	a2,a2,16
10004054:	00170713          	addi	a4,a4,1
10004058:	015b2023          	sw	s5,0(s6)
1000405c:	011b2223          	sw	a7,4(s6)
10004060:	0ac12e23          	sw	a2,188(sp)
10004064:	0ae12c23          	sw	a4,184(sp)
10004068:	008b0b13          	addi	s6,s6,8
1000406c:	fcecdee3          	bge	s9,a4,10004048 <_vfprintf_r+0x1b5c>
10004070:	00412583          	lw	a1,4(sp)
10004074:	0b410613          	addi	a2,sp,180
10004078:	00090513          	mv	a0,s2
1000407c:	5bc010ef          	jal	10005638 <__sprint_r>
10004080:	820514e3          	bnez	a0,100038a8 <_vfprintf_r+0x13bc>
10004084:	0bc12603          	lw	a2,188(sp)
10004088:	0b812703          	lw	a4,184(sp)
1000408c:	00098b13          	mv	s6,s3
10004090:	01000893          	li	a7,16
10004094:	fb5ff06f          	j	10004048 <_vfprintf_r+0x1b5c>
10004098:	00412583          	lw	a1,4(sp)
1000409c:	0b410613          	addi	a2,sp,180
100040a0:	00090513          	mv	a0,s2
100040a4:	594010ef          	jal	10005638 <__sprint_r>
100040a8:	800510e3          	bnez	a0,100038a8 <_vfprintf_r+0x13bc>
100040ac:	0bc12603          	lw	a2,188(sp)
100040b0:	0b812783          	lw	a5,184(sp)
100040b4:	00098b13          	mv	s6,s3
100040b8:	ff0a8a93          	addi	s5,s5,-16
100040bc:	295cda63          	bge	s9,s5,10004350 <_vfprintf_r+0x1e64>
100040c0:	01060613          	addi	a2,a2,16
100040c4:	00178793          	addi	a5,a5,1
100040c8:	009b2023          	sw	s1,0(s6)
100040cc:	019b2223          	sw	s9,4(s6)
100040d0:	0ac12e23          	sw	a2,188(sp)
100040d4:	0af12c23          	sw	a5,184(sp)
100040d8:	008b0b13          	addi	s6,s6,8
100040dc:	fcfddee3          	bge	s11,a5,100040b8 <_vfprintf_r+0x1bcc>
100040e0:	fb9ff06f          	j	10004098 <_vfprintf_r+0x1bac>
100040e4:	00078513          	mv	a0,a5
100040e8:	01112823          	sw	a7,16(sp)
100040ec:	00f12623          	sw	a5,12(sp)
100040f0:	cfcfd0ef          	jal	100015ec <strlen>
100040f4:	09314703          	lbu	a4,147(sp)
100040f8:	fff54693          	not	a3,a0
100040fc:	41f6d693          	srai	a3,a3,0x1f
10004100:	00c12783          	lw	a5,12(sp)
10004104:	01012883          	lw	a7,16(sp)
10004108:	00050c93          	mv	s9,a0
1000410c:	00d57c33          	and	s8,a0,a3
10004110:	00071463          	bnez	a4,10004118 <_vfprintf_r+0x1c2c>
10004114:	dd1fe06f          	j	10002ee4 <_vfprintf_r+0x9f8>
10004118:	001c0c13          	addi	s8,s8,1
1000411c:	dc9fe06f          	j	10002ee4 <_vfprintf_r+0x9f8>
10004120:	00c12683          	lw	a3,12(sp)
10004124:	00c12703          	lw	a4,12(sp)
10004128:	010bf793          	andi	a5,s7,16
1000412c:	00468693          	addi	a3,a3,4
10004130:	00d12623          	sw	a3,12(sp)
10004134:	00072703          	lw	a4,0(a4)
10004138:	06079e63          	bnez	a5,100041b4 <_vfprintf_r+0x1cc8>
1000413c:	040bf793          	andi	a5,s7,64
10004140:	06078663          	beqz	a5,100041ac <_vfprintf_r+0x1cc0>
10004144:	01071713          	slli	a4,a4,0x10
10004148:	01075713          	srli	a4,a4,0x10
1000414c:	00000613          	li	a2,0
10004150:	e5dff06f          	j	10003fac <_vfprintf_r+0x1ac0>
10004154:	00412583          	lw	a1,4(sp)
10004158:	0b410613          	addi	a2,sp,180
1000415c:	00090513          	mv	a0,s2
10004160:	00f12e23          	sw	a5,28(sp)
10004164:	4d4010ef          	jal	10005638 <__sprint_r>
10004168:	f4051063          	bnez	a0,100038a8 <_vfprintf_r+0x13bc>
1000416c:	0bc12603          	lw	a2,188(sp)
10004170:	0b812a83          	lw	s5,184(sp)
10004174:	01c12783          	lw	a5,28(sp)
10004178:	00098d93          	mv	s11,s3
1000417c:	c2dfe06f          	j	10002da8 <_vfprintf_r+0x8bc>
10004180:	00412583          	lw	a1,4(sp)
10004184:	0b410613          	addi	a2,sp,180
10004188:	00090513          	mv	a0,s2
1000418c:	00f12e23          	sw	a5,28(sp)
10004190:	4a8010ef          	jal	10005638 <__sprint_r>
10004194:	f0051a63          	bnez	a0,100038a8 <_vfprintf_r+0x13bc>
10004198:	0bc12603          	lw	a2,188(sp)
1000419c:	0b812a83          	lw	s5,184(sp)
100041a0:	01c12783          	lw	a5,28(sp)
100041a4:	00098d93          	mv	s11,s3
100041a8:	bcdfe06f          	j	10002d74 <_vfprintf_r+0x888>
100041ac:	200bf793          	andi	a5,s7,512
100041b0:	74079e63          	bnez	a5,1000490c <_vfprintf_r+0x2420>
100041b4:	00000613          	li	a2,0
100041b8:	df5ff06f          	j	10003fac <_vfprintf_r+0x1ac0>
100041bc:	bffbfb93          	andi	s7,s7,-1025
100041c0:	00000313          	li	t1,0
100041c4:	00000e93          	li	t4,0
100041c8:	d0dff06f          	j	10003ed4 <_vfprintf_r+0x19e8>
100041cc:	00412583          	lw	a1,4(sp)
100041d0:	0b410613          	addi	a2,sp,180
100041d4:	00090513          	mv	a0,s2
100041d8:	04612023          	sw	t1,64(sp)
100041dc:	02f12e23          	sw	a5,60(sp)
100041e0:	03112c23          	sw	a7,56(sp)
100041e4:	454010ef          	jal	10005638 <__sprint_r>
100041e8:	ec051063          	bnez	a0,100038a8 <_vfprintf_r+0x13bc>
100041ec:	09314703          	lbu	a4,147(sp)
100041f0:	0bc12603          	lw	a2,188(sp)
100041f4:	03812883          	lw	a7,56(sp)
100041f8:	03c12783          	lw	a5,60(sp)
100041fc:	04012303          	lw	t1,64(sp)
10004200:	22070e63          	beqz	a4,1000443c <_vfprintf_r+0x1f50>
10004204:	000d8713          	mv	a4,s11
10004208:	0b812583          	lw	a1,184(sp)
1000420c:	00000d93          	li	s11,0
10004210:	00098b13          	mv	s6,s3
10004214:	d30fe06f          	j	10002744 <_vfprintf_r+0x258>
10004218:	0b812703          	lw	a4,184(sp)
1000421c:	100115b7          	lui	a1,0x10011
10004220:	b3058593          	addi	a1,a1,-1232 # 10010b30 <__clzsi2+0x1bc>
10004224:	00bb2023          	sw	a1,0(s6)
10004228:	00160613          	addi	a2,a2,1
1000422c:	00100593          	li	a1,1
10004230:	00170713          	addi	a4,a4,1
10004234:	00bb2223          	sw	a1,4(s6)
10004238:	0ac12e23          	sw	a2,188(sp)
1000423c:	0ae12c23          	sw	a4,184(sp)
10004240:	00700593          	li	a1,7
10004244:	008b0b13          	addi	s6,s6,8
10004248:	44e5c0e3          	blt	a1,a4,10004e88 <_vfprintf_r+0x299c>
1000424c:	01812703          	lw	a4,24(sp)
10004250:	00a76733          	or	a4,a4,a0
10004254:	5e070463          	beqz	a4,1000483c <_vfprintf_r+0x2350>
10004258:	02412683          	lw	a3,36(sp)
1000425c:	0b812703          	lw	a4,184(sp)
10004260:	00700593          	li	a1,7
10004264:	00c68633          	add	a2,a3,a2
10004268:	02812683          	lw	a3,40(sp)
1000426c:	00170713          	addi	a4,a4,1
10004270:	0ac12e23          	sw	a2,188(sp)
10004274:	00db2023          	sw	a3,0(s6)
10004278:	02412683          	lw	a3,36(sp)
1000427c:	0ae12c23          	sw	a4,184(sp)
10004280:	008b0b13          	addi	s6,s6,8
10004284:	fedb2e23          	sw	a3,-4(s6)
10004288:	5ee5c863          	blt	a1,a4,10004878 <_vfprintf_r+0x238c>
1000428c:	62054ae3          	bltz	a0,100050c0 <_vfprintf_r+0x2bd4>
10004290:	01812683          	lw	a3,24(sp)
10004294:	00170713          	addi	a4,a4,1
10004298:	00fb2023          	sw	a5,0(s6)
1000429c:	00c68633          	add	a2,a3,a2
100042a0:	0ac12e23          	sw	a2,188(sp)
100042a4:	0ae12c23          	sw	a4,184(sp)
100042a8:	00db2223          	sw	a3,4(s6)
100042ac:	00700793          	li	a5,7
100042b0:	00e7c463          	blt	a5,a4,100042b8 <_vfprintf_r+0x1dcc>
100042b4:	d34fe06f          	j	100027e8 <_vfprintf_r+0x2fc>
100042b8:	ba1fe06f          	j	10002e58 <_vfprintf_r+0x96c>
100042bc:	03000793          	li	a5,48
100042c0:	09110aa3          	sb	a7,149(sp)
100042c4:	080109a3          	sb	zero,147(sp)
100042c8:	08f10a23          	sb	a5,148(sp)
100042cc:	2c0ac463          	bltz	s5,10004594 <_vfprintf_r+0x20a8>
100042d0:	b7fbfe13          	andi	t3,s7,-1153
100042d4:	09314e83          	lbu	t4,147(sp)
100042d8:	002e6b93          	ori	s7,t3,2
100042dc:	00200313          	li	t1,2
100042e0:	bf5ff06f          	j	10003ed4 <_vfprintf_r+0x19e8>
100042e4:	00090513          	mv	a0,s2
100042e8:	d94fc0ef          	jal	1000087c <__sinit>
100042ec:	a50fe06f          	j	1000253c <_vfprintf_r+0x50>
100042f0:	00412583          	lw	a1,4(sp)
100042f4:	0b410613          	addi	a2,sp,180
100042f8:	00090513          	mv	a0,s2
100042fc:	33c010ef          	jal	10005638 <__sprint_r>
10004300:	da051463          	bnez	a0,100038a8 <_vfprintf_r+0x13bc>
10004304:	0bc12603          	lw	a2,188(sp)
10004308:	00098b13          	mv	s6,s3
1000430c:	dadfe06f          	j	100030b8 <_vfprintf_r+0xbcc>
10004310:	01012583          	lw	a1,16(sp)
10004314:	d9cff06f          	j	100038b0 <_vfprintf_r+0x13c4>
10004318:	640e9863          	bnez	t4,10004968 <_vfprintf_r+0x247c>
1000431c:	00900713          	li	a4,9
10004320:	65876463          	bltu	a4,s8,10004968 <_vfprintf_r+0x247c>
10004324:	18010713          	addi	a4,sp,384
10004328:	00b12c23          	sw	a1,24(sp)
1000432c:	40f70cb3          	sub	s9,a4,a5
10004330:	00048893          	mv	a7,s1
10004334:	000a8c13          	mv	s8,s5
10004338:	019ad463          	bge	s5,s9,10004340 <_vfprintf_r+0x1e54>
1000433c:	000c8c13          	mv	s8,s9
10004340:	09314e83          	lbu	t4,147(sp)
10004344:	00000313          	li	t1,0
10004348:	00012823          	sw	zero,16(sp)
1000434c:	f8dfe06f          	j	100032d8 <_vfprintf_r+0xdec>
10004350:	00048813          	mv	a6,s1
10004354:	01560633          	add	a2,a2,s5
10004358:	00178793          	addi	a5,a5,1
1000435c:	0ac12e23          	sw	a2,188(sp)
10004360:	0af12c23          	sw	a5,184(sp)
10004364:	010b2023          	sw	a6,0(s6)
10004368:	015b2223          	sw	s5,4(s6)
1000436c:	00700713          	li	a4,7
10004370:	00f74463          	blt	a4,a5,10004378 <_vfprintf_r+0x1e8c>
10004374:	c74fe06f          	j	100027e8 <_vfprintf_r+0x2fc>
10004378:	ae1fe06f          	j	10002e58 <_vfprintf_r+0x96c>
1000437c:	0c012703          	lw	a4,192(sp)
10004380:	0c412783          	lw	a5,196(sp)
10004384:	07010593          	addi	a1,sp,112
10004388:	08e12023          	sw	a4,128(sp)
1000438c:	08f12223          	sw	a5,132(sp)
10004390:	0c812703          	lw	a4,200(sp)
10004394:	0cc12783          	lw	a5,204(sp)
10004398:	08010513          	addi	a0,sp,128
1000439c:	06012823          	sw	zero,112(sp)
100043a0:	06012a23          	sw	zero,116(sp)
100043a4:	06012c23          	sw	zero,120(sp)
100043a8:	06012e23          	sw	zero,124(sp)
100043ac:	08e12423          	sw	a4,136(sp)
100043b0:	08f12623          	sw	a5,140(sp)
100043b4:	571090ef          	jal	1000e124 <__letf2>
100043b8:	01012883          	lw	a7,16(sp)
100043bc:	f7fbfb93          	andi	s7,s7,-129
100043c0:	360546e3          	bltz	a0,10004f2c <_vfprintf_r+0x2a40>
100043c4:	04700793          	li	a5,71
100043c8:	09314703          	lbu	a4,147(sp)
100043cc:	5917c863          	blt	a5,a7,1000495c <_vfprintf_r+0x2470>
100043d0:	100117b7          	lui	a5,0x10011
100043d4:	af078793          	addi	a5,a5,-1296 # 10010af0 <__clzsi2+0x17c>
100043d8:	14071c63          	bnez	a4,10004530 <_vfprintf_r+0x2044>
100043dc:	00300c93          	li	s9,3
100043e0:	000c8c13          	mv	s8,s9
100043e4:	b05fe06f          	j	10002ee8 <_vfprintf_r+0x9fc>
100043e8:	00c12783          	lw	a5,12(sp)
100043ec:	00812683          	lw	a3,8(sp)
100043f0:	0007a783          	lw	a5,0(a5)
100043f4:	00d7a023          	sw	a3,0(a5)
100043f8:	00e12623          	sw	a4,12(sp)
100043fc:	a04fe06f          	j	10002600 <_vfprintf_r+0x114>
10004400:	100115b7          	lui	a1,0x10011
10004404:	09314e83          	lbu	t4,147(sp)
10004408:	00f12623          	sw	a5,12(sp)
1000440c:	b0058593          	addi	a1,a1,-1280 # 10010b00 <__clzsi2+0x18c>
10004410:	00200313          	li	t1,2
10004414:	07800893          	li	a7,120
10004418:	abdff06f          	j	10003ed4 <_vfprintf_r+0x19e8>
1000441c:	0bc12783          	lw	a5,188(sp)
10004420:	00412483          	lw	s1,4(sp)
10004424:	c8078c63          	beqz	a5,100038bc <_vfprintf_r+0x13d0>
10004428:	00090513          	mv	a0,s2
1000442c:	0b410613          	addi	a2,sp,180
10004430:	00048593          	mv	a1,s1
10004434:	204010ef          	jal	10005638 <__sprint_r>
10004438:	c84ff06f          	j	100038bc <_vfprintf_r+0x13d0>
1000443c:	480d8663          	beqz	s11,100048c8 <_vfprintf_r+0x23dc>
10004440:	0b812583          	lw	a1,184(sp)
10004444:	00000d93          	li	s11,0
10004448:	00098b13          	mv	s6,s3
1000444c:	b2cfe06f          	j	10002778 <_vfprintf_r+0x28c>
10004450:	00048813          	mv	a6,s1
10004454:	01660633          	add	a2,a2,s6
10004458:	001a8a93          	addi	s5,s5,1
1000445c:	0ac12e23          	sw	a2,188(sp)
10004460:	0b512c23          	sw	s5,184(sp)
10004464:	010da023          	sw	a6,0(s11)
10004468:	016da223          	sw	s6,4(s11)
1000446c:	00700793          	li	a5,7
10004470:	0157c463          	blt	a5,s5,10004478 <_vfprintf_r+0x1f8c>
10004474:	9b1fe06f          	j	10002e24 <_vfprintf_r+0x938>
10004478:	875ff06f          	j	10003cec <_vfprintf_r+0x1800>
1000447c:	200bf693          	andi	a3,s7,512
10004480:	48068c63          	beqz	a3,10004918 <_vfprintf_r+0x242c>
10004484:	0ff77713          	zext.b	a4,a4
10004488:	00f12623          	sw	a5,12(sp)
1000448c:	000b8693          	mv	a3,s7
10004490:	00000613          	li	a2,0
10004494:	f89fe06f          	j	1000341c <_vfprintf_r+0xf30>
10004498:	200bf313          	andi	t1,s7,512
1000449c:	080109a3          	sb	zero,147(sp)
100044a0:	44031c63          	bnez	t1,100048f8 <_vfprintf_r+0x240c>
100044a4:	00000e93          	li	t4,0
100044a8:	000ad463          	bgez	s5,100044b0 <_vfprintf_r+0x1fc4>
100044ac:	e01fe06f          	j	100032ac <_vfprintf_r+0xdc0>
100044b0:	f7fbfb93          	andi	s7,s7,-129
100044b4:	000a8463          	beqz	s5,100044bc <_vfprintf_r+0x1fd0>
100044b8:	df5fe06f          	j	100032ac <_vfprintf_r+0xdc0>
100044bc:	9c0c0263          	beqz	s8,10003680 <_vfprintf_r+0x1194>
100044c0:	dedfe06f          	j	100032ac <_vfprintf_r+0xdc0>
100044c4:	200bf713          	andi	a4,s7,512
100044c8:	42070063          	beqz	a4,100048e8 <_vfprintf_r+0x23fc>
100044cc:	018c1c13          	slli	s8,s8,0x18
100044d0:	418c5c13          	srai	s8,s8,0x18
100044d4:	41fc5e93          	srai	t4,s8,0x1f
100044d8:	00f12623          	sw	a5,12(sp)
100044dc:	000e8713          	mv	a4,t4
100044e0:	cd5fe06f          	j	100031b4 <_vfprintf_r+0xcc8>
100044e4:	00012823          	sw	zero,16(sp)
100044e8:	00000c93          	li	s9,0
100044ec:	02012023          	sw	zero,32(sp)
100044f0:	00012e23          	sw	zero,28(sp)
100044f4:	00000313          	li	t1,0
100044f8:	18010793          	addi	a5,sp,384
100044fc:	00000c13          	li	s8,0
10004500:	a24fe06f          	j	10002724 <_vfprintf_r+0x238>
10004504:	0cc12f83          	lw	t6,204(sp)
10004508:	800007b7          	lui	a5,0x80000
1000450c:	f7fbfb93          	andi	s7,s7,-129
10004510:	00fff333          	and	t1,t6,a5
10004514:	40030a63          	beqz	t1,10004928 <_vfprintf_r+0x243c>
10004518:	02d00793          	li	a5,45
1000451c:	08f109a3          	sb	a5,147(sp)
10004520:	04700793          	li	a5,71
10004524:	5917d2e3          	bge	a5,a7,100052a8 <_vfprintf_r+0x2dbc>
10004528:	100117b7          	lui	a5,0x10011
1000452c:	afc78793          	addi	a5,a5,-1284 # 10010afc <__clzsi2+0x188>
10004530:	00012823          	sw	zero,16(sp)
10004534:	00300c93          	li	s9,3
10004538:	00000a93          	li	s5,0
1000453c:	02012023          	sw	zero,32(sp)
10004540:	00012e23          	sw	zero,28(sp)
10004544:	00000313          	li	t1,0
10004548:	00400c13          	li	s8,4
1000454c:	9d8fe06f          	j	10002724 <_vfprintf_r+0x238>
10004550:	100be713          	ori	a4,s7,256
10004554:	fff00793          	li	a5,-1
10004558:	00e12823          	sw	a4,16(sp)
1000455c:	0c012e83          	lw	t4,192(sp)
10004560:	0c412f03          	lw	t5,196(sp)
10004564:	0c812283          	lw	t0,200(sp)
10004568:	0cc12c83          	lw	s9,204(sp)
1000456c:	54fa8c63          	beq	s5,a5,10004ac4 <_vfprintf_r+0x25d8>
10004570:	fb9c0793          	addi	a5,s8,-71
10004574:	00079463          	bnez	a5,1000457c <_vfprintf_r+0x2090>
10004578:	680a8c63          	beqz	s5,10004c10 <_vfprintf_r+0x2724>
1000457c:	400cc2e3          	bltz	s9,10005180 <_vfprintf_r+0x2c94>
10004580:	02012c23          	sw	zero,56(sp)
10004584:	54c0006f          	j	10004ad0 <_vfprintf_r+0x25e4>
10004588:	00f12623          	sw	a5,12(sp)
1000458c:	000e0b93          	mv	s7,t3
10004590:	d1dfe06f          	j	100032ac <_vfprintf_r+0xdc0>
10004594:	bffbfe13          	andi	t3,s7,-1025
10004598:	002e6b93          	ori	s7,t3,2
1000459c:	00200313          	li	t1,2
100045a0:	00000e93          	li	t4,0
100045a4:	931ff06f          	j	10003ed4 <_vfprintf_r+0x19e8>
100045a8:	01c12703          	lw	a4,28(sp)
100045ac:	02012683          	lw	a3,32(sp)
100045b0:	00d76733          	or	a4,a4,a3
100045b4:	740708e3          	beqz	a4,10005504 <_vfprintf_r+0x3018>
100045b8:	01812703          	lw	a4,24(sp)
100045bc:	03712e23          	sw	s7,60(sp)
100045c0:	05812023          	sw	s8,64(sp)
100045c4:	000d8b93          	mv	s7,s11
100045c8:	05a12423          	sw	s10,72(sp)
100045cc:	01c12a83          	lw	s5,28(sp)
100045d0:	02012d83          	lw	s11,32(sp)
100045d4:	04412c03          	lw	s8,68(sp)
100045d8:	03012d03          	lw	s10,48(sp)
100045dc:	100118b7          	lui	a7,0x10011
100045e0:	000b0693          	mv	a3,s6
100045e4:	dac88893          	addi	a7,a7,-596 # 10010dac <zeroes.0>
100045e8:	00700813          	li	a6,7
100045ec:	01000c93          	li	s9,16
100045f0:	02f12c23          	sw	a5,56(sp)
100045f4:	00e78b33          	add	s6,a5,a4
100045f8:	09b04a63          	bgtz	s11,1000468c <_vfprintf_r+0x21a0>
100045fc:	fffd0d13          	addi	s10,s10,-1
10004600:	fffa8a93          	addi	s5,s5,-1
10004604:	0b812783          	lw	a5,184(sp)
10004608:	03412703          	lw	a4,52(sp)
1000460c:	01860633          	add	a2,a2,s8
10004610:	00178793          	addi	a5,a5,1
10004614:	00e6a023          	sw	a4,0(a3)
10004618:	0186a223          	sw	s8,4(a3)
1000461c:	0ac12e23          	sw	a2,188(sp)
10004620:	0af12c23          	sw	a5,184(sp)
10004624:	00868693          	addi	a3,a3,8
10004628:	10f84a63          	blt	a6,a5,1000473c <_vfprintf_r+0x2250>
1000462c:	000d4583          	lbu	a1,0(s10)
10004630:	417b04b3          	sub	s1,s6,s7
10004634:	000b0713          	mv	a4,s6
10004638:	0095d463          	bge	a1,s1,10004640 <_vfprintf_r+0x2154>
1000463c:	00058493          	mv	s1,a1
10004640:	02905663          	blez	s1,1000466c <_vfprintf_r+0x2180>
10004644:	0b812583          	lw	a1,184(sp)
10004648:	00960633          	add	a2,a2,s1
1000464c:	0ac12e23          	sw	a2,188(sp)
10004650:	00158593          	addi	a1,a1,1
10004654:	0176a023          	sw	s7,0(a3)
10004658:	0096a223          	sw	s1,4(a3)
1000465c:	0ab12c23          	sw	a1,184(sp)
10004660:	10b84463          	blt	a6,a1,10004768 <_vfprintf_r+0x227c>
10004664:	000d4583          	lbu	a1,0(s10)
10004668:	00868693          	addi	a3,a3,8
1000466c:	fff4c513          	not	a0,s1
10004670:	41f55513          	srai	a0,a0,0x1f
10004674:	00a4f7b3          	and	a5,s1,a0
10004678:	40f584b3          	sub	s1,a1,a5
1000467c:	00904c63          	bgtz	s1,10004694 <_vfprintf_r+0x21a8>
10004680:	00bb8bb3          	add	s7,s7,a1
10004684:	f7504ae3          	bgtz	s5,100045f8 <_vfprintf_r+0x210c>
10004688:	55b05e63          	blez	s11,10004be4 <_vfprintf_r+0x26f8>
1000468c:	fffd8d93          	addi	s11,s11,-1
10004690:	f75ff06f          	j	10004604 <_vfprintf_r+0x2118>
10004694:	100112b7          	lui	t0,0x10011
10004698:	0b812583          	lw	a1,184(sp)
1000469c:	dac28293          	addi	t0,t0,-596 # 10010dac <zeroes.0>
100046a0:	069cda63          	bge	s9,s1,10004714 <_vfprintf_r+0x2228>
100046a4:	00e12e23          	sw	a4,28(sp)
100046a8:	03112023          	sw	a7,32(sp)
100046ac:	00c0006f          	j	100046b8 <_vfprintf_r+0x21cc>
100046b0:	ff048493          	addi	s1,s1,-16
100046b4:	049cdc63          	bge	s9,s1,1000470c <_vfprintf_r+0x2220>
100046b8:	01060613          	addi	a2,a2,16
100046bc:	00158593          	addi	a1,a1,1
100046c0:	0116a023          	sw	a7,0(a3)
100046c4:	0196a223          	sw	s9,4(a3)
100046c8:	0ac12e23          	sw	a2,188(sp)
100046cc:	0ab12c23          	sw	a1,184(sp)
100046d0:	00868693          	addi	a3,a3,8
100046d4:	fcb85ee3          	bge	a6,a1,100046b0 <_vfprintf_r+0x21c4>
100046d8:	00412583          	lw	a1,4(sp)
100046dc:	0b410613          	addi	a2,sp,180
100046e0:	00090513          	mv	a0,s2
100046e4:	755000ef          	jal	10005638 <__sprint_r>
100046e8:	9c051063          	bnez	a0,100038a8 <_vfprintf_r+0x13bc>
100046ec:	100117b7          	lui	a5,0x10011
100046f0:	ff048493          	addi	s1,s1,-16
100046f4:	0bc12603          	lw	a2,188(sp)
100046f8:	0b812583          	lw	a1,184(sp)
100046fc:	00098693          	mv	a3,s3
10004700:	dac78893          	addi	a7,a5,-596 # 10010dac <zeroes.0>
10004704:	00700813          	li	a6,7
10004708:	fa9cc8e3          	blt	s9,s1,100046b8 <_vfprintf_r+0x21cc>
1000470c:	01c12703          	lw	a4,28(sp)
10004710:	02012283          	lw	t0,32(sp)
10004714:	00960633          	add	a2,a2,s1
10004718:	00158593          	addi	a1,a1,1
1000471c:	0ac12e23          	sw	a2,188(sp)
10004720:	0ab12c23          	sw	a1,184(sp)
10004724:	0056a023          	sw	t0,0(a3)
10004728:	0096a223          	sw	s1,4(a3)
1000472c:	78b84a63          	blt	a6,a1,10004ec0 <_vfprintf_r+0x29d4>
10004730:	000d4583          	lbu	a1,0(s10)
10004734:	00868693          	addi	a3,a3,8
10004738:	f49ff06f          	j	10004680 <_vfprintf_r+0x2194>
1000473c:	00412583          	lw	a1,4(sp)
10004740:	0b410613          	addi	a2,sp,180
10004744:	00090513          	mv	a0,s2
10004748:	6f1000ef          	jal	10005638 <__sprint_r>
1000474c:	94051e63          	bnez	a0,100038a8 <_vfprintf_r+0x13bc>
10004750:	100117b7          	lui	a5,0x10011
10004754:	0bc12603          	lw	a2,188(sp)
10004758:	00098693          	mv	a3,s3
1000475c:	dac78893          	addi	a7,a5,-596 # 10010dac <zeroes.0>
10004760:	00700813          	li	a6,7
10004764:	ec9ff06f          	j	1000462c <_vfprintf_r+0x2140>
10004768:	00412583          	lw	a1,4(sp)
1000476c:	0b410613          	addi	a2,sp,180
10004770:	00090513          	mv	a0,s2
10004774:	00e12e23          	sw	a4,28(sp)
10004778:	6c1000ef          	jal	10005638 <__sprint_r>
1000477c:	92051663          	bnez	a0,100038a8 <_vfprintf_r+0x13bc>
10004780:	100117b7          	lui	a5,0x10011
10004784:	000d4583          	lbu	a1,0(s10)
10004788:	0bc12603          	lw	a2,188(sp)
1000478c:	01c12703          	lw	a4,28(sp)
10004790:	00098693          	mv	a3,s3
10004794:	dac78893          	addi	a7,a5,-596 # 10010dac <zeroes.0>
10004798:	00700813          	li	a6,7
1000479c:	ed1ff06f          	j	1000466c <_vfprintf_r+0x2180>
100047a0:	03812303          	lw	t1,56(sp)
100047a4:	000a8813          	mv	a6,s5
100047a8:	000d8793          	mv	a5,s11
100047ac:	00048a93          	mv	s5,s1
100047b0:	01560633          	add	a2,a2,s5
100047b4:	00170713          	addi	a4,a4,1
100047b8:	010b2023          	sw	a6,0(s6)
100047bc:	015b2223          	sw	s5,4(s6)
100047c0:	0ac12e23          	sw	a2,188(sp)
100047c4:	0ae12c23          	sw	a4,184(sp)
100047c8:	00700593          	li	a1,7
100047cc:	008b0b13          	addi	s6,s6,8
100047d0:	b0e5d663          	bge	a1,a4,10003adc <_vfprintf_r+0x15f0>
100047d4:	00412583          	lw	a1,4(sp)
100047d8:	0b410613          	addi	a2,sp,180
100047dc:	00090513          	mv	a0,s2
100047e0:	02612e23          	sw	t1,60(sp)
100047e4:	02f12c23          	sw	a5,56(sp)
100047e8:	651000ef          	jal	10005638 <__sprint_r>
100047ec:	8a051e63          	bnez	a0,100038a8 <_vfprintf_r+0x13bc>
100047f0:	0bc12603          	lw	a2,188(sp)
100047f4:	03c12303          	lw	t1,60(sp)
100047f8:	03812783          	lw	a5,56(sp)
100047fc:	00098b13          	mv	s6,s3
10004800:	adcff06f          	j	10003adc <_vfprintf_r+0x15f0>
10004804:	00078c13          	mv	s8,a5
10004808:	fecff06f          	j	10003ff4 <_vfprintf_r+0x1b08>
1000480c:	00412583          	lw	a1,4(sp)
10004810:	0b410613          	addi	a2,sp,180
10004814:	00090513          	mv	a0,s2
10004818:	02612e23          	sw	t1,60(sp)
1000481c:	02f12c23          	sw	a5,56(sp)
10004820:	619000ef          	jal	10005638 <__sprint_r>
10004824:	88051263          	bnez	a0,100038a8 <_vfprintf_r+0x13bc>
10004828:	0bc12603          	lw	a2,188(sp)
1000482c:	03c12303          	lw	t1,60(sp)
10004830:	03812783          	lw	a5,56(sp)
10004834:	00098b13          	mv	s6,s3
10004838:	a90ff06f          	j	10003ac8 <_vfprintf_r+0x15dc>
1000483c:	001bf713          	andi	a4,s7,1
10004840:	00071463          	bnez	a4,10004848 <_vfprintf_r+0x235c>
10004844:	fa9fd06f          	j	100027ec <_vfprintf_r+0x300>
10004848:	02412683          	lw	a3,36(sp)
1000484c:	0b812703          	lw	a4,184(sp)
10004850:	00700593          	li	a1,7
10004854:	00c68633          	add	a2,a3,a2
10004858:	02812683          	lw	a3,40(sp)
1000485c:	00170713          	addi	a4,a4,1
10004860:	0ac12e23          	sw	a2,188(sp)
10004864:	00db2023          	sw	a3,0(s6)
10004868:	02412683          	lw	a3,36(sp)
1000486c:	0ae12c23          	sw	a4,184(sp)
10004870:	00db2223          	sw	a3,4(s6)
10004874:	64e5d263          	bge	a1,a4,10004eb8 <_vfprintf_r+0x29cc>
10004878:	00412583          	lw	a1,4(sp)
1000487c:	0b410613          	addi	a2,sp,180
10004880:	00090513          	mv	a0,s2
10004884:	00f12e23          	sw	a5,28(sp)
10004888:	5b1000ef          	jal	10005638 <__sprint_r>
1000488c:	00050463          	beqz	a0,10004894 <_vfprintf_r+0x23a8>
10004890:	818ff06f          	j	100038a8 <_vfprintf_r+0x13bc>
10004894:	09812503          	lw	a0,152(sp)
10004898:	0bc12603          	lw	a2,188(sp)
1000489c:	0b812703          	lw	a4,184(sp)
100048a0:	01c12783          	lw	a5,28(sp)
100048a4:	00098b13          	mv	s6,s3
100048a8:	9e5ff06f          	j	1000428c <_vfprintf_r+0x1da0>
100048ac:	01812703          	lw	a4,24(sp)
100048b0:	00e787b3          	add	a5,a5,a4
100048b4:	41b78cb3          	sub	s9,a5,s11
100048b8:	41570ab3          	sub	s5,a4,s5
100048bc:	ad9ad063          	bge	s5,s9,10003b7c <_vfprintf_r+0x1690>
100048c0:	000a8c93          	mv	s9,s5
100048c4:	ab8ff06f          	j	10003b7c <_vfprintf_r+0x1690>
100048c8:	00098b13          	mv	s6,s3
100048cc:	ee9fd06f          	j	100027b4 <_vfprintf_r+0x2c8>
100048d0:	00c12783          	lw	a5,12(sp)
100048d4:	00812683          	lw	a3,8(sp)
100048d8:	00e12623          	sw	a4,12(sp)
100048dc:	0007a783          	lw	a5,0(a5)
100048e0:	00d79023          	sh	a3,0(a5)
100048e4:	d1dfd06f          	j	10002600 <_vfprintf_r+0x114>
100048e8:	41fc5e93          	srai	t4,s8,0x1f
100048ec:	00f12623          	sw	a5,12(sp)
100048f0:	000e8713          	mv	a4,t4
100048f4:	8c1fe06f          	j	100031b4 <_vfprintf_r+0xcc8>
100048f8:	0ffc7c13          	zext.b	s8,s8
100048fc:	00000e93          	li	t4,0
10004900:	000ac463          	bltz	s5,10004908 <_vfprintf_r+0x241c>
10004904:	c0dfe06f          	j	10003510 <_vfprintf_r+0x1024>
10004908:	9a1fe06f          	j	100032a8 <_vfprintf_r+0xdbc>
1000490c:	0ff77713          	zext.b	a4,a4
10004910:	00000613          	li	a2,0
10004914:	e98ff06f          	j	10003fac <_vfprintf_r+0x1ac0>
10004918:	00f12623          	sw	a5,12(sp)
1000491c:	000b8693          	mv	a3,s7
10004920:	00000613          	li	a2,0
10004924:	af9fe06f          	j	1000341c <_vfprintf_r+0xf30>
10004928:	04700793          	li	a5,71
1000492c:	09314703          	lbu	a4,147(sp)
10004930:	1117d8e3          	bge	a5,a7,10005240 <_vfprintf_r+0x2d54>
10004934:	100117b7          	lui	a5,0x10011
10004938:	afc78793          	addi	a5,a5,-1284 # 10010afc <__clzsi2+0x188>
1000493c:	3a0716e3          	bnez	a4,100054e8 <_vfprintf_r+0x2ffc>
10004940:	00300c93          	li	s9,3
10004944:	000c8c13          	mv	s8,s9
10004948:	00000a93          	li	s5,0
1000494c:	02012023          	sw	zero,32(sp)
10004950:	00012e23          	sw	zero,28(sp)
10004954:	00012823          	sw	zero,16(sp)
10004958:	dcdfd06f          	j	10002724 <_vfprintf_r+0x238>
1000495c:	100117b7          	lui	a5,0x10011
10004960:	af478793          	addi	a5,a5,-1292 # 10010af4 <__clzsi2+0x180>
10004964:	a75ff06f          	j	100043d8 <_vfprintf_r+0x1eec>
10004968:	04412703          	lw	a4,68(sp)
1000496c:	03412583          	lw	a1,52(sp)
10004970:	01d12e23          	sw	t4,28(sp)
10004974:	40e786b3          	sub	a3,a5,a4
10004978:	00070613          	mv	a2,a4
1000497c:	00068513          	mv	a0,a3
10004980:	01012c23          	sw	a6,24(sp)
10004984:	00d12823          	sw	a3,16(sp)
10004988:	019010ef          	jal	100061a0 <strncpy>
1000498c:	01c12e83          	lw	t4,28(sp)
10004990:	ccccd637          	lui	a2,0xccccd
10004994:	ccd60613          	addi	a2,a2,-819 # cccccccd <_sp+0xbccb8fad>
10004998:	01dc0733          	add	a4,s8,t4
1000499c:	018737b3          	sltu	a5,a4,s8
100049a0:	00f70733          	add	a4,a4,a5
100049a4:	02c735b3          	mulhu	a1,a4,a2
100049a8:	ccccd537          	lui	a0,0xccccd
100049ac:	ccc50513          	addi	a0,a0,-820 # cccccccc <_sp+0xbccb8fac>
100049b0:	03012783          	lw	a5,48(sp)
100049b4:	03012683          	lw	a3,48(sp)
100049b8:	01812803          	lw	a6,24(sp)
100049bc:	0017c783          	lbu	a5,1(a5)
100049c0:	00f037b3          	snez	a5,a5
100049c4:	0025d893          	srli	a7,a1,0x2
100049c8:	ffc5f593          	andi	a1,a1,-4
100049cc:	011585b3          	add	a1,a1,a7
100049d0:	40b70733          	sub	a4,a4,a1
100049d4:	40ec0733          	sub	a4,s8,a4
100049d8:	00ec35b3          	sltu	a1,s8,a4
100049dc:	40be85b3          	sub	a1,t4,a1
100049e0:	02a70533          	mul	a0,a4,a0
100049e4:	00f687b3          	add	a5,a3,a5
100049e8:	01012683          	lw	a3,16(sp)
100049ec:	02f12823          	sw	a5,48(sp)
100049f0:	fff68793          	addi	a5,a3,-1
100049f4:	02c585b3          	mul	a1,a1,a2
100049f8:	00a585b3          	add	a1,a1,a0
100049fc:	02c73533          	mulhu	a0,a4,a2
10004a00:	02c70733          	mul	a4,a4,a2
10004a04:	00a585b3          	add	a1,a1,a0
10004a08:	01f59513          	slli	a0,a1,0x1f
10004a0c:	0015de93          	srli	t4,a1,0x1
10004a10:	00100593          	li	a1,1
10004a14:	00175713          	srli	a4,a4,0x1
10004a18:	00e50c33          	add	s8,a0,a4
10004a1c:	01dc0733          	add	a4,s8,t4
10004a20:	01873533          	sltu	a0,a4,s8
10004a24:	00a70733          	add	a4,a4,a0
10004a28:	02c73533          	mulhu	a0,a4,a2
10004a2c:	00255893          	srli	a7,a0,0x2
10004a30:	ffc57513          	andi	a0,a0,-4
10004a34:	01150533          	add	a0,a0,a7
10004a38:	40a70733          	sub	a4,a4,a0
10004a3c:	40ec0733          	sub	a4,s8,a4
10004a40:	00ec3533          	sltu	a0,s8,a4
10004a44:	40ae8533          	sub	a0,t4,a0
10004a48:	02c738b3          	mulhu	a7,a4,a2
10004a4c:	02c50533          	mul	a0,a0,a2
10004a50:	02c70733          	mul	a4,a4,a2
10004a54:	01150633          	add	a2,a0,a7
10004a58:	01f61613          	slli	a2,a2,0x1f
10004a5c:	00175713          	srli	a4,a4,0x1
10004a60:	00e60733          	add	a4,a2,a4
10004a64:	00271613          	slli	a2,a4,0x2
10004a68:	00e60733          	add	a4,a2,a4
10004a6c:	00171713          	slli	a4,a4,0x1
10004a70:	40ec0733          	sub	a4,s8,a4
10004a74:	03070713          	addi	a4,a4,48
10004a78:	fee68fa3          	sb	a4,-1(a3)
10004a7c:	ac9fe06f          	j	10003544 <_vfprintf_r+0x1058>
10004a80:	001a8593          	addi	a1,s5,1
10004a84:	00090513          	mv	a0,s2
10004a88:	01112823          	sw	a7,16(sp)
10004a8c:	9dcfd0ef          	jal	10001c68 <_malloc_r>
10004a90:	01012883          	lw	a7,16(sp)
10004a94:	00050793          	mv	a5,a0
10004a98:	28050ce3          	beqz	a0,10005530 <_vfprintf_r+0x3044>
10004a9c:	0cc12703          	lw	a4,204(sp)
10004aa0:	00a12823          	sw	a0,16(sp)
10004aa4:	0c012683          	lw	a3,192(sp)
10004aa8:	0c412603          	lw	a2,196(sp)
10004aac:	0c812583          	lw	a1,200(sp)
10004ab0:	70074463          	bltz	a4,100051b8 <_vfprintf_r+0x2ccc>
10004ab4:	02012c23          	sw	zero,56(sp)
10004ab8:	ee9fd06f          	j	100029a0 <_vfprintf_r+0x4b4>
10004abc:	07800793          	li	a5,120
10004ac0:	eadfd06f          	j	1000296c <_vfprintf_r+0x480>
10004ac4:	6a0ccc63          	bltz	s9,1000517c <_vfprintf_r+0x2c90>
10004ac8:	02012c23          	sw	zero,56(sp)
10004acc:	00600a93          	li	s5,6
10004ad0:	04600793          	li	a5,70
10004ad4:	46fc1a63          	bne	s8,a5,10004f48 <_vfprintf_r+0x2a5c>
10004ad8:	09c10793          	addi	a5,sp,156
10004adc:	09810713          	addi	a4,sp,152
10004ae0:	000a8693          	mv	a3,s5
10004ae4:	08010593          	addi	a1,sp,128
10004ae8:	0a010813          	addi	a6,sp,160
10004aec:	00300613          	li	a2,3
10004af0:	00090513          	mv	a0,s2
10004af4:	03112e23          	sw	a7,60(sp)
10004af8:	09d12023          	sw	t4,128(sp)
10004afc:	03d12023          	sw	t4,32(sp)
10004b00:	09e12223          	sw	t5,132(sp)
10004b04:	01e12e23          	sw	t5,28(sp)
10004b08:	08512423          	sw	t0,136(sp)
10004b0c:	00512c23          	sw	t0,24(sp)
10004b10:	09912623          	sw	s9,140(sp)
10004b14:	379010ef          	jal	1000668c <_ldtoa_r>
10004b18:	00054683          	lbu	a3,0(a0)
10004b1c:	03000713          	li	a4,48
10004b20:	01812283          	lw	t0,24(sp)
10004b24:	01c12f03          	lw	t5,28(sp)
10004b28:	02012e83          	lw	t4,32(sp)
10004b2c:	03c12883          	lw	a7,60(sp)
10004b30:	00050793          	mv	a5,a0
10004b34:	015504b3          	add	s1,a0,s5
10004b38:	7ce68c63          	beq	a3,a4,10005310 <_vfprintf_r+0x2e24>
10004b3c:	09812d83          	lw	s11,152(sp)
10004b40:	08010513          	addi	a0,sp,128
10004b44:	07010593          	addi	a1,sp,112
10004b48:	00f12e23          	sw	a5,28(sp)
10004b4c:	09912623          	sw	s9,140(sp)
10004b50:	01112c23          	sw	a7,24(sp)
10004b54:	09d12023          	sw	t4,128(sp)
10004b58:	09e12223          	sw	t5,132(sp)
10004b5c:	08512423          	sw	t0,136(sp)
10004b60:	06012823          	sw	zero,112(sp)
10004b64:	06012a23          	sw	zero,116(sp)
10004b68:	06012c23          	sw	zero,120(sp)
10004b6c:	06012e23          	sw	zero,124(sp)
10004b70:	390090ef          	jal	1000df00 <__eqtf2>
10004b74:	01c12783          	lw	a5,28(sp)
10004b78:	01b48cb3          	add	s9,s1,s11
10004b7c:	000d8313          	mv	t1,s11
10004b80:	76051c63          	bnez	a0,100052f8 <_vfprintf_r+0x2e0c>
10004b84:	40fc8733          	sub	a4,s9,a5
10004b88:	00e12c23          	sw	a4,24(sp)
10004b8c:	001bf713          	andi	a4,s7,1
10004b90:	01576733          	or	a4,a4,s5
10004b94:	04605ce3          	blez	t1,100053ec <_vfprintf_r+0x2f00>
10004b98:	7c071263          	bnez	a4,1000535c <_vfprintf_r+0x2e70>
10004b9c:	00030c93          	mv	s9,t1
10004ba0:	06600893          	li	a7,102
10004ba4:	400bfe13          	andi	t3,s7,1024
10004ba8:	6a0e1863          	bnez	t3,10005258 <_vfprintf_r+0x2d6c>
10004bac:	fffcc693          	not	a3,s9
10004bb0:	41f6d693          	srai	a3,a3,0x1f
10004bb4:	00dcfc33          	and	s8,s9,a3
10004bb8:	03812703          	lw	a4,56(sp)
10004bbc:	4c070a63          	beqz	a4,10005090 <_vfprintf_r+0x2ba4>
10004bc0:	02d00713          	li	a4,45
10004bc4:	08e109a3          	sb	a4,147(sp)
10004bc8:	001c0c13          	addi	s8,s8,1
10004bcc:	01012b83          	lw	s7,16(sp)
10004bd0:	00000a93          	li	s5,0
10004bd4:	00012823          	sw	zero,16(sp)
10004bd8:	02012023          	sw	zero,32(sp)
10004bdc:	00012e23          	sw	zero,28(sp)
10004be0:	b45fd06f          	j	10002724 <_vfprintf_r+0x238>
10004be4:	000b8d93          	mv	s11,s7
10004be8:	03a12823          	sw	s10,48(sp)
10004bec:	03812783          	lw	a5,56(sp)
10004bf0:	03c12b83          	lw	s7,60(sp)
10004bf4:	04012c03          	lw	s8,64(sp)
10004bf8:	04812d03          	lw	s10,72(sp)
10004bfc:	00068b13          	mv	s6,a3
10004c00:	01b76463          	bltu	a4,s11,10004c08 <_vfprintf_r+0x271c>
10004c04:	ee5fe06f          	j	10003ae8 <_vfprintf_r+0x15fc>
10004c08:	00070d93          	mv	s11,a4
10004c0c:	eddfe06f          	j	10003ae8 <_vfprintf_r+0x15fc>
10004c10:	02012c23          	sw	zero,56(sp)
10004c14:	000cda63          	bgez	s9,10004c28 <_vfprintf_r+0x273c>
10004c18:	800007b7          	lui	a5,0x80000
10004c1c:	00fcccb3          	xor	s9,s9,a5
10004c20:	02d00793          	li	a5,45
10004c24:	02f12c23          	sw	a5,56(sp)
10004c28:	08010d93          	addi	s11,sp,128
10004c2c:	09c10793          	addi	a5,sp,156
10004c30:	000d8593          	mv	a1,s11
10004c34:	0a010813          	addi	a6,sp,160
10004c38:	09810713          	addi	a4,sp,152
10004c3c:	00100693          	li	a3,1
10004c40:	00200613          	li	a2,2
10004c44:	00090513          	mv	a0,s2
10004c48:	05112023          	sw	a7,64(sp)
10004c4c:	09d12023          	sw	t4,128(sp)
10004c50:	03d12e23          	sw	t4,60(sp)
10004c54:	09e12223          	sw	t5,132(sp)
10004c58:	03e12023          	sw	t5,32(sp)
10004c5c:	08512423          	sw	t0,136(sp)
10004c60:	00512e23          	sw	t0,28(sp)
10004c64:	09912623          	sw	s9,140(sp)
10004c68:	225010ef          	jal	1000668c <_ldtoa_r>
10004c6c:	01c12283          	lw	t0,28(sp)
10004c70:	02012f03          	lw	t5,32(sp)
10004c74:	03c12e83          	lw	t4,60(sp)
10004c78:	04012883          	lw	a7,64(sp)
10004c7c:	00100a93          	li	s5,1
10004c80:	00050793          	mv	a5,a0
10004c84:	01512c23          	sw	s5,24(sp)
10004c88:	001bf713          	andi	a4,s7,1
10004c8c:	18070e63          	beqz	a4,10004e28 <_vfprintf_r+0x293c>
10004c90:	000d8513          	mv	a0,s11
10004c94:	07010593          	addi	a1,sp,112
10004c98:	02f12023          	sw	a5,32(sp)
10004c9c:	01112e23          	sw	a7,28(sp)
10004ca0:	09d12023          	sw	t4,128(sp)
10004ca4:	09e12223          	sw	t5,132(sp)
10004ca8:	08512423          	sw	t0,136(sp)
10004cac:	09912623          	sw	s9,140(sp)
10004cb0:	06012823          	sw	zero,112(sp)
10004cb4:	06012a23          	sw	zero,116(sp)
10004cb8:	06012c23          	sw	zero,120(sp)
10004cbc:	06012e23          	sw	zero,124(sp)
10004cc0:	240090ef          	jal	1000df00 <__eqtf2>
10004cc4:	01c12883          	lw	a7,28(sp)
10004cc8:	02012783          	lw	a5,32(sp)
10004ccc:	7a050463          	beqz	a0,10005474 <_vfprintf_r+0x2f88>
10004cd0:	01812683          	lw	a3,24(sp)
10004cd4:	0a012703          	lw	a4,160(sp)
10004cd8:	00d78cb3          	add	s9,a5,a3
10004cdc:	03977ae3          	bgeu	a4,s9,10005510 <_vfprintf_r+0x3024>
10004ce0:	03000613          	li	a2,48
10004ce4:	00170693          	addi	a3,a4,1
10004ce8:	0ad12023          	sw	a3,160(sp)
10004cec:	00c70023          	sb	a2,0(a4)
10004cf0:	0a012703          	lw	a4,160(sp)
10004cf4:	ff9768e3          	bltu	a4,s9,10004ce4 <_vfprintf_r+0x27f8>
10004cf8:	40f70733          	sub	a4,a4,a5
10004cfc:	04700693          	li	a3,71
10004d00:	00e12c23          	sw	a4,24(sp)
10004d04:	09812303          	lw	t1,152(sp)
10004d08:	12dc0863          	beq	s8,a3,10004e38 <_vfprintf_r+0x294c>
10004d0c:	04600713          	li	a4,70
10004d10:	e6ec0ee3          	beq	s8,a4,10004b8c <_vfprintf_r+0x26a0>
10004d14:	fff30713          	addi	a4,t1,-1
10004d18:	0b110223          	sb	a7,164(sp)
10004d1c:	08e12c23          	sw	a4,152(sp)
10004d20:	68074e63          	bltz	a4,100053bc <_vfprintf_r+0x2ed0>
10004d24:	02b00693          	li	a3,43
10004d28:	0ad102a3          	sb	a3,165(sp)
10004d2c:	00900693          	li	a3,9
10004d30:	6ae6d263          	bge	a3,a4,100053d4 <_vfprintf_r+0x2ee8>
10004d34:	01712e23          	sw	s7,28(sp)
10004d38:	00012823          	sw	zero,16(sp)
10004d3c:	0b310e93          	addi	t4,sp,179
10004d40:	ccccde37          	lui	t3,0xccccd
10004d44:	000e8513          	mv	a0,t4
10004d48:	ccde0e13          	addi	t3,t3,-819 # cccccccd <_sp+0xbccb8fad>
10004d4c:	06300f13          	li	t5,99
10004d50:	03c736b3          	mulhu	a3,a4,t3
10004d54:	00070813          	mv	a6,a4
10004d58:	00050593          	mv	a1,a0
10004d5c:	fff50513          	addi	a0,a0,-1
10004d60:	0036d693          	srli	a3,a3,0x3
10004d64:	00269613          	slli	a2,a3,0x2
10004d68:	00d60633          	add	a2,a2,a3
10004d6c:	00161613          	slli	a2,a2,0x1
10004d70:	40c70733          	sub	a4,a4,a2
10004d74:	03070713          	addi	a4,a4,48
10004d78:	fee58fa3          	sb	a4,-1(a1)
10004d7c:	00068713          	mv	a4,a3
10004d80:	fd0f48e3          	blt	t5,a6,10004d50 <_vfprintf_r+0x2864>
10004d84:	03068713          	addi	a4,a3,48
10004d88:	fee50fa3          	sb	a4,-1(a0)
10004d8c:	ffe58713          	addi	a4,a1,-2
10004d90:	73d77a63          	bgeu	a4,t4,100054c4 <_vfprintf_r+0x2fd8>
10004d94:	0a610513          	addi	a0,sp,166
10004d98:	00050693          	mv	a3,a0
10004d9c:	00074603          	lbu	a2,0(a4)
10004da0:	00170713          	addi	a4,a4,1
10004da4:	00168693          	addi	a3,a3,1
10004da8:	fec68fa3          	sb	a2,-1(a3)
10004dac:	ffd718e3          	bne	a4,t4,10004d9c <_vfprintf_r+0x28b0>
10004db0:	00a70733          	add	a4,a4,a0
10004db4:	00270713          	addi	a4,a4,2
10004db8:	40b70733          	sub	a4,a4,a1
10004dbc:	0a410693          	addi	a3,sp,164
10004dc0:	40d70733          	sub	a4,a4,a3
10004dc4:	02e12623          	sw	a4,44(sp)
10004dc8:	01812683          	lw	a3,24(sp)
10004dcc:	02c12603          	lw	a2,44(sp)
10004dd0:	00100713          	li	a4,1
10004dd4:	00c68cb3          	add	s9,a3,a2
10004dd8:	3cd75463          	bge	a4,a3,100051a0 <_vfprintf_r+0x2cb4>
10004ddc:	02412703          	lw	a4,36(sp)
10004de0:	00ec8cb3          	add	s9,s9,a4
10004de4:	01c12703          	lw	a4,28(sp)
10004de8:	fffcc693          	not	a3,s9
10004dec:	41f6d693          	srai	a3,a3,0x1f
10004df0:	bff77e13          	andi	t3,a4,-1025
10004df4:	00277313          	andi	t1,a4,2
10004df8:	03812703          	lw	a4,56(sp)
10004dfc:	00dcfc33          	and	s8,s9,a3
10004e00:	100e6b93          	ori	s7,t3,256
10004e04:	34070e63          	beqz	a4,10005160 <_vfprintf_r+0x2c74>
10004e08:	02d00e93          	li	t4,45
10004e0c:	09d109a3          	sb	t4,147(sp)
10004e10:	00000a93          	li	s5,0
10004e14:	001c0c13          	addi	s8,s8,1
10004e18:	bdcfe06f          	j	100031f4 <_vfprintf_r+0xd08>
10004e1c:	01812683          	lw	a3,24(sp)
10004e20:	00a6c583          	lbu	a1,10(a3)
10004e24:	e79fd06f          	j	10002c9c <_vfprintf_r+0x7b0>
10004e28:	0a012703          	lw	a4,160(sp)
10004e2c:	09812303          	lw	t1,152(sp)
10004e30:	40f70733          	sub	a4,a4,a5
10004e34:	00e12c23          	sw	a4,24(sp)
10004e38:	ffd32713          	slti	a4,t1,-3
10004e3c:	00071463          	bnez	a4,10004e44 <_vfprintf_r+0x2958>
10004e40:	006ad663          	bge	s5,t1,10004e4c <_vfprintf_r+0x2960>
10004e44:	ffe88893          	addi	a7,a7,-2
10004e48:	ecdff06f          	j	10004d14 <_vfprintf_r+0x2828>
10004e4c:	01812703          	lw	a4,24(sp)
10004e50:	2ee34263          	blt	t1,a4,10005134 <_vfprintf_r+0x2c48>
10004e54:	001bf713          	andi	a4,s7,1
10004e58:	00030c93          	mv	s9,t1
10004e5c:	00070663          	beqz	a4,10004e68 <_vfprintf_r+0x297c>
10004e60:	02412703          	lw	a4,36(sp)
10004e64:	00e30cb3          	add	s9,t1,a4
10004e68:	400bfe13          	andi	t3,s7,1024
10004e6c:	000e0463          	beqz	t3,10004e74 <_vfprintf_r+0x2988>
10004e70:	3e604263          	bgtz	t1,10005254 <_vfprintf_r+0x2d68>
10004e74:	fffcc693          	not	a3,s9
10004e78:	41f6d693          	srai	a3,a3,0x1f
10004e7c:	00dcfc33          	and	s8,s9,a3
10004e80:	06700893          	li	a7,103
10004e84:	d35ff06f          	j	10004bb8 <_vfprintf_r+0x26cc>
10004e88:	00412583          	lw	a1,4(sp)
10004e8c:	0b410613          	addi	a2,sp,180
10004e90:	00090513          	mv	a0,s2
10004e94:	00f12e23          	sw	a5,28(sp)
10004e98:	7a0000ef          	jal	10005638 <__sprint_r>
10004e9c:	00050463          	beqz	a0,10004ea4 <_vfprintf_r+0x29b8>
10004ea0:	a09fe06f          	j	100038a8 <_vfprintf_r+0x13bc>
10004ea4:	09812503          	lw	a0,152(sp)
10004ea8:	0bc12603          	lw	a2,188(sp)
10004eac:	01c12783          	lw	a5,28(sp)
10004eb0:	00098b13          	mv	s6,s3
10004eb4:	b98ff06f          	j	1000424c <_vfprintf_r+0x1d60>
10004eb8:	008b0b13          	addi	s6,s6,8
10004ebc:	bd4ff06f          	j	10004290 <_vfprintf_r+0x1da4>
10004ec0:	00412583          	lw	a1,4(sp)
10004ec4:	0b410613          	addi	a2,sp,180
10004ec8:	00090513          	mv	a0,s2
10004ecc:	00e12e23          	sw	a4,28(sp)
10004ed0:	768000ef          	jal	10005638 <__sprint_r>
10004ed4:	00050463          	beqz	a0,10004edc <_vfprintf_r+0x29f0>
10004ed8:	9d1fe06f          	j	100038a8 <_vfprintf_r+0x13bc>
10004edc:	100117b7          	lui	a5,0x10011
10004ee0:	000d4583          	lbu	a1,0(s10)
10004ee4:	0bc12603          	lw	a2,188(sp)
10004ee8:	01c12703          	lw	a4,28(sp)
10004eec:	00098693          	mv	a3,s3
10004ef0:	dac78893          	addi	a7,a5,-596 # 10010dac <zeroes.0>
10004ef4:	00700813          	li	a6,7
10004ef8:	f88ff06f          	j	10004680 <_vfprintf_r+0x2194>
10004efc:	00412583          	lw	a1,4(sp)
10004f00:	0b410613          	addi	a2,sp,180
10004f04:	00090513          	mv	a0,s2
10004f08:	00f12e23          	sw	a5,28(sp)
10004f0c:	72c000ef          	jal	10005638 <__sprint_r>
10004f10:	00050463          	beqz	a0,10004f18 <_vfprintf_r+0x2a2c>
10004f14:	995fe06f          	j	100038a8 <_vfprintf_r+0x13bc>
10004f18:	09812a83          	lw	s5,152(sp)
10004f1c:	0bc12603          	lw	a2,188(sp)
10004f20:	01c12783          	lw	a5,28(sp)
10004f24:	00098b13          	mv	s6,s3
10004f28:	c0dfe06f          	j	10003b34 <_vfprintf_r+0x1648>
10004f2c:	02d00793          	li	a5,45
10004f30:	08f109a3          	sb	a5,147(sp)
10004f34:	04700793          	li	a5,71
10004f38:	2517de63          	bge	a5,a7,10005194 <_vfprintf_r+0x2ca8>
10004f3c:	100117b7          	lui	a5,0x10011
10004f40:	af478793          	addi	a5,a5,-1292 # 10010af4 <__clzsi2+0x180>
10004f44:	decff06f          	j	10004530 <_vfprintf_r+0x2044>
10004f48:	fbbc0793          	addi	a5,s8,-69
10004f4c:	0017b793          	seqz	a5,a5
10004f50:	015787b3          	add	a5,a5,s5
10004f54:	08010d93          	addi	s11,sp,128
10004f58:	00f12c23          	sw	a5,24(sp)
10004f5c:	00078693          	mv	a3,a5
10004f60:	09810713          	addi	a4,sp,152
10004f64:	09c10793          	addi	a5,sp,156
10004f68:	000d8593          	mv	a1,s11
10004f6c:	0a010813          	addi	a6,sp,160
10004f70:	00200613          	li	a2,2
10004f74:	00090513          	mv	a0,s2
10004f78:	05112023          	sw	a7,64(sp)
10004f7c:	09d12023          	sw	t4,128(sp)
10004f80:	03d12e23          	sw	t4,60(sp)
10004f84:	09e12223          	sw	t5,132(sp)
10004f88:	03e12023          	sw	t5,32(sp)
10004f8c:	08512423          	sw	t0,136(sp)
10004f90:	00512e23          	sw	t0,28(sp)
10004f94:	09912623          	sw	s9,140(sp)
10004f98:	6f4010ef          	jal	1000668c <_ldtoa_r>
10004f9c:	04700713          	li	a4,71
10004fa0:	01c12283          	lw	t0,28(sp)
10004fa4:	02012f03          	lw	t5,32(sp)
10004fa8:	03c12e83          	lw	t4,60(sp)
10004fac:	04012883          	lw	a7,64(sp)
10004fb0:	00050793          	mv	a5,a0
10004fb4:	ccec0ae3          	beq	s8,a4,10004c88 <_vfprintf_r+0x279c>
10004fb8:	02a12023          	sw	a0,32(sp)
10004fbc:	07010593          	addi	a1,sp,112
10004fc0:	000d8513          	mv	a0,s11
10004fc4:	01112e23          	sw	a7,28(sp)
10004fc8:	09d12023          	sw	t4,128(sp)
10004fcc:	09e12223          	sw	t5,132(sp)
10004fd0:	08512423          	sw	t0,136(sp)
10004fd4:	09912623          	sw	s9,140(sp)
10004fd8:	06012823          	sw	zero,112(sp)
10004fdc:	06012a23          	sw	zero,116(sp)
10004fe0:	06012c23          	sw	zero,120(sp)
10004fe4:	06012e23          	sw	zero,124(sp)
10004fe8:	719080ef          	jal	1000df00 <__eqtf2>
10004fec:	01c12883          	lw	a7,28(sp)
10004ff0:	02012783          	lw	a5,32(sp)
10004ff4:	56050263          	beqz	a0,10005558 <_vfprintf_r+0x306c>
10004ff8:	01812683          	lw	a3,24(sp)
10004ffc:	0a012703          	lw	a4,160(sp)
10005000:	00d78cb3          	add	s9,a5,a3
10005004:	cd976ee3          	bltu	a4,s9,10004ce0 <_vfprintf_r+0x27f4>
10005008:	40f70733          	sub	a4,a4,a5
1000500c:	09812303          	lw	t1,152(sp)
10005010:	00e12c23          	sw	a4,24(sp)
10005014:	d01ff06f          	j	10004d14 <_vfprintf_r+0x2828>
10005018:	fff00793          	li	a5,-1
1000501c:	00f12423          	sw	a5,8(sp)
10005020:	8d1fe06f          	j	100038f0 <_vfprintf_r+0x1404>
10005024:	00900713          	li	a4,9
10005028:	00677463          	bgeu	a4,t1,10005030 <_vfprintf_r+0x2b44>
1000502c:	d94fe06f          	j	100035c0 <_vfprintf_r+0x10d4>
10005030:	af4ff06f          	j	10004324 <_vfprintf_r+0x1e38>
10005034:	00912623          	sw	s1,12(sp)
10005038:	1e070663          	beqz	a4,10005224 <_vfprintf_r+0x2d38>
1000503c:	001a8c13          	addi	s8,s5,1
10005040:	000a8c93          	mv	s9,s5
10005044:	02012023          	sw	zero,32(sp)
10005048:	00000a93          	li	s5,0
1000504c:	00012e23          	sw	zero,28(sp)
10005050:	00000313          	li	t1,0
10005054:	ed0fd06f          	j	10002724 <_vfprintf_r+0x238>
10005058:	dbc80813          	addi	a6,a6,-580
1000505c:	c0dfe06f          	j	10003c68 <_vfprintf_r+0x177c>
10005060:	00412583          	lw	a1,4(sp)
10005064:	0b410613          	addi	a2,sp,180
10005068:	00090513          	mv	a0,s2
1000506c:	5cc000ef          	jal	10005638 <__sprint_r>
10005070:	00050463          	beqz	a0,10005078 <_vfprintf_r+0x2b8c>
10005074:	835fe06f          	j	100038a8 <_vfprintf_r+0x13bc>
10005078:	09812a83          	lw	s5,152(sp)
1000507c:	01812783          	lw	a5,24(sp)
10005080:	0bc12603          	lw	a2,188(sp)
10005084:	00098b13          	mv	s6,s3
10005088:	41578ab3          	sub	s5,a5,s5
1000508c:	af1fe06f          	j	10003b7c <_vfprintf_r+0x1690>
10005090:	09314703          	lbu	a4,147(sp)
10005094:	b2070ce3          	beqz	a4,10004bcc <_vfprintf_r+0x26e0>
10005098:	001c0c13          	addi	s8,s8,1
1000509c:	b31ff06f          	j	10004bcc <_vfprintf_r+0x26e0>
100050a0:	000b8693          	mv	a3,s7
100050a4:	d39fe06f          	j	10003ddc <_vfprintf_r+0x18f0>
100050a8:	dbc80813          	addi	a6,a6,-580
100050ac:	939fe06f          	j	100039e4 <_vfprintf_r+0x14f8>
100050b0:	000b8e13          	mv	t3,s7
100050b4:	e38fe06f          	j	100036ec <_vfprintf_r+0x1200>
100050b8:	000b8e13          	mv	t3,s7
100050bc:	d99fe06f          	j	10003e54 <_vfprintf_r+0x1968>
100050c0:	ff000593          	li	a1,-16
100050c4:	40a00ab3          	neg	s5,a0
100050c8:	10011837          	lui	a6,0x10011
100050cc:	46b55c63          	bge	a0,a1,10005544 <_vfprintf_r+0x3058>
100050d0:	01000c93          	li	s9,16
100050d4:	00700d93          	li	s11,7
100050d8:	00f12e23          	sw	a5,28(sp)
100050dc:	dac80493          	addi	s1,a6,-596 # 10010dac <zeroes.0>
100050e0:	00c0006f          	j	100050ec <_vfprintf_r+0x2c00>
100050e4:	ff0a8a93          	addi	s5,s5,-16
100050e8:	0f5cd263          	bge	s9,s5,100051cc <_vfprintf_r+0x2ce0>
100050ec:	01060613          	addi	a2,a2,16
100050f0:	00170713          	addi	a4,a4,1
100050f4:	009b2023          	sw	s1,0(s6)
100050f8:	019b2223          	sw	s9,4(s6)
100050fc:	0ac12e23          	sw	a2,188(sp)
10005100:	0ae12c23          	sw	a4,184(sp)
10005104:	008b0b13          	addi	s6,s6,8
10005108:	fceddee3          	bge	s11,a4,100050e4 <_vfprintf_r+0x2bf8>
1000510c:	00412583          	lw	a1,4(sp)
10005110:	0b410613          	addi	a2,sp,180
10005114:	00090513          	mv	a0,s2
10005118:	520000ef          	jal	10005638 <__sprint_r>
1000511c:	00050463          	beqz	a0,10005124 <_vfprintf_r+0x2c38>
10005120:	f88fe06f          	j	100038a8 <_vfprintf_r+0x13bc>
10005124:	0bc12603          	lw	a2,188(sp)
10005128:	0b812703          	lw	a4,184(sp)
1000512c:	00098b13          	mv	s6,s3
10005130:	fb5ff06f          	j	100050e4 <_vfprintf_r+0x2bf8>
10005134:	01812703          	lw	a4,24(sp)
10005138:	02412683          	lw	a3,36(sp)
1000513c:	06700893          	li	a7,103
10005140:	00d70cb3          	add	s9,a4,a3
10005144:	a66040e3          	bgtz	t1,10004ba4 <_vfprintf_r+0x26b8>
10005148:	406c8f33          	sub	t5,s9,t1
1000514c:	001f0c93          	addi	s9,t5,1
10005150:	fffcc693          	not	a3,s9
10005154:	41f6d693          	srai	a3,a3,0x1f
10005158:	00dcfc33          	and	s8,s9,a3
1000515c:	a5dff06f          	j	10004bb8 <_vfprintf_r+0x26cc>
10005160:	09314e83          	lbu	t4,147(sp)
10005164:	00000a93          	li	s5,0
10005168:	000e8463          	beqz	t4,10005170 <_vfprintf_r+0x2c84>
1000516c:	970fe06f          	j	100032dc <_vfprintf_r+0xdf0>
10005170:	884fe06f          	j	100031f4 <_vfprintf_r+0xd08>
10005174:	dac80813          	addi	a6,a6,-596
10005178:	eb8fe06f          	j	10003830 <_vfprintf_r+0x1344>
1000517c:	00600a93          	li	s5,6
10005180:	800007b7          	lui	a5,0x80000
10005184:	00fcccb3          	xor	s9,s9,a5
10005188:	02d00793          	li	a5,45
1000518c:	02f12c23          	sw	a5,56(sp)
10005190:	941ff06f          	j	10004ad0 <_vfprintf_r+0x25e4>
10005194:	100117b7          	lui	a5,0x10011
10005198:	af078793          	addi	a5,a5,-1296 # 10010af0 <__clzsi2+0x17c>
1000519c:	b94ff06f          	j	10004530 <_vfprintf_r+0x2044>
100051a0:	01c12703          	lw	a4,28(sp)
100051a4:	00177713          	andi	a4,a4,1
100051a8:	c2070ee3          	beqz	a4,10004de4 <_vfprintf_r+0x28f8>
100051ac:	c31ff06f          	j	10004ddc <_vfprintf_r+0x28f0>
100051b0:	00012823          	sw	zero,16(sp)
100051b4:	11c10793          	addi	a5,sp,284
100051b8:	80000537          	lui	a0,0x80000
100051bc:	00a74733          	xor	a4,a4,a0
100051c0:	02d00513          	li	a0,45
100051c4:	02a12c23          	sw	a0,56(sp)
100051c8:	fd8fd06f          	j	100029a0 <_vfprintf_r+0x4b4>
100051cc:	01c12783          	lw	a5,28(sp)
100051d0:	00048813          	mv	a6,s1
100051d4:	01560633          	add	a2,a2,s5
100051d8:	00170713          	addi	a4,a4,1
100051dc:	0ac12e23          	sw	a2,188(sp)
100051e0:	0ae12c23          	sw	a4,184(sp)
100051e4:	010b2023          	sw	a6,0(s6)
100051e8:	015b2223          	sw	s5,4(s6)
100051ec:	00700593          	li	a1,7
100051f0:	cce5d4e3          	bge	a1,a4,10004eb8 <_vfprintf_r+0x29cc>
100051f4:	00412583          	lw	a1,4(sp)
100051f8:	0b410613          	addi	a2,sp,180
100051fc:	00090513          	mv	a0,s2
10005200:	00f12e23          	sw	a5,28(sp)
10005204:	434000ef          	jal	10005638 <__sprint_r>
10005208:	00050463          	beqz	a0,10005210 <_vfprintf_r+0x2d24>
1000520c:	e9cfe06f          	j	100038a8 <_vfprintf_r+0x13bc>
10005210:	0bc12603          	lw	a2,188(sp)
10005214:	0b812703          	lw	a4,184(sp)
10005218:	01c12783          	lw	a5,28(sp)
1000521c:	00098b13          	mv	s6,s3
10005220:	870ff06f          	j	10004290 <_vfprintf_r+0x1da4>
10005224:	000a8c93          	mv	s9,s5
10005228:	000a8c13          	mv	s8,s5
1000522c:	02012023          	sw	zero,32(sp)
10005230:	00000a93          	li	s5,0
10005234:	00012e23          	sw	zero,28(sp)
10005238:	00000313          	li	t1,0
1000523c:	ce8fd06f          	j	10002724 <_vfprintf_r+0x238>
10005240:	100117b7          	lui	a5,0x10011
10005244:	af878793          	addi	a5,a5,-1288 # 10010af8 <__clzsi2+0x184>
10005248:	ef4ff06f          	j	1000493c <_vfprintf_r+0x2450>
1000524c:	00412483          	lw	s1,4(sp)
10005250:	e6cfe06f          	j	100038bc <_vfprintf_r+0x13d0>
10005254:	06700893          	li	a7,103
10005258:	03012703          	lw	a4,48(sp)
1000525c:	00074703          	lbu	a4,0(a4)
10005260:	f0170693          	addi	a3,a4,-255
10005264:	2a068e63          	beqz	a3,10005520 <_vfprintf_r+0x3034>
10005268:	2a675c63          	bge	a4,t1,10005520 <_vfprintf_r+0x3034>
1000526c:	03012683          	lw	a3,48(sp)
10005270:	00000513          	li	a0,0
10005274:	00000593          	li	a1,0
10005278:	0180006f          	j	10005290 <_vfprintf_r+0x2da4>
1000527c:	00158593          	addi	a1,a1,1
10005280:	00168693          	addi	a3,a3,1
10005284:	f0170613          	addi	a2,a4,-255
10005288:	0e060463          	beqz	a2,10005370 <_vfprintf_r+0x2e84>
1000528c:	0e675263          	bge	a4,t1,10005370 <_vfprintf_r+0x2e84>
10005290:	40e30333          	sub	t1,t1,a4
10005294:	0016c703          	lbu	a4,1(a3)
10005298:	fe0712e3          	bnez	a4,1000527c <_vfprintf_r+0x2d90>
1000529c:	0006c703          	lbu	a4,0(a3)
100052a0:	00150513          	addi	a0,a0,1 # 80000001 <_sp+0x6ffec2e1>
100052a4:	fe1ff06f          	j	10005284 <_vfprintf_r+0x2d98>
100052a8:	100117b7          	lui	a5,0x10011
100052ac:	af878793          	addi	a5,a5,-1288 # 10010af8 <__clzsi2+0x184>
100052b0:	a80ff06f          	j	10004530 <_vfprintf_r+0x2044>
100052b4:	fffa8c93          	addi	s9,s5,-1
100052b8:	02012b03          	lw	s6,32(sp)
100052bc:	02c12883          	lw	a7,44(sp)
100052c0:	03c12783          	lw	a5,60(sp)
100052c4:	04012d03          	lw	s10,64(sp)
100052c8:	04812903          	lw	s2,72(sp)
100052cc:	015c0ab3          	add	s5,s8,s5
100052d0:	000c0713          	mv	a4,s8
100052d4:	03000613          	li	a2,48
100052d8:	000cd463          	bgez	s9,100052e0 <_vfprintf_r+0x2df4>
100052dc:	9c5fd06f          	j	10002ca0 <_vfprintf_r+0x7b4>
100052e0:	00170713          	addi	a4,a4,1
100052e4:	fec70fa3          	sb	a2,-1(a4)
100052e8:	feea9ce3          	bne	s5,a4,100052e0 <_vfprintf_r+0x2df4>
100052ec:	019c0733          	add	a4,s8,s9
100052f0:	00170c13          	addi	s8,a4,1
100052f4:	9adfd06f          	j	10002ca0 <_vfprintf_r+0x7b4>
100052f8:	0a012703          	lw	a4,160(sp)
100052fc:	01812883          	lw	a7,24(sp)
10005300:	9f9760e3          	bltu	a4,s9,10004ce0 <_vfprintf_r+0x27f4>
10005304:	40f70733          	sub	a4,a4,a5
10005308:	00e12c23          	sw	a4,24(sp)
1000530c:	a01ff06f          	j	10004d0c <_vfprintf_r+0x2820>
10005310:	08010513          	addi	a0,sp,128
10005314:	07010593          	addi	a1,sp,112
10005318:	00f12e23          	sw	a5,28(sp)
1000531c:	01112c23          	sw	a7,24(sp)
10005320:	09d12023          	sw	t4,128(sp)
10005324:	09e12223          	sw	t5,132(sp)
10005328:	08512423          	sw	t0,136(sp)
1000532c:	09912623          	sw	s9,140(sp)
10005330:	06012823          	sw	zero,112(sp)
10005334:	06012a23          	sw	zero,116(sp)
10005338:	06012c23          	sw	zero,120(sp)
1000533c:	06012e23          	sw	zero,124(sp)
10005340:	3c1080ef          	jal	1000df00 <__eqtf2>
10005344:	01812883          	lw	a7,24(sp)
10005348:	01c12783          	lw	a5,28(sp)
1000534c:	0a051a63          	bnez	a0,10005400 <_vfprintf_r+0x2f14>
10005350:	09812303          	lw	t1,152(sp)
10005354:	00648cb3          	add	s9,s1,t1
10005358:	82dff06f          	j	10004b84 <_vfprintf_r+0x2698>
1000535c:	02412703          	lw	a4,36(sp)
10005360:	006a8f33          	add	t5,s5,t1
10005364:	06600893          	li	a7,102
10005368:	00ef0cb3          	add	s9,t5,a4
1000536c:	839ff06f          	j	10004ba4 <_vfprintf_r+0x26b8>
10005370:	02d12823          	sw	a3,48(sp)
10005374:	04412683          	lw	a3,68(sp)
10005378:	00b50733          	add	a4,a0,a1
1000537c:	00b12e23          	sw	a1,28(sp)
10005380:	02d70733          	mul	a4,a4,a3
10005384:	02a12023          	sw	a0,32(sp)
10005388:	00ec8cb3          	add	s9,s9,a4
1000538c:	03812703          	lw	a4,56(sp)
10005390:	fffcc693          	not	a3,s9
10005394:	41f6d693          	srai	a3,a3,0x1f
10005398:	00dcfc33          	and	s8,s9,a3
1000539c:	10070663          	beqz	a4,100054a8 <_vfprintf_r+0x2fbc>
100053a0:	02d00713          	li	a4,45
100053a4:	01012b83          	lw	s7,16(sp)
100053a8:	08e109a3          	sb	a4,147(sp)
100053ac:	001c0c13          	addi	s8,s8,1
100053b0:	00012823          	sw	zero,16(sp)
100053b4:	00000a93          	li	s5,0
100053b8:	b6cfd06f          	j	10002724 <_vfprintf_r+0x238>
100053bc:	02d00713          	li	a4,45
100053c0:	0ae102a3          	sb	a4,165(sp)
100053c4:	ff800693          	li	a3,-8
100053c8:	00100713          	li	a4,1
100053cc:	40670733          	sub	a4,a4,t1
100053d0:	96d342e3          	blt	t1,a3,10004d34 <_vfprintf_r+0x2848>
100053d4:	03000693          	li	a3,48
100053d8:	0ad10323          	sb	a3,166(sp)
100053dc:	01712e23          	sw	s7,28(sp)
100053e0:	00012823          	sw	zero,16(sp)
100053e4:	0a710693          	addi	a3,sp,167
100053e8:	8f5fd06f          	j	10002cdc <_vfprintf_r+0x7f0>
100053ec:	02071e63          	bnez	a4,10005428 <_vfprintf_r+0x2f3c>
100053f0:	00100c13          	li	s8,1
100053f4:	000c0c93          	mv	s9,s8
100053f8:	06600893          	li	a7,102
100053fc:	fbcff06f          	j	10004bb8 <_vfprintf_r+0x26cc>
10005400:	00100f93          	li	t6,1
10005404:	0a012703          	lw	a4,160(sp)
10005408:	415f8fb3          	sub	t6,t6,s5
1000540c:	09f12c23          	sw	t6,152(sp)
10005410:	00178c93          	addi	s9,a5,1
10005414:	8d9766e3          	bltu	a4,s9,10004ce0 <_vfprintf_r+0x27f4>
10005418:	40f70733          	sub	a4,a4,a5
1000541c:	000f8313          	mv	t1,t6
10005420:	00e12c23          	sw	a4,24(sp)
10005424:	f68ff06f          	j	10004b8c <_vfprintf_r+0x26a0>
10005428:	02412703          	lw	a4,36(sp)
1000542c:	06600893          	li	a7,102
10005430:	00170f13          	addi	t5,a4,1
10005434:	015f0cb3          	add	s9,t5,s5
10005438:	fffcc693          	not	a3,s9
1000543c:	41f6d693          	srai	a3,a3,0x1f
10005440:	00dcfc33          	and	s8,s9,a3
10005444:	f74ff06f          	j	10004bb8 <_vfprintf_r+0x26cc>
10005448:	00c12783          	lw	a5,12(sp)
1000544c:	0007aa83          	lw	s5,0(a5)
10005450:	00478793          	addi	a5,a5,4
10005454:	000ad463          	bgez	s5,1000545c <_vfprintf_r+0x2f70>
10005458:	fff00a93          	li	s5,-1
1000545c:	001d4883          	lbu	a7,1(s10)
10005460:	00f12623          	sw	a5,12(sp)
10005464:	00068d13          	mv	s10,a3
10005468:	a2cfd06f          	j	10002694 <_vfprintf_r+0x1a8>
1000546c:	dac80813          	addi	a6,a6,-596
10005470:	fe5fe06f          	j	10004454 <_vfprintf_r+0x1f68>
10005474:	09812303          	lw	t1,152(sp)
10005478:	9c1ff06f          	j	10004e38 <_vfprintf_r+0x294c>
1000547c:	100116b7          	lui	a3,0x10011
10005480:	b0068713          	addi	a4,a3,-1280 # 10010b00 <__clzsi2+0x18c>
10005484:	00e12c23          	sw	a4,24(sp)
10005488:	e00fd06f          	j	10002a88 <_vfprintf_r+0x59c>
1000548c:	02d00713          	li	a4,45
10005490:	0ae102a3          	sb	a4,165(sp)
10005494:	ff800693          	li	a3,-8
10005498:	00100713          	li	a4,1
1000549c:	40c70733          	sub	a4,a4,a2
100054a0:	88d64ee3          	blt	a2,a3,10004d3c <_vfprintf_r+0x2850>
100054a4:	835fd06f          	j	10002cd8 <_vfprintf_r+0x7ec>
100054a8:	09314703          	lbu	a4,147(sp)
100054ac:	02070663          	beqz	a4,100054d8 <_vfprintf_r+0x2fec>
100054b0:	01012b83          	lw	s7,16(sp)
100054b4:	001c0c13          	addi	s8,s8,1
100054b8:	00012823          	sw	zero,16(sp)
100054bc:	00000a93          	li	s5,0
100054c0:	a64fd06f          	j	10002724 <_vfprintf_r+0x238>
100054c4:	00200713          	li	a4,2
100054c8:	02e12623          	sw	a4,44(sp)
100054cc:	8fdff06f          	j	10004dc8 <_vfprintf_r+0x28dc>
100054d0:	dac80813          	addi	a6,a6,-596
100054d4:	adcff06f          	j	100047b0 <_vfprintf_r+0x22c4>
100054d8:	01012b83          	lw	s7,16(sp)
100054dc:	00000a93          	li	s5,0
100054e0:	00012823          	sw	zero,16(sp)
100054e4:	a40fd06f          	j	10002724 <_vfprintf_r+0x238>
100054e8:	00000a93          	li	s5,0
100054ec:	02012023          	sw	zero,32(sp)
100054f0:	00012e23          	sw	zero,28(sp)
100054f4:	00012823          	sw	zero,16(sp)
100054f8:	00300c93          	li	s9,3
100054fc:	00400c13          	li	s8,4
10005500:	a24fd06f          	j	10002724 <_vfprintf_r+0x238>
10005504:	01812703          	lw	a4,24(sp)
10005508:	00e78733          	add	a4,a5,a4
1000550c:	ef4ff06f          	j	10004c00 <_vfprintf_r+0x2714>
10005510:	40f70733          	sub	a4,a4,a5
10005514:	09812303          	lw	t1,152(sp)
10005518:	00e12c23          	sw	a4,24(sp)
1000551c:	91dff06f          	j	10004e38 <_vfprintf_r+0x294c>
10005520:	00000713          	li	a4,0
10005524:	02012023          	sw	zero,32(sp)
10005528:	00012e23          	sw	zero,28(sp)
1000552c:	e5dff06f          	j	10005388 <_vfprintf_r+0x2e9c>
10005530:	00412483          	lw	s1,4(sp)
10005534:	00c4d783          	lhu	a5,12(s1)
10005538:	0407e793          	ori	a5,a5,64
1000553c:	00f49623          	sh	a5,12(s1)
10005540:	b7cfe06f          	j	100038bc <_vfprintf_r+0x13d0>
10005544:	dac80813          	addi	a6,a6,-596
10005548:	c8dff06f          	j	100051d4 <_vfprintf_r+0x2ce8>
1000554c:	02012023          	sw	zero,32(sp)
10005550:	00012e23          	sw	zero,28(sp)
10005554:	9d0fd06f          	j	10002724 <_vfprintf_r+0x238>
10005558:	09812303          	lw	t1,152(sp)
1000555c:	fb8ff06f          	j	10004d14 <_vfprintf_r+0x2828>

10005560 <vfprintf>:
10005560:	00050713          	mv	a4,a0
10005564:	f2c1a503          	lw	a0,-212(gp) # 10011a04 <_impure_ptr>
10005568:	00060693          	mv	a3,a2
1000556c:	00058613          	mv	a2,a1
10005570:	00070593          	mv	a1,a4
10005574:	f79fc06f          	j	100024ec <_vfprintf_r>

10005578 <__sbprintf>:
10005578:	00c5d783          	lhu	a5,12(a1)
1000557c:	0645ae83          	lw	t4,100(a1)
10005580:	00e5de03          	lhu	t3,14(a1)
10005584:	01c5a303          	lw	t1,28(a1)
10005588:	0245a883          	lw	a7,36(a1)
1000558c:	b7010113          	addi	sp,sp,-1168
10005590:	ffd7f793          	andi	a5,a5,-3
10005594:	08010813          	addi	a6,sp,128
10005598:	40000713          	li	a4,1024
1000559c:	48812423          	sw	s0,1160(sp)
100055a0:	00058413          	mv	s0,a1
100055a4:	01810593          	addi	a1,sp,24
100055a8:	48912223          	sw	s1,1156(sp)
100055ac:	02f11223          	sh	a5,36(sp)
100055b0:	48112623          	sw	ra,1164(sp)
100055b4:	02012823          	sw	zero,48(sp)
100055b8:	07d12e23          	sw	t4,124(sp)
100055bc:	03c11323          	sh	t3,38(sp)
100055c0:	02612a23          	sw	t1,52(sp)
100055c4:	03112e23          	sw	a7,60(sp)
100055c8:	01012c23          	sw	a6,24(sp)
100055cc:	03012423          	sw	a6,40(sp)
100055d0:	02e12023          	sw	a4,32(sp)
100055d4:	02e12623          	sw	a4,44(sp)
100055d8:	00050493          	mv	s1,a0
100055dc:	f11fc0ef          	jal	100024ec <_vfprintf_r>
100055e0:	00050793          	mv	a5,a0
100055e4:	02055a63          	bgez	a0,10005618 <__sbprintf+0xa0>
100055e8:	02415703          	lhu	a4,36(sp)
100055ec:	04077713          	andi	a4,a4,64
100055f0:	00070863          	beqz	a4,10005600 <__sbprintf+0x88>
100055f4:	00c45703          	lhu	a4,12(s0)
100055f8:	04076713          	ori	a4,a4,64
100055fc:	00e41623          	sh	a4,12(s0)
10005600:	48c12083          	lw	ra,1164(sp)
10005604:	48812403          	lw	s0,1160(sp)
10005608:	48412483          	lw	s1,1156(sp)
1000560c:	00078513          	mv	a0,a5
10005610:	49010113          	addi	sp,sp,1168
10005614:	00008067          	ret
10005618:	00a12623          	sw	a0,12(sp)
1000561c:	01810593          	addi	a1,sp,24
10005620:	00048513          	mv	a0,s1
10005624:	3c0000ef          	jal	100059e4 <_fflush_r>
10005628:	00c12783          	lw	a5,12(sp)
1000562c:	fa050ee3          	beqz	a0,100055e8 <__sbprintf+0x70>
10005630:	fff00793          	li	a5,-1
10005634:	fb5ff06f          	j	100055e8 <__sbprintf+0x70>

10005638 <__sprint_r>:
10005638:	00862703          	lw	a4,8(a2)
1000563c:	00071863          	bnez	a4,1000564c <__sprint_r+0x14>
10005640:	00000513          	li	a0,0
10005644:	00062223          	sw	zero,4(a2)
10005648:	00008067          	ret
1000564c:	fe010113          	addi	sp,sp,-32
10005650:	00112e23          	sw	ra,28(sp)
10005654:	00c12623          	sw	a2,12(sp)
10005658:	480000ef          	jal	10005ad8 <__sfvwrite_r>
1000565c:	00c12783          	lw	a5,12(sp)
10005660:	01c12083          	lw	ra,28(sp)
10005664:	0007a423          	sw	zero,8(a5)
10005668:	0007a223          	sw	zero,4(a5)
1000566c:	02010113          	addi	sp,sp,32
10005670:	00008067          	ret

10005674 <_fclose_r>:
10005674:	ff010113          	addi	sp,sp,-16
10005678:	00112623          	sw	ra,12(sp)
1000567c:	01212023          	sw	s2,0(sp)
10005680:	02058863          	beqz	a1,100056b0 <_fclose_r+0x3c>
10005684:	00812423          	sw	s0,8(sp)
10005688:	00912223          	sw	s1,4(sp)
1000568c:	00058413          	mv	s0,a1
10005690:	00050493          	mv	s1,a0
10005694:	00050663          	beqz	a0,100056a0 <_fclose_r+0x2c>
10005698:	03452783          	lw	a5,52(a0)
1000569c:	0c078c63          	beqz	a5,10005774 <_fclose_r+0x100>
100056a0:	00c41783          	lh	a5,12(s0)
100056a4:	02079263          	bnez	a5,100056c8 <_fclose_r+0x54>
100056a8:	00812403          	lw	s0,8(sp)
100056ac:	00412483          	lw	s1,4(sp)
100056b0:	00c12083          	lw	ra,12(sp)
100056b4:	00000913          	li	s2,0
100056b8:	00090513          	mv	a0,s2
100056bc:	00012903          	lw	s2,0(sp)
100056c0:	01010113          	addi	sp,sp,16
100056c4:	00008067          	ret
100056c8:	00040593          	mv	a1,s0
100056cc:	00048513          	mv	a0,s1
100056d0:	0b8000ef          	jal	10005788 <__sflush_r>
100056d4:	02c42783          	lw	a5,44(s0)
100056d8:	00050913          	mv	s2,a0
100056dc:	00078a63          	beqz	a5,100056f0 <_fclose_r+0x7c>
100056e0:	01c42583          	lw	a1,28(s0)
100056e4:	00048513          	mv	a0,s1
100056e8:	000780e7          	jalr	a5
100056ec:	06054463          	bltz	a0,10005754 <_fclose_r+0xe0>
100056f0:	00c45783          	lhu	a5,12(s0)
100056f4:	0807f793          	andi	a5,a5,128
100056f8:	06079663          	bnez	a5,10005764 <_fclose_r+0xf0>
100056fc:	03042583          	lw	a1,48(s0)
10005700:	00058c63          	beqz	a1,10005718 <_fclose_r+0xa4>
10005704:	04040793          	addi	a5,s0,64
10005708:	00f58663          	beq	a1,a5,10005714 <_fclose_r+0xa0>
1000570c:	00048513          	mv	a0,s1
10005710:	a70fc0ef          	jal	10001980 <_free_r>
10005714:	02042823          	sw	zero,48(s0)
10005718:	04442583          	lw	a1,68(s0)
1000571c:	00058863          	beqz	a1,1000572c <_fclose_r+0xb8>
10005720:	00048513          	mv	a0,s1
10005724:	a5cfc0ef          	jal	10001980 <_free_r>
10005728:	04042223          	sw	zero,68(s0)
1000572c:	974fb0ef          	jal	100008a0 <__sfp_lock_acquire>
10005730:	00041623          	sh	zero,12(s0)
10005734:	970fb0ef          	jal	100008a4 <__sfp_lock_release>
10005738:	00c12083          	lw	ra,12(sp)
1000573c:	00812403          	lw	s0,8(sp)
10005740:	00412483          	lw	s1,4(sp)
10005744:	00090513          	mv	a0,s2
10005748:	00012903          	lw	s2,0(sp)
1000574c:	01010113          	addi	sp,sp,16
10005750:	00008067          	ret
10005754:	00c45783          	lhu	a5,12(s0)
10005758:	fff00913          	li	s2,-1
1000575c:	0807f793          	andi	a5,a5,128
10005760:	f8078ee3          	beqz	a5,100056fc <_fclose_r+0x88>
10005764:	01042583          	lw	a1,16(s0)
10005768:	00048513          	mv	a0,s1
1000576c:	a14fc0ef          	jal	10001980 <_free_r>
10005770:	f8dff06f          	j	100056fc <_fclose_r+0x88>
10005774:	908fb0ef          	jal	1000087c <__sinit>
10005778:	f29ff06f          	j	100056a0 <_fclose_r+0x2c>

1000577c <fclose>:
1000577c:	00050593          	mv	a1,a0
10005780:	f2c1a503          	lw	a0,-212(gp) # 10011a04 <_impure_ptr>
10005784:	ef1ff06f          	j	10005674 <_fclose_r>

10005788 <__sflush_r>:
10005788:	00c59703          	lh	a4,12(a1)
1000578c:	fe010113          	addi	sp,sp,-32
10005790:	00812c23          	sw	s0,24(sp)
10005794:	01312623          	sw	s3,12(sp)
10005798:	00112e23          	sw	ra,28(sp)
1000579c:	00877793          	andi	a5,a4,8
100057a0:	00058413          	mv	s0,a1
100057a4:	00050993          	mv	s3,a0
100057a8:	12079263          	bnez	a5,100058cc <__sflush_r+0x144>
100057ac:	000017b7          	lui	a5,0x1
100057b0:	80078793          	addi	a5,a5,-2048 # 800 <__heap_size-0x800>
100057b4:	0045a683          	lw	a3,4(a1)
100057b8:	00f767b3          	or	a5,a4,a5
100057bc:	00f59623          	sh	a5,12(a1)
100057c0:	18d05c63          	blez	a3,10005958 <__sflush_r+0x1d0>
100057c4:	02842803          	lw	a6,40(s0)
100057c8:	0e080663          	beqz	a6,100058b4 <__sflush_r+0x12c>
100057cc:	00912a23          	sw	s1,20(sp)
100057d0:	01371693          	slli	a3,a4,0x13
100057d4:	0009a483          	lw	s1,0(s3)
100057d8:	0009a023          	sw	zero,0(s3)
100057dc:	1806ca63          	bltz	a3,10005970 <__sflush_r+0x1e8>
100057e0:	01c42583          	lw	a1,28(s0)
100057e4:	00000613          	li	a2,0
100057e8:	00100693          	li	a3,1
100057ec:	00098513          	mv	a0,s3
100057f0:	000800e7          	jalr	a6
100057f4:	fff00793          	li	a5,-1
100057f8:	00050613          	mv	a2,a0
100057fc:	1af50c63          	beq	a0,a5,100059b4 <__sflush_r+0x22c>
10005800:	00c41783          	lh	a5,12(s0)
10005804:	02842803          	lw	a6,40(s0)
10005808:	0047f793          	andi	a5,a5,4
1000580c:	00078e63          	beqz	a5,10005828 <__sflush_r+0xa0>
10005810:	00442703          	lw	a4,4(s0)
10005814:	03042783          	lw	a5,48(s0)
10005818:	40e60633          	sub	a2,a2,a4
1000581c:	00078663          	beqz	a5,10005828 <__sflush_r+0xa0>
10005820:	03c42783          	lw	a5,60(s0)
10005824:	40f60633          	sub	a2,a2,a5
10005828:	01c42583          	lw	a1,28(s0)
1000582c:	00000693          	li	a3,0
10005830:	00098513          	mv	a0,s3
10005834:	000800e7          	jalr	a6
10005838:	fff00713          	li	a4,-1
1000583c:	00c41783          	lh	a5,12(s0)
10005840:	12e51c63          	bne	a0,a4,10005978 <__sflush_r+0x1f0>
10005844:	0009a683          	lw	a3,0(s3)
10005848:	01d00713          	li	a4,29
1000584c:	18d76263          	bltu	a4,a3,100059d0 <__sflush_r+0x248>
10005850:	20400737          	lui	a4,0x20400
10005854:	00170713          	addi	a4,a4,1 # 20400001 <_sp+0x103ec2e1>
10005858:	00d75733          	srl	a4,a4,a3
1000585c:	00177713          	andi	a4,a4,1
10005860:	16070863          	beqz	a4,100059d0 <__sflush_r+0x248>
10005864:	01042683          	lw	a3,16(s0)
10005868:	fffff737          	lui	a4,0xfffff
1000586c:	7ff70713          	addi	a4,a4,2047 # fffff7ff <_sp+0xeffebadf>
10005870:	00e7f733          	and	a4,a5,a4
10005874:	00e41623          	sh	a4,12(s0)
10005878:	00042223          	sw	zero,4(s0)
1000587c:	00d42023          	sw	a3,0(s0)
10005880:	01379713          	slli	a4,a5,0x13
10005884:	00075663          	bgez	a4,10005890 <__sflush_r+0x108>
10005888:	0009a783          	lw	a5,0(s3)
1000588c:	10078863          	beqz	a5,1000599c <__sflush_r+0x214>
10005890:	03042583          	lw	a1,48(s0)
10005894:	0099a023          	sw	s1,0(s3)
10005898:	10058a63          	beqz	a1,100059ac <__sflush_r+0x224>
1000589c:	04040793          	addi	a5,s0,64
100058a0:	00f58663          	beq	a1,a5,100058ac <__sflush_r+0x124>
100058a4:	00098513          	mv	a0,s3
100058a8:	8d8fc0ef          	jal	10001980 <_free_r>
100058ac:	01412483          	lw	s1,20(sp)
100058b0:	02042823          	sw	zero,48(s0)
100058b4:	01c12083          	lw	ra,28(sp)
100058b8:	01812403          	lw	s0,24(sp)
100058bc:	00c12983          	lw	s3,12(sp)
100058c0:	00000513          	li	a0,0
100058c4:	02010113          	addi	sp,sp,32
100058c8:	00008067          	ret
100058cc:	01212823          	sw	s2,16(sp)
100058d0:	0105a903          	lw	s2,16(a1)
100058d4:	08090a63          	beqz	s2,10005968 <__sflush_r+0x1e0>
100058d8:	00912a23          	sw	s1,20(sp)
100058dc:	0005a483          	lw	s1,0(a1)
100058e0:	00377713          	andi	a4,a4,3
100058e4:	0125a023          	sw	s2,0(a1)
100058e8:	412484b3          	sub	s1,s1,s2
100058ec:	00000793          	li	a5,0
100058f0:	00071463          	bnez	a4,100058f8 <__sflush_r+0x170>
100058f4:	0145a783          	lw	a5,20(a1)
100058f8:	00f42423          	sw	a5,8(s0)
100058fc:	00904863          	bgtz	s1,1000590c <__sflush_r+0x184>
10005900:	0640006f          	j	10005964 <__sflush_r+0x1dc>
10005904:	00a90933          	add	s2,s2,a0
10005908:	04905e63          	blez	s1,10005964 <__sflush_r+0x1dc>
1000590c:	02442783          	lw	a5,36(s0)
10005910:	01c42583          	lw	a1,28(s0)
10005914:	00048693          	mv	a3,s1
10005918:	00090613          	mv	a2,s2
1000591c:	00098513          	mv	a0,s3
10005920:	000780e7          	jalr	a5
10005924:	40a484b3          	sub	s1,s1,a0
10005928:	fca04ee3          	bgtz	a0,10005904 <__sflush_r+0x17c>
1000592c:	00c45783          	lhu	a5,12(s0)
10005930:	01012903          	lw	s2,16(sp)
10005934:	0407e793          	ori	a5,a5,64
10005938:	01c12083          	lw	ra,28(sp)
1000593c:	00f41623          	sh	a5,12(s0)
10005940:	01812403          	lw	s0,24(sp)
10005944:	01412483          	lw	s1,20(sp)
10005948:	00c12983          	lw	s3,12(sp)
1000594c:	fff00513          	li	a0,-1
10005950:	02010113          	addi	sp,sp,32
10005954:	00008067          	ret
10005958:	03c5a683          	lw	a3,60(a1)
1000595c:	e6d044e3          	bgtz	a3,100057c4 <__sflush_r+0x3c>
10005960:	f55ff06f          	j	100058b4 <__sflush_r+0x12c>
10005964:	01412483          	lw	s1,20(sp)
10005968:	01012903          	lw	s2,16(sp)
1000596c:	f49ff06f          	j	100058b4 <__sflush_r+0x12c>
10005970:	05042603          	lw	a2,80(s0)
10005974:	e95ff06f          	j	10005808 <__sflush_r+0x80>
10005978:	01042683          	lw	a3,16(s0)
1000597c:	fffff737          	lui	a4,0xfffff
10005980:	7ff70713          	addi	a4,a4,2047 # fffff7ff <_sp+0xeffebadf>
10005984:	00e7f733          	and	a4,a5,a4
10005988:	00e41623          	sh	a4,12(s0)
1000598c:	00042223          	sw	zero,4(s0)
10005990:	00d42023          	sw	a3,0(s0)
10005994:	01379713          	slli	a4,a5,0x13
10005998:	ee075ce3          	bgez	a4,10005890 <__sflush_r+0x108>
1000599c:	03042583          	lw	a1,48(s0)
100059a0:	04a42823          	sw	a0,80(s0)
100059a4:	0099a023          	sw	s1,0(s3)
100059a8:	ee059ae3          	bnez	a1,1000589c <__sflush_r+0x114>
100059ac:	01412483          	lw	s1,20(sp)
100059b0:	f05ff06f          	j	100058b4 <__sflush_r+0x12c>
100059b4:	0009a783          	lw	a5,0(s3)
100059b8:	e40784e3          	beqz	a5,10005800 <__sflush_r+0x78>
100059bc:	fe378713          	addi	a4,a5,-29
100059c0:	00070c63          	beqz	a4,100059d8 <__sflush_r+0x250>
100059c4:	fea78793          	addi	a5,a5,-22
100059c8:	00078863          	beqz	a5,100059d8 <__sflush_r+0x250>
100059cc:	00c45783          	lhu	a5,12(s0)
100059d0:	0407e793          	ori	a5,a5,64
100059d4:	f65ff06f          	j	10005938 <__sflush_r+0x1b0>
100059d8:	0099a023          	sw	s1,0(s3)
100059dc:	01412483          	lw	s1,20(sp)
100059e0:	ed5ff06f          	j	100058b4 <__sflush_r+0x12c>

100059e4 <_fflush_r>:
100059e4:	00050793          	mv	a5,a0
100059e8:	00050663          	beqz	a0,100059f4 <_fflush_r+0x10>
100059ec:	03452703          	lw	a4,52(a0)
100059f0:	00070e63          	beqz	a4,10005a0c <_fflush_r+0x28>
100059f4:	00c59703          	lh	a4,12(a1)
100059f8:	00071663          	bnez	a4,10005a04 <_fflush_r+0x20>
100059fc:	00000513          	li	a0,0
10005a00:	00008067          	ret
10005a04:	00078513          	mv	a0,a5
10005a08:	d81ff06f          	j	10005788 <__sflush_r>
10005a0c:	fe010113          	addi	sp,sp,-32
10005a10:	00b12623          	sw	a1,12(sp)
10005a14:	00112e23          	sw	ra,28(sp)
10005a18:	00a12423          	sw	a0,8(sp)
10005a1c:	e61fa0ef          	jal	1000087c <__sinit>
10005a20:	00c12583          	lw	a1,12(sp)
10005a24:	00812783          	lw	a5,8(sp)
10005a28:	00c59703          	lh	a4,12(a1)
10005a2c:	00070a63          	beqz	a4,10005a40 <_fflush_r+0x5c>
10005a30:	01c12083          	lw	ra,28(sp)
10005a34:	00078513          	mv	a0,a5
10005a38:	02010113          	addi	sp,sp,32
10005a3c:	d4dff06f          	j	10005788 <__sflush_r>
10005a40:	01c12083          	lw	ra,28(sp)
10005a44:	00000513          	li	a0,0
10005a48:	02010113          	addi	sp,sp,32
10005a4c:	00008067          	ret

10005a50 <fflush>:
10005a50:	06050063          	beqz	a0,10005ab0 <fflush+0x60>
10005a54:	00050593          	mv	a1,a0
10005a58:	f2c1a503          	lw	a0,-212(gp) # 10011a04 <_impure_ptr>
10005a5c:	00050663          	beqz	a0,10005a68 <fflush+0x18>
10005a60:	03452783          	lw	a5,52(a0)
10005a64:	00078c63          	beqz	a5,10005a7c <fflush+0x2c>
10005a68:	00c59783          	lh	a5,12(a1)
10005a6c:	00079663          	bnez	a5,10005a78 <fflush+0x28>
10005a70:	00000513          	li	a0,0
10005a74:	00008067          	ret
10005a78:	d11ff06f          	j	10005788 <__sflush_r>
10005a7c:	fe010113          	addi	sp,sp,-32
10005a80:	00b12623          	sw	a1,12(sp)
10005a84:	00a12423          	sw	a0,8(sp)
10005a88:	00112e23          	sw	ra,28(sp)
10005a8c:	df1fa0ef          	jal	1000087c <__sinit>
10005a90:	00c12583          	lw	a1,12(sp)
10005a94:	00812503          	lw	a0,8(sp)
10005a98:	00c59783          	lh	a5,12(a1)
10005a9c:	02079863          	bnez	a5,10005acc <fflush+0x7c>
10005aa0:	01c12083          	lw	ra,28(sp)
10005aa4:	00000513          	li	a0,0
10005aa8:	02010113          	addi	sp,sp,32
10005aac:	00008067          	ret
10005ab0:	10011637          	lui	a2,0x10011
10005ab4:	100065b7          	lui	a1,0x10006
10005ab8:	10011537          	lui	a0,0x10011
10005abc:	2d860613          	addi	a2,a2,728 # 100112d8 <__sglue>
10005ac0:	9e458593          	addi	a1,a1,-1564 # 100059e4 <_fflush_r>
10005ac4:	2e850513          	addi	a0,a0,744 # 100112e8 <_impure_data>
10005ac8:	e11fa06f          	j	100008d8 <_fwalk_sglue>
10005acc:	01c12083          	lw	ra,28(sp)
10005ad0:	02010113          	addi	sp,sp,32
10005ad4:	cb5ff06f          	j	10005788 <__sflush_r>

10005ad8 <__sfvwrite_r>:
10005ad8:	00862783          	lw	a5,8(a2)
10005adc:	22078c63          	beqz	a5,10005d14 <__sfvwrite_r+0x23c>
10005ae0:	00c59683          	lh	a3,12(a1)
10005ae4:	fc010113          	addi	sp,sp,-64
10005ae8:	02812c23          	sw	s0,56(sp)
10005aec:	03412423          	sw	s4,40(sp)
10005af0:	03512223          	sw	s5,36(sp)
10005af4:	02112e23          	sw	ra,60(sp)
10005af8:	0086f793          	andi	a5,a3,8
10005afc:	00058413          	mv	s0,a1
10005b00:	00050a93          	mv	s5,a0
10005b04:	00060a13          	mv	s4,a2
10005b08:	0a078463          	beqz	a5,10005bb0 <__sfvwrite_r+0xd8>
10005b0c:	0105a783          	lw	a5,16(a1)
10005b10:	0a078063          	beqz	a5,10005bb0 <__sfvwrite_r+0xd8>
10005b14:	02912a23          	sw	s1,52(sp)
10005b18:	03212823          	sw	s2,48(sp)
10005b1c:	03312623          	sw	s3,44(sp)
10005b20:	03612023          	sw	s6,32(sp)
10005b24:	0026f793          	andi	a5,a3,2
10005b28:	000a2483          	lw	s1,0(s4)
10005b2c:	0a078a63          	beqz	a5,10005be0 <__sfvwrite_r+0x108>
10005b30:	80000b37          	lui	s6,0x80000
10005b34:	c00b0b13          	addi	s6,s6,-1024 # 7ffffc00 <_sp+0x6ffebee0>
10005b38:	00000993          	li	s3,0
10005b3c:	00000913          	li	s2,0
10005b40:	00098613          	mv	a2,s3
10005b44:	000a8513          	mv	a0,s5
10005b48:	1a090e63          	beqz	s2,10005d04 <__sfvwrite_r+0x22c>
10005b4c:	00090693          	mv	a3,s2
10005b50:	012b7663          	bgeu	s6,s2,10005b5c <__sfvwrite_r+0x84>
10005b54:	800006b7          	lui	a3,0x80000
10005b58:	c0068693          	addi	a3,a3,-1024 # 7ffffc00 <_sp+0x6ffebee0>
10005b5c:	02442783          	lw	a5,36(s0)
10005b60:	01c42583          	lw	a1,28(s0)
10005b64:	000780e7          	jalr	a5
10005b68:	40a05863          	blez	a0,10005f78 <__sfvwrite_r+0x4a0>
10005b6c:	008a2783          	lw	a5,8(s4)
10005b70:	00a989b3          	add	s3,s3,a0
10005b74:	40a90933          	sub	s2,s2,a0
10005b78:	40a787b3          	sub	a5,a5,a0
10005b7c:	00fa2423          	sw	a5,8(s4)
10005b80:	fc0790e3          	bnez	a5,10005b40 <__sfvwrite_r+0x68>
10005b84:	03412483          	lw	s1,52(sp)
10005b88:	03012903          	lw	s2,48(sp)
10005b8c:	02c12983          	lw	s3,44(sp)
10005b90:	02012b03          	lw	s6,32(sp)
10005b94:	00000513          	li	a0,0
10005b98:	03c12083          	lw	ra,60(sp)
10005b9c:	03812403          	lw	s0,56(sp)
10005ba0:	02812a03          	lw	s4,40(sp)
10005ba4:	02412a83          	lw	s5,36(sp)
10005ba8:	04010113          	addi	sp,sp,64
10005bac:	00008067          	ret
10005bb0:	00040593          	mv	a1,s0
10005bb4:	000a8513          	mv	a0,s5
10005bb8:	3e0000ef          	jal	10005f98 <__swsetup_r>
10005bbc:	26051663          	bnez	a0,10005e28 <__sfvwrite_r+0x350>
10005bc0:	00c41683          	lh	a3,12(s0)
10005bc4:	02912a23          	sw	s1,52(sp)
10005bc8:	03212823          	sw	s2,48(sp)
10005bcc:	03312623          	sw	s3,44(sp)
10005bd0:	03612023          	sw	s6,32(sp)
10005bd4:	0026f793          	andi	a5,a3,2
10005bd8:	000a2483          	lw	s1,0(s4)
10005bdc:	f4079ae3          	bnez	a5,10005b30 <__sfvwrite_r+0x58>
10005be0:	01712e23          	sw	s7,28(sp)
10005be4:	01812c23          	sw	s8,24(sp)
10005be8:	0016f793          	andi	a5,a3,1
10005bec:	12079863          	bnez	a5,10005d1c <__sfvwrite_r+0x244>
10005bf0:	00042783          	lw	a5,0(s0)
10005bf4:	80000737          	lui	a4,0x80000
10005bf8:	fff70c13          	addi	s8,a4,-1 # 7fffffff <_sp+0x6ffec2df>
10005bfc:	00000b13          	li	s6,0
10005c00:	00000993          	li	s3,0
10005c04:	0e098863          	beqz	s3,10005cf4 <__sfvwrite_r+0x21c>
10005c08:	2006f713          	andi	a4,a3,512
10005c0c:	00842903          	lw	s2,8(s0)
10005c10:	00078513          	mv	a0,a5
10005c14:	20070e63          	beqz	a4,10005e30 <__sfvwrite_r+0x358>
10005c18:	00090b93          	mv	s7,s2
10005c1c:	2d29e063          	bltu	s3,s2,10005edc <__sfvwrite_r+0x404>
10005c20:	4806f713          	andi	a4,a3,1152
10005c24:	08070c63          	beqz	a4,10005cbc <__sfvwrite_r+0x1e4>
10005c28:	01442603          	lw	a2,20(s0)
10005c2c:	01042583          	lw	a1,16(s0)
10005c30:	00161713          	slli	a4,a2,0x1
10005c34:	00c70733          	add	a4,a4,a2
10005c38:	01f75913          	srli	s2,a4,0x1f
10005c3c:	40b78bb3          	sub	s7,a5,a1
10005c40:	00e90933          	add	s2,s2,a4
10005c44:	001b8793          	addi	a5,s7,1
10005c48:	40195913          	srai	s2,s2,0x1
10005c4c:	013787b3          	add	a5,a5,s3
10005c50:	00090613          	mv	a2,s2
10005c54:	00f97663          	bgeu	s2,a5,10005c60 <__sfvwrite_r+0x188>
10005c58:	00078913          	mv	s2,a5
10005c5c:	00078613          	mv	a2,a5
10005c60:	4006f693          	andi	a3,a3,1024
10005c64:	2c068263          	beqz	a3,10005f28 <__sfvwrite_r+0x450>
10005c68:	00060593          	mv	a1,a2
10005c6c:	000a8513          	mv	a0,s5
10005c70:	ff9fb0ef          	jal	10001c68 <_malloc_r>
10005c74:	30050663          	beqz	a0,10005f80 <__sfvwrite_r+0x4a8>
10005c78:	01042583          	lw	a1,16(s0)
10005c7c:	000b8613          	mv	a2,s7
10005c80:	00a12623          	sw	a0,12(sp)
10005c84:	760000ef          	jal	100063e4 <memcpy>
10005c88:	00c45783          	lhu	a5,12(s0)
10005c8c:	00c12703          	lw	a4,12(sp)
10005c90:	b7f7f793          	andi	a5,a5,-1153
10005c94:	0807e793          	ori	a5,a5,128
10005c98:	00f41623          	sh	a5,12(s0)
10005c9c:	417907b3          	sub	a5,s2,s7
10005ca0:	01770533          	add	a0,a4,s7
10005ca4:	01242a23          	sw	s2,20(s0)
10005ca8:	00e42823          	sw	a4,16(s0)
10005cac:	00a42023          	sw	a0,0(s0)
10005cb0:	00f42423          	sw	a5,8(s0)
10005cb4:	00098913          	mv	s2,s3
10005cb8:	00098b93          	mv	s7,s3
10005cbc:	000b0593          	mv	a1,s6
10005cc0:	000b8613          	mv	a2,s7
10005cc4:	5f8000ef          	jal	100062bc <memmove>
10005cc8:	00842703          	lw	a4,8(s0)
10005ccc:	00042783          	lw	a5,0(s0)
10005cd0:	41270733          	sub	a4,a4,s2
10005cd4:	00e42423          	sw	a4,8(s0)
10005cd8:	008a2703          	lw	a4,8(s4)
10005cdc:	017787b3          	add	a5,a5,s7
10005ce0:	00f42023          	sw	a5,0(s0)
10005ce4:	41370733          	sub	a4,a4,s3
10005ce8:	00ea2423          	sw	a4,8(s4)
10005cec:	28070063          	beqz	a4,10005f6c <__sfvwrite_r+0x494>
10005cf0:	00c41683          	lh	a3,12(s0)
10005cf4:	0004ab03          	lw	s6,0(s1)
10005cf8:	0044a983          	lw	s3,4(s1)
10005cfc:	00848493          	addi	s1,s1,8
10005d00:	f05ff06f          	j	10005c04 <__sfvwrite_r+0x12c>
10005d04:	0004a983          	lw	s3,0(s1)
10005d08:	0044a903          	lw	s2,4(s1)
10005d0c:	00848493          	addi	s1,s1,8
10005d10:	e31ff06f          	j	10005b40 <__sfvwrite_r+0x68>
10005d14:	00000513          	li	a0,0
10005d18:	00008067          	ret
10005d1c:	00000b13          	li	s6,0
10005d20:	00000b93          	li	s7,0
10005d24:	00000513          	li	a0,0
10005d28:	00000c13          	li	s8,0
10005d2c:	060b0e63          	beqz	s6,10005da8 <__sfvwrite_r+0x2d0>
10005d30:	08050663          	beqz	a0,10005dbc <__sfvwrite_r+0x2e4>
10005d34:	000b8793          	mv	a5,s7
10005d38:	000b0993          	mv	s3,s6
10005d3c:	0167f463          	bgeu	a5,s6,10005d44 <__sfvwrite_r+0x26c>
10005d40:	00078993          	mv	s3,a5
10005d44:	01442683          	lw	a3,20(s0)
10005d48:	00842903          	lw	s2,8(s0)
10005d4c:	00042503          	lw	a0,0(s0)
10005d50:	01042783          	lw	a5,16(s0)
10005d54:	01268933          	add	s2,a3,s2
10005d58:	00a7f463          	bgeu	a5,a0,10005d60 <__sfvwrite_r+0x288>
10005d5c:	09394063          	blt	s2,s3,10005ddc <__sfvwrite_r+0x304>
10005d60:	18d9ce63          	blt	s3,a3,10005efc <__sfvwrite_r+0x424>
10005d64:	02442783          	lw	a5,36(s0)
10005d68:	01c42583          	lw	a1,28(s0)
10005d6c:	000c0613          	mv	a2,s8
10005d70:	000a8513          	mv	a0,s5
10005d74:	000780e7          	jalr	a5
10005d78:	00050913          	mv	s2,a0
10005d7c:	08a05463          	blez	a0,10005e04 <__sfvwrite_r+0x32c>
10005d80:	412b8bb3          	sub	s7,s7,s2
10005d84:	00100513          	li	a0,1
10005d88:	160b8063          	beqz	s7,10005ee8 <__sfvwrite_r+0x410>
10005d8c:	008a2783          	lw	a5,8(s4)
10005d90:	412787b3          	sub	a5,a5,s2
10005d94:	00fa2423          	sw	a5,8(s4)
10005d98:	1c078a63          	beqz	a5,10005f6c <__sfvwrite_r+0x494>
10005d9c:	412b0b33          	sub	s6,s6,s2
10005da0:	012c0c33          	add	s8,s8,s2
10005da4:	f80b16e3          	bnez	s6,10005d30 <__sfvwrite_r+0x258>
10005da8:	0044ab03          	lw	s6,4(s1)
10005dac:	00048793          	mv	a5,s1
10005db0:	00848493          	addi	s1,s1,8
10005db4:	fe0b0ae3          	beqz	s6,10005da8 <__sfvwrite_r+0x2d0>
10005db8:	0007ac03          	lw	s8,0(a5)
10005dbc:	000b0613          	mv	a2,s6
10005dc0:	00a00593          	li	a1,10
10005dc4:	000c0513          	mv	a0,s8
10005dc8:	334000ef          	jal	100060fc <memchr>
10005dcc:	18050a63          	beqz	a0,10005f60 <__sfvwrite_r+0x488>
10005dd0:	00150513          	addi	a0,a0,1
10005dd4:	41850bb3          	sub	s7,a0,s8
10005dd8:	f5dff06f          	j	10005d34 <__sfvwrite_r+0x25c>
10005ddc:	000c0593          	mv	a1,s8
10005de0:	00090613          	mv	a2,s2
10005de4:	4d8000ef          	jal	100062bc <memmove>
10005de8:	00042783          	lw	a5,0(s0)
10005dec:	00040593          	mv	a1,s0
10005df0:	000a8513          	mv	a0,s5
10005df4:	012787b3          	add	a5,a5,s2
10005df8:	00f42023          	sw	a5,0(s0)
10005dfc:	be9ff0ef          	jal	100059e4 <_fflush_r>
10005e00:	f80500e3          	beqz	a0,10005d80 <__sfvwrite_r+0x2a8>
10005e04:	00c41783          	lh	a5,12(s0)
10005e08:	01c12b83          	lw	s7,28(sp)
10005e0c:	01812c03          	lw	s8,24(sp)
10005e10:	03412483          	lw	s1,52(sp)
10005e14:	03012903          	lw	s2,48(sp)
10005e18:	02c12983          	lw	s3,44(sp)
10005e1c:	02012b03          	lw	s6,32(sp)
10005e20:	0407e793          	ori	a5,a5,64
10005e24:	00f41623          	sh	a5,12(s0)
10005e28:	fff00513          	li	a0,-1
10005e2c:	d6dff06f          	j	10005b98 <__sfvwrite_r+0xc0>
10005e30:	01042703          	lw	a4,16(s0)
10005e34:	06f76063          	bltu	a4,a5,10005e94 <__sfvwrite_r+0x3bc>
10005e38:	01442703          	lw	a4,20(s0)
10005e3c:	04e9ec63          	bltu	s3,a4,10005e94 <__sfvwrite_r+0x3bc>
10005e40:	00098693          	mv	a3,s3
10005e44:	013c7463          	bgeu	s8,s3,10005e4c <__sfvwrite_r+0x374>
10005e48:	000c0693          	mv	a3,s8
10005e4c:	02e6e733          	rem	a4,a3,a4
10005e50:	02442783          	lw	a5,36(s0)
10005e54:	01c42583          	lw	a1,28(s0)
10005e58:	000b0613          	mv	a2,s6
10005e5c:	000a8513          	mv	a0,s5
10005e60:	40e686b3          	sub	a3,a3,a4
10005e64:	000780e7          	jalr	a5
10005e68:	f8a05ee3          	blez	a0,10005e04 <__sfvwrite_r+0x32c>
10005e6c:	00050913          	mv	s2,a0
10005e70:	008a2783          	lw	a5,8(s4)
10005e74:	412989b3          	sub	s3,s3,s2
10005e78:	412787b3          	sub	a5,a5,s2
10005e7c:	00fa2423          	sw	a5,8(s4)
10005e80:	0e078663          	beqz	a5,10005f6c <__sfvwrite_r+0x494>
10005e84:	00c41683          	lh	a3,12(s0)
10005e88:	00042783          	lw	a5,0(s0)
10005e8c:	012b0b33          	add	s6,s6,s2
10005e90:	d75ff06f          	j	10005c04 <__sfvwrite_r+0x12c>
10005e94:	0129f463          	bgeu	s3,s2,10005e9c <__sfvwrite_r+0x3c4>
10005e98:	00098913          	mv	s2,s3
10005e9c:	00078513          	mv	a0,a5
10005ea0:	00090613          	mv	a2,s2
10005ea4:	000b0593          	mv	a1,s6
10005ea8:	414000ef          	jal	100062bc <memmove>
10005eac:	00042783          	lw	a5,0(s0)
10005eb0:	00842703          	lw	a4,8(s0)
10005eb4:	012787b3          	add	a5,a5,s2
10005eb8:	41270733          	sub	a4,a4,s2
10005ebc:	00f42023          	sw	a5,0(s0)
10005ec0:	00e42423          	sw	a4,8(s0)
10005ec4:	fa0716e3          	bnez	a4,10005e70 <__sfvwrite_r+0x398>
10005ec8:	00040593          	mv	a1,s0
10005ecc:	000a8513          	mv	a0,s5
10005ed0:	b15ff0ef          	jal	100059e4 <_fflush_r>
10005ed4:	f8050ee3          	beqz	a0,10005e70 <__sfvwrite_r+0x398>
10005ed8:	f2dff06f          	j	10005e04 <__sfvwrite_r+0x32c>
10005edc:	00098913          	mv	s2,s3
10005ee0:	00098b93          	mv	s7,s3
10005ee4:	dd9ff06f          	j	10005cbc <__sfvwrite_r+0x1e4>
10005ee8:	00040593          	mv	a1,s0
10005eec:	000a8513          	mv	a0,s5
10005ef0:	af5ff0ef          	jal	100059e4 <_fflush_r>
10005ef4:	e8050ce3          	beqz	a0,10005d8c <__sfvwrite_r+0x2b4>
10005ef8:	f0dff06f          	j	10005e04 <__sfvwrite_r+0x32c>
10005efc:	00098613          	mv	a2,s3
10005f00:	000c0593          	mv	a1,s8
10005f04:	3b8000ef          	jal	100062bc <memmove>
10005f08:	00842703          	lw	a4,8(s0)
10005f0c:	00042783          	lw	a5,0(s0)
10005f10:	00098913          	mv	s2,s3
10005f14:	41370733          	sub	a4,a4,s3
10005f18:	013787b3          	add	a5,a5,s3
10005f1c:	00e42423          	sw	a4,8(s0)
10005f20:	00f42023          	sw	a5,0(s0)
10005f24:	e5dff06f          	j	10005d80 <__sfvwrite_r+0x2a8>
10005f28:	000a8513          	mv	a0,s5
10005f2c:	675030ef          	jal	10009da0 <_realloc_r>
10005f30:	00050713          	mv	a4,a0
10005f34:	d60514e3          	bnez	a0,10005c9c <__sfvwrite_r+0x1c4>
10005f38:	01042583          	lw	a1,16(s0)
10005f3c:	000a8513          	mv	a0,s5
10005f40:	a41fb0ef          	jal	10001980 <_free_r>
10005f44:	00c45783          	lhu	a5,12(s0)
10005f48:	00c00713          	li	a4,12
10005f4c:	01c12b83          	lw	s7,28(sp)
10005f50:	01812c03          	lw	s8,24(sp)
10005f54:	00eaa023          	sw	a4,0(s5)
10005f58:	f7f7f793          	andi	a5,a5,-129
10005f5c:	eb5ff06f          	j	10005e10 <__sfvwrite_r+0x338>
10005f60:	001b0793          	addi	a5,s6,1
10005f64:	00078b93          	mv	s7,a5
10005f68:	dd1ff06f          	j	10005d38 <__sfvwrite_r+0x260>
10005f6c:	01c12b83          	lw	s7,28(sp)
10005f70:	01812c03          	lw	s8,24(sp)
10005f74:	c11ff06f          	j	10005b84 <__sfvwrite_r+0xac>
10005f78:	00c41783          	lh	a5,12(s0)
10005f7c:	e95ff06f          	j	10005e10 <__sfvwrite_r+0x338>
10005f80:	00c00793          	li	a5,12
10005f84:	00faa023          	sw	a5,0(s5)
10005f88:	01c12b83          	lw	s7,28(sp)
10005f8c:	00c41783          	lh	a5,12(s0)
10005f90:	01812c03          	lw	s8,24(sp)
10005f94:	e7dff06f          	j	10005e10 <__sfvwrite_r+0x338>

10005f98 <__swsetup_r>:
10005f98:	f2c1a703          	lw	a4,-212(gp) # 10011a04 <_impure_ptr>
10005f9c:	fe010113          	addi	sp,sp,-32
10005fa0:	00112e23          	sw	ra,28(sp)
10005fa4:	00050613          	mv	a2,a0
10005fa8:	00058793          	mv	a5,a1
10005fac:	00070663          	beqz	a4,10005fb8 <__swsetup_r+0x20>
10005fb0:	03472683          	lw	a3,52(a4)
10005fb4:	10068a63          	beqz	a3,100060c8 <__swsetup_r+0x130>
10005fb8:	00c79703          	lh	a4,12(a5)
10005fbc:	00877693          	andi	a3,a4,8
10005fc0:	02068e63          	beqz	a3,10005ffc <__swsetup_r+0x64>
10005fc4:	0107a683          	lw	a3,16(a5)
10005fc8:	04068a63          	beqz	a3,1000601c <__swsetup_r+0x84>
10005fcc:	00c79703          	lh	a4,12(a5)
10005fd0:	00177613          	andi	a2,a4,1
10005fd4:	06060e63          	beqz	a2,10006050 <__swsetup_r+0xb8>
10005fd8:	0147a603          	lw	a2,20(a5)
10005fdc:	0007a423          	sw	zero,8(a5)
10005fe0:	00000513          	li	a0,0
10005fe4:	40c00633          	neg	a2,a2
10005fe8:	00c7ac23          	sw	a2,24(a5)
10005fec:	08068063          	beqz	a3,1000606c <__swsetup_r+0xd4>
10005ff0:	01c12083          	lw	ra,28(sp)
10005ff4:	02010113          	addi	sp,sp,32
10005ff8:	00008067          	ret
10005ffc:	01077693          	andi	a3,a4,16
10006000:	0e068263          	beqz	a3,100060e4 <__swsetup_r+0x14c>
10006004:	00477693          	andi	a3,a4,4
10006008:	06069e63          	bnez	a3,10006084 <__swsetup_r+0xec>
1000600c:	0107a683          	lw	a3,16(a5)
10006010:	00876713          	ori	a4,a4,8
10006014:	00e79623          	sh	a4,12(a5)
10006018:	fa069ae3          	bnez	a3,10005fcc <__swsetup_r+0x34>
1000601c:	00c7a703          	lw	a4,12(a5)
10006020:	20000593          	li	a1,512
10006024:	28077713          	andi	a4,a4,640
10006028:	fab702e3          	beq	a4,a1,10005fcc <__swsetup_r+0x34>
1000602c:	00060513          	mv	a0,a2
10006030:	00078593          	mv	a1,a5
10006034:	00f12423          	sw	a5,8(sp)
10006038:	398040ef          	jal	1000a3d0 <__smakebuf_r>
1000603c:	00812783          	lw	a5,8(sp)
10006040:	00c79703          	lh	a4,12(a5)
10006044:	0107a683          	lw	a3,16(a5)
10006048:	00177613          	andi	a2,a4,1
1000604c:	f80616e3          	bnez	a2,10005fd8 <__swsetup_r+0x40>
10006050:	00277613          	andi	a2,a4,2
10006054:	00000593          	li	a1,0
10006058:	00061463          	bnez	a2,10006060 <__swsetup_r+0xc8>
1000605c:	0147a583          	lw	a1,20(a5)
10006060:	00b7a423          	sw	a1,8(a5)
10006064:	00000513          	li	a0,0
10006068:	f80694e3          	bnez	a3,10005ff0 <__swsetup_r+0x58>
1000606c:	08077693          	andi	a3,a4,128
10006070:	f80680e3          	beqz	a3,10005ff0 <__swsetup_r+0x58>
10006074:	04076713          	ori	a4,a4,64
10006078:	00e79623          	sh	a4,12(a5)
1000607c:	fff00513          	li	a0,-1
10006080:	f71ff06f          	j	10005ff0 <__swsetup_r+0x58>
10006084:	0307a583          	lw	a1,48(a5)
10006088:	02058663          	beqz	a1,100060b4 <__swsetup_r+0x11c>
1000608c:	04078693          	addi	a3,a5,64
10006090:	02d58063          	beq	a1,a3,100060b0 <__swsetup_r+0x118>
10006094:	00060513          	mv	a0,a2
10006098:	00f12623          	sw	a5,12(sp)
1000609c:	00c12423          	sw	a2,8(sp)
100060a0:	8e1fb0ef          	jal	10001980 <_free_r>
100060a4:	00c12783          	lw	a5,12(sp)
100060a8:	00812603          	lw	a2,8(sp)
100060ac:	00c79703          	lh	a4,12(a5)
100060b0:	0207a823          	sw	zero,48(a5)
100060b4:	0107a683          	lw	a3,16(a5)
100060b8:	fdb77713          	andi	a4,a4,-37
100060bc:	0007a223          	sw	zero,4(a5)
100060c0:	00d7a023          	sw	a3,0(a5)
100060c4:	f4dff06f          	j	10006010 <__swsetup_r+0x78>
100060c8:	00a12423          	sw	a0,8(sp)
100060cc:	00070513          	mv	a0,a4
100060d0:	00b12623          	sw	a1,12(sp)
100060d4:	fa8fa0ef          	jal	1000087c <__sinit>
100060d8:	00c12783          	lw	a5,12(sp)
100060dc:	00812603          	lw	a2,8(sp)
100060e0:	ed9ff06f          	j	10005fb8 <__swsetup_r+0x20>
100060e4:	00900693          	li	a3,9
100060e8:	04076713          	ori	a4,a4,64
100060ec:	00d62023          	sw	a3,0(a2)
100060f0:	00e79623          	sh	a4,12(a5)
100060f4:	fff00513          	li	a0,-1
100060f8:	ef9ff06f          	j	10005ff0 <__swsetup_r+0x58>

100060fc <memchr>:
100060fc:	00357793          	andi	a5,a0,3
10006100:	0ff5f713          	zext.b	a4,a1
10006104:	02078063          	beqz	a5,10006124 <memchr+0x28>
10006108:	08060863          	beqz	a2,10006198 <memchr+0x9c>
1000610c:	00054783          	lbu	a5,0(a0)
10006110:	fff60613          	addi	a2,a2,-1
10006114:	08e78063          	beq	a5,a4,10006194 <memchr+0x98>
10006118:	00150513          	addi	a0,a0,1
1000611c:	00357793          	andi	a5,a0,3
10006120:	fe0794e3          	bnez	a5,10006108 <memchr+0xc>
10006124:	00300813          	li	a6,3
10006128:	04c87863          	bgeu	a6,a2,10006178 <memchr+0x7c>
1000612c:	0ff5f593          	zext.b	a1,a1
10006130:	00859793          	slli	a5,a1,0x8
10006134:	00b785b3          	add	a1,a5,a1
10006138:	01059793          	slli	a5,a1,0x10
1000613c:	feff0337          	lui	t1,0xfeff0
10006140:	808088b7          	lui	a7,0x80808
10006144:	00f585b3          	add	a1,a1,a5
10006148:	eff30313          	addi	t1,t1,-257 # fefefeff <_sp+0xeefdc1df>
1000614c:	08088893          	addi	a7,a7,128 # 80808080 <_sp+0x707f4360>
10006150:	00052783          	lw	a5,0(a0)
10006154:	00f5c7b3          	xor	a5,a1,a5
10006158:	006786b3          	add	a3,a5,t1
1000615c:	fff7c793          	not	a5,a5
10006160:	00f6f7b3          	and	a5,a3,a5
10006164:	0117f7b3          	and	a5,a5,a7
10006168:	00079a63          	bnez	a5,1000617c <memchr+0x80>
1000616c:	ffc60613          	addi	a2,a2,-4
10006170:	00450513          	addi	a0,a0,4
10006174:	fcc86ee3          	bltu	a6,a2,10006150 <memchr+0x54>
10006178:	02060063          	beqz	a2,10006198 <memchr+0x9c>
1000617c:	00c50633          	add	a2,a0,a2
10006180:	00c0006f          	j	1000618c <memchr+0x90>
10006184:	00150513          	addi	a0,a0,1
10006188:	00c50863          	beq	a0,a2,10006198 <memchr+0x9c>
1000618c:	00054783          	lbu	a5,0(a0)
10006190:	fee79ae3          	bne	a5,a4,10006184 <memchr+0x88>
10006194:	00008067          	ret
10006198:	00000513          	li	a0,0
1000619c:	00008067          	ret

100061a0 <strncpy>:
100061a0:	00a5e7b3          	or	a5,a1,a0
100061a4:	0037f793          	andi	a5,a5,3
100061a8:	00079663          	bnez	a5,100061b4 <strncpy+0x14>
100061ac:	00463793          	sltiu	a5,a2,4
100061b0:	04078663          	beqz	a5,100061fc <strncpy+0x5c>
100061b4:	00050713          	mv	a4,a0
100061b8:	01c0006f          	j	100061d4 <strncpy+0x34>
100061bc:	fff5c683          	lbu	a3,-1(a1)
100061c0:	fff60813          	addi	a6,a2,-1
100061c4:	fed78fa3          	sb	a3,-1(a5)
100061c8:	00068e63          	beqz	a3,100061e4 <strncpy+0x44>
100061cc:	00078713          	mv	a4,a5
100061d0:	00080613          	mv	a2,a6
100061d4:	00158593          	addi	a1,a1,1
100061d8:	00170793          	addi	a5,a4,1
100061dc:	fe0610e3          	bnez	a2,100061bc <strncpy+0x1c>
100061e0:	00008067          	ret
100061e4:	00c70733          	add	a4,a4,a2
100061e8:	04080e63          	beqz	a6,10006244 <strncpy+0xa4>
100061ec:	00178793          	addi	a5,a5,1
100061f0:	fe078fa3          	sb	zero,-1(a5)
100061f4:	fee79ce3          	bne	a5,a4,100061ec <strncpy+0x4c>
100061f8:	00008067          	ret
100061fc:	feff0337          	lui	t1,0xfeff0
10006200:	808088b7          	lui	a7,0x80808
10006204:	eff30313          	addi	t1,t1,-257 # fefefeff <_sp+0xeefdc1df>
10006208:	08088893          	addi	a7,a7,128 # 80808080 <_sp+0x707f4360>
1000620c:	00050713          	mv	a4,a0
10006210:	00300e13          	li	t3,3
10006214:	0005a683          	lw	a3,0(a1)
10006218:	006687b3          	add	a5,a3,t1
1000621c:	fff6c813          	not	a6,a3
10006220:	0107f7b3          	and	a5,a5,a6
10006224:	0117f7b3          	and	a5,a5,a7
10006228:	fa0796e3          	bnez	a5,100061d4 <strncpy+0x34>
1000622c:	ffc60613          	addi	a2,a2,-4
10006230:	00d72023          	sw	a3,0(a4)
10006234:	00470713          	addi	a4,a4,4
10006238:	00458593          	addi	a1,a1,4
1000623c:	fcce6ce3          	bltu	t3,a2,10006214 <strncpy+0x74>
10006240:	f95ff06f          	j	100061d4 <strncpy+0x34>
10006244:	00008067          	ret

10006248 <__localeconv_l>:
10006248:	0f050513          	addi	a0,a0,240
1000624c:	00008067          	ret

10006250 <_localeconv_r>:
10006250:	e4818513          	addi	a0,gp,-440 # 10011920 <__global_locale+0xf0>
10006254:	00008067          	ret

10006258 <localeconv>:
10006258:	e4818513          	addi	a0,gp,-440 # 10011920 <__global_locale+0xf0>
1000625c:	00008067          	ret

10006260 <_sbrk_r>:
10006260:	ff010113          	addi	sp,sp,-16
10006264:	00812423          	sw	s0,8(sp)
10006268:	00912223          	sw	s1,4(sp)
1000626c:	00050493          	mv	s1,a0
10006270:	00058513          	mv	a0,a1
10006274:	00112623          	sw	ra,12(sp)
10006278:	f201ae23          	sw	zero,-196(gp) # 10011a14 <errno>
1000627c:	a2efa0ef          	jal	100004aa <_sbrk>
10006280:	fff00793          	li	a5,-1
10006284:	00f50c63          	beq	a0,a5,1000629c <_sbrk_r+0x3c>
10006288:	00c12083          	lw	ra,12(sp)
1000628c:	00812403          	lw	s0,8(sp)
10006290:	00412483          	lw	s1,4(sp)
10006294:	01010113          	addi	sp,sp,16
10006298:	00008067          	ret
1000629c:	f3c1a783          	lw	a5,-196(gp) # 10011a14 <errno>
100062a0:	fe0784e3          	beqz	a5,10006288 <_sbrk_r+0x28>
100062a4:	00c12083          	lw	ra,12(sp)
100062a8:	00812403          	lw	s0,8(sp)
100062ac:	00f4a023          	sw	a5,0(s1)
100062b0:	00412483          	lw	s1,4(sp)
100062b4:	01010113          	addi	sp,sp,16
100062b8:	00008067          	ret

100062bc <memmove>:
100062bc:	02a5f663          	bgeu	a1,a0,100062e8 <memmove+0x2c>
100062c0:	00c587b3          	add	a5,a1,a2
100062c4:	02f57263          	bgeu	a0,a5,100062e8 <memmove+0x2c>
100062c8:	04060863          	beqz	a2,10006318 <memmove+0x5c>
100062cc:	00c50633          	add	a2,a0,a2
100062d0:	fff7c703          	lbu	a4,-1(a5)
100062d4:	fff60613          	addi	a2,a2,-1
100062d8:	fff78793          	addi	a5,a5,-1
100062dc:	00e60023          	sb	a4,0(a2)
100062e0:	fec518e3          	bne	a0,a2,100062d0 <memmove+0x14>
100062e4:	00008067          	ret
100062e8:	00f00793          	li	a5,15
100062ec:	02c7e863          	bltu	a5,a2,1000631c <memmove+0x60>
100062f0:	00050793          	mv	a5,a0
100062f4:	fff60693          	addi	a3,a2,-1
100062f8:	0e060063          	beqz	a2,100063d8 <memmove+0x11c>
100062fc:	00168693          	addi	a3,a3,1
10006300:	00d786b3          	add	a3,a5,a3
10006304:	0005c703          	lbu	a4,0(a1)
10006308:	00178793          	addi	a5,a5,1
1000630c:	00158593          	addi	a1,a1,1
10006310:	fee78fa3          	sb	a4,-1(a5)
10006314:	fed798e3          	bne	a5,a3,10006304 <memmove+0x48>
10006318:	00008067          	ret
1000631c:	00b567b3          	or	a5,a0,a1
10006320:	0037f793          	andi	a5,a5,3
10006324:	00058893          	mv	a7,a1
10006328:	0a079263          	bnez	a5,100063cc <memmove+0x110>
1000632c:	00465793          	srli	a5,a2,0x4
10006330:	00479813          	slli	a6,a5,0x4
10006334:	01050833          	add	a6,a0,a6
10006338:	fff78793          	addi	a5,a5,-1
1000633c:	00050713          	mv	a4,a0
10006340:	0005a683          	lw	a3,0(a1)
10006344:	01058593          	addi	a1,a1,16
10006348:	01070713          	addi	a4,a4,16
1000634c:	fed72823          	sw	a3,-16(a4)
10006350:	ff45a683          	lw	a3,-12(a1)
10006354:	fed72a23          	sw	a3,-12(a4)
10006358:	ff85a683          	lw	a3,-8(a1)
1000635c:	fed72c23          	sw	a3,-8(a4)
10006360:	ffc5a683          	lw	a3,-4(a1)
10006364:	fed72e23          	sw	a3,-4(a4)
10006368:	fd071ce3          	bne	a4,a6,10006340 <memmove+0x84>
1000636c:	00479793          	slli	a5,a5,0x4
10006370:	01178733          	add	a4,a5,a7
10006374:	01070593          	addi	a1,a4,16
10006378:	00f507b3          	add	a5,a0,a5
1000637c:	00c67813          	andi	a6,a2,12
10006380:	01078793          	addi	a5,a5,16
10006384:	00058e13          	mv	t3,a1
10006388:	00f67693          	andi	a3,a2,15
1000638c:	04080863          	beqz	a6,100063dc <memmove+0x120>
10006390:	ffc68693          	addi	a3,a3,-4
10006394:	ffc6f693          	andi	a3,a3,-4
10006398:	00d70733          	add	a4,a4,a3
1000639c:	01470713          	addi	a4,a4,20
100063a0:	41150833          	sub	a6,a0,a7
100063a4:	0005a303          	lw	t1,0(a1)
100063a8:	010588b3          	add	a7,a1,a6
100063ac:	00458593          	addi	a1,a1,4
100063b0:	0068a023          	sw	t1,0(a7)
100063b4:	fee598e3          	bne	a1,a4,100063a4 <memmove+0xe8>
100063b8:	00468713          	addi	a4,a3,4
100063bc:	01c705b3          	add	a1,a4,t3
100063c0:	00f707b3          	add	a5,a4,a5
100063c4:	00367613          	andi	a2,a2,3
100063c8:	f2dff06f          	j	100062f4 <memmove+0x38>
100063cc:	fff60693          	addi	a3,a2,-1
100063d0:	00050793          	mv	a5,a0
100063d4:	f29ff06f          	j	100062fc <memmove+0x40>
100063d8:	00008067          	ret
100063dc:	00068613          	mv	a2,a3
100063e0:	f15ff06f          	j	100062f4 <memmove+0x38>

100063e4 <memcpy>:
100063e4:	00a5c7b3          	xor	a5,a1,a0
100063e8:	0037f793          	andi	a5,a5,3
100063ec:	00c508b3          	add	a7,a0,a2
100063f0:	06079663          	bnez	a5,1000645c <memcpy+0x78>
100063f4:	00463613          	sltiu	a2,a2,4
100063f8:	06061263          	bnez	a2,1000645c <memcpy+0x78>
100063fc:	00357793          	andi	a5,a0,3
10006400:	00050713          	mv	a4,a0
10006404:	0c079a63          	bnez	a5,100064d8 <memcpy+0xf4>
10006408:	ffc8f613          	andi	a2,a7,-4
1000640c:	40e606b3          	sub	a3,a2,a4
10006410:	02000793          	li	a5,32
10006414:	06d7c463          	blt	a5,a3,1000647c <memcpy+0x98>
10006418:	00058693          	mv	a3,a1
1000641c:	00070793          	mv	a5,a4
10006420:	02c77a63          	bgeu	a4,a2,10006454 <memcpy+0x70>
10006424:	0006a803          	lw	a6,0(a3)
10006428:	00478793          	addi	a5,a5,4
1000642c:	00468693          	addi	a3,a3,4
10006430:	ff07ae23          	sw	a6,-4(a5)
10006434:	fec7e8e3          	bltu	a5,a2,10006424 <memcpy+0x40>
10006438:	fff60613          	addi	a2,a2,-1
1000643c:	40e60633          	sub	a2,a2,a4
10006440:	ffc67613          	andi	a2,a2,-4
10006444:	00458593          	addi	a1,a1,4
10006448:	00470713          	addi	a4,a4,4
1000644c:	00c585b3          	add	a1,a1,a2
10006450:	00c70733          	add	a4,a4,a2
10006454:	01176863          	bltu	a4,a7,10006464 <memcpy+0x80>
10006458:	00008067          	ret
1000645c:	00050713          	mv	a4,a0
10006460:	ff157ce3          	bgeu	a0,a7,10006458 <memcpy+0x74>
10006464:	0005c783          	lbu	a5,0(a1)
10006468:	00170713          	addi	a4,a4,1
1000646c:	00158593          	addi	a1,a1,1
10006470:	fef70fa3          	sb	a5,-1(a4)
10006474:	fee898e3          	bne	a7,a4,10006464 <memcpy+0x80>
10006478:	00008067          	ret
1000647c:	0005a683          	lw	a3,0(a1)
10006480:	0045a283          	lw	t0,4(a1)
10006484:	0085af83          	lw	t6,8(a1)
10006488:	00c5af03          	lw	t5,12(a1)
1000648c:	0105ae83          	lw	t4,16(a1)
10006490:	0145ae03          	lw	t3,20(a1)
10006494:	0185a303          	lw	t1,24(a1)
10006498:	01c5a803          	lw	a6,28(a1)
1000649c:	00d72023          	sw	a3,0(a4)
100064a0:	0205a683          	lw	a3,32(a1)
100064a4:	02470713          	addi	a4,a4,36
100064a8:	fe572023          	sw	t0,-32(a4)
100064ac:	fed72e23          	sw	a3,-4(a4)
100064b0:	fff72223          	sw	t6,-28(a4)
100064b4:	40e606b3          	sub	a3,a2,a4
100064b8:	ffe72423          	sw	t5,-24(a4)
100064bc:	ffd72623          	sw	t4,-20(a4)
100064c0:	ffc72823          	sw	t3,-16(a4)
100064c4:	fe672a23          	sw	t1,-12(a4)
100064c8:	ff072c23          	sw	a6,-8(a4)
100064cc:	02458593          	addi	a1,a1,36
100064d0:	fad7c6e3          	blt	a5,a3,1000647c <memcpy+0x98>
100064d4:	f45ff06f          	j	10006418 <memcpy+0x34>
100064d8:	0005c683          	lbu	a3,0(a1)
100064dc:	00170713          	addi	a4,a4,1
100064e0:	00377793          	andi	a5,a4,3
100064e4:	fed70fa3          	sb	a3,-1(a4)
100064e8:	00158593          	addi	a1,a1,1
100064ec:	f0078ee3          	beqz	a5,10006408 <memcpy+0x24>
100064f0:	0005c683          	lbu	a3,0(a1)
100064f4:	00170713          	addi	a4,a4,1
100064f8:	00377793          	andi	a5,a4,3
100064fc:	fed70fa3          	sb	a3,-1(a4)
10006500:	00158593          	addi	a1,a1,1
10006504:	fc079ae3          	bnez	a5,100064d8 <memcpy+0xf4>
10006508:	f01ff06f          	j	10006408 <memcpy+0x24>

1000650c <frexpl>:
1000650c:	00c5a703          	lw	a4,12(a1)
10006510:	f9010113          	addi	sp,sp,-112
10006514:	0005a883          	lw	a7,0(a1)
10006518:	0045a803          	lw	a6,4(a1)
1000651c:	0085a683          	lw	a3,8(a1)
10006520:	06912223          	sw	s1,100(sp)
10006524:	000084b7          	lui	s1,0x8
10006528:	06812423          	sw	s0,104(sp)
1000652c:	06112623          	sw	ra,108(sp)
10006530:	01075793          	srli	a5,a4,0x10
10006534:	fff48493          	addi	s1,s1,-1 # 7fff <__heap_size+0x6fff>
10006538:	00062023          	sw	zero,0(a2)
1000653c:	04e12e23          	sw	a4,92(sp)
10006540:	0097f7b3          	and	a5,a5,s1
10006544:	05112823          	sw	a7,80(sp)
10006548:	05012a23          	sw	a6,84(sp)
1000654c:	04d12c23          	sw	a3,88(sp)
10006550:	00050413          	mv	s0,a0
10006554:	10978463          	beq	a5,s1,1000665c <frexpl+0x150>
10006558:	04010513          	addi	a0,sp,64
1000655c:	03010593          	addi	a1,sp,48
10006560:	07212023          	sw	s2,96(sp)
10006564:	05112023          	sw	a7,64(sp)
10006568:	01112c23          	sw	a7,24(sp)
1000656c:	05012223          	sw	a6,68(sp)
10006570:	01012a23          	sw	a6,20(sp)
10006574:	04d12423          	sw	a3,72(sp)
10006578:	00d12823          	sw	a3,16(sp)
1000657c:	04e12623          	sw	a4,76(sp)
10006580:	00e12623          	sw	a4,12(sp)
10006584:	00060913          	mv	s2,a2
10006588:	02012823          	sw	zero,48(sp)
1000658c:	02012a23          	sw	zero,52(sp)
10006590:	02012c23          	sw	zero,56(sp)
10006594:	02012e23          	sw	zero,60(sp)
10006598:	00f12e23          	sw	a5,28(sp)
1000659c:	165070ef          	jal	1000df00 <__eqtf2>
100065a0:	00c12703          	lw	a4,12(sp)
100065a4:	01012683          	lw	a3,16(sp)
100065a8:	01412803          	lw	a6,20(sp)
100065ac:	01812883          	lw	a7,24(sp)
100065b0:	0c050a63          	beqz	a0,10006684 <frexpl+0x178>
100065b4:	01c12783          	lw	a5,28(sp)
100065b8:	00000593          	li	a1,0
100065bc:	06079263          	bnez	a5,10006620 <frexpl+0x114>
100065c0:	407107b7          	lui	a5,0x40710
100065c4:	03010593          	addi	a1,sp,48
100065c8:	02010613          	addi	a2,sp,32
100065cc:	04010513          	addi	a0,sp,64
100065d0:	02d12c23          	sw	a3,56(sp)
100065d4:	02e12e23          	sw	a4,60(sp)
100065d8:	02f12623          	sw	a5,44(sp)
100065dc:	03112823          	sw	a7,48(sp)
100065e0:	03012a23          	sw	a6,52(sp)
100065e4:	02012023          	sw	zero,32(sp)
100065e8:	02012223          	sw	zero,36(sp)
100065ec:	02012423          	sw	zero,40(sp)
100065f0:	469070ef          	jal	1000e258 <__multf3>
100065f4:	04c12703          	lw	a4,76(sp)
100065f8:	04012583          	lw	a1,64(sp)
100065fc:	04412603          	lw	a2,68(sp)
10006600:	04812683          	lw	a3,72(sp)
10006604:	01075793          	srli	a5,a4,0x10
10006608:	04b12823          	sw	a1,80(sp)
1000660c:	04c12a23          	sw	a2,84(sp)
10006610:	04d12c23          	sw	a3,88(sp)
10006614:	04e12e23          	sw	a4,92(sp)
10006618:	0097f7b3          	and	a5,a5,s1
1000661c:	f8e00593          	li	a1,-114
10006620:	ffffc6b7          	lui	a3,0xffffc
10006624:	00268693          	addi	a3,a3,2 # ffffc002 <_sp+0xeffe82e2>
10006628:	05c12703          	lw	a4,92(sp)
1000662c:	00d787b3          	add	a5,a5,a3
10006630:	80010637          	lui	a2,0x80010
10006634:	00b787b3          	add	a5,a5,a1
10006638:	fff60613          	addi	a2,a2,-1 # 8000ffff <_sp+0x6fffc2df>
1000663c:	00f92023          	sw	a5,0(s2)
10006640:	05012883          	lw	a7,80(sp)
10006644:	05412803          	lw	a6,84(sp)
10006648:	05812683          	lw	a3,88(sp)
1000664c:	06012903          	lw	s2,96(sp)
10006650:	00c77733          	and	a4,a4,a2
10006654:	3ffe0637          	lui	a2,0x3ffe0
10006658:	00c76733          	or	a4,a4,a2
1000665c:	06c12083          	lw	ra,108(sp)
10006660:	01142023          	sw	a7,0(s0)
10006664:	01042223          	sw	a6,4(s0)
10006668:	00d42423          	sw	a3,8(s0)
1000666c:	00e42623          	sw	a4,12(s0)
10006670:	00040513          	mv	a0,s0
10006674:	06812403          	lw	s0,104(sp)
10006678:	06412483          	lw	s1,100(sp)
1000667c:	07010113          	addi	sp,sp,112
10006680:	00008067          	ret
10006684:	06012903          	lw	s2,96(sp)
10006688:	fd5ff06f          	j	1000665c <frexpl+0x150>

1000668c <_ldtoa_r>:
1000668c:	100118b7          	lui	a7,0x10011
10006690:	dcc88893          	addi	a7,a7,-564 # 10010dcc <blanks.1+0x10>
10006694:	0088a303          	lw	t1,8(a7)
10006698:	f5010113          	addi	sp,sp,-176
1000669c:	0008ae83          	lw	t4,0(a7)
100066a0:	0048ae03          	lw	t3,4(a7)
100066a4:	06612223          	sw	t1,100(sp)
100066a8:	00c8a303          	lw	t1,12(a7)
100066ac:	0108a883          	lw	a7,16(a7)
100066b0:	0a812423          	sw	s0,168(sp)
100066b4:	0a912223          	sw	s1,164(sp)
100066b8:	07112623          	sw	a7,108(sp)
100066bc:	03852883          	lw	a7,56(a0)
100066c0:	0b212023          	sw	s2,160(sp)
100066c4:	09312e23          	sw	s3,156(sp)
100066c8:	09412c23          	sw	s4,152(sp)
100066cc:	09512a23          	sw	s5,148(sp)
100066d0:	09612823          	sw	s6,144(sp)
100066d4:	09a12023          	sw	s10,128(sp)
100066d8:	07b12e23          	sw	s11,124(sp)
100066dc:	0a112623          	sw	ra,172(sp)
100066e0:	09712623          	sw	s7,140(sp)
100066e4:	09812423          	sw	s8,136(sp)
100066e8:	09912223          	sw	s9,132(sp)
100066ec:	05d12e23          	sw	t4,92(sp)
100066f0:	07c12023          	sw	t3,96(sp)
100066f4:	06612423          	sw	t1,104(sp)
100066f8:	01012e23          	sw	a6,28(sp)
100066fc:	0005a983          	lw	s3,0(a1)
10006700:	0045a903          	lw	s2,4(a1)
10006704:	0085a483          	lw	s1,8(a1)
10006708:	00c5aa03          	lw	s4,12(a1)
1000670c:	00050a93          	mv	s5,a0
10006710:	00060d13          	mv	s10,a2
10006714:	00068d93          	mv	s11,a3
10006718:	00070b13          	mv	s6,a4
1000671c:	00078413          	mv	s0,a5
10006720:	00088863          	beqz	a7,10006730 <_ldtoa_r+0xa4>
10006724:	00088593          	mv	a1,a7
10006728:	094020ef          	jal	100087bc <__freedtoa>
1000672c:	020aac23          	sw	zero,56(s5)
10006730:	06812703          	lw	a4,104(sp)
10006734:	01fa5693          	srli	a3,s4,0x1f
10006738:	00d42023          	sw	a3,0(s0)
1000673c:	40175793          	srai	a5,a4,0x1
10006740:	00d7f7b3          	and	a5,a5,a3
10006744:	00e7c7b3          	xor	a5,a5,a4
10006748:	06f12423          	sw	a5,104(sp)
1000674c:	001a1413          	slli	s0,s4,0x1
10006750:	010a1b93          	slli	s7,s4,0x10
10006754:	ffffc7b7          	lui	a5,0xffffc
10006758:	001a1713          	slli	a4,s4,0x1
1000675c:	00145413          	srli	s0,s0,0x1
10006760:	010bdb93          	srli	s7,s7,0x10
10006764:	f9178793          	addi	a5,a5,-111 # ffffbf91 <_sp+0xeffe8271>
10006768:	01175c13          	srli	s8,a4,0x11
1000676c:	03010513          	addi	a0,sp,48
10006770:	02010593          	addi	a1,sp,32
10006774:	03312823          	sw	s3,48(sp)
10006778:	03212a23          	sw	s2,52(sp)
1000677c:	02912c23          	sw	s1,56(sp)
10006780:	03312023          	sw	s3,32(sp)
10006784:	03212223          	sw	s2,36(sp)
10006788:	02912423          	sw	s1,40(sp)
1000678c:	02812e23          	sw	s0,60(sp)
10006790:	02812623          	sw	s0,44(sp)
10006794:	05312623          	sw	s3,76(sp)
10006798:	05212823          	sw	s2,80(sp)
1000679c:	04912a23          	sw	s1,84(sp)
100067a0:	00fc0cb3          	add	s9,s8,a5
100067a4:	05712c23          	sw	s7,88(sp)
100067a8:	509090ef          	jal	100104b0 <__unordtf2>
100067ac:	16051063          	bnez	a0,1000690c <_ldtoa_r+0x280>
100067b0:	7fff0737          	lui	a4,0x7fff0
100067b4:	fff00793          	li	a5,-1
100067b8:	fff70713          	addi	a4,a4,-1 # 7ffeffff <_sp+0x6ffdc2df>
100067bc:	02010593          	addi	a1,sp,32
100067c0:	03010513          	addi	a0,sp,48
100067c4:	02e12623          	sw	a4,44(sp)
100067c8:	02f12023          	sw	a5,32(sp)
100067cc:	02f12223          	sw	a5,36(sp)
100067d0:	02f12423          	sw	a5,40(sp)
100067d4:	4dd090ef          	jal	100104b0 <__unordtf2>
100067d8:	08051e63          	bnez	a0,10006874 <_ldtoa_r+0x1e8>
100067dc:	02010593          	addi	a1,sp,32
100067e0:	03010513          	addi	a0,sp,48
100067e4:	141070ef          	jal	1000e124 <__letf2>
100067e8:	08a05663          	blez	a0,10006874 <_ldtoa_r+0x1e8>
100067ec:	00300793          	li	a5,3
100067f0:	04f12423          	sw	a5,72(sp)
100067f4:	01c12783          	lw	a5,28(sp)
100067f8:	04810713          	addi	a4,sp,72
100067fc:	000d8813          	mv	a6,s11
10006800:	00f12023          	sw	a5,0(sp)
10006804:	000c8613          	mv	a2,s9
10006808:	000d0793          	mv	a5,s10
1000680c:	000a8513          	mv	a0,s5
10006810:	000b0893          	mv	a7,s6
10006814:	04c10693          	addi	a3,sp,76
10006818:	05c10593          	addi	a1,sp,92
1000681c:	1f4000ef          	jal	10006a10 <__gdtoa>
10006820:	000b2703          	lw	a4,0(s6)
10006824:	ffff87b7          	lui	a5,0xffff8
10006828:	00f71863          	bne	a4,a5,10006838 <_ldtoa_r+0x1ac>
1000682c:	800007b7          	lui	a5,0x80000
10006830:	fff78793          	addi	a5,a5,-1 # 7fffffff <_sp+0x6ffec2df>
10006834:	00fb2023          	sw	a5,0(s6)
10006838:	0ac12083          	lw	ra,172(sp)
1000683c:	0a812403          	lw	s0,168(sp)
10006840:	0a412483          	lw	s1,164(sp)
10006844:	0a012903          	lw	s2,160(sp)
10006848:	09c12983          	lw	s3,156(sp)
1000684c:	09812a03          	lw	s4,152(sp)
10006850:	09412a83          	lw	s5,148(sp)
10006854:	09012b03          	lw	s6,144(sp)
10006858:	08c12b83          	lw	s7,140(sp)
1000685c:	08812c03          	lw	s8,136(sp)
10006860:	08412c83          	lw	s9,132(sp)
10006864:	08012d03          	lw	s10,128(sp)
10006868:	07c12d83          	lw	s11,124(sp)
1000686c:	0b010113          	addi	sp,sp,176
10006870:	00008067          	ret
10006874:	02812e23          	sw	s0,60(sp)
10006878:	02010593          	addi	a1,sp,32
1000687c:	00010437          	lui	s0,0x10
10006880:	03010513          	addi	a0,sp,48
10006884:	03312823          	sw	s3,48(sp)
10006888:	03212a23          	sw	s2,52(sp)
1000688c:	02912c23          	sw	s1,56(sp)
10006890:	02012023          	sw	zero,32(sp)
10006894:	02012223          	sw	zero,36(sp)
10006898:	02012423          	sw	zero,40(sp)
1000689c:	02812623          	sw	s0,44(sp)
100068a0:	750070ef          	jal	1000dff0 <__getf2>
100068a4:	00054c63          	bltz	a0,100068bc <_ldtoa_r+0x230>
100068a8:	008bebb3          	or	s7,s7,s0
100068ac:	00100793          	li	a5,1
100068b0:	05712c23          	sw	s7,88(sp)
100068b4:	04f12423          	sw	a5,72(sp)
100068b8:	f3dff06f          	j	100067f4 <_ldtoa_r+0x168>
100068bc:	02010593          	addi	a1,sp,32
100068c0:	03010513          	addi	a0,sp,48
100068c4:	03312823          	sw	s3,48(sp)
100068c8:	03212a23          	sw	s2,52(sp)
100068cc:	02912c23          	sw	s1,56(sp)
100068d0:	03412e23          	sw	s4,60(sp)
100068d4:	02012023          	sw	zero,32(sp)
100068d8:	02012223          	sw	zero,36(sp)
100068dc:	02012423          	sw	zero,40(sp)
100068e0:	02012623          	sw	zero,44(sp)
100068e4:	61c070ef          	jal	1000df00 <__eqtf2>
100068e8:	00051663          	bnez	a0,100068f4 <_ldtoa_r+0x268>
100068ec:	04012423          	sw	zero,72(sp)
100068f0:	f05ff06f          	j	100067f4 <_ldtoa_r+0x168>
100068f4:	ffffc7b7          	lui	a5,0xffffc
100068f8:	f9278793          	addi	a5,a5,-110 # ffffbf92 <_sp+0xeffe8272>
100068fc:	00200713          	li	a4,2
10006900:	00fc0cb3          	add	s9,s8,a5
10006904:	04e12423          	sw	a4,72(sp)
10006908:	eedff06f          	j	100067f4 <_ldtoa_r+0x168>
1000690c:	00400793          	li	a5,4
10006910:	04f12423          	sw	a5,72(sp)
10006914:	ee1ff06f          	j	100067f4 <_ldtoa_r+0x168>

10006918 <_ldcheck>:
10006918:	fc010113          	addi	sp,sp,-64
1000691c:	02812c23          	sw	s0,56(sp)
10006920:	00c52403          	lw	s0,12(a0)
10006924:	03212823          	sw	s2,48(sp)
10006928:	03312623          	sw	s3,44(sp)
1000692c:	00852903          	lw	s2,8(a0)
10006930:	00452983          	lw	s3,4(a0)
10006934:	03412423          	sw	s4,40(sp)
10006938:	00052a03          	lw	s4,0(a0)
1000693c:	00141413          	slli	s0,s0,0x1
10006940:	00145413          	srli	s0,s0,0x1
10006944:	01010513          	addi	a0,sp,16
10006948:	00010593          	mv	a1,sp
1000694c:	02112e23          	sw	ra,60(sp)
10006950:	00812e23          	sw	s0,28(sp)
10006954:	00812623          	sw	s0,12(sp)
10006958:	01412823          	sw	s4,16(sp)
1000695c:	01412023          	sw	s4,0(sp)
10006960:	01312a23          	sw	s3,20(sp)
10006964:	01312223          	sw	s3,4(sp)
10006968:	01212c23          	sw	s2,24(sp)
1000696c:	01212423          	sw	s2,8(sp)
10006970:	341090ef          	jal	100104b0 <__unordtf2>
10006974:	06051e63          	bnez	a0,100069f0 <_ldcheck+0xd8>
10006978:	7fff0737          	lui	a4,0x7fff0
1000697c:	fff00793          	li	a5,-1
10006980:	fff70713          	addi	a4,a4,-1 # 7ffeffff <_sp+0x6ffdc2df>
10006984:	00010593          	mv	a1,sp
10006988:	01010513          	addi	a0,sp,16
1000698c:	02912a23          	sw	s1,52(sp)
10006990:	00e12623          	sw	a4,12(sp)
10006994:	00f12023          	sw	a5,0(sp)
10006998:	00f12223          	sw	a5,4(sp)
1000699c:	00f12423          	sw	a5,8(sp)
100069a0:	00100493          	li	s1,1
100069a4:	30d090ef          	jal	100104b0 <__unordtf2>
100069a8:	02050863          	beqz	a0,100069d8 <_ldcheck+0xc0>
100069ac:	03c12083          	lw	ra,60(sp)
100069b0:	03812403          	lw	s0,56(sp)
100069b4:	0014c513          	xori	a0,s1,1
100069b8:	0ff57513          	zext.b	a0,a0
100069bc:	03412483          	lw	s1,52(sp)
100069c0:	03012903          	lw	s2,48(sp)
100069c4:	02c12983          	lw	s3,44(sp)
100069c8:	02812a03          	lw	s4,40(sp)
100069cc:	00151513          	slli	a0,a0,0x1
100069d0:	04010113          	addi	sp,sp,64
100069d4:	00008067          	ret
100069d8:	00010593          	mv	a1,sp
100069dc:	01010513          	addi	a0,sp,16
100069e0:	744070ef          	jal	1000e124 <__letf2>
100069e4:	fca054e3          	blez	a0,100069ac <_ldcheck+0x94>
100069e8:	00000493          	li	s1,0
100069ec:	fc1ff06f          	j	100069ac <_ldcheck+0x94>
100069f0:	03c12083          	lw	ra,60(sp)
100069f4:	03812403          	lw	s0,56(sp)
100069f8:	03012903          	lw	s2,48(sp)
100069fc:	02c12983          	lw	s3,44(sp)
10006a00:	02812a03          	lw	s4,40(sp)
10006a04:	00100513          	li	a0,1
10006a08:	04010113          	addi	sp,sp,64
10006a0c:	00008067          	ret

10006a10 <__gdtoa>:
10006a10:	f3010113          	addi	sp,sp,-208
10006a14:	0b312e23          	sw	s3,188(sp)
10006a18:	00072983          	lw	s3,0(a4)
10006a1c:	0b912223          	sw	s9,164(sp)
10006a20:	0c112623          	sw	ra,204(sp)
10006a24:	fcf9f313          	andi	t1,s3,-49
10006a28:	00672023          	sw	t1,0(a4)
10006a2c:	00300e13          	li	t3,3
10006a30:	00f9f313          	andi	t1,s3,15
10006a34:	00f12023          	sw	a5,0(sp)
10006a38:	01012423          	sw	a6,8(sp)
10006a3c:	0d012c83          	lw	s9,208(sp)
10006a40:	3bc30263          	beq	t1,t3,10006de4 <__gdtoa+0x3d4>
10006a44:	0ba12023          	sw	s10,160(sp)
10006a48:	00c9f813          	andi	a6,s3,12
10006a4c:	00080d13          	mv	s10,a6
10006a50:	2c081a63          	bnez	a6,10006d24 <__gdtoa+0x314>
10006a54:	09b12e23          	sw	s11,156(sp)
10006a58:	01112e23          	sw	a7,28(sp)
10006a5c:	00d12a23          	sw	a3,20(sp)
10006a60:	02c12023          	sw	a2,32(sp)
10006a64:	02b12623          	sw	a1,44(sp)
10006a68:	02e12423          	sw	a4,40(sp)
10006a6c:	00050d93          	mv	s11,a0
10006a70:	32030863          	beqz	t1,10006da0 <__gdtoa+0x390>
10006a74:	0d212023          	sw	s2,192(sp)
10006a78:	0005a903          	lw	s2,0(a1)
10006a7c:	0c812423          	sw	s0,200(sp)
10006a80:	02000793          	li	a5,32
10006a84:	00000593          	li	a1,0
10006a88:	0127d863          	bge	a5,s2,10006a98 <__gdtoa+0x88>
10006a8c:	00179793          	slli	a5,a5,0x1
10006a90:	00158593          	addi	a1,a1,1
10006a94:	ff27cce3          	blt	a5,s2,10006a8c <__gdtoa+0x7c>
10006a98:	000d8513          	mv	a0,s11
10006a9c:	090020ef          	jal	10008b2c <_Balloc>
10006aa0:	00050413          	mv	s0,a0
10006aa4:	2a050c63          	beqz	a0,10006d5c <__gdtoa+0x34c>
10006aa8:	01412703          	lw	a4,20(sp)
10006aac:	fff90793          	addi	a5,s2,-1
10006ab0:	4057d793          	srai	a5,a5,0x5
10006ab4:	00279793          	slli	a5,a5,0x2
10006ab8:	0c912223          	sw	s1,196(sp)
10006abc:	00f705b3          	add	a1,a4,a5
10006ac0:	01450693          	addi	a3,a0,20
10006ac4:	00072603          	lw	a2,0(a4)
10006ac8:	00470713          	addi	a4,a4,4
10006acc:	00468693          	addi	a3,a3,4
10006ad0:	fec6ae23          	sw	a2,-4(a3)
10006ad4:	fee5f8e3          	bgeu	a1,a4,10006ac4 <__gdtoa+0xb4>
10006ad8:	01412703          	lw	a4,20(sp)
10006adc:	00158593          	addi	a1,a1,1
10006ae0:	00170713          	addi	a4,a4,1
10006ae4:	00e5b5b3          	sltu	a1,a1,a4
10006ae8:	fff58593          	addi	a1,a1,-1
10006aec:	00b7f7b3          	and	a5,a5,a1
10006af0:	00478793          	addi	a5,a5,4
10006af4:	4027d493          	srai	s1,a5,0x2
10006af8:	00f407b3          	add	a5,s0,a5
10006afc:	00c0006f          	j	10006b08 <__gdtoa+0xf8>
10006b00:	ffc78793          	addi	a5,a5,-4
10006b04:	30048663          	beqz	s1,10006e10 <__gdtoa+0x400>
10006b08:	0107a703          	lw	a4,16(a5)
10006b0c:	00048693          	mv	a3,s1
10006b10:	fff48493          	addi	s1,s1,-1
10006b14:	fe0706e3          	beqz	a4,10006b00 <__gdtoa+0xf0>
10006b18:	00249793          	slli	a5,s1,0x2
10006b1c:	00f407b3          	add	a5,s0,a5
10006b20:	0147a503          	lw	a0,20(a5)
10006b24:	00d42823          	sw	a3,16(s0) # 10010 <__heap_size+0xf010>
10006b28:	00d12c23          	sw	a3,24(sp)
10006b2c:	368020ef          	jal	10008e94 <__hi0bits>
10006b30:	01812683          	lw	a3,24(sp)
10006b34:	00569693          	slli	a3,a3,0x5
10006b38:	40a684b3          	sub	s1,a3,a0
10006b3c:	00040513          	mv	a0,s0
10006b40:	781010ef          	jal	10008ac0 <__trailz_D2A>
10006b44:	02012783          	lw	a5,32(sp)
10006b48:	08a12623          	sw	a0,140(sp)
10006b4c:	02f12a23          	sw	a5,52(sp)
10006b50:	6c051063          	bnez	a0,10007210 <__gdtoa+0x800>
10006b54:	01042783          	lw	a5,16(s0)
10006b58:	22078863          	beqz	a5,10006d88 <__gdtoa+0x378>
10006b5c:	08c10593          	addi	a1,sp,140
10006b60:	00040513          	mv	a0,s0
10006b64:	0b512a23          	sw	s5,180(sp)
10006b68:	0b612823          	sw	s6,176(sp)
10006b6c:	0b712623          	sw	s7,172(sp)
10006b70:	0b812423          	sw	s8,168(sp)
10006b74:	0b412c23          	sw	s4,184(sp)
10006b78:	5c5020ef          	jal	1000993c <__b2d>
10006b7c:	00c59793          	slli	a5,a1,0xc
10006b80:	00c7d793          	srli	a5,a5,0xc
10006b84:	3ff00737          	lui	a4,0x3ff00
10006b88:	00e7e733          	or	a4,a5,a4
10006b8c:	03412803          	lw	a6,52(sp)
10006b90:	ec81a603          	lw	a2,-312(gp) # 100119a0 <__SDATA_BEGIN__>
10006b94:	ecc1a683          	lw	a3,-308(gp) # 100119a4 <__SDATA_BEGIN__+0x4>
10006b98:	00980833          	add	a6,a6,s1
10006b9c:	00050893          	mv	a7,a0
10006ba0:	00070593          	mv	a1,a4
10006ba4:	fff80b93          	addi	s7,a6,-1
10006ba8:	02e12223          	sw	a4,36(sp)
10006bac:	00080c13          	mv	s8,a6
10006bb0:	05112823          	sw	a7,80(sp)
10006bb4:	04a12023          	sw	a0,64(sp)
10006bb8:	2cd060ef          	jal	1000d684 <__subdf3>
10006bbc:	ed01a603          	lw	a2,-304(gp) # 100119a8 <__SDATA_BEGIN__+0x8>
10006bc0:	ed41a683          	lw	a3,-300(gp) # 100119ac <__SDATA_BEGIN__+0xc>
10006bc4:	4d8060ef          	jal	1000d09c <__muldf3>
10006bc8:	ed81a603          	lw	a2,-296(gp) # 100119b0 <__SDATA_BEGIN__+0x10>
10006bcc:	edc1a683          	lw	a3,-292(gp) # 100119b4 <__SDATA_BEGIN__+0x14>
10006bd0:	494050ef          	jal	1000c064 <__adddf3>
10006bd4:	00050a93          	mv	s5,a0
10006bd8:	000b8513          	mv	a0,s7
10006bdc:	00058b13          	mv	s6,a1
10006be0:	280070ef          	jal	1000de60 <__floatsidf>
10006be4:	ee01a603          	lw	a2,-288(gp) # 100119b8 <__SDATA_BEGIN__+0x18>
10006be8:	ee41a683          	lw	a3,-284(gp) # 100119bc <__SDATA_BEGIN__+0x1c>
10006bec:	4b0060ef          	jal	1000d09c <__muldf3>
10006bf0:	00050613          	mv	a2,a0
10006bf4:	00058693          	mv	a3,a1
10006bf8:	000a8513          	mv	a0,s5
10006bfc:	000b0593          	mv	a1,s6
10006c00:	464050ef          	jal	1000c064 <__adddf3>
10006c04:	00050a93          	mv	s5,a0
10006c08:	00058b13          	mv	s6,a1
10006c0c:	000b8513          	mv	a0,s7
10006c10:	000bd663          	bgez	s7,10006c1c <__gdtoa+0x20c>
10006c14:	00100513          	li	a0,1
10006c18:	41850533          	sub	a0,a0,s8
10006c1c:	bcb50513          	addi	a0,a0,-1077
10006c20:	02a05863          	blez	a0,10006c50 <__gdtoa+0x240>
10006c24:	23c070ef          	jal	1000de60 <__floatsidf>
10006c28:	ee81a603          	lw	a2,-280(gp) # 100119c0 <__SDATA_BEGIN__+0x20>
10006c2c:	eec1a683          	lw	a3,-276(gp) # 100119c4 <__SDATA_BEGIN__+0x24>
10006c30:	46c060ef          	jal	1000d09c <__muldf3>
10006c34:	00050613          	mv	a2,a0
10006c38:	00058693          	mv	a3,a1
10006c3c:	000a8513          	mv	a0,s5
10006c40:	000b0593          	mv	a1,s6
10006c44:	420050ef          	jal	1000c064 <__adddf3>
10006c48:	00050a93          	mv	s5,a0
10006c4c:	00058b13          	mv	s6,a1
10006c50:	000b0593          	mv	a1,s6
10006c54:	000a8513          	mv	a0,s5
10006c58:	18c070ef          	jal	1000dde4 <__fixdfsi>
10006c5c:	000b0a13          	mv	s4,s6
10006c60:	000a0593          	mv	a1,s4
10006c64:	00050b13          	mv	s6,a0
10006c68:	00000613          	li	a2,0
10006c6c:	000a8513          	mv	a0,s5
10006c70:	00000693          	li	a3,0
10006c74:	01612c23          	sw	s6,24(sp)
10006c78:	34c060ef          	jal	1000cfc4 <__ledf2>
10006c7c:	02055263          	bgez	a0,10006ca0 <__gdtoa+0x290>
10006c80:	000b0513          	mv	a0,s6
10006c84:	1dc070ef          	jal	1000de60 <__floatsidf>
10006c88:	000a8613          	mv	a2,s5
10006c8c:	000a0693          	mv	a3,s4
10006c90:	1d8060ef          	jal	1000ce68 <__eqdf2>
10006c94:	00a03533          	snez	a0,a0
10006c98:	40ab07b3          	sub	a5,s6,a0
10006c9c:	00f12c23          	sw	a5,24(sp)
10006ca0:	02412703          	lw	a4,36(sp)
10006ca4:	014b9793          	slli	a5,s7,0x14
10006ca8:	00e78a33          	add	s4,a5,a4
10006cac:	41748733          	sub	a4,s1,s7
10006cb0:	fff70693          	addi	a3,a4,-1 # 3fefffff <_sp+0x2feec2df>
10006cb4:	02d12823          	sw	a3,48(sp)
10006cb8:	01812683          	lw	a3,24(sp)
10006cbc:	01600793          	li	a5,22
10006cc0:	14d7ec63          	bltu	a5,a3,10006e18 <__gdtoa+0x408>
10006cc4:	01812783          	lw	a5,24(sp)
10006cc8:	10011837          	lui	a6,0x10011
10006ccc:	e4080893          	addi	a7,a6,-448 # 10010e40 <__mprec_tens>
10006cd0:	00379793          	slli	a5,a5,0x3
10006cd4:	00f887b3          	add	a5,a7,a5
10006cd8:	04012603          	lw	a2,64(sp)
10006cdc:	0007a503          	lw	a0,0(a5)
10006ce0:	0047a583          	lw	a1,4(a5)
10006ce4:	000a0693          	mv	a3,s4
10006ce8:	02e12223          	sw	a4,36(sp)
10006cec:	200060ef          	jal	1000ceec <__gedf2>
10006cf0:	02412703          	lw	a4,36(sp)
10006cf4:	56a04863          	bgtz	a0,10007264 <__gdtoa+0x854>
10006cf8:	00e04463          	bgtz	a4,10006d00 <__gdtoa+0x2f0>
10006cfc:	0d40106f          	j	10007dd0 <__gdtoa+0x13c0>
10006d00:	03012783          	lw	a5,48(sp)
10006d04:	01812703          	lw	a4,24(sp)
10006d08:	04012623          	sw	zero,76(sp)
10006d0c:	02012c23          	sw	zero,56(sp)
10006d10:	00e787b3          	add	a5,a5,a4
10006d14:	02f12823          	sw	a5,48(sp)
10006d18:	04e12223          	sw	a4,68(sp)
10006d1c:	02012e23          	sw	zero,60(sp)
10006d20:	1300006f          	j	10006e50 <__gdtoa+0x440>
10006d24:	00400793          	li	a5,4
10006d28:	04f31063          	bne	t1,a5,10006d68 <__gdtoa+0x358>
10006d2c:	0a012d03          	lw	s10,160(sp)
10006d30:	0cc12083          	lw	ra,204(sp)
10006d34:	0bc12983          	lw	s3,188(sp)
10006d38:	ffff87b7          	lui	a5,0xffff8
10006d3c:	000c8613          	mv	a2,s9
10006d40:	0a412c83          	lw	s9,164(sp)
10006d44:	100115b7          	lui	a1,0x10011
10006d48:	00f8a023          	sw	a5,0(a7)
10006d4c:	000e0693          	mv	a3,t3
10006d50:	b4058593          	addi	a1,a1,-1216 # 10010b40 <__clzsi2+0x1cc>
10006d54:	0d010113          	addi	sp,sp,208
10006d58:	1b10106f          	j	10008708 <__nrv_alloc_D2A>
10006d5c:	0c812403          	lw	s0,200(sp)
10006d60:	0c012903          	lw	s2,192(sp)
10006d64:	09c12d83          	lw	s11,156(sp)
10006d68:	00000793          	li	a5,0
10006d6c:	0cc12083          	lw	ra,204(sp)
10006d70:	0a012d03          	lw	s10,160(sp)
10006d74:	0bc12983          	lw	s3,188(sp)
10006d78:	0a412c83          	lw	s9,164(sp)
10006d7c:	00078513          	mv	a0,a5
10006d80:	0d010113          	addi	sp,sp,208
10006d84:	00008067          	ret
10006d88:	00040593          	mv	a1,s0
10006d8c:	000d8513          	mv	a0,s11
10006d90:	649010ef          	jal	10008bd8 <_Bfree>
10006d94:	0c812403          	lw	s0,200(sp)
10006d98:	0c412483          	lw	s1,196(sp)
10006d9c:	0c012903          	lw	s2,192(sp)
10006da0:	01c12783          	lw	a5,28(sp)
10006da4:	00100693          	li	a3,1
10006da8:	100115b7          	lui	a1,0x10011
10006dac:	000c8613          	mv	a2,s9
10006db0:	000d8513          	mv	a0,s11
10006db4:	00d7a023          	sw	a3,0(a5) # ffff8000 <_sp+0xeffe42e0>
10006db8:	b3058593          	addi	a1,a1,-1232 # 10010b30 <__clzsi2+0x1bc>
10006dbc:	14d010ef          	jal	10008708 <__nrv_alloc_D2A>
10006dc0:	0cc12083          	lw	ra,204(sp)
10006dc4:	00050793          	mv	a5,a0
10006dc8:	09c12d83          	lw	s11,156(sp)
10006dcc:	0a012d03          	lw	s10,160(sp)
10006dd0:	0bc12983          	lw	s3,188(sp)
10006dd4:	0a412c83          	lw	s9,164(sp)
10006dd8:	00078513          	mv	a0,a5
10006ddc:	0d010113          	addi	sp,sp,208
10006de0:	00008067          	ret
10006de4:	0cc12083          	lw	ra,204(sp)
10006de8:	0bc12983          	lw	s3,188(sp)
10006dec:	ffff87b7          	lui	a5,0xffff8
10006df0:	000c8613          	mv	a2,s9
10006df4:	0a412c83          	lw	s9,164(sp)
10006df8:	100115b7          	lui	a1,0x10011
10006dfc:	00f8a023          	sw	a5,0(a7)
10006e00:	b3458593          	addi	a1,a1,-1228 # 10010b34 <__clzsi2+0x1c0>
10006e04:	00800693          	li	a3,8
10006e08:	0d010113          	addi	sp,sp,208
10006e0c:	0fd0106f          	j	10008708 <__nrv_alloc_D2A>
10006e10:	00042823          	sw	zero,16(s0)
10006e14:	d29ff06f          	j	10006b3c <__gdtoa+0x12c>
10006e18:	00100793          	li	a5,1
10006e1c:	04f12623          	sw	a5,76(sp)
10006e20:	03012783          	lw	a5,48(sp)
10006e24:	02012c23          	sw	zero,56(sp)
10006e28:	4207c463          	bltz	a5,10007250 <__gdtoa+0x840>
10006e2c:	01812783          	lw	a5,24(sp)
10006e30:	4007d263          	bgez	a5,10007234 <__gdtoa+0x824>
10006e34:	03812783          	lw	a5,56(sp)
10006e38:	01812703          	lw	a4,24(sp)
10006e3c:	04012223          	sw	zero,68(sp)
10006e40:	40e787b3          	sub	a5,a5,a4
10006e44:	02f12c23          	sw	a5,56(sp)
10006e48:	40e007b3          	neg	a5,a4
10006e4c:	02f12e23          	sw	a5,60(sp)
10006e50:	00012703          	lw	a4,0(sp)
10006e54:	00900793          	li	a5,9
10006e58:	56e7ea63          	bltu	a5,a4,100073cc <__gdtoa+0x9bc>
10006e5c:	00012783          	lw	a5,0(sp)
10006e60:	00500713          	li	a4,5
10006e64:	0af752e3          	bge	a4,a5,10007708 <__gdtoa+0xcf8>
10006e68:	ffc78793          	addi	a5,a5,-4 # ffff7ffc <_sp+0xeffe42dc>
10006e6c:	00f12023          	sw	a5,0(sp)
10006e70:	00012683          	lw	a3,0(sp)
10006e74:	00400793          	li	a5,4
10006e78:	5af68063          	beq	a3,a5,10007418 <__gdtoa+0xa08>
10006e7c:	66e686e3          	beq	a3,a4,10007ce8 <__gdtoa+0x12d8>
10006e80:	00200793          	li	a5,2
10006e84:	04012c23          	sw	zero,88(sp)
10006e88:	00000a93          	li	s5,0
10006e8c:	58f68c63          	beq	a3,a5,10007424 <__gdtoa+0xa14>
10006e90:	00300793          	li	a5,3
10006e94:	00f12023          	sw	a5,0(sp)
10006e98:	00812783          	lw	a5,8(sp)
10006e9c:	01812703          	lw	a4,24(sp)
10006ea0:	00e787b3          	add	a5,a5,a4
10006ea4:	04f12423          	sw	a5,72(sp)
10006ea8:	00178793          	addi	a5,a5,1
10006eac:	02f12223          	sw	a5,36(sp)
10006eb0:	3cf05463          	blez	a5,10007278 <__gdtoa+0x868>
10006eb4:	00078593          	mv	a1,a5
10006eb8:	000d8513          	mv	a0,s11
10006ebc:	08f12623          	sw	a5,140(sp)
10006ec0:	7dc010ef          	jal	1000869c <__rv_alloc_D2A>
10006ec4:	00050793          	mv	a5,a0
10006ec8:	00050ce3          	beqz	a0,100076e0 <__gdtoa+0xcd0>
10006ecc:	02c12703          	lw	a4,44(sp)
10006ed0:	00c72803          	lw	a6,12(a4)
10006ed4:	fff80813          	addi	a6,a6,-1
10006ed8:	00080e63          	beqz	a6,10006ef4 <__gdtoa+0x4e4>
10006edc:	00085463          	bgez	a6,10006ee4 <__gdtoa+0x4d4>
10006ee0:	00200813          	li	a6,2
10006ee4:	1009f993          	andi	s3,s3,256
10006ee8:	42098e63          	beqz	s3,10007324 <__gdtoa+0x914>
10006eec:	00300713          	li	a4,3
10006ef0:	41070833          	sub	a6,a4,a6
10006ef4:	02412703          	lw	a4,36(sp)
10006ef8:	00f73713          	sltiu	a4,a4,15
10006efc:	42070463          	beqz	a4,10007324 <__gdtoa+0x914>
10006f00:	420a8263          	beqz	s5,10007324 <__gdtoa+0x914>
10006f04:	01812703          	lw	a4,24(sp)
10006f08:	00e86733          	or	a4,a6,a4
10006f0c:	40071c63          	bnez	a4,10007324 <__gdtoa+0x914>
10006f10:	04012703          	lw	a4,64(sp)
10006f14:	04c12683          	lw	a3,76(sp)
10006f18:	08012623          	sw	zero,140(sp)
10006f1c:	04e12e23          	sw	a4,92(sp)
10006f20:	07412423          	sw	s4,104(sp)
10006f24:	02068663          	beqz	a3,10006f50 <__gdtoa+0x540>
10006f28:	ef81a603          	lw	a2,-264(gp) # 100119d0 <__SDATA_BEGIN__+0x30>
10006f2c:	efc1a683          	lw	a3,-260(gp) # 100119d4 <__SDATA_BEGIN__+0x34>
10006f30:	00070513          	mv	a0,a4
10006f34:	000a0593          	mv	a1,s4
10006f38:	04f12023          	sw	a5,64(sp)
10006f3c:	06e12023          	sw	a4,96(sp)
10006f40:	084060ef          	jal	1000cfc4 <__ledf2>
10006f44:	04012783          	lw	a5,64(sp)
10006f48:	00055463          	bgez	a0,10006f50 <__gdtoa+0x540>
10006f4c:	1440106f          	j	10008090 <__gdtoa+0x1680>
10006f50:	04f12023          	sw	a5,64(sp)
10006f54:	05c12783          	lw	a5,92(sp)
10006f58:	00078613          	mv	a2,a5
10006f5c:	00078513          	mv	a0,a5
10006f60:	06812783          	lw	a5,104(sp)
10006f64:	00078693          	mv	a3,a5
10006f68:	00078593          	mv	a1,a5
10006f6c:	0f8050ef          	jal	1000c064 <__adddf3>
10006f70:	f101a603          	lw	a2,-240(gp) # 100119e8 <__SDATA_BEGIN__+0x48>
10006f74:	f141a683          	lw	a3,-236(gp) # 100119ec <__SDATA_BEGIN__+0x4c>
10006f78:	0ec050ef          	jal	1000c064 <__adddf3>
10006f7c:	fcc00737          	lui	a4,0xfcc00
10006f80:	00b70333          	add	t1,a4,a1
10006f84:	02412703          	lw	a4,36(sp)
10006f88:	04012783          	lw	a5,64(sp)
10006f8c:	00050993          	mv	s3,a0
10006f90:	32070263          	beqz	a4,100072b4 <__gdtoa+0x8a4>
10006f94:	02412703          	lw	a4,36(sp)
10006f98:	05c12a83          	lw	s5,92(sp)
10006f9c:	06812b03          	lw	s6,104(sp)
10006fa0:	06012623          	sw	zero,108(sp)
10006fa4:	04e12023          	sw	a4,64(sp)
10006fa8:	04012703          	lw	a4,64(sp)
10006fac:	10011837          	lui	a6,0x10011
10006fb0:	e4080893          	addi	a7,a6,-448 # 10010e40 <__mprec_tens>
10006fb4:	00371693          	slli	a3,a4,0x3
10006fb8:	05812703          	lw	a4,88(sp)
10006fbc:	00d886b3          	add	a3,a7,a3
10006fc0:	ff86a603          	lw	a2,-8(a3)
10006fc4:	ffc6a683          	lw	a3,-4(a3)
10006fc8:	100702e3          	beqz	a4,100078cc <__gdtoa+0xebc>
10006fcc:	f201a503          	lw	a0,-224(gp) # 100119f8 <__SDATA_BEGIN__+0x58>
10006fd0:	f241a583          	lw	a1,-220(gp) # 100119fc <__SDATA_BEGIN__+0x5c>
10006fd4:	06612823          	sw	t1,112(sp)
10006fd8:	04f12823          	sw	a5,80(sp)
10006fdc:	07112a23          	sw	a7,116(sp)
10006fe0:	07312023          	sw	s3,96(sp)
10006fe4:	00178993          	addi	s3,a5,1
10006fe8:	7c8050ef          	jal	1000c7b0 <__divdf3>
10006fec:	06012603          	lw	a2,96(sp)
10006ff0:	07012683          	lw	a3,112(sp)
10006ff4:	000a8b93          	mv	s7,s5
10006ff8:	000b0a13          	mv	s4,s6
10006ffc:	688060ef          	jal	1000d684 <__subdf3>
10007000:	00050613          	mv	a2,a0
10007004:	00058693          	mv	a3,a1
10007008:	000a8513          	mv	a0,s5
1000700c:	000b0593          	mv	a1,s6
10007010:	00068a93          	mv	s5,a3
10007014:	00060b13          	mv	s6,a2
10007018:	5cd060ef          	jal	1000dde4 <__fixdfsi>
1000701c:	00050c13          	mv	s8,a0
10007020:	641060ef          	jal	1000de60 <__floatsidf>
10007024:	00050613          	mv	a2,a0
10007028:	00058693          	mv	a3,a1
1000702c:	000b8513          	mv	a0,s7
10007030:	000a0593          	mv	a1,s4
10007034:	650060ef          	jal	1000d684 <__subdf3>
10007038:	05012783          	lw	a5,80(sp)
1000703c:	030c0713          	addi	a4,s8,48
10007040:	00050613          	mv	a2,a0
10007044:	00058693          	mv	a3,a1
10007048:	00e78023          	sb	a4,0(a5)
1000704c:	00050a13          	mv	s4,a0
10007050:	00058b93          	mv	s7,a1
10007054:	000b0513          	mv	a0,s6
10007058:	000a8593          	mv	a1,s5
1000705c:	691050ef          	jal	1000ceec <__gedf2>
10007060:	05012783          	lw	a5,80(sp)
10007064:	00a05463          	blez	a0,1000706c <__gdtoa+0x65c>
10007068:	2e00106f          	j	10008348 <__gdtoa+0x1938>
1000706c:	efc1a703          	lw	a4,-260(gp) # 100119d4 <__SDATA_BEGIN__+0x34>
10007070:	ef81a683          	lw	a3,-264(gp) # 100119d0 <__SDATA_BEGIN__+0x30>
10007074:	06e12223          	sw	a4,100(sp)
10007078:	06d12023          	sw	a3,96(sp)
1000707c:	f041a703          	lw	a4,-252(gp) # 100119dc <__SDATA_BEGIN__+0x3c>
10007080:	f001a683          	lw	a3,-256(gp) # 100119d8 <__SDATA_BEGIN__+0x38>
10007084:	00040c13          	mv	s8,s0
10007088:	07212c23          	sw	s2,120(sp)
1000708c:	06912e23          	sw	s1,124(sp)
10007090:	04d12823          	sw	a3,80(sp)
10007094:	04e12a23          	sw	a4,84(sp)
10007098:	06f12823          	sw	a5,112(sp)
1000709c:	000a0413          	mv	s0,s4
100070a0:	000b0493          	mv	s1,s6
100070a4:	000a8913          	mv	s2,s5
100070a8:	08c0006f          	j	10007134 <__gdtoa+0x724>
100070ac:	08c12783          	lw	a5,140(sp)
100070b0:	04012703          	lw	a4,64(sp)
100070b4:	00178793          	addi	a5,a5,1
100070b8:	08f12623          	sw	a5,140(sp)
100070bc:	00e7c463          	blt	a5,a4,100070c4 <__gdtoa+0x6b4>
100070c0:	36c0106f          	j	1000842c <__gdtoa+0x1a1c>
100070c4:	7d9050ef          	jal	1000d09c <__muldf3>
100070c8:	05012603          	lw	a2,80(sp)
100070cc:	05412683          	lw	a3,84(sp)
100070d0:	00050493          	mv	s1,a0
100070d4:	00058913          	mv	s2,a1
100070d8:	00040513          	mv	a0,s0
100070dc:	000b8593          	mv	a1,s7
100070e0:	7bd050ef          	jal	1000d09c <__muldf3>
100070e4:	00058a93          	mv	s5,a1
100070e8:	00050a13          	mv	s4,a0
100070ec:	4f9060ef          	jal	1000dde4 <__fixdfsi>
100070f0:	00050413          	mv	s0,a0
100070f4:	56d060ef          	jal	1000de60 <__floatsidf>
100070f8:	00050613          	mv	a2,a0
100070fc:	00058693          	mv	a3,a1
10007100:	000a0513          	mv	a0,s4
10007104:	000a8593          	mv	a1,s5
10007108:	57c060ef          	jal	1000d684 <__subdf3>
1000710c:	03040793          	addi	a5,s0,48
10007110:	00048613          	mv	a2,s1
10007114:	00090693          	mv	a3,s2
10007118:	00f98023          	sb	a5,0(s3)
1000711c:	00198993          	addi	s3,s3,1
10007120:	00050413          	mv	s0,a0
10007124:	00058b93          	mv	s7,a1
10007128:	69d050ef          	jal	1000cfc4 <__ledf2>
1000712c:	00055463          	bgez	a0,10007134 <__gdtoa+0x724>
10007130:	20c0106f          	j	1000833c <__gdtoa+0x192c>
10007134:	06012503          	lw	a0,96(sp)
10007138:	06412583          	lw	a1,100(sp)
1000713c:	00040613          	mv	a2,s0
10007140:	000b8693          	mv	a3,s7
10007144:	540060ef          	jal	1000d684 <__subdf3>
10007148:	00048613          	mv	a2,s1
1000714c:	00090693          	mv	a3,s2
10007150:	675050ef          	jal	1000cfc4 <__ledf2>
10007154:	00050793          	mv	a5,a0
10007158:	05012603          	lw	a2,80(sp)
1000715c:	05412683          	lw	a3,84(sp)
10007160:	00048513          	mv	a0,s1
10007164:	00090593          	mv	a1,s2
10007168:	f407d2e3          	bgez	a5,100070ac <__gdtoa+0x69c>
1000716c:	07012783          	lw	a5,112(sp)
10007170:	fff9c903          	lbu	s2,-1(s3)
10007174:	000c0413          	mv	s0,s8
10007178:	03900613          	li	a2,57
1000717c:	0140006f          	j	10007190 <__gdtoa+0x780>
10007180:	00d79463          	bne	a5,a3,10007188 <__gdtoa+0x778>
10007184:	0000106f          	j	10008184 <__gdtoa+0x1774>
10007188:	fff6c903          	lbu	s2,-1(a3)
1000718c:	00068993          	mv	s3,a3
10007190:	fff98693          	addi	a3,s3,-1
10007194:	fec906e3          	beq	s2,a2,10007180 <__gdtoa+0x770>
10007198:	00190913          	addi	s2,s2,1
1000719c:	06c12703          	lw	a4,108(sp)
100071a0:	01268023          	sb	s2,0(a3)
100071a4:	02000d13          	li	s10,32
100071a8:	00170c13          	addi	s8,a4,1 # fcc00001 <_sp+0xecbec2e1>
100071ac:	00040593          	mv	a1,s0
100071b0:	000d8513          	mv	a0,s11
100071b4:	00f12023          	sw	a5,0(sp)
100071b8:	221010ef          	jal	10008bd8 <_Bfree>
100071bc:	01c12783          	lw	a5,28(sp)
100071c0:	00098023          	sb	zero,0(s3)
100071c4:	0187a023          	sw	s8,0(a5)
100071c8:	00012783          	lw	a5,0(sp)
100071cc:	000c8463          	beqz	s9,100071d4 <__gdtoa+0x7c4>
100071d0:	013ca023          	sw	s3,0(s9)
100071d4:	02812703          	lw	a4,40(sp)
100071d8:	02812683          	lw	a3,40(sp)
100071dc:	0c812403          	lw	s0,200(sp)
100071e0:	00072703          	lw	a4,0(a4)
100071e4:	0c412483          	lw	s1,196(sp)
100071e8:	0c012903          	lw	s2,192(sp)
100071ec:	01a76733          	or	a4,a4,s10
100071f0:	0b812a03          	lw	s4,184(sp)
100071f4:	0b412a83          	lw	s5,180(sp)
100071f8:	0b012b03          	lw	s6,176(sp)
100071fc:	0ac12b83          	lw	s7,172(sp)
10007200:	0a812c03          	lw	s8,168(sp)
10007204:	09c12d83          	lw	s11,156(sp)
10007208:	00e6a023          	sw	a4,0(a3)
1000720c:	b61ff06f          	j	10006d6c <__gdtoa+0x35c>
10007210:	00050593          	mv	a1,a0
10007214:	00040513          	mv	a0,s0
10007218:	7c4010ef          	jal	100089dc <__rshift_D2A>
1000721c:	08c12783          	lw	a5,140(sp)
10007220:	02012703          	lw	a4,32(sp)
10007224:	40f484b3          	sub	s1,s1,a5
10007228:	00e787b3          	add	a5,a5,a4
1000722c:	02f12a23          	sw	a5,52(sp)
10007230:	925ff06f          	j	10006b54 <__gdtoa+0x144>
10007234:	03012783          	lw	a5,48(sp)
10007238:	01812703          	lw	a4,24(sp)
1000723c:	02012e23          	sw	zero,60(sp)
10007240:	00e787b3          	add	a5,a5,a4
10007244:	02f12823          	sw	a5,48(sp)
10007248:	04e12223          	sw	a4,68(sp)
1000724c:	c05ff06f          	j	10006e50 <__gdtoa+0x440>
10007250:	00100793          	li	a5,1
10007254:	40e787b3          	sub	a5,a5,a4
10007258:	02f12c23          	sw	a5,56(sp)
1000725c:	02012823          	sw	zero,48(sp)
10007260:	bcdff06f          	j	10006e2c <__gdtoa+0x41c>
10007264:	01812783          	lw	a5,24(sp)
10007268:	04012623          	sw	zero,76(sp)
1000726c:	fff78793          	addi	a5,a5,-1
10007270:	00f12c23          	sw	a5,24(sp)
10007274:	badff06f          	j	10006e20 <__gdtoa+0x410>
10007278:	00100793          	li	a5,1
1000727c:	c39ff06f          	j	10006eb4 <__gdtoa+0x4a4>
10007280:	00070613          	mv	a2,a4
10007284:	00070513          	mv	a0,a4
10007288:	000a0693          	mv	a3,s4
1000728c:	000a0593          	mv	a1,s4
10007290:	04f12023          	sw	a5,64(sp)
10007294:	5d1040ef          	jal	1000c064 <__adddf3>
10007298:	f101a603          	lw	a2,-240(gp) # 100119e8 <__SDATA_BEGIN__+0x48>
1000729c:	f141a683          	lw	a3,-236(gp) # 100119ec <__SDATA_BEGIN__+0x4c>
100072a0:	5c5040ef          	jal	1000c064 <__adddf3>
100072a4:	04012783          	lw	a5,64(sp)
100072a8:	fcc00737          	lui	a4,0xfcc00
100072ac:	00050993          	mv	s3,a0
100072b0:	00b70333          	add	t1,a4,a1
100072b4:	f181a603          	lw	a2,-232(gp) # 100119f0 <__SDATA_BEGIN__+0x50>
100072b8:	05c12503          	lw	a0,92(sp)
100072bc:	f1c1a683          	lw	a3,-228(gp) # 100119f4 <__SDATA_BEGIN__+0x54>
100072c0:	06812583          	lw	a1,104(sp)
100072c4:	04f12023          	sw	a5,64(sp)
100072c8:	04612823          	sw	t1,80(sp)
100072cc:	3b8060ef          	jal	1000d684 <__subdf3>
100072d0:	05012683          	lw	a3,80(sp)
100072d4:	00098613          	mv	a2,s3
100072d8:	00050a13          	mv	s4,a0
100072dc:	00058a93          	mv	s5,a1
100072e0:	40d050ef          	jal	1000ceec <__gedf2>
100072e4:	04012783          	lw	a5,64(sp)
100072e8:	6aa048e3          	bgtz	a0,10008198 <__gdtoa+0x1788>
100072ec:	05012303          	lw	t1,80(sp)
100072f0:	800006b7          	lui	a3,0x80000
100072f4:	00098613          	mv	a2,s3
100072f8:	00d34733          	xor	a4,t1,a3
100072fc:	00070693          	mv	a3,a4
10007300:	000a0513          	mv	a0,s4
10007304:	000a8593          	mv	a1,s5
10007308:	4bd050ef          	jal	1000cfc4 <__ledf2>
1000730c:	04012783          	lw	a5,64(sp)
10007310:	160544e3          	bltz	a0,10007c78 <__gdtoa+0x1268>
10007314:	05c12703          	lw	a4,92(sp)
10007318:	06812a03          	lw	s4,104(sp)
1000731c:	00000813          	li	a6,0
10007320:	04e12823          	sw	a4,80(sp)
10007324:	03412703          	lw	a4,52(sp)
10007328:	10074e63          	bltz	a4,10007444 <__gdtoa+0xa34>
1000732c:	01812703          	lw	a4,24(sp)
10007330:	00f72713          	slti	a4,a4,15
10007334:	10070863          	beqz	a4,10007444 <__gdtoa+0xa34>
10007338:	100118b7          	lui	a7,0x10011
1000733c:	e4088893          	addi	a7,a7,-448 # 10010e40 <__mprec_tens>
10007340:	01812703          	lw	a4,24(sp)
10007344:	00371713          	slli	a4,a4,0x3
10007348:	00e888b3          	add	a7,a7,a4
1000734c:	0048a703          	lw	a4,4(a7)
10007350:	0008a683          	lw	a3,0(a7)
10007354:	00e12223          	sw	a4,4(sp)
10007358:	00812703          	lw	a4,8(sp)
1000735c:	00d12023          	sw	a3,0(sp)
10007360:	3e075863          	bgez	a4,10007750 <__gdtoa+0xd40>
10007364:	02412703          	lw	a4,36(sp)
10007368:	3ee04463          	bgtz	a4,10007750 <__gdtoa+0xd40>
1000736c:	100716e3          	bnez	a4,10007c78 <__gdtoa+0x1268>
10007370:	f181a603          	lw	a2,-232(gp) # 100119f0 <__SDATA_BEGIN__+0x50>
10007374:	f1c1a683          	lw	a3,-228(gp) # 100119f4 <__SDATA_BEGIN__+0x54>
10007378:	00012503          	lw	a0,0(sp)
1000737c:	00412583          	lw	a1,4(sp)
10007380:	00f12a23          	sw	a5,20(sp)
10007384:	519050ef          	jal	1000d09c <__muldf3>
10007388:	05012603          	lw	a2,80(sp)
1000738c:	000a0693          	mv	a3,s4
10007390:	35d050ef          	jal	1000ceec <__gedf2>
10007394:	01412783          	lw	a5,20(sp)
10007398:	0e0550e3          	bgez	a0,10007c78 <__gdtoa+0x1268>
1000739c:	03100713          	li	a4,49
100073a0:	00e78023          	sb	a4,0(a5)
100073a4:	00000593          	li	a1,0
100073a8:	000d8513          	mv	a0,s11
100073ac:	00178993          	addi	s3,a5,1
100073b0:	00f12023          	sw	a5,0(sp)
100073b4:	025010ef          	jal	10008bd8 <_Bfree>
100073b8:	01812783          	lw	a5,24(sp)
100073bc:	02000d13          	li	s10,32
100073c0:	00278c13          	addi	s8,a5,2
100073c4:	00012783          	lw	a5,0(sp)
100073c8:	de5ff06f          	j	100071ac <__gdtoa+0x79c>
100073cc:	3fdc0793          	addi	a5,s8,1021
100073d0:	7f87ba93          	sltiu	s5,a5,2040
100073d4:	00012023          	sw	zero,0(sp)
100073d8:	00090513          	mv	a0,s2
100073dc:	285060ef          	jal	1000de60 <__floatsidf>
100073e0:	ef01a603          	lw	a2,-272(gp) # 100119c8 <__SDATA_BEGIN__+0x28>
100073e4:	ef41a683          	lw	a3,-268(gp) # 100119cc <__SDATA_BEGIN__+0x2c>
100073e8:	4b5050ef          	jal	1000d09c <__muldf3>
100073ec:	1f9060ef          	jal	1000dde4 <__fixdfsi>
100073f0:	fff00713          	li	a4,-1
100073f4:	fff00793          	li	a5,-1
100073f8:	00350593          	addi	a1,a0,3
100073fc:	02e12223          	sw	a4,36(sp)
10007400:	00100713          	li	a4,1
10007404:	04f12423          	sw	a5,72(sp)
10007408:	00012423          	sw	zero,8(sp)
1000740c:	00058793          	mv	a5,a1
10007410:	04e12c23          	sw	a4,88(sp)
10007414:	aa5ff06f          	j	10006eb8 <__gdtoa+0x4a8>
10007418:	00100793          	li	a5,1
1000741c:	00000a93          	li	s5,0
10007420:	04f12c23          	sw	a5,88(sp)
10007424:	00812583          	lw	a1,8(sp)
10007428:	00b04463          	bgtz	a1,10007430 <__gdtoa+0xa20>
1000742c:	00100593          	li	a1,1
10007430:	00058793          	mv	a5,a1
10007434:	04b12423          	sw	a1,72(sp)
10007438:	02b12223          	sw	a1,36(sp)
1000743c:	00b12423          	sw	a1,8(sp)
10007440:	a79ff06f          	j	10006eb8 <__gdtoa+0x4a8>
10007444:	05812703          	lw	a4,88(sp)
10007448:	5e070263          	beqz	a4,10007a2c <__gdtoa+0x101c>
1000744c:	02c12703          	lw	a4,44(sp)
10007450:	03412603          	lw	a2,52(sp)
10007454:	40990933          	sub	s2,s2,s1
10007458:	00472703          	lw	a4,4(a4) # fcc00004 <_sp+0xecbec2e4>
1000745c:	00190693          	addi	a3,s2,1
10007460:	08d12623          	sw	a3,140(sp)
10007464:	41260933          	sub	s2,a2,s2
10007468:	1ce956e3          	bge	s2,a4,10007e34 <__gdtoa+0x1424>
1000746c:	00012683          	lw	a3,0(sp)
10007470:	ffd68693          	addi	a3,a3,-3 # 7ffffffd <_sp+0x6ffec2dd>
10007474:	ffd6f693          	andi	a3,a3,-3
10007478:	080684e3          	beqz	a3,10007d00 <__gdtoa+0x12f0>
1000747c:	00012683          	lw	a3,0(sp)
10007480:	40e60733          	sub	a4,a2,a4
10007484:	02412603          	lw	a2,36(sp)
10007488:	0026a693          	slti	a3,a3,2
1000748c:	00170713          	addi	a4,a4,1
10007490:	0016b693          	seqz	a3,a3
10007494:	00c02633          	sgtz	a2,a2
10007498:	08e12623          	sw	a4,140(sp)
1000749c:	00c6f6b3          	and	a3,a3,a2
100074a0:	00068863          	beqz	a3,100074b0 <__gdtoa+0xaa0>
100074a4:	02412683          	lw	a3,36(sp)
100074a8:	00e6d463          	bge	a3,a4,100074b0 <__gdtoa+0xaa0>
100074ac:	0ac0106f          	j	10008558 <__gdtoa+0x1b48>
100074b0:	03012683          	lw	a3,48(sp)
100074b4:	03c12a03          	lw	s4,60(sp)
100074b8:	00e686b3          	add	a3,a3,a4
100074bc:	02d12823          	sw	a3,48(sp)
100074c0:	03812683          	lw	a3,56(sp)
100074c4:	00d709b3          	add	s3,a4,a3
100074c8:	00100593          	li	a1,1
100074cc:	000d8513          	mv	a0,s11
100074d0:	04f12023          	sw	a5,64(sp)
100074d4:	03012a23          	sw	a6,52(sp)
100074d8:	361010ef          	jal	10009038 <__i2b>
100074dc:	00050913          	mv	s2,a0
100074e0:	20050063          	beqz	a0,100076e0 <__gdtoa+0xcd0>
100074e4:	03812703          	lw	a4,56(sp)
100074e8:	03412803          	lw	a6,52(sp)
100074ec:	04012783          	lw	a5,64(sp)
100074f0:	04070063          	beqz	a4,10007530 <__gdtoa+0xb20>
100074f4:	03012703          	lw	a4,48(sp)
100074f8:	02e05c63          	blez	a4,10007530 <__gdtoa+0xb20>
100074fc:	03812683          	lw	a3,56(sp)
10007500:	03012603          	lw	a2,48(sp)
10007504:	00068713          	mv	a4,a3
10007508:	00d65463          	bge	a2,a3,10007510 <__gdtoa+0xb00>
1000750c:	00060713          	mv	a4,a2
10007510:	03812683          	lw	a3,56(sp)
10007514:	08e12623          	sw	a4,140(sp)
10007518:	40e989b3          	sub	s3,s3,a4
1000751c:	40e686b3          	sub	a3,a3,a4
10007520:	02d12c23          	sw	a3,56(sp)
10007524:	03012683          	lw	a3,48(sp)
10007528:	40e68733          	sub	a4,a3,a4
1000752c:	02e12823          	sw	a4,48(sp)
10007530:	03c12703          	lw	a4,60(sp)
10007534:	02070863          	beqz	a4,10007564 <__gdtoa+0xb54>
10007538:	2e0a18e3          	bnez	s4,10008028 <__gdtoa+0x1618>
1000753c:	03c12603          	lw	a2,60(sp)
10007540:	00040593          	mv	a1,s0
10007544:	000d8513          	mv	a0,s11
10007548:	04f12023          	sw	a5,64(sp)
1000754c:	03012a23          	sw	a6,52(sp)
10007550:	605010ef          	jal	10009354 <__pow5mult>
10007554:	03412803          	lw	a6,52(sp)
10007558:	04012783          	lw	a5,64(sp)
1000755c:	00050413          	mv	s0,a0
10007560:	18050063          	beqz	a0,100076e0 <__gdtoa+0xcd0>
10007564:	00100593          	li	a1,1
10007568:	000d8513          	mv	a0,s11
1000756c:	02f12e23          	sw	a5,60(sp)
10007570:	03012a23          	sw	a6,52(sp)
10007574:	2c5010ef          	jal	10009038 <__i2b>
10007578:	00050313          	mv	t1,a0
1000757c:	16050263          	beqz	a0,100076e0 <__gdtoa+0xcd0>
10007580:	04412703          	lw	a4,68(sp)
10007584:	03412803          	lw	a6,52(sp)
10007588:	03c12783          	lw	a5,60(sp)
1000758c:	7a071663          	bnez	a4,10007d38 <__gdtoa+0x1328>
10007590:	00012703          	lw	a4,0(sp)
10007594:	00272713          	slti	a4,a4,2
10007598:	00070663          	beqz	a4,100075a4 <__gdtoa+0xb94>
1000759c:	fff48493          	addi	s1,s1,-1
100075a0:	0e048663          	beqz	s1,1000768c <__gdtoa+0xc7c>
100075a4:	01f00513          	li	a0,31
100075a8:	03012703          	lw	a4,48(sp)
100075ac:	40e504b3          	sub	s1,a0,a4
100075b0:	ffc48493          	addi	s1,s1,-4
100075b4:	01f4f493          	andi	s1,s1,31
100075b8:	08912623          	sw	s1,140(sp)
100075bc:	01348633          	add	a2,s1,s3
100075c0:	00048713          	mv	a4,s1
100075c4:	6ec04863          	bgtz	a2,10007cb4 <__gdtoa+0x12a4>
100075c8:	03012683          	lw	a3,48(sp)
100075cc:	00e68633          	add	a2,a3,a4
100075d0:	0ec04663          	bgtz	a2,100076bc <__gdtoa+0xcac>
100075d4:	04c12703          	lw	a4,76(sp)
100075d8:	080712e3          	bnez	a4,10007e5c <__gdtoa+0x144c>
100075dc:	02412703          	lw	a4,36(sp)
100075e0:	48e04e63          	bgtz	a4,10007a7c <__gdtoa+0x106c>
100075e4:	00012703          	lw	a4,0(sp)
100075e8:	00372713          	slti	a4,a4,3
100075ec:	48071863          	bnez	a4,10007a7c <__gdtoa+0x106c>
100075f0:	00030593          	mv	a1,t1
100075f4:	00000693          	li	a3,0
100075f8:	00500613          	li	a2,5
100075fc:	000d8513          	mv	a0,s11
10007600:	00f12023          	sw	a5,0(sp)
10007604:	5f8010ef          	jal	10008bfc <__multadd>
10007608:	00050593          	mv	a1,a0
1000760c:	0c050a63          	beqz	a0,100076e0 <__gdtoa+0xcd0>
10007610:	02412703          	lw	a4,36(sp)
10007614:	00012783          	lw	a5,0(sp)
10007618:	1a0712e3          	bnez	a4,10007fbc <__gdtoa+0x15ac>
1000761c:	00a12023          	sw	a0,0(sp)
10007620:	00040513          	mv	a0,s0
10007624:	00f12a23          	sw	a5,20(sp)
10007628:	01c020ef          	jal	10009644 <__mcmp>
1000762c:	00012583          	lw	a1,0(sp)
10007630:	01412783          	lw	a5,20(sp)
10007634:	18a054e3          	blez	a0,10007fbc <__gdtoa+0x15ac>
10007638:	03100713          	li	a4,49
1000763c:	00e78023          	sb	a4,0(a5)
10007640:	01812703          	lw	a4,24(sp)
10007644:	00178993          	addi	s3,a5,1
10007648:	02000d13          	li	s10,32
1000764c:	00170713          	addi	a4,a4,1
10007650:	00e12c23          	sw	a4,24(sp)
10007654:	000d8513          	mv	a0,s11
10007658:	00f12023          	sw	a5,0(sp)
1000765c:	57c010ef          	jal	10008bd8 <_Bfree>
10007660:	00012783          	lw	a5,0(sp)
10007664:	00091463          	bnez	s2,1000766c <__gdtoa+0xc5c>
10007668:	0040106f          	j	1000866c <__gdtoa+0x1c5c>
1000766c:	00090593          	mv	a1,s2
10007670:	000d8513          	mv	a0,s11
10007674:	00f12023          	sw	a5,0(sp)
10007678:	560010ef          	jal	10008bd8 <_Bfree>
1000767c:	01812783          	lw	a5,24(sp)
10007680:	00178c13          	addi	s8,a5,1
10007684:	00012783          	lw	a5,0(sp)
10007688:	b25ff06f          	j	100071ac <__gdtoa+0x79c>
1000768c:	02c12703          	lw	a4,44(sp)
10007690:	02012683          	lw	a3,32(sp)
10007694:	00472703          	lw	a4,4(a4)
10007698:	00170713          	addi	a4,a4,1
1000769c:	f0d754e3          	bge	a4,a3,100075a4 <__gdtoa+0xb94>
100076a0:	03012703          	lw	a4,48(sp)
100076a4:	00198993          	addi	s3,s3,1
100076a8:	00170713          	addi	a4,a4,1
100076ac:	02e12823          	sw	a4,48(sp)
100076b0:	00100713          	li	a4,1
100076b4:	04e12223          	sw	a4,68(sp)
100076b8:	eedff06f          	j	100075a4 <__gdtoa+0xb94>
100076bc:	00030593          	mv	a1,t1
100076c0:	000d8513          	mv	a0,s11
100076c4:	02f12623          	sw	a5,44(sp)
100076c8:	03012023          	sw	a6,32(sp)
100076cc:	5f1010ef          	jal	100094bc <__lshift>
100076d0:	02012803          	lw	a6,32(sp)
100076d4:	02c12783          	lw	a5,44(sp)
100076d8:	00050313          	mv	t1,a0
100076dc:	ee051ce3          	bnez	a0,100075d4 <__gdtoa+0xbc4>
100076e0:	0c812403          	lw	s0,200(sp)
100076e4:	0c412483          	lw	s1,196(sp)
100076e8:	0c012903          	lw	s2,192(sp)
100076ec:	0b812a03          	lw	s4,184(sp)
100076f0:	0b412a83          	lw	s5,180(sp)
100076f4:	0b012b03          	lw	s6,176(sp)
100076f8:	0ac12b83          	lw	s7,172(sp)
100076fc:	0a812c03          	lw	s8,168(sp)
10007700:	09c12d83          	lw	s11,156(sp)
10007704:	e64ff06f          	j	10006d68 <__gdtoa+0x358>
10007708:	3fdc0793          	addi	a5,s8,1021
1000770c:	7f87ba93          	sltiu	s5,a5,2040
10007710:	00012783          	lw	a5,0(sp)
10007714:	00400693          	li	a3,4
10007718:	0cd782e3          	beq	a5,a3,10007fdc <__gdtoa+0x15cc>
1000771c:	5ce78863          	beq	a5,a4,10007cec <__gdtoa+0x12dc>
10007720:	00012703          	lw	a4,0(sp)
10007724:	00200793          	li	a5,2
10007728:	0af706e3          	beq	a4,a5,10007fd4 <__gdtoa+0x15c4>
1000772c:	00300793          	li	a5,3
10007730:	04012c23          	sw	zero,88(sp)
10007734:	f6f70263          	beq	a4,a5,10006e98 <__gdtoa+0x488>
10007738:	ca1ff06f          	j	100073d8 <__gdtoa+0x9c8>
1000773c:	e4082683          	lw	a3,-448(a6)
10007740:	e4482703          	lw	a4,-444(a6)
10007744:	00000813          	li	a6,0
10007748:	00d12023          	sw	a3,0(sp)
1000774c:	00e12223          	sw	a4,4(sp)
10007750:	05012903          	lw	s2,80(sp)
10007754:	000a0993          	mv	s3,s4
10007758:	00412a83          	lw	s5,4(sp)
1000775c:	000a0593          	mv	a1,s4
10007760:	00012a03          	lw	s4,0(sp)
10007764:	00100713          	li	a4,1
10007768:	000a8693          	mv	a3,s5
1000776c:	000a0613          	mv	a2,s4
10007770:	00090513          	mv	a0,s2
10007774:	00f12423          	sw	a5,8(sp)
10007778:	01012a23          	sw	a6,20(sp)
1000777c:	08e12623          	sw	a4,140(sp)
10007780:	030050ef          	jal	1000c7b0 <__divdf3>
10007784:	660060ef          	jal	1000dde4 <__fixdfsi>
10007788:	00050493          	mv	s1,a0
1000778c:	6d4060ef          	jal	1000de60 <__floatsidf>
10007790:	000a0613          	mv	a2,s4
10007794:	000a8693          	mv	a3,s5
10007798:	105050ef          	jal	1000d09c <__muldf3>
1000779c:	00050613          	mv	a2,a0
100077a0:	00058693          	mv	a3,a1
100077a4:	00090513          	mv	a0,s2
100077a8:	00098593          	mv	a1,s3
100077ac:	6d9050ef          	jal	1000d684 <__subdf3>
100077b0:	00812783          	lw	a5,8(sp)
100077b4:	03048713          	addi	a4,s1,48
100077b8:	00000613          	li	a2,0
100077bc:	00e78023          	sb	a4,0(a5)
100077c0:	00178993          	addi	s3,a5,1
100077c4:	01812783          	lw	a5,24(sp)
100077c8:	00000693          	li	a3,0
100077cc:	00050a13          	mv	s4,a0
100077d0:	00178c13          	addi	s8,a5,1
100077d4:	00058913          	mv	s2,a1
100077d8:	690050ef          	jal	1000ce68 <__eqdf2>
100077dc:	00812783          	lw	a5,8(sp)
100077e0:	9c0506e3          	beqz	a0,100071ac <__gdtoa+0x79c>
100077e4:	f041a703          	lw	a4,-252(gp) # 100119dc <__SDATA_BEGIN__+0x3c>
100077e8:	01412803          	lw	a6,20(sp)
100077ec:	f001a683          	lw	a3,-256(gp) # 100119d8 <__SDATA_BEGIN__+0x38>
100077f0:	00812a23          	sw	s0,20(sp)
100077f4:	00e12623          	sw	a4,12(sp)
100077f8:	00d12423          	sw	a3,8(sp)
100077fc:	03012623          	sw	a6,44(sp)
10007800:	02f12023          	sw	a5,32(sp)
10007804:	000a0413          	mv	s0,s4
10007808:	0780006f          	j	10007880 <__gdtoa+0xe70>
1000780c:	09012623          	sw	a6,140(sp)
10007810:	08d050ef          	jal	1000d09c <__muldf3>
10007814:	00012a03          	lw	s4,0(sp)
10007818:	00412a83          	lw	s5,4(sp)
1000781c:	00050b13          	mv	s6,a0
10007820:	000a0613          	mv	a2,s4
10007824:	000a8693          	mv	a3,s5
10007828:	00058b93          	mv	s7,a1
1000782c:	785040ef          	jal	1000c7b0 <__divdf3>
10007830:	5b4060ef          	jal	1000dde4 <__fixdfsi>
10007834:	00050493          	mv	s1,a0
10007838:	628060ef          	jal	1000de60 <__floatsidf>
1000783c:	000a0613          	mv	a2,s4
10007840:	000a8693          	mv	a3,s5
10007844:	059050ef          	jal	1000d09c <__muldf3>
10007848:	00050613          	mv	a2,a0
1000784c:	00058693          	mv	a3,a1
10007850:	000b0513          	mv	a0,s6
10007854:	000b8593          	mv	a1,s7
10007858:	62d050ef          	jal	1000d684 <__subdf3>
1000785c:	00198993          	addi	s3,s3,1
10007860:	03048793          	addi	a5,s1,48
10007864:	fef98fa3          	sb	a5,-1(s3)
10007868:	00000613          	li	a2,0
1000786c:	00000693          	li	a3,0
10007870:	00050413          	mv	s0,a0
10007874:	00058913          	mv	s2,a1
10007878:	5f0050ef          	jal	1000ce68 <__eqdf2>
1000787c:	72050a63          	beqz	a0,10007fb0 <__gdtoa+0x15a0>
10007880:	08c12703          	lw	a4,140(sp)
10007884:	02412783          	lw	a5,36(sp)
10007888:	00812603          	lw	a2,8(sp)
1000788c:	00c12683          	lw	a3,12(sp)
10007890:	00040513          	mv	a0,s0
10007894:	00090593          	mv	a1,s2
10007898:	00170813          	addi	a6,a4,1
1000789c:	f6f718e3          	bne	a4,a5,1000780c <__gdtoa+0xdfc>
100078a0:	02c12803          	lw	a6,44(sp)
100078a4:	02012783          	lw	a5,32(sp)
100078a8:	01412403          	lw	s0,20(sp)
100078ac:	10080ce3          	beqz	a6,100081c4 <__gdtoa+0x17b4>
100078b0:	00100693          	li	a3,1
100078b4:	01000d13          	li	s10,16
100078b8:	8ed81ae3          	bne	a6,a3,100071ac <__gdtoa+0x79c>
100078bc:	01812703          	lw	a4,24(sp)
100078c0:	06e12623          	sw	a4,108(sp)
100078c4:	fff9c903          	lbu	s2,-1(s3)
100078c8:	8b1ff06f          	j	10007178 <__gdtoa+0x768>
100078cc:	00098513          	mv	a0,s3
100078d0:	00030593          	mv	a1,t1
100078d4:	07012823          	sw	a6,112(sp)
100078d8:	06f12023          	sw	a5,96(sp)
100078dc:	7c0050ef          	jal	1000d09c <__muldf3>
100078e0:	f001a783          	lw	a5,-256(gp) # 100119d8 <__SDATA_BEGIN__+0x38>
100078e4:	f041a803          	lw	a6,-252(gp) # 100119dc <__SDATA_BEGIN__+0x3c>
100078e8:	05012883          	lw	a7,80(sp)
100078ec:	000a0e93          	mv	t4,s4
100078f0:	00100713          	li	a4,1
100078f4:	00040a13          	mv	s4,s0
100078f8:	04912823          	sw	s1,80(sp)
100078fc:	06012983          	lw	s3,96(sp)
10007900:	00050b93          	mv	s7,a0
10007904:	00058c13          	mv	s8,a1
10007908:	00078a93          	mv	s5,a5
1000790c:	00080b13          	mv	s6,a6
10007910:	08e12623          	sw	a4,140(sp)
10007914:	00088413          	mv	s0,a7
10007918:	000e8493          	mv	s1,t4
1000791c:	0140006f          	j	10007930 <__gdtoa+0xf20>
10007920:	08e12623          	sw	a4,140(sp)
10007924:	778050ef          	jal	1000d09c <__muldf3>
10007928:	00050413          	mv	s0,a0
1000792c:	00058493          	mv	s1,a1
10007930:	00040513          	mv	a0,s0
10007934:	00048593          	mv	a1,s1
10007938:	4ac060ef          	jal	1000dde4 <__fixdfsi>
1000793c:	00050913          	mv	s2,a0
10007940:	02050263          	beqz	a0,10007964 <__gdtoa+0xf54>
10007944:	51c060ef          	jal	1000de60 <__floatsidf>
10007948:	00050613          	mv	a2,a0
1000794c:	00058693          	mv	a3,a1
10007950:	00040513          	mv	a0,s0
10007954:	00048593          	mv	a1,s1
10007958:	52d050ef          	jal	1000d684 <__subdf3>
1000795c:	00050413          	mv	s0,a0
10007960:	00058493          	mv	s1,a1
10007964:	03090913          	addi	s2,s2,48
10007968:	0ff97913          	zext.b	s2,s2
1000796c:	01298023          	sb	s2,0(s3)
10007970:	08c12783          	lw	a5,140(sp)
10007974:	04012803          	lw	a6,64(sp)
10007978:	00198993          	addi	s3,s3,1
1000797c:	00040513          	mv	a0,s0
10007980:	00048593          	mv	a1,s1
10007984:	000a8613          	mv	a2,s5
10007988:	000b0693          	mv	a3,s6
1000798c:	00178713          	addi	a4,a5,1
10007990:	f90798e3          	bne	a5,a6,10007920 <__gdtoa+0xf10>
10007994:	06012783          	lw	a5,96(sp)
10007998:	f201a603          	lw	a2,-224(gp) # 100119f8 <__SDATA_BEGIN__+0x58>
1000799c:	f241a683          	lw	a3,-220(gp) # 100119fc <__SDATA_BEGIN__+0x5c>
100079a0:	000b8513          	mv	a0,s7
100079a4:	000c0593          	mv	a1,s8
100079a8:	06f12a23          	sw	a5,116(sp)
100079ac:	06812023          	sw	s0,96(sp)
100079b0:	04912023          	sw	s1,64(sp)
100079b4:	6b0040ef          	jal	1000c064 <__adddf3>
100079b8:	06012883          	lw	a7,96(sp)
100079bc:	04012683          	lw	a3,64(sp)
100079c0:	05012483          	lw	s1,80(sp)
100079c4:	00088613          	mv	a2,a7
100079c8:	05112823          	sw	a7,80(sp)
100079cc:	5f8050ef          	jal	1000cfc4 <__ledf2>
100079d0:	07412783          	lw	a5,116(sp)
100079d4:	000a0413          	mv	s0,s4
100079d8:	fa054063          	bltz	a0,10007178 <__gdtoa+0x768>
100079dc:	f201a503          	lw	a0,-224(gp) # 100119f8 <__SDATA_BEGIN__+0x58>
100079e0:	f241a583          	lw	a1,-220(gp) # 100119fc <__SDATA_BEGIN__+0x5c>
100079e4:	000b8613          	mv	a2,s7
100079e8:	000c0693          	mv	a3,s8
100079ec:	06f12023          	sw	a5,96(sp)
100079f0:	495050ef          	jal	1000d684 <__subdf3>
100079f4:	05012603          	lw	a2,80(sp)
100079f8:	04012683          	lw	a3,64(sp)
100079fc:	4f0050ef          	jal	1000ceec <__gedf2>
10007a00:	04012e83          	lw	t4,64(sp)
10007a04:	05012883          	lw	a7,80(sp)
10007a08:	06012783          	lw	a5,96(sp)
10007a0c:	07012803          	lw	a6,112(sp)
10007a10:	24a048e3          	bgtz	a0,10008460 <__gdtoa+0x1a50>
10007a14:	05c12703          	lw	a4,92(sp)
10007a18:	06812a03          	lw	s4,104(sp)
10007a1c:	04e12823          	sw	a4,80(sp)
10007a20:	03412703          	lw	a4,52(sp)
10007a24:	d0075ce3          	bgez	a4,1000773c <__gdtoa+0xd2c>
10007a28:	00000813          	li	a6,0
10007a2c:	03812703          	lw	a4,56(sp)
10007a30:	3c070263          	beqz	a4,10007df4 <__gdtoa+0x13e4>
10007a34:	03012703          	lw	a4,48(sp)
10007a38:	3a070e63          	beqz	a4,10007df4 <__gdtoa+0x13e4>
10007a3c:	03812683          	lw	a3,56(sp)
10007a40:	03012603          	lw	a2,48(sp)
10007a44:	00068713          	mv	a4,a3
10007a48:	00d65463          	bge	a2,a3,10007a50 <__gdtoa+0x1040>
10007a4c:	00060713          	mv	a4,a2
10007a50:	03812683          	lw	a3,56(sp)
10007a54:	08e12623          	sw	a4,140(sp)
10007a58:	40e689b3          	sub	s3,a3,a4
10007a5c:	03012683          	lw	a3,48(sp)
10007a60:	40e68733          	sub	a4,a3,a4
10007a64:	02e12823          	sw	a4,48(sp)
10007a68:	03c12703          	lw	a4,60(sp)
10007a6c:	38071a63          	bnez	a4,10007e00 <__gdtoa+0x13f0>
10007a70:	03312c23          	sw	s3,56(sp)
10007a74:	00000913          	li	s2,0
10007a78:	aedff06f          	j	10007564 <__gdtoa+0xb54>
10007a7c:	05812703          	lw	a4,88(sp)
10007a80:	46070a63          	beqz	a4,10007ef4 <__gdtoa+0x14e4>
10007a84:	03812703          	lw	a4,56(sp)
10007a88:	00e48633          	add	a2,s1,a4
10007a8c:	6cc04063          	bgtz	a2,1000814c <__gdtoa+0x173c>
10007a90:	04412703          	lw	a4,68(sp)
10007a94:	00090a13          	mv	s4,s2
10007a98:	7a071e63          	bnez	a4,10008254 <__gdtoa+0x1844>
10007a9c:	ffe80713          	addi	a4,a6,-2
10007aa0:	02e12623          	sw	a4,44(sp)
10007aa4:	00100693          	li	a3,1
10007aa8:	01012423          	sw	a6,8(sp)
10007aac:	000a0993          	mv	s3,s4
10007ab0:	00078b13          	mv	s6,a5
10007ab4:	00030b93          	mv	s7,t1
10007ab8:	02f12823          	sw	a5,48(sp)
10007abc:	000b8593          	mv	a1,s7
10007ac0:	00040513          	mv	a0,s0
10007ac4:	08d12623          	sw	a3,140(sp)
10007ac8:	50d000ef          	jal	100087d4 <__quorem_D2A>
10007acc:	00090593          	mv	a1,s2
10007ad0:	00050a93          	mv	s5,a0
10007ad4:	00050c13          	mv	s8,a0
10007ad8:	00040513          	mv	a0,s0
10007adc:	369010ef          	jal	10009644 <__mcmp>
10007ae0:	000b8593          	mv	a1,s7
10007ae4:	00050493          	mv	s1,a0
10007ae8:	00098613          	mv	a2,s3
10007aec:	000d8513          	mv	a0,s11
10007af0:	3ad010ef          	jal	1000969c <__mdiff>
10007af4:	00050593          	mv	a1,a0
10007af8:	be0504e3          	beqz	a0,100076e0 <__gdtoa+0xcd0>
10007afc:	00c52783          	lw	a5,12(a0)
10007b00:	030a8a93          	addi	s5,s5,48
10007b04:	0a078e63          	beqz	a5,10007bc0 <__gdtoa+0x11b0>
10007b08:	000d8513          	mv	a0,s11
10007b0c:	0cc010ef          	jal	10008bd8 <_Bfree>
10007b10:	00100593          	li	a1,1
10007b14:	0604c2e3          	bltz	s1,10008378 <__gdtoa+0x1968>
10007b18:	00012783          	lw	a5,0(sp)
10007b1c:	00f4e4b3          	or	s1,s1,a5
10007b20:	00049a63          	bnez	s1,10007b34 <__gdtoa+0x1124>
10007b24:	01412783          	lw	a5,20(sp)
10007b28:	0007a783          	lw	a5,0(a5)
10007b2c:	0017f793          	andi	a5,a5,1
10007b30:	040784e3          	beqz	a5,10008378 <__gdtoa+0x1968>
10007b34:	001b0493          	addi	s1,s6,1
10007b38:	00048693          	mv	a3,s1
10007b3c:	00b05663          	blez	a1,10007b48 <__gdtoa+0x1138>
10007b40:	02c12783          	lw	a5,44(sp)
10007b44:	160796e3          	bnez	a5,100084b0 <__gdtoa+0x1aa0>
10007b48:	ff548fa3          	sb	s5,-1(s1)
10007b4c:	08c12783          	lw	a5,140(sp)
10007b50:	02412703          	lw	a4,36(sp)
10007b54:	12e78ce3          	beq	a5,a4,1000848c <__gdtoa+0x1a7c>
10007b58:	00040593          	mv	a1,s0
10007b5c:	00000693          	li	a3,0
10007b60:	00a00613          	li	a2,10
10007b64:	000d8513          	mv	a0,s11
10007b68:	094010ef          	jal	10008bfc <__multadd>
10007b6c:	00050413          	mv	s0,a0
10007b70:	b60508e3          	beqz	a0,100076e0 <__gdtoa+0xcd0>
10007b74:	00090593          	mv	a1,s2
10007b78:	00000693          	li	a3,0
10007b7c:	00a00613          	li	a2,10
10007b80:	000d8513          	mv	a0,s11
10007b84:	11390e63          	beq	s2,s3,10007ca0 <__gdtoa+0x1290>
10007b88:	074010ef          	jal	10008bfc <__multadd>
10007b8c:	00050913          	mv	s2,a0
10007b90:	b40508e3          	beqz	a0,100076e0 <__gdtoa+0xcd0>
10007b94:	00098593          	mv	a1,s3
10007b98:	00000693          	li	a3,0
10007b9c:	00a00613          	li	a2,10
10007ba0:	000d8513          	mv	a0,s11
10007ba4:	058010ef          	jal	10008bfc <__multadd>
10007ba8:	00050993          	mv	s3,a0
10007bac:	b2050ae3          	beqz	a0,100076e0 <__gdtoa+0xcd0>
10007bb0:	08c12683          	lw	a3,140(sp)
10007bb4:	00048b13          	mv	s6,s1
10007bb8:	00168693          	addi	a3,a3,1
10007bbc:	f01ff06f          	j	10007abc <__gdtoa+0x10ac>
10007bc0:	02a12023          	sw	a0,32(sp)
10007bc4:	00040513          	mv	a0,s0
10007bc8:	27d010ef          	jal	10009644 <__mcmp>
10007bcc:	02012583          	lw	a1,32(sp)
10007bd0:	00050a13          	mv	s4,a0
10007bd4:	000d8513          	mv	a0,s11
10007bd8:	000010ef          	jal	10008bd8 <_Bfree>
10007bdc:	00012703          	lw	a4,0(sp)
10007be0:	00ea65b3          	or	a1,s4,a4
10007be4:	58059c63          	bnez	a1,1000817c <__gdtoa+0x176c>
10007be8:	01412783          	lw	a5,20(sp)
10007bec:	00812703          	lw	a4,8(sp)
10007bf0:	0007a783          	lw	a5,0(a5)
10007bf4:	0017f793          	andi	a5,a5,1
10007bf8:	00e7e7b3          	or	a5,a5,a4
10007bfc:	f0079ce3          	bnez	a5,10007b14 <__gdtoa+0x1104>
10007c00:	03900693          	li	a3,57
10007c04:	00098a13          	mv	s4,s3
10007c08:	03012783          	lw	a5,48(sp)
10007c0c:	000a8993          	mv	s3,s5
10007c10:	000b0713          	mv	a4,s6
10007c14:	000b8313          	mv	t1,s7
10007c18:	4eda8863          	beq	s5,a3,10008108 <__gdtoa+0x16f8>
10007c1c:	229058e3          	blez	s1,1000864c <__gdtoa+0x1c3c>
10007c20:	031c0993          	addi	s3,s8,49
10007c24:	02000d13          	li	s10,32
10007c28:	00090893          	mv	a7,s2
10007c2c:	01370023          	sb	s3,0(a4)
10007c30:	000a0913          	mv	s2,s4
10007c34:	00170993          	addi	s3,a4,1
10007c38:	00030593          	mv	a1,t1
10007c3c:	000d8513          	mv	a0,s11
10007c40:	00f12423          	sw	a5,8(sp)
10007c44:	01112023          	sw	a7,0(sp)
10007c48:	791000ef          	jal	10008bd8 <_Bfree>
10007c4c:	00012883          	lw	a7,0(sp)
10007c50:	00812783          	lw	a5,8(sp)
10007c54:	20090ce3          	beqz	s2,1000866c <__gdtoa+0x1c5c>
10007c58:	a0088ae3          	beqz	a7,1000766c <__gdtoa+0xc5c>
10007c5c:	a12888e3          	beq	a7,s2,1000766c <__gdtoa+0xc5c>
10007c60:	00088593          	mv	a1,a7
10007c64:	000d8513          	mv	a0,s11
10007c68:	00f12023          	sw	a5,0(sp)
10007c6c:	76d000ef          	jal	10008bd8 <_Bfree>
10007c70:	00012783          	lw	a5,0(sp)
10007c74:	9f9ff06f          	j	1000766c <__gdtoa+0xc5c>
10007c78:	00000593          	li	a1,0
10007c7c:	000d8513          	mv	a0,s11
10007c80:	00f12023          	sw	a5,0(sp)
10007c84:	755000ef          	jal	10008bd8 <_Bfree>
10007c88:	00812783          	lw	a5,8(sp)
10007c8c:	01000d13          	li	s10,16
10007c90:	40f00c33          	neg	s8,a5
10007c94:	00012783          	lw	a5,0(sp)
10007c98:	00078993          	mv	s3,a5
10007c9c:	d10ff06f          	j	100071ac <__gdtoa+0x79c>
10007ca0:	75d000ef          	jal	10008bfc <__multadd>
10007ca4:	00050913          	mv	s2,a0
10007ca8:	a2050ce3          	beqz	a0,100076e0 <__gdtoa+0xcd0>
10007cac:	00050993          	mv	s3,a0
10007cb0:	f01ff06f          	j	10007bb0 <__gdtoa+0x11a0>
10007cb4:	00040593          	mv	a1,s0
10007cb8:	000d8513          	mv	a0,s11
10007cbc:	02f12a23          	sw	a5,52(sp)
10007cc0:	02612623          	sw	t1,44(sp)
10007cc4:	03012023          	sw	a6,32(sp)
10007cc8:	7f4010ef          	jal	100094bc <__lshift>
10007ccc:	00050413          	mv	s0,a0
10007cd0:	a00508e3          	beqz	a0,100076e0 <__gdtoa+0xcd0>
10007cd4:	08c12703          	lw	a4,140(sp)
10007cd8:	03412783          	lw	a5,52(sp)
10007cdc:	02c12303          	lw	t1,44(sp)
10007ce0:	02012803          	lw	a6,32(sp)
10007ce4:	8e5ff06f          	j	100075c8 <__gdtoa+0xbb8>
10007ce8:	00000a93          	li	s5,0
10007cec:	00500793          	li	a5,5
10007cf0:	00f12023          	sw	a5,0(sp)
10007cf4:	00100793          	li	a5,1
10007cf8:	04f12c23          	sw	a5,88(sp)
10007cfc:	99cff06f          	j	10006e98 <__gdtoa+0x488>
10007d00:	02412703          	lw	a4,36(sp)
10007d04:	03c12683          	lw	a3,60(sp)
10007d08:	fff70713          	addi	a4,a4,-1
10007d0c:	2ce6ce63          	blt	a3,a4,10007fe8 <__gdtoa+0x15d8>
10007d10:	40e68a33          	sub	s4,a3,a4
10007d14:	02412703          	lw	a4,36(sp)
10007d18:	0c0750e3          	bgez	a4,100085d8 <__gdtoa+0x1bc8>
10007d1c:	03812703          	lw	a4,56(sp)
10007d20:	02412683          	lw	a3,36(sp)
10007d24:	08012623          	sw	zero,140(sp)
10007d28:	00070993          	mv	s3,a4
10007d2c:	40d70733          	sub	a4,a4,a3
10007d30:	02e12c23          	sw	a4,56(sp)
10007d34:	f94ff06f          	j	100074c8 <__gdtoa+0xab8>
10007d38:	00050593          	mv	a1,a0
10007d3c:	00070613          	mv	a2,a4
10007d40:	000d8513          	mv	a0,s11
10007d44:	610010ef          	jal	10009354 <__pow5mult>
10007d48:	00050313          	mv	t1,a0
10007d4c:	98050ae3          	beqz	a0,100076e0 <__gdtoa+0xcd0>
10007d50:	00012783          	lw	a5,0(sp)
10007d54:	03412803          	lw	a6,52(sp)
10007d58:	0027a713          	slti	a4,a5,2
10007d5c:	03c12783          	lw	a5,60(sp)
10007d60:	00070663          	beqz	a4,10007d6c <__gdtoa+0x135c>
10007d64:	fff48493          	addi	s1,s1,-1
10007d68:	02048c63          	beqz	s1,10007da0 <__gdtoa+0x1390>
10007d6c:	04012223          	sw	zero,68(sp)
10007d70:	01032703          	lw	a4,16(t1)
10007d74:	02f12a23          	sw	a5,52(sp)
10007d78:	03012623          	sw	a6,44(sp)
10007d7c:	00271713          	slli	a4,a4,0x2
10007d80:	00e30733          	add	a4,t1,a4
10007d84:	01072503          	lw	a0,16(a4)
10007d88:	02612023          	sw	t1,32(sp)
10007d8c:	108010ef          	jal	10008e94 <__hi0bits>
10007d90:	03412783          	lw	a5,52(sp)
10007d94:	02c12803          	lw	a6,44(sp)
10007d98:	02012303          	lw	t1,32(sp)
10007d9c:	80dff06f          	j	100075a8 <__gdtoa+0xb98>
10007da0:	02c12703          	lw	a4,44(sp)
10007da4:	02012683          	lw	a3,32(sp)
10007da8:	00472703          	lw	a4,4(a4)
10007dac:	00170713          	addi	a4,a4,1
10007db0:	fad75ee3          	bge	a4,a3,10007d6c <__gdtoa+0x135c>
10007db4:	03012703          	lw	a4,48(sp)
10007db8:	00198993          	addi	s3,s3,1
10007dbc:	00170713          	addi	a4,a4,1
10007dc0:	02e12823          	sw	a4,48(sp)
10007dc4:	00100713          	li	a4,1
10007dc8:	04e12223          	sw	a4,68(sp)
10007dcc:	fa5ff06f          	j	10007d70 <__gdtoa+0x1360>
10007dd0:	00100793          	li	a5,1
10007dd4:	40e787b3          	sub	a5,a5,a4
10007dd8:	02f12c23          	sw	a5,56(sp)
10007ddc:	01812783          	lw	a5,24(sp)
10007de0:	04012623          	sw	zero,76(sp)
10007de4:	02012e23          	sw	zero,60(sp)
10007de8:	02f12823          	sw	a5,48(sp)
10007dec:	04f12223          	sw	a5,68(sp)
10007df0:	860ff06f          	j	10006e50 <__gdtoa+0x440>
10007df4:	03c12703          	lw	a4,60(sp)
10007df8:	03812983          	lw	s3,56(sp)
10007dfc:	c6070ce3          	beqz	a4,10007a74 <__gdtoa+0x1064>
10007e00:	03c12603          	lw	a2,60(sp)
10007e04:	00040593          	mv	a1,s0
10007e08:	000d8513          	mv	a0,s11
10007e0c:	04f12023          	sw	a5,64(sp)
10007e10:	03012a23          	sw	a6,52(sp)
10007e14:	540010ef          	jal	10009354 <__pow5mult>
10007e18:	00050413          	mv	s0,a0
10007e1c:	8c0502e3          	beqz	a0,100076e0 <__gdtoa+0xcd0>
10007e20:	04012783          	lw	a5,64(sp)
10007e24:	03412803          	lw	a6,52(sp)
10007e28:	03312c23          	sw	s3,56(sp)
10007e2c:	00000913          	li	s2,0
10007e30:	f34ff06f          	j	10007564 <__gdtoa+0xb54>
10007e34:	00012603          	lw	a2,0(sp)
10007e38:	00100713          	li	a4,1
10007e3c:	ecc742e3          	blt	a4,a2,10007d00 <__gdtoa+0x12f0>
10007e40:	03012703          	lw	a4,48(sp)
10007e44:	03c12a03          	lw	s4,60(sp)
10007e48:	00d70733          	add	a4,a4,a3
10007e4c:	02e12823          	sw	a4,48(sp)
10007e50:	03812703          	lw	a4,56(sp)
10007e54:	00e689b3          	add	s3,a3,a4
10007e58:	e70ff06f          	j	100074c8 <__gdtoa+0xab8>
10007e5c:	00030593          	mv	a1,t1
10007e60:	00040513          	mv	a0,s0
10007e64:	02f12823          	sw	a5,48(sp)
10007e68:	03012623          	sw	a6,44(sp)
10007e6c:	02612023          	sw	t1,32(sp)
10007e70:	7d4010ef          	jal	10009644 <__mcmp>
10007e74:	02012303          	lw	t1,32(sp)
10007e78:	02c12803          	lw	a6,44(sp)
10007e7c:	03012783          	lw	a5,48(sp)
10007e80:	f4055e63          	bgez	a0,100075dc <__gdtoa+0xbcc>
10007e84:	00040593          	mv	a1,s0
10007e88:	00000693          	li	a3,0
10007e8c:	00a00613          	li	a2,10
10007e90:	000d8513          	mv	a0,s11
10007e94:	02f12623          	sw	a5,44(sp)
10007e98:	02612223          	sw	t1,36(sp)
10007e9c:	03012023          	sw	a6,32(sp)
10007ea0:	55d000ef          	jal	10008bfc <__multadd>
10007ea4:	00050413          	mv	s0,a0
10007ea8:	82050ce3          	beqz	a0,100076e0 <__gdtoa+0xcd0>
10007eac:	01812783          	lw	a5,24(sp)
10007eb0:	05812703          	lw	a4,88(sp)
10007eb4:	02012803          	lw	a6,32(sp)
10007eb8:	fff78793          	addi	a5,a5,-1
10007ebc:	00f12c23          	sw	a5,24(sp)
10007ec0:	02412303          	lw	t1,36(sp)
10007ec4:	02c12783          	lw	a5,44(sp)
10007ec8:	6c071463          	bnez	a4,10008590 <__gdtoa+0x1b80>
10007ecc:	04812703          	lw	a4,72(sp)
10007ed0:	00e04e63          	bgtz	a4,10007eec <__gdtoa+0x14dc>
10007ed4:	00012703          	lw	a4,0(sp)
10007ed8:	00372713          	slti	a4,a4,3
10007edc:	00071863          	bnez	a4,10007eec <__gdtoa+0x14dc>
10007ee0:	04812703          	lw	a4,72(sp)
10007ee4:	02e12223          	sw	a4,36(sp)
10007ee8:	f08ff06f          	j	100075f0 <__gdtoa+0xbe0>
10007eec:	04812703          	lw	a4,72(sp)
10007ef0:	02e12223          	sw	a4,36(sp)
10007ef4:	00090b13          	mv	s6,s2
10007ef8:	00078493          	mv	s1,a5
10007efc:	02412903          	lw	s2,36(sp)
10007f00:	00100713          	li	a4,1
10007f04:	00080a93          	mv	s5,a6
10007f08:	00030a13          	mv	s4,t1
10007f0c:	00078b93          	mv	s7,a5
10007f10:	0200006f          	j	10007f30 <__gdtoa+0x1520>
10007f14:	00040593          	mv	a1,s0
10007f18:	000d8513          	mv	a0,s11
10007f1c:	4e1000ef          	jal	10008bfc <__multadd>
10007f20:	00050413          	mv	s0,a0
10007f24:	fa050e63          	beqz	a0,100076e0 <__gdtoa+0xcd0>
10007f28:	08c12703          	lw	a4,140(sp)
10007f2c:	00170713          	addi	a4,a4,1
10007f30:	000a0593          	mv	a1,s4
10007f34:	00040513          	mv	a0,s0
10007f38:	08e12623          	sw	a4,140(sp)
10007f3c:	099000ef          	jal	100087d4 <__quorem_D2A>
10007f40:	00148493          	addi	s1,s1,1
10007f44:	03050993          	addi	s3,a0,48
10007f48:	ff348fa3          	sb	s3,-1(s1)
10007f4c:	08c12783          	lw	a5,140(sp)
10007f50:	00000693          	li	a3,0
10007f54:	00a00613          	li	a2,10
10007f58:	fb27cee3          	blt	a5,s2,10007f14 <__gdtoa+0x1504>
10007f5c:	000a8813          	mv	a6,s5
10007f60:	000b0913          	mv	s2,s6
10007f64:	000a0313          	mv	t1,s4
10007f68:	000b8793          	mv	a5,s7
10007f6c:	00000893          	li	a7,0
10007f70:	36080063          	beqz	a6,100082d0 <__gdtoa+0x18c0>
10007f74:	00200713          	li	a4,2
10007f78:	3ae80063          	beq	a6,a4,10008318 <__gdtoa+0x1908>
10007f7c:	01042683          	lw	a3,16(s0)
10007f80:	00100713          	li	a4,1
10007f84:	18d74e63          	blt	a4,a3,10008120 <__gdtoa+0x1710>
10007f88:	01442703          	lw	a4,20(s0)
10007f8c:	18071a63          	bnez	a4,10008120 <__gdtoa+0x1710>
10007f90:	00e03733          	snez	a4,a4
10007f94:	00471d13          	slli	s10,a4,0x4
10007f98:	03000613          	li	a2,48
10007f9c:	00048993          	mv	s3,s1
10007fa0:	fff4c703          	lbu	a4,-1(s1)
10007fa4:	fff48493          	addi	s1,s1,-1
10007fa8:	fec70ae3          	beq	a4,a2,10007f9c <__gdtoa+0x158c>
10007fac:	c8dff06f          	j	10007c38 <__gdtoa+0x1228>
10007fb0:	01412403          	lw	s0,20(sp)
10007fb4:	02012783          	lw	a5,32(sp)
10007fb8:	9f4ff06f          	j	100071ac <__gdtoa+0x79c>
10007fbc:	00812703          	lw	a4,8(sp)
10007fc0:	00078993          	mv	s3,a5
10007fc4:	01000d13          	li	s10,16
10007fc8:	fff74713          	not	a4,a4
10007fcc:	00e12c23          	sw	a4,24(sp)
10007fd0:	e84ff06f          	j	10007654 <__gdtoa+0xc44>
10007fd4:	04012c23          	sw	zero,88(sp)
10007fd8:	c4cff06f          	j	10007424 <__gdtoa+0xa14>
10007fdc:	00100793          	li	a5,1
10007fe0:	04f12c23          	sw	a5,88(sp)
10007fe4:	c40ff06f          	j	10007424 <__gdtoa+0xa14>
10007fe8:	03c12683          	lw	a3,60(sp)
10007fec:	04412603          	lw	a2,68(sp)
10007ff0:	02e12e23          	sw	a4,60(sp)
10007ff4:	40d706b3          	sub	a3,a4,a3
10007ff8:	00d606b3          	add	a3,a2,a3
10007ffc:	04d12223          	sw	a3,68(sp)
10008000:	02412683          	lw	a3,36(sp)
10008004:	02412603          	lw	a2,36(sp)
10008008:	03812703          	lw	a4,56(sp)
1000800c:	08d12623          	sw	a3,140(sp)
10008010:	03012683          	lw	a3,48(sp)
10008014:	00c709b3          	add	s3,a4,a2
10008018:	00000a13          	li	s4,0
1000801c:	00c686b3          	add	a3,a3,a2
10008020:	02d12823          	sw	a3,48(sp)
10008024:	ca4ff06f          	j	100074c8 <__gdtoa+0xab8>
10008028:	00090593          	mv	a1,s2
1000802c:	000a0613          	mv	a2,s4
10008030:	000d8513          	mv	a0,s11
10008034:	04f12023          	sw	a5,64(sp)
10008038:	03012a23          	sw	a6,52(sp)
1000803c:	318010ef          	jal	10009354 <__pow5mult>
10008040:	00050913          	mv	s2,a0
10008044:	e8050e63          	beqz	a0,100076e0 <__gdtoa+0xcd0>
10008048:	00050593          	mv	a1,a0
1000804c:	00040613          	mv	a2,s0
10008050:	000d8513          	mv	a0,s11
10008054:	0b4010ef          	jal	10009108 <__multiply>
10008058:	e8050463          	beqz	a0,100076e0 <__gdtoa+0xcd0>
1000805c:	00040593          	mv	a1,s0
10008060:	04a12823          	sw	a0,80(sp)
10008064:	000d8513          	mv	a0,s11
10008068:	371000ef          	jal	10008bd8 <_Bfree>
1000806c:	03c12703          	lw	a4,60(sp)
10008070:	05012403          	lw	s0,80(sp)
10008074:	03412803          	lw	a6,52(sp)
10008078:	414707b3          	sub	a5,a4,s4
1000807c:	02f12e23          	sw	a5,60(sp)
10008080:	00078713          	mv	a4,a5
10008084:	04012783          	lw	a5,64(sp)
10008088:	cc070e63          	beqz	a4,10007564 <__gdtoa+0xb54>
1000808c:	cb0ff06f          	j	1000753c <__gdtoa+0xb2c>
10008090:	02412683          	lw	a3,36(sp)
10008094:	06012703          	lw	a4,96(sp)
10008098:	9e068463          	beqz	a3,10007280 <__gdtoa+0x870>
1000809c:	04812683          	lw	a3,72(sp)
100080a0:	a6d05a63          	blez	a3,10007314 <__gdtoa+0x904>
100080a4:	00070513          	mv	a0,a4
100080a8:	f001a603          	lw	a2,-256(gp) # 100119d8 <__SDATA_BEGIN__+0x38>
100080ac:	f041a683          	lw	a3,-252(gp) # 100119dc <__SDATA_BEGIN__+0x3c>
100080b0:	000a0593          	mv	a1,s4
100080b4:	06f12023          	sw	a5,96(sp)
100080b8:	7e5040ef          	jal	1000d09c <__muldf3>
100080bc:	f081a603          	lw	a2,-248(gp) # 100119e0 <__SDATA_BEGIN__+0x40>
100080c0:	f0c1a683          	lw	a3,-244(gp) # 100119e4 <__SDATA_BEGIN__+0x44>
100080c4:	00050a93          	mv	s5,a0
100080c8:	00058b13          	mv	s6,a1
100080cc:	04a12823          	sw	a0,80(sp)
100080d0:	00058a13          	mv	s4,a1
100080d4:	7c9040ef          	jal	1000d09c <__muldf3>
100080d8:	f101a603          	lw	a2,-240(gp) # 100119e8 <__SDATA_BEGIN__+0x48>
100080dc:	f141a683          	lw	a3,-236(gp) # 100119ec <__SDATA_BEGIN__+0x4c>
100080e0:	785030ef          	jal	1000c064 <__adddf3>
100080e4:	04812783          	lw	a5,72(sp)
100080e8:	fcc00737          	lui	a4,0xfcc00
100080ec:	00b70333          	add	t1,a4,a1
100080f0:	04f12023          	sw	a5,64(sp)
100080f4:	fff00793          	li	a5,-1
100080f8:	06f12623          	sw	a5,108(sp)
100080fc:	00050993          	mv	s3,a0
10008100:	06012783          	lw	a5,96(sp)
10008104:	ea5fe06f          	j	10006fa8 <__gdtoa+0x598>
10008108:	00170613          	addi	a2,a4,1 # fcc00001 <_sp+0xecbec2e1>
1000810c:	03900693          	li	a3,57
10008110:	00090893          	mv	a7,s2
10008114:	00060493          	mv	s1,a2
10008118:	000a0913          	mv	s2,s4
1000811c:	00d70023          	sb	a3,0(a4)
10008120:	03900613          	li	a2,57
10008124:	0080006f          	j	1000812c <__gdtoa+0x171c>
10008128:	18978663          	beq	a5,s1,100082b4 <__gdtoa+0x18a4>
1000812c:	fff4c683          	lbu	a3,-1(s1)
10008130:	00048993          	mv	s3,s1
10008134:	fff48493          	addi	s1,s1,-1
10008138:	fec688e3          	beq	a3,a2,10008128 <__gdtoa+0x1718>
1000813c:	00168693          	addi	a3,a3,1
10008140:	00d48023          	sb	a3,0(s1)
10008144:	02000d13          	li	s10,32
10008148:	af1ff06f          	j	10007c38 <__gdtoa+0x1228>
1000814c:	00090593          	mv	a1,s2
10008150:	000d8513          	mv	a0,s11
10008154:	02f12623          	sw	a5,44(sp)
10008158:	02612023          	sw	t1,32(sp)
1000815c:	01012423          	sw	a6,8(sp)
10008160:	35c010ef          	jal	100094bc <__lshift>
10008164:	00812803          	lw	a6,8(sp)
10008168:	02012303          	lw	t1,32(sp)
1000816c:	02c12783          	lw	a5,44(sp)
10008170:	00050913          	mv	s2,a0
10008174:	90051ee3          	bnez	a0,10007a90 <__gdtoa+0x1080>
10008178:	d68ff06f          	j	100076e0 <__gdtoa+0xcd0>
1000817c:	000a0593          	mv	a1,s4
10008180:	995ff06f          	j	10007b14 <__gdtoa+0x1104>
10008184:	06c12703          	lw	a4,108(sp)
10008188:	03100913          	li	s2,49
1000818c:	00170713          	addi	a4,a4,1
10008190:	06e12623          	sw	a4,108(sp)
10008194:	808ff06f          	j	1000719c <__gdtoa+0x78c>
10008198:	03100713          	li	a4,49
1000819c:	00e78023          	sb	a4,0(a5)
100081a0:	00000593          	li	a1,0
100081a4:	000d8513          	mv	a0,s11
100081a8:	00178993          	addi	s3,a5,1
100081ac:	00f12023          	sw	a5,0(sp)
100081b0:	229000ef          	jal	10008bd8 <_Bfree>
100081b4:	00012783          	lw	a5,0(sp)
100081b8:	00200c13          	li	s8,2
100081bc:	02000d13          	li	s10,32
100081c0:	fedfe06f          	j	100071ac <__gdtoa+0x79c>
100081c4:	00090693          	mv	a3,s2
100081c8:	00050613          	mv	a2,a0
100081cc:	00f12423          	sw	a5,8(sp)
100081d0:	695030ef          	jal	1000c064 <__adddf3>
100081d4:	00012a03          	lw	s4,0(sp)
100081d8:	00412a83          	lw	s5,4(sp)
100081dc:	00050b13          	mv	s6,a0
100081e0:	000a0613          	mv	a2,s4
100081e4:	000a8693          	mv	a3,s5
100081e8:	00058b93          	mv	s7,a1
100081ec:	501040ef          	jal	1000ceec <__gedf2>
100081f0:	fff9c903          	lbu	s2,-1(s3)
100081f4:	00812783          	lw	a5,8(sp)
100081f8:	12a04c63          	bgtz	a0,10008330 <__gdtoa+0x1920>
100081fc:	000a0613          	mv	a2,s4
10008200:	000a8693          	mv	a3,s5
10008204:	000b0513          	mv	a0,s6
10008208:	000b8593          	mv	a1,s7
1000820c:	00f12023          	sw	a5,0(sp)
10008210:	459040ef          	jal	1000ce68 <__eqdf2>
10008214:	00012783          	lw	a5,0(sp)
10008218:	00051663          	bnez	a0,10008224 <__gdtoa+0x1814>
1000821c:	0014f693          	andi	a3,s1,1
10008220:	10069863          	bnez	a3,10008330 <__gdtoa+0x1920>
10008224:	01812703          	lw	a4,24(sp)
10008228:	00098693          	mv	a3,s3
1000822c:	01000d13          	li	s10,16
10008230:	06e12623          	sw	a4,108(sp)
10008234:	03000593          	li	a1,48
10008238:	fff6c703          	lbu	a4,-1(a3)
1000823c:	00068993          	mv	s3,a3
10008240:	fff68693          	addi	a3,a3,-1
10008244:	feb70ae3          	beq	a4,a1,10008238 <__gdtoa+0x1828>
10008248:	06c12703          	lw	a4,108(sp)
1000824c:	00170c13          	addi	s8,a4,1
10008250:	f5dfe06f          	j	100071ac <__gdtoa+0x79c>
10008254:	00492583          	lw	a1,4(s2)
10008258:	000d8513          	mv	a0,s11
1000825c:	02f12623          	sw	a5,44(sp)
10008260:	02612023          	sw	t1,32(sp)
10008264:	01012423          	sw	a6,8(sp)
10008268:	0c5000ef          	jal	10008b2c <_Balloc>
1000826c:	00050493          	mv	s1,a0
10008270:	c6050863          	beqz	a0,100076e0 <__gdtoa+0xcd0>
10008274:	01092603          	lw	a2,16(s2)
10008278:	00c90593          	addi	a1,s2,12
1000827c:	00c50513          	addi	a0,a0,12
10008280:	00260613          	addi	a2,a2,2 # 3ffe0002 <_sp+0x2ffcc2e2>
10008284:	00261613          	slli	a2,a2,0x2
10008288:	95cfe0ef          	jal	100063e4 <memcpy>
1000828c:	00048593          	mv	a1,s1
10008290:	000d8513          	mv	a0,s11
10008294:	00100613          	li	a2,1
10008298:	224010ef          	jal	100094bc <__lshift>
1000829c:	00812803          	lw	a6,8(sp)
100082a0:	02012303          	lw	t1,32(sp)
100082a4:	02c12783          	lw	a5,44(sp)
100082a8:	00050a13          	mv	s4,a0
100082ac:	fe051863          	bnez	a0,10007a9c <__gdtoa+0x108c>
100082b0:	c30ff06f          	j	100076e0 <__gdtoa+0xcd0>
100082b4:	01812703          	lw	a4,24(sp)
100082b8:	03100693          	li	a3,49
100082bc:	00d78023          	sb	a3,0(a5)
100082c0:	00170713          	addi	a4,a4,1
100082c4:	00e12c23          	sw	a4,24(sp)
100082c8:	02000d13          	li	s10,32
100082cc:	96dff06f          	j	10007c38 <__gdtoa+0x1228>
100082d0:	00040593          	mv	a1,s0
100082d4:	00100613          	li	a2,1
100082d8:	000d8513          	mv	a0,s11
100082dc:	00f12a23          	sw	a5,20(sp)
100082e0:	00612023          	sw	t1,0(sp)
100082e4:	01112423          	sw	a7,8(sp)
100082e8:	1d4010ef          	jal	100094bc <__lshift>
100082ec:	00050413          	mv	s0,a0
100082f0:	be050863          	beqz	a0,100076e0 <__gdtoa+0xcd0>
100082f4:	00012583          	lw	a1,0(sp)
100082f8:	34c010ef          	jal	10009644 <__mcmp>
100082fc:	00012303          	lw	t1,0(sp)
10008300:	00812883          	lw	a7,8(sp)
10008304:	01412783          	lw	a5,20(sp)
10008308:	e0a04ce3          	bgtz	a0,10008120 <__gdtoa+0x1710>
1000830c:	00051663          	bnez	a0,10008318 <__gdtoa+0x1908>
10008310:	0019f993          	andi	s3,s3,1
10008314:	e00996e3          	bnez	s3,10008120 <__gdtoa+0x1710>
10008318:	01042683          	lw	a3,16(s0)
1000831c:	00100713          	li	a4,1
10008320:	01000d13          	li	s10,16
10008324:	c6d74ae3          	blt	a4,a3,10007f98 <__gdtoa+0x1588>
10008328:	01442703          	lw	a4,20(s0)
1000832c:	c65ff06f          	j	10007f90 <__gdtoa+0x1580>
10008330:	01812703          	lw	a4,24(sp)
10008334:	06e12623          	sw	a4,108(sp)
10008338:	e41fe06f          	j	10007178 <__gdtoa+0x768>
1000833c:	07012783          	lw	a5,112(sp)
10008340:	00040a13          	mv	s4,s0
10008344:	000c0413          	mv	s0,s8
10008348:	00000693          	li	a3,0
1000834c:	000a0513          	mv	a0,s4
10008350:	000b8593          	mv	a1,s7
10008354:	00000613          	li	a2,0
10008358:	00f12023          	sw	a5,0(sp)
1000835c:	30d040ef          	jal	1000ce68 <__eqdf2>
10008360:	06c12783          	lw	a5,108(sp)
10008364:	00a036b3          	snez	a3,a0
10008368:	00469d13          	slli	s10,a3,0x4
1000836c:	00178c13          	addi	s8,a5,1
10008370:	00012783          	lw	a5,0(sp)
10008374:	e39fe06f          	j	100071ac <__gdtoa+0x79c>
10008378:	00812803          	lw	a6,8(sp)
1000837c:	00098a13          	mv	s4,s3
10008380:	03012783          	lw	a5,48(sp)
10008384:	000a8993          	mv	s3,s5
10008388:	000b0713          	mv	a4,s6
1000838c:	000b8313          	mv	t1,s7
10008390:	14080c63          	beqz	a6,100084e8 <__gdtoa+0x1ad8>
10008394:	01042603          	lw	a2,16(s0)
10008398:	00100693          	li	a3,1
1000839c:	24c6de63          	bge	a3,a2,100085f8 <__gdtoa+0x1be8>
100083a0:	00200693          	li	a3,2
100083a4:	26d80263          	beq	a6,a3,10008608 <__gdtoa+0x1bf8>
100083a8:	00090b13          	mv	s6,s2
100083ac:	000a0493          	mv	s1,s4
100083b0:	00070913          	mv	s2,a4
100083b4:	00030a93          	mv	s5,t1
100083b8:	00078b93          	mv	s7,a5
100083bc:	0240006f          	j	100083e0 <__gdtoa+0x19d0>
100083c0:	03d000ef          	jal	10008bfc <__multadd>
100083c4:	000a8593          	mv	a1,s5
100083c8:	00050413          	mv	s0,a0
100083cc:	00190913          	addi	s2,s2,1
100083d0:	b0050863          	beqz	a0,100076e0 <__gdtoa+0xcd0>
100083d4:	400000ef          	jal	100087d4 <__quorem_D2A>
100083d8:	00098493          	mv	s1,s3
100083dc:	03050993          	addi	s3,a0,48
100083e0:	00048593          	mv	a1,s1
100083e4:	000a8513          	mv	a0,s5
100083e8:	25c010ef          	jal	10009644 <__mcmp>
100083ec:	00000693          	li	a3,0
100083f0:	00a00613          	li	a2,10
100083f4:	20a05e63          	blez	a0,10008610 <__gdtoa+0x1c00>
100083f8:	01390023          	sb	s3,0(s2)
100083fc:	00048593          	mv	a1,s1
10008400:	000d8513          	mv	a0,s11
10008404:	7f8000ef          	jal	10008bfc <__multadd>
10008408:	00050993          	mv	s3,a0
1000840c:	00000693          	li	a3,0
10008410:	00a00613          	li	a2,10
10008414:	00040593          	mv	a1,s0
10008418:	000d8513          	mv	a0,s11
1000841c:	ac098263          	beqz	s3,100076e0 <__gdtoa+0xcd0>
10008420:	fa9b10e3          	bne	s6,s1,100083c0 <__gdtoa+0x19b0>
10008424:	00098b13          	mv	s6,s3
10008428:	f99ff06f          	j	100083c0 <__gdtoa+0x19b0>
1000842c:	05c12703          	lw	a4,92(sp)
10008430:	07812903          	lw	s2,120(sp)
10008434:	07c12483          	lw	s1,124(sp)
10008438:	04e12823          	sw	a4,80(sp)
1000843c:	03412703          	lw	a4,52(sp)
10008440:	07012783          	lw	a5,112(sp)
10008444:	07412883          	lw	a7,116(sp)
10008448:	06812a03          	lw	s4,104(sp)
1000844c:	000c0413          	mv	s0,s8
10008450:	00000813          	li	a6,0
10008454:	00074463          	bltz	a4,1000845c <__gdtoa+0x1a4c>
10008458:	ee9fe06f          	j	10007340 <__gdtoa+0x930>
1000845c:	ff1fe06f          	j	1000744c <__gdtoa+0xa3c>
10008460:	00000613          	li	a2,0
10008464:	00000693          	li	a3,0
10008468:	00088513          	mv	a0,a7
1000846c:	000e8593          	mv	a1,t4
10008470:	00f12023          	sw	a5,0(sp)
10008474:	1f5040ef          	jal	1000ce68 <__eqdf2>
10008478:	00a03633          	snez	a2,a0
1000847c:	00012783          	lw	a5,0(sp)
10008480:	00098693          	mv	a3,s3
10008484:	00461d13          	slli	s10,a2,0x4
10008488:	dadff06f          	j	10008234 <__gdtoa+0x1824>
1000848c:	00098713          	mv	a4,s3
10008490:	00090893          	mv	a7,s2
10008494:	00812803          	lw	a6,8(sp)
10008498:	03012783          	lw	a5,48(sp)
1000849c:	000a8993          	mv	s3,s5
100084a0:	00068493          	mv	s1,a3
100084a4:	000b8313          	mv	t1,s7
100084a8:	00070913          	mv	s2,a4
100084ac:	ac5ff06f          	j	10007f70 <__gdtoa+0x1560>
100084b0:	03900693          	li	a3,57
100084b4:	03012783          	lw	a5,48(sp)
100084b8:	00098a13          	mv	s4,s3
100084bc:	000b0713          	mv	a4,s6
100084c0:	000b8313          	mv	t1,s7
100084c4:	00048613          	mv	a2,s1
100084c8:	c4da82e3          	beq	s5,a3,1000810c <__gdtoa+0x16fc>
100084cc:	001a8993          	addi	s3,s5,1
100084d0:	013b0023          	sb	s3,0(s6)
100084d4:	00090893          	mv	a7,s2
100084d8:	00048993          	mv	s3,s1
100084dc:	000a0913          	mv	s2,s4
100084e0:	02000d13          	li	s10,32
100084e4:	f54ff06f          	j	10007c38 <__gdtoa+0x1228>
100084e8:	04b05863          	blez	a1,10008538 <__gdtoa+0x1b28>
100084ec:	00040593          	mv	a1,s0
100084f0:	00100613          	li	a2,1
100084f4:	000d8513          	mv	a0,s11
100084f8:	00f12a23          	sw	a5,20(sp)
100084fc:	00612023          	sw	t1,0(sp)
10008500:	00e12423          	sw	a4,8(sp)
10008504:	7b9000ef          	jal	100094bc <__lshift>
10008508:	00050413          	mv	s0,a0
1000850c:	9c050a63          	beqz	a0,100076e0 <__gdtoa+0xcd0>
10008510:	00012583          	lw	a1,0(sp)
10008514:	130010ef          	jal	10009644 <__mcmp>
10008518:	00012303          	lw	t1,0(sp)
1000851c:	00812703          	lw	a4,8(sp)
10008520:	01412783          	lw	a5,20(sp)
10008524:	10a05a63          	blez	a0,10008638 <__gdtoa+0x1c28>
10008528:	03900693          	li	a3,57
1000852c:	bcd98ee3          	beq	s3,a3,10008108 <__gdtoa+0x16f8>
10008530:	031c0993          	addi	s3,s8,49
10008534:	02000813          	li	a6,32
10008538:	01042603          	lw	a2,16(s0)
1000853c:	00100693          	li	a3,1
10008540:	01000d13          	li	s10,16
10008544:	eec6c263          	blt	a3,a2,10007c28 <__gdtoa+0x1218>
10008548:	01442683          	lw	a3,20(s0)
1000854c:	ec069e63          	bnez	a3,10007c28 <__gdtoa+0x1218>
10008550:	00080d13          	mv	s10,a6
10008554:	ed4ff06f          	j	10007c28 <__gdtoa+0x1218>
10008558:	02412703          	lw	a4,36(sp)
1000855c:	03c12683          	lw	a3,60(sp)
10008560:	fff70713          	addi	a4,a4,-1
10008564:	a8e6c2e3          	blt	a3,a4,10007fe8 <__gdtoa+0x15d8>
10008568:	02412603          	lw	a2,36(sp)
1000856c:	03012683          	lw	a3,48(sp)
10008570:	08c12623          	sw	a2,140(sp)
10008574:	00c686b3          	add	a3,a3,a2
10008578:	02d12823          	sw	a3,48(sp)
1000857c:	03c12683          	lw	a3,60(sp)
10008580:	40e68a33          	sub	s4,a3,a4
10008584:	03812703          	lw	a4,56(sp)
10008588:	00c709b3          	add	s3,a4,a2
1000858c:	f3dfe06f          	j	100074c8 <__gdtoa+0xab8>
10008590:	00090593          	mv	a1,s2
10008594:	00000693          	li	a3,0
10008598:	00a00613          	li	a2,10
1000859c:	000d8513          	mv	a0,s11
100085a0:	65c000ef          	jal	10008bfc <__multadd>
100085a4:	00050913          	mv	s2,a0
100085a8:	92050c63          	beqz	a0,100076e0 <__gdtoa+0xcd0>
100085ac:	04812703          	lw	a4,72(sp)
100085b0:	02012803          	lw	a6,32(sp)
100085b4:	02412303          	lw	t1,36(sp)
100085b8:	02c12783          	lw	a5,44(sp)
100085bc:	00e04863          	bgtz	a4,100085cc <__gdtoa+0x1bbc>
100085c0:	00012703          	lw	a4,0(sp)
100085c4:	00372713          	slti	a4,a4,3
100085c8:	90070ce3          	beqz	a4,10007ee0 <__gdtoa+0x14d0>
100085cc:	04812703          	lw	a4,72(sp)
100085d0:	02e12223          	sw	a4,36(sp)
100085d4:	cb0ff06f          	j	10007a84 <__gdtoa+0x1074>
100085d8:	02412683          	lw	a3,36(sp)
100085dc:	08e12623          	sw	a4,140(sp)
100085e0:	03012703          	lw	a4,48(sp)
100085e4:	00d70733          	add	a4,a4,a3
100085e8:	02e12823          	sw	a4,48(sp)
100085ec:	03812703          	lw	a4,56(sp)
100085f0:	00d709b3          	add	s3,a4,a3
100085f4:	ed5fe06f          	j	100074c8 <__gdtoa+0xab8>
100085f8:	01442683          	lw	a3,20(s0)
100085fc:	da0692e3          	bnez	a3,100083a0 <__gdtoa+0x1990>
10008600:	eeb046e3          	bgtz	a1,100084ec <__gdtoa+0x1adc>
10008604:	e24ff06f          	j	10007c28 <__gdtoa+0x1218>
10008608:	01000d13          	li	s10,16
1000860c:	e1cff06f          	j	10007c28 <__gdtoa+0x1218>
10008610:	03900693          	li	a3,57
10008614:	00090713          	mv	a4,s2
10008618:	00048a13          	mv	s4,s1
1000861c:	000b0913          	mv	s2,s6
10008620:	000a8313          	mv	t1,s5
10008624:	000b8793          	mv	a5,s7
10008628:	aed980e3          	beq	s3,a3,10008108 <__gdtoa+0x16f8>
1000862c:	00198993          	addi	s3,s3,1
10008630:	02000d13          	li	s10,32
10008634:	df4ff06f          	j	10007c28 <__gdtoa+0x1218>
10008638:	00051663          	bnez	a0,10008644 <__gdtoa+0x1c34>
1000863c:	0019f693          	andi	a3,s3,1
10008640:	ee0694e3          	bnez	a3,10008528 <__gdtoa+0x1b18>
10008644:	02000813          	li	a6,32
10008648:	ef1ff06f          	j	10008538 <__gdtoa+0x1b28>
1000864c:	01042603          	lw	a2,16(s0)
10008650:	00100693          	li	a3,1
10008654:	01000d13          	li	s10,16
10008658:	dcc6c863          	blt	a3,a2,10007c28 <__gdtoa+0x1218>
1000865c:	01442683          	lw	a3,20(s0)
10008660:	00d036b3          	snez	a3,a3
10008664:	00469d13          	slli	s10,a3,0x4
10008668:	dc0ff06f          	j	10007c28 <__gdtoa+0x1218>
1000866c:	01812703          	lw	a4,24(sp)
10008670:	00170c13          	addi	s8,a4,1
10008674:	b39fe06f          	j	100071ac <__gdtoa+0x79c>

10008678 <__rv_alloc_D2A.part.0>:
10008678:	100116b7          	lui	a3,0x10011
1000867c:	10011537          	lui	a0,0x10011
10008680:	ff010113          	addi	sp,sp,-16
10008684:	b4468693          	addi	a3,a3,-1212 # 10010b44 <__clzsi2+0x1d0>
10008688:	b5850513          	addi	a0,a0,-1192 # 10010b58 <__clzsi2+0x1e4>
1000868c:	00000613          	li	a2,0
10008690:	03900593          	li	a1,57
10008694:	00112623          	sw	ra,12(sp)
10008698:	2f0020ef          	jal	1000a988 <__assert_func>

1000869c <__rv_alloc_D2A>:
1000869c:	ff010113          	addi	sp,sp,-16
100086a0:	00812423          	sw	s0,8(sp)
100086a4:	00112623          	sw	ra,12(sp)
100086a8:	01700693          	li	a3,23
100086ac:	00050413          	mv	s0,a0
100086b0:	00100713          	li	a4,1
100086b4:	00400793          	li	a5,4
100086b8:	04b6f063          	bgeu	a3,a1,100086f8 <__rv_alloc_D2A+0x5c>
100086bc:	00179793          	slli	a5,a5,0x1
100086c0:	01478693          	addi	a3,a5,20
100086c4:	00070613          	mv	a2,a4
100086c8:	00170713          	addi	a4,a4,1
100086cc:	fed5f8e3          	bgeu	a1,a3,100086bc <__rv_alloc_D2A+0x20>
100086d0:	00060593          	mv	a1,a2
100086d4:	02c42e23          	sw	a2,60(s0)
100086d8:	00040513          	mv	a0,s0
100086dc:	450000ef          	jal	10008b2c <_Balloc>
100086e0:	02050263          	beqz	a0,10008704 <__rv_alloc_D2A+0x68>
100086e4:	00c12083          	lw	ra,12(sp)
100086e8:	02a42c23          	sw	a0,56(s0)
100086ec:	00812403          	lw	s0,8(sp)
100086f0:	01010113          	addi	sp,sp,16
100086f4:	00008067          	ret
100086f8:	02052e23          	sw	zero,60(a0)
100086fc:	00000593          	li	a1,0
10008700:	fd9ff06f          	j	100086d8 <__rv_alloc_D2A+0x3c>
10008704:	f75ff0ef          	jal	10008678 <__rv_alloc_D2A.part.0>

10008708 <__nrv_alloc_D2A>:
10008708:	fe010113          	addi	sp,sp,-32
1000870c:	00812c23          	sw	s0,24(sp)
10008710:	00912a23          	sw	s1,20(sp)
10008714:	00112e23          	sw	ra,28(sp)
10008718:	01700813          	li	a6,23
1000871c:	00050493          	mv	s1,a0
10008720:	00058413          	mv	s0,a1
10008724:	00100713          	li	a4,1
10008728:	00400793          	li	a5,4
1000872c:	06d87c63          	bgeu	a6,a3,100087a4 <__nrv_alloc_D2A+0x9c>
10008730:	00179793          	slli	a5,a5,0x1
10008734:	01478513          	addi	a0,a5,20
10008738:	00070593          	mv	a1,a4
1000873c:	00170713          	addi	a4,a4,1
10008740:	fea6f8e3          	bgeu	a3,a0,10008730 <__nrv_alloc_D2A+0x28>
10008744:	02b4ae23          	sw	a1,60(s1)
10008748:	00048513          	mv	a0,s1
1000874c:	00c12623          	sw	a2,12(sp)
10008750:	3dc000ef          	jal	10008b2c <_Balloc>
10008754:	00c12603          	lw	a2,12(sp)
10008758:	06050063          	beqz	a0,100087b8 <__nrv_alloc_D2A+0xb0>
1000875c:	02a4ac23          	sw	a0,56(s1)
10008760:	00044783          	lbu	a5,0(s0)
10008764:	00f50023          	sb	a5,0(a0)
10008768:	04078463          	beqz	a5,100087b0 <__nrv_alloc_D2A+0xa8>
1000876c:	00140593          	addi	a1,s0,1
10008770:	00050793          	mv	a5,a0
10008774:	0005c703          	lbu	a4,0(a1)
10008778:	00158593          	addi	a1,a1,1
1000877c:	00178793          	addi	a5,a5,1
10008780:	00e78023          	sb	a4,0(a5)
10008784:	fe0718e3          	bnez	a4,10008774 <__nrv_alloc_D2A+0x6c>
10008788:	00060463          	beqz	a2,10008790 <__nrv_alloc_D2A+0x88>
1000878c:	00f62023          	sw	a5,0(a2)
10008790:	01c12083          	lw	ra,28(sp)
10008794:	01812403          	lw	s0,24(sp)
10008798:	01412483          	lw	s1,20(sp)
1000879c:	02010113          	addi	sp,sp,32
100087a0:	00008067          	ret
100087a4:	02052e23          	sw	zero,60(a0)
100087a8:	00000593          	li	a1,0
100087ac:	f9dff06f          	j	10008748 <__nrv_alloc_D2A+0x40>
100087b0:	00050793          	mv	a5,a0
100087b4:	fd5ff06f          	j	10008788 <__nrv_alloc_D2A+0x80>
100087b8:	ec1ff0ef          	jal	10008678 <__rv_alloc_D2A.part.0>

100087bc <__freedtoa>:
100087bc:	03c52703          	lw	a4,60(a0)
100087c0:	00100793          	li	a5,1
100087c4:	00e797b3          	sll	a5,a5,a4
100087c8:	00f5a423          	sw	a5,8(a1)
100087cc:	00e5a223          	sw	a4,4(a1)
100087d0:	4080006f          	j	10008bd8 <_Bfree>

100087d4 <__quorem_D2A>:
100087d4:	0105a803          	lw	a6,16(a1)
100087d8:	01052783          	lw	a5,16(a0)
100087dc:	1f07c863          	blt	a5,a6,100089cc <__quorem_D2A+0x1f8>
100087e0:	fff80813          	addi	a6,a6,-1
100087e4:	00281293          	slli	t0,a6,0x2
100087e8:	01458613          	addi	a2,a1,20
100087ec:	00560333          	add	t1,a2,t0
100087f0:	01450e13          	addi	t3,a0,20
100087f4:	00032783          	lw	a5,0(t1)
100087f8:	005e02b3          	add	t0,t3,t0
100087fc:	0002a703          	lw	a4,0(t0)
10008800:	fd010113          	addi	sp,sp,-48
10008804:	00178793          	addi	a5,a5,1
10008808:	02112623          	sw	ra,44(sp)
1000880c:	02812423          	sw	s0,40(sp)
10008810:	02f758b3          	divu	a7,a4,a5
10008814:	0cf76863          	bltu	a4,a5,100088e4 <__quorem_D2A+0x110>
10008818:	02912223          	sw	s1,36(sp)
1000881c:	00060f93          	mv	t6,a2
10008820:	000e0f13          	mv	t5,t3
10008824:	00000493          	li	s1,0
10008828:	00000413          	li	s0,0
1000882c:	000fa783          	lw	a5,0(t6)
10008830:	000f2e83          	lw	t4,0(t5)
10008834:	004f0f13          	addi	t5,t5,4
10008838:	01079693          	slli	a3,a5,0x10
1000883c:	0106d693          	srli	a3,a3,0x10
10008840:	0107d793          	srli	a5,a5,0x10
10008844:	010e9713          	slli	a4,t4,0x10
10008848:	010ed393          	srli	t2,t4,0x10
1000884c:	01075713          	srli	a4,a4,0x10
10008850:	004f8f93          	addi	t6,t6,4
10008854:	031686b3          	mul	a3,a3,a7
10008858:	031787b3          	mul	a5,a5,a7
1000885c:	009686b3          	add	a3,a3,s1
10008860:	01069e93          	slli	t4,a3,0x10
10008864:	010ede93          	srli	t4,t4,0x10
10008868:	0106d693          	srli	a3,a3,0x10
1000886c:	41d70733          	sub	a4,a4,t4
10008870:	40870733          	sub	a4,a4,s0
10008874:	01075e93          	srli	t4,a4,0x10
10008878:	001efe93          	andi	t4,t4,1
1000887c:	01071713          	slli	a4,a4,0x10
10008880:	00d787b3          	add	a5,a5,a3
10008884:	01079693          	slli	a3,a5,0x10
10008888:	0106d693          	srli	a3,a3,0x10
1000888c:	00de86b3          	add	a3,t4,a3
10008890:	0107d493          	srli	s1,a5,0x10
10008894:	40d387b3          	sub	a5,t2,a3
10008898:	01079693          	slli	a3,a5,0x10
1000889c:	01075713          	srli	a4,a4,0x10
100088a0:	00e6e733          	or	a4,a3,a4
100088a4:	0107d793          	srli	a5,a5,0x10
100088a8:	feef2e23          	sw	a4,-4(t5)
100088ac:	0017f413          	andi	s0,a5,1
100088b0:	f7f37ee3          	bgeu	t1,t6,1000882c <__quorem_D2A+0x58>
100088b4:	0002a783          	lw	a5,0(t0)
100088b8:	10079e63          	bnez	a5,100089d4 <__quorem_D2A+0x200>
100088bc:	ffc28293          	addi	t0,t0,-4
100088c0:	005e6863          	bltu	t3,t0,100088d0 <__quorem_D2A+0xfc>
100088c4:	0180006f          	j	100088dc <__quorem_D2A+0x108>
100088c8:	fff80813          	addi	a6,a6,-1
100088cc:	005e7863          	bgeu	t3,t0,100088dc <__quorem_D2A+0x108>
100088d0:	0002a783          	lw	a5,0(t0)
100088d4:	ffc28293          	addi	t0,t0,-4
100088d8:	fe0788e3          	beqz	a5,100088c8 <__quorem_D2A+0xf4>
100088dc:	02412483          	lw	s1,36(sp)
100088e0:	01052823          	sw	a6,16(a0)
100088e4:	01112623          	sw	a7,12(sp)
100088e8:	01c12e23          	sw	t3,28(sp)
100088ec:	00612c23          	sw	t1,24(sp)
100088f0:	00c12a23          	sw	a2,20(sp)
100088f4:	01012823          	sw	a6,16(sp)
100088f8:	00050413          	mv	s0,a0
100088fc:	549000ef          	jal	10009644 <__mcmp>
10008900:	00c12883          	lw	a7,12(sp)
10008904:	0a054a63          	bltz	a0,100089b8 <__quorem_D2A+0x1e4>
10008908:	01c12e03          	lw	t3,28(sp)
1000890c:	01812303          	lw	t1,24(sp)
10008910:	01412603          	lw	a2,20(sp)
10008914:	01012803          	lw	a6,16(sp)
10008918:	00188893          	addi	a7,a7,1
1000891c:	000e0513          	mv	a0,t3
10008920:	00000e93          	li	t4,0
10008924:	00052783          	lw	a5,0(a0)
10008928:	00062683          	lw	a3,0(a2)
1000892c:	00450513          	addi	a0,a0,4
10008930:	01079713          	slli	a4,a5,0x10
10008934:	01069f13          	slli	t5,a3,0x10
10008938:	010f5f13          	srli	t5,t5,0x10
1000893c:	01075713          	srli	a4,a4,0x10
10008940:	41e70733          	sub	a4,a4,t5
10008944:	41d70733          	sub	a4,a4,t4
10008948:	0106d593          	srli	a1,a3,0x10
1000894c:	01075693          	srli	a3,a4,0x10
10008950:	0016f693          	andi	a3,a3,1
10008954:	00b686b3          	add	a3,a3,a1
10008958:	0107d793          	srli	a5,a5,0x10
1000895c:	40d787b3          	sub	a5,a5,a3
10008960:	01071713          	slli	a4,a4,0x10
10008964:	01079693          	slli	a3,a5,0x10
10008968:	01075713          	srli	a4,a4,0x10
1000896c:	00e6e733          	or	a4,a3,a4
10008970:	00460613          	addi	a2,a2,4
10008974:	0107d793          	srli	a5,a5,0x10
10008978:	fee52e23          	sw	a4,-4(a0)
1000897c:	0017fe93          	andi	t4,a5,1
10008980:	fac372e3          	bgeu	t1,a2,10008924 <__quorem_D2A+0x150>
10008984:	00281793          	slli	a5,a6,0x2
10008988:	00fe07b3          	add	a5,t3,a5
1000898c:	0007a703          	lw	a4,0(a5)
10008990:	02071463          	bnez	a4,100089b8 <__quorem_D2A+0x1e4>
10008994:	ffc78793          	addi	a5,a5,-4
10008998:	00fe6863          	bltu	t3,a5,100089a8 <__quorem_D2A+0x1d4>
1000899c:	0180006f          	j	100089b4 <__quorem_D2A+0x1e0>
100089a0:	fff80813          	addi	a6,a6,-1
100089a4:	00fe7863          	bgeu	t3,a5,100089b4 <__quorem_D2A+0x1e0>
100089a8:	0007a703          	lw	a4,0(a5)
100089ac:	ffc78793          	addi	a5,a5,-4
100089b0:	fe0708e3          	beqz	a4,100089a0 <__quorem_D2A+0x1cc>
100089b4:	01042823          	sw	a6,16(s0)
100089b8:	02c12083          	lw	ra,44(sp)
100089bc:	02812403          	lw	s0,40(sp)
100089c0:	00088513          	mv	a0,a7
100089c4:	03010113          	addi	sp,sp,48
100089c8:	00008067          	ret
100089cc:	00000513          	li	a0,0
100089d0:	00008067          	ret
100089d4:	02412483          	lw	s1,36(sp)
100089d8:	f0dff06f          	j	100088e4 <__quorem_D2A+0x110>

100089dc <__rshift_D2A>:
100089dc:	01052803          	lw	a6,16(a0)
100089e0:	4055de13          	srai	t3,a1,0x5
100089e4:	010e4863          	blt	t3,a6,100089f4 <__rshift_D2A+0x18>
100089e8:	00052823          	sw	zero,16(a0)
100089ec:	00052a23          	sw	zero,20(a0)
100089f0:	00008067          	ret
100089f4:	01450313          	addi	t1,a0,20
100089f8:	00281613          	slli	a2,a6,0x2
100089fc:	002e1793          	slli	a5,t3,0x2
10008a00:	01f5f593          	andi	a1,a1,31
10008a04:	00c30633          	add	a2,t1,a2
10008a08:	00f307b3          	add	a5,t1,a5
10008a0c:	06058263          	beqz	a1,10008a70 <__rshift_D2A+0x94>
10008a10:	0007a683          	lw	a3,0(a5)
10008a14:	00478793          	addi	a5,a5,4
10008a18:	00b6d6b3          	srl	a3,a3,a1
10008a1c:	08c7f863          	bgeu	a5,a2,10008aac <__rshift_D2A+0xd0>
10008a20:	02000e93          	li	t4,32
10008a24:	40be8eb3          	sub	t4,t4,a1
10008a28:	00030893          	mv	a7,t1
10008a2c:	0007a703          	lw	a4,0(a5)
10008a30:	00488893          	addi	a7,a7,4
10008a34:	00478793          	addi	a5,a5,4
10008a38:	01d71733          	sll	a4,a4,t4
10008a3c:	00d76733          	or	a4,a4,a3
10008a40:	fee8ae23          	sw	a4,-4(a7)
10008a44:	ffc7a683          	lw	a3,-4(a5)
10008a48:	00b6d6b3          	srl	a3,a3,a1
10008a4c:	fec7e0e3          	bltu	a5,a2,10008a2c <__rshift_D2A+0x50>
10008a50:	41c80833          	sub	a6,a6,t3
10008a54:	00281813          	slli	a6,a6,0x2
10008a58:	01030833          	add	a6,t1,a6
10008a5c:	fed82e23          	sw	a3,-4(a6)
10008a60:	ffc80813          	addi	a6,a6,-4
10008a64:	02068a63          	beqz	a3,10008a98 <__rshift_D2A+0xbc>
10008a68:	00480813          	addi	a6,a6,4
10008a6c:	02c0006f          	j	10008a98 <__rshift_D2A+0xbc>
10008a70:	00030713          	mv	a4,t1
10008a74:	f6c7fae3          	bgeu	a5,a2,100089e8 <__rshift_D2A+0xc>
10008a78:	0007a683          	lw	a3,0(a5)
10008a7c:	00478793          	addi	a5,a5,4
10008a80:	00470713          	addi	a4,a4,4
10008a84:	fed72e23          	sw	a3,-4(a4)
10008a88:	fec7e8e3          	bltu	a5,a2,10008a78 <__rshift_D2A+0x9c>
10008a8c:	41c80833          	sub	a6,a6,t3
10008a90:	00281813          	slli	a6,a6,0x2
10008a94:	01030833          	add	a6,t1,a6
10008a98:	406807b3          	sub	a5,a6,t1
10008a9c:	4027d793          	srai	a5,a5,0x2
10008aa0:	00f52823          	sw	a5,16(a0)
10008aa4:	f46804e3          	beq	a6,t1,100089ec <__rshift_D2A+0x10>
10008aa8:	00008067          	ret
10008aac:	00d52a23          	sw	a3,20(a0)
10008ab0:	f2068ce3          	beqz	a3,100089e8 <__rshift_D2A+0xc>
10008ab4:	00030813          	mv	a6,t1
10008ab8:	00480813          	addi	a6,a6,4
10008abc:	fddff06f          	j	10008a98 <__rshift_D2A+0xbc>

10008ac0 <__trailz_D2A>:
10008ac0:	01052683          	lw	a3,16(a0)
10008ac4:	01450513          	addi	a0,a0,20
10008ac8:	00000793          	li	a5,0
10008acc:	00269693          	slli	a3,a3,0x2
10008ad0:	00d506b3          	add	a3,a0,a3
10008ad4:	00d56a63          	bltu	a0,a3,10008ae8 <__trailz_D2A+0x28>
10008ad8:	04c0006f          	j	10008b24 <__trailz_D2A+0x64>
10008adc:	00450513          	addi	a0,a0,4
10008ae0:	02078793          	addi	a5,a5,32
10008ae4:	04d57063          	bgeu	a0,a3,10008b24 <__trailz_D2A+0x64>
10008ae8:	00052703          	lw	a4,0(a0)
10008aec:	fe0708e3          	beqz	a4,10008adc <__trailz_D2A+0x1c>
10008af0:	02d57a63          	bgeu	a0,a3,10008b24 <__trailz_D2A+0x64>
10008af4:	fd010113          	addi	sp,sp,-48
10008af8:	01c10513          	addi	a0,sp,28
10008afc:	02112623          	sw	ra,44(sp)
10008b00:	00f12623          	sw	a5,12(sp)
10008b04:	00e12e23          	sw	a4,28(sp)
10008b08:	418000ef          	jal	10008f20 <__lo0bits>
10008b0c:	00c12783          	lw	a5,12(sp)
10008b10:	02c12083          	lw	ra,44(sp)
10008b14:	00a787b3          	add	a5,a5,a0
10008b18:	00078513          	mv	a0,a5
10008b1c:	03010113          	addi	sp,sp,48
10008b20:	00008067          	ret
10008b24:	00078513          	mv	a0,a5
10008b28:	00008067          	ret

10008b2c <_Balloc>:
10008b2c:	04452783          	lw	a5,68(a0)
10008b30:	fe010113          	addi	sp,sp,-32
10008b34:	00112e23          	sw	ra,28(sp)
10008b38:	00050713          	mv	a4,a0
10008b3c:	00058693          	mv	a3,a1
10008b40:	02078863          	beqz	a5,10008b70 <_Balloc+0x44>
10008b44:	00269613          	slli	a2,a3,0x2
10008b48:	00c787b3          	add	a5,a5,a2
10008b4c:	0007a503          	lw	a0,0(a5)
10008b50:	04050863          	beqz	a0,10008ba0 <_Balloc+0x74>
10008b54:	00052703          	lw	a4,0(a0)
10008b58:	00e7a023          	sw	a4,0(a5)
10008b5c:	00052823          	sw	zero,16(a0)
10008b60:	00052623          	sw	zero,12(a0)
10008b64:	01c12083          	lw	ra,28(sp)
10008b68:	02010113          	addi	sp,sp,32
10008b6c:	00008067          	ret
10008b70:	00b12623          	sw	a1,12(sp)
10008b74:	02100613          	li	a2,33
10008b78:	00400593          	li	a1,4
10008b7c:	00a12423          	sw	a0,8(sp)
10008b80:	66d010ef          	jal	1000a9ec <_calloc_r>
10008b84:	00812703          	lw	a4,8(sp)
10008b88:	00c12683          	lw	a3,12(sp)
10008b8c:	00050793          	mv	a5,a0
10008b90:	04a72223          	sw	a0,68(a4)
10008b94:	fa0518e3          	bnez	a0,10008b44 <_Balloc+0x18>
10008b98:	00000513          	li	a0,0
10008b9c:	fc9ff06f          	j	10008b64 <_Balloc+0x38>
10008ba0:	00100593          	li	a1,1
10008ba4:	00d597b3          	sll	a5,a1,a3
10008ba8:	00578613          	addi	a2,a5,5
10008bac:	00070513          	mv	a0,a4
10008bb0:	00261613          	slli	a2,a2,0x2
10008bb4:	00d12623          	sw	a3,12(sp)
10008bb8:	00f12423          	sw	a5,8(sp)
10008bbc:	631010ef          	jal	1000a9ec <_calloc_r>
10008bc0:	fc050ce3          	beqz	a0,10008b98 <_Balloc+0x6c>
10008bc4:	00c12683          	lw	a3,12(sp)
10008bc8:	00812783          	lw	a5,8(sp)
10008bcc:	00d52223          	sw	a3,4(a0)
10008bd0:	00f52423          	sw	a5,8(a0)
10008bd4:	f89ff06f          	j	10008b5c <_Balloc+0x30>

10008bd8 <_Bfree>:
10008bd8:	02058063          	beqz	a1,10008bf8 <_Bfree+0x20>
10008bdc:	0045a703          	lw	a4,4(a1)
10008be0:	04452783          	lw	a5,68(a0)
10008be4:	00271713          	slli	a4,a4,0x2
10008be8:	00e787b3          	add	a5,a5,a4
10008bec:	0007a703          	lw	a4,0(a5)
10008bf0:	00e5a023          	sw	a4,0(a1)
10008bf4:	00b7a023          	sw	a1,0(a5)
10008bf8:	00008067          	ret

10008bfc <__multadd>:
10008bfc:	0105ae03          	lw	t3,16(a1)
10008c00:	00058e93          	mv	t4,a1
10008c04:	00068313          	mv	t1,a3
10008c08:	01458813          	addi	a6,a1,20
10008c0c:	00000893          	li	a7,0
10008c10:	00082783          	lw	a5,0(a6)
10008c14:	00480813          	addi	a6,a6,4
10008c18:	00188893          	addi	a7,a7,1
10008c1c:	01079713          	slli	a4,a5,0x10
10008c20:	01075713          	srli	a4,a4,0x10
10008c24:	0107d693          	srli	a3,a5,0x10
10008c28:	02c707b3          	mul	a5,a4,a2
10008c2c:	02c686b3          	mul	a3,a3,a2
10008c30:	006787b3          	add	a5,a5,t1
10008c34:	0107d713          	srli	a4,a5,0x10
10008c38:	01079793          	slli	a5,a5,0x10
10008c3c:	0107d793          	srli	a5,a5,0x10
10008c40:	00e686b3          	add	a3,a3,a4
10008c44:	01069713          	slli	a4,a3,0x10
10008c48:	00f707b3          	add	a5,a4,a5
10008c4c:	fef82e23          	sw	a5,-4(a6)
10008c50:	0106d313          	srli	t1,a3,0x10
10008c54:	fbc8cee3          	blt	a7,t3,10008c10 <__multadd+0x14>
10008c58:	02030063          	beqz	t1,10008c78 <__multadd+0x7c>
10008c5c:	008ea783          	lw	a5,8(t4)
10008c60:	02fe5063          	bge	t3,a5,10008c80 <__multadd+0x84>
10008c64:	002e1713          	slli	a4,t3,0x2
10008c68:	00ee8733          	add	a4,t4,a4
10008c6c:	00672a23          	sw	t1,20(a4)
10008c70:	001e0793          	addi	a5,t3,1
10008c74:	00fea823          	sw	a5,16(t4)
10008c78:	000e8513          	mv	a0,t4
10008c7c:	00008067          	ret
10008c80:	004ea583          	lw	a1,4(t4)
10008c84:	fe010113          	addi	sp,sp,-32
10008c88:	00812c23          	sw	s0,24(sp)
10008c8c:	00158593          	addi	a1,a1,1
10008c90:	00612423          	sw	t1,8(sp)
10008c94:	01c12223          	sw	t3,4(sp)
10008c98:	01d12023          	sw	t4,0(sp)
10008c9c:	00112e23          	sw	ra,28(sp)
10008ca0:	00050413          	mv	s0,a0
10008ca4:	e89ff0ef          	jal	10008b2c <_Balloc>
10008ca8:	00012e83          	lw	t4,0(sp)
10008cac:	00412e03          	lw	t3,4(sp)
10008cb0:	00812303          	lw	t1,8(sp)
10008cb4:	00050713          	mv	a4,a0
10008cb8:	08050063          	beqz	a0,10008d38 <__multadd+0x13c>
10008cbc:	010ea603          	lw	a2,16(t4)
10008cc0:	00ce8593          	addi	a1,t4,12
10008cc4:	00c50513          	addi	a0,a0,12
10008cc8:	00260613          	addi	a2,a2,2
10008ccc:	00261613          	slli	a2,a2,0x2
10008cd0:	00612623          	sw	t1,12(sp)
10008cd4:	01c12423          	sw	t3,8(sp)
10008cd8:	01d12223          	sw	t4,4(sp)
10008cdc:	00e12023          	sw	a4,0(sp)
10008ce0:	f04fd0ef          	jal	100063e4 <memcpy>
10008ce4:	00412e83          	lw	t4,4(sp)
10008ce8:	04442783          	lw	a5,68(s0)
10008cec:	00812e03          	lw	t3,8(sp)
10008cf0:	004ea683          	lw	a3,4(t4)
10008cf4:	00c12303          	lw	t1,12(sp)
10008cf8:	002e1713          	slli	a4,t3,0x2
10008cfc:	00269693          	slli	a3,a3,0x2
10008d00:	00d787b3          	add	a5,a5,a3
10008d04:	0007a683          	lw	a3,0(a5)
10008d08:	01c12083          	lw	ra,28(sp)
10008d0c:	01812403          	lw	s0,24(sp)
10008d10:	00dea023          	sw	a3,0(t4)
10008d14:	01d7a023          	sw	t4,0(a5)
10008d18:	00012e83          	lw	t4,0(sp)
10008d1c:	001e0793          	addi	a5,t3,1
10008d20:	00ee8733          	add	a4,t4,a4
10008d24:	00672a23          	sw	t1,20(a4)
10008d28:	00fea823          	sw	a5,16(t4)
10008d2c:	000e8513          	mv	a0,t4
10008d30:	02010113          	addi	sp,sp,32
10008d34:	00008067          	ret
10008d38:	100116b7          	lui	a3,0x10011
10008d3c:	10011537          	lui	a0,0x10011
10008d40:	b4468693          	addi	a3,a3,-1212 # 10010b44 <__clzsi2+0x1d0>
10008d44:	ba850513          	addi	a0,a0,-1112 # 10010ba8 <__clzsi2+0x234>
10008d48:	00000613          	li	a2,0
10008d4c:	0ba00593          	li	a1,186
10008d50:	439010ef          	jal	1000a988 <__assert_func>

10008d54 <__s2b>:
10008d54:	fe010113          	addi	sp,sp,-32
10008d58:	00812c23          	sw	s0,24(sp)
10008d5c:	01212823          	sw	s2,16(sp)
10008d60:	01312623          	sw	s3,12(sp)
10008d64:	01412423          	sw	s4,8(sp)
10008d68:	01512223          	sw	s5,4(sp)
10008d6c:	00112e23          	sw	ra,28(sp)
10008d70:	00912a23          	sw	s1,20(sp)
10008d74:	00900793          	li	a5,9
10008d78:	00068993          	mv	s3,a3
10008d7c:	00060a13          	mv	s4,a2
10008d80:	00050913          	mv	s2,a0
10008d84:	00058a93          	mv	s5,a1
10008d88:	00070413          	mv	s0,a4
10008d8c:	0ed7d263          	bge	a5,a3,10008e70 <__s2b+0x11c>
10008d90:	38e397b7          	lui	a5,0x38e39
10008d94:	e3978793          	addi	a5,a5,-455 # 38e38e39 <_sp+0x28e25119>
10008d98:	00868693          	addi	a3,a3,8
10008d9c:	02f6b6b3          	mulhu	a3,a3,a5
10008da0:	00000593          	li	a1,0
10008da4:	00100793          	li	a5,1
10008da8:	0016d693          	srli	a3,a3,0x1
10008dac:	00179793          	slli	a5,a5,0x1
10008db0:	00158593          	addi	a1,a1,1
10008db4:	fed7cce3          	blt	a5,a3,10008dac <__s2b+0x58>
10008db8:	00090513          	mv	a0,s2
10008dbc:	d71ff0ef          	jal	10008b2c <_Balloc>
10008dc0:	00050593          	mv	a1,a0
10008dc4:	0a050a63          	beqz	a0,10008e78 <__s2b+0x124>
10008dc8:	00100793          	li	a5,1
10008dcc:	00f52823          	sw	a5,16(a0)
10008dd0:	00852a23          	sw	s0,20(a0)
10008dd4:	00900793          	li	a5,9
10008dd8:	0947d663          	bge	a5,s4,10008e64 <__s2b+0x110>
10008ddc:	009a8413          	addi	s0,s5,9
10008de0:	00040493          	mv	s1,s0
10008de4:	014a8ab3          	add	s5,s5,s4
10008de8:	0004c683          	lbu	a3,0(s1)
10008dec:	00a00613          	li	a2,10
10008df0:	00090513          	mv	a0,s2
10008df4:	fd068693          	addi	a3,a3,-48
10008df8:	00148493          	addi	s1,s1,1
10008dfc:	e01ff0ef          	jal	10008bfc <__multadd>
10008e00:	00050593          	mv	a1,a0
10008e04:	ff5492e3          	bne	s1,s5,10008de8 <__s2b+0x94>
10008e08:	01440433          	add	s0,s0,s4
10008e0c:	ff840413          	addi	s0,s0,-8
10008e10:	033a5663          	bge	s4,s3,10008e3c <__s2b+0xe8>
10008e14:	414984b3          	sub	s1,s3,s4
10008e18:	009404b3          	add	s1,s0,s1
10008e1c:	00044683          	lbu	a3,0(s0)
10008e20:	00a00613          	li	a2,10
10008e24:	00090513          	mv	a0,s2
10008e28:	fd068693          	addi	a3,a3,-48
10008e2c:	00140413          	addi	s0,s0,1
10008e30:	dcdff0ef          	jal	10008bfc <__multadd>
10008e34:	00050593          	mv	a1,a0
10008e38:	fe9412e3          	bne	s0,s1,10008e1c <__s2b+0xc8>
10008e3c:	01c12083          	lw	ra,28(sp)
10008e40:	01812403          	lw	s0,24(sp)
10008e44:	01412483          	lw	s1,20(sp)
10008e48:	01012903          	lw	s2,16(sp)
10008e4c:	00c12983          	lw	s3,12(sp)
10008e50:	00812a03          	lw	s4,8(sp)
10008e54:	00412a83          	lw	s5,4(sp)
10008e58:	00058513          	mv	a0,a1
10008e5c:	02010113          	addi	sp,sp,32
10008e60:	00008067          	ret
10008e64:	00aa8413          	addi	s0,s5,10
10008e68:	00078a13          	mv	s4,a5
10008e6c:	fa5ff06f          	j	10008e10 <__s2b+0xbc>
10008e70:	00000593          	li	a1,0
10008e74:	f45ff06f          	j	10008db8 <__s2b+0x64>
10008e78:	100116b7          	lui	a3,0x10011
10008e7c:	10011537          	lui	a0,0x10011
10008e80:	b4468693          	addi	a3,a3,-1212 # 10010b44 <__clzsi2+0x1d0>
10008e84:	ba850513          	addi	a0,a0,-1112 # 10010ba8 <__clzsi2+0x234>
10008e88:	00000613          	li	a2,0
10008e8c:	0d300593          	li	a1,211
10008e90:	2f9010ef          	jal	1000a988 <__assert_func>

10008e94 <__hi0bits>:
10008e94:	00050793          	mv	a5,a0
10008e98:	00010737          	lui	a4,0x10
10008e9c:	00000513          	li	a0,0
10008ea0:	00e7f663          	bgeu	a5,a4,10008eac <__hi0bits+0x18>
10008ea4:	01079793          	slli	a5,a5,0x10
10008ea8:	01000513          	li	a0,16
10008eac:	01000737          	lui	a4,0x1000
10008eb0:	00e7f663          	bgeu	a5,a4,10008ebc <__hi0bits+0x28>
10008eb4:	00850513          	addi	a0,a0,8
10008eb8:	00879793          	slli	a5,a5,0x8
10008ebc:	10000737          	lui	a4,0x10000
10008ec0:	00e7ee63          	bltu	a5,a4,10008edc <__hi0bits+0x48>
10008ec4:	40000737          	lui	a4,0x40000
10008ec8:	02e7fe63          	bgeu	a5,a4,10008f04 <__hi0bits+0x70>
10008ecc:	00279713          	slli	a4,a5,0x2
10008ed0:	04074463          	bltz	a4,10008f18 <__hi0bits+0x84>
10008ed4:	00350513          	addi	a0,a0,3
10008ed8:	00008067          	ret
10008edc:	00479713          	slli	a4,a5,0x4
10008ee0:	400006b7          	lui	a3,0x40000
10008ee4:	00450513          	addi	a0,a0,4
10008ee8:	02d77063          	bgeu	a4,a3,10008f08 <__hi0bits+0x74>
10008eec:	00679793          	slli	a5,a5,0x6
10008ef0:	0207c463          	bltz	a5,10008f18 <__hi0bits+0x84>
10008ef4:	00179713          	slli	a4,a5,0x1
10008ef8:	fc074ee3          	bltz	a4,10008ed4 <__hi0bits+0x40>
10008efc:	02000513          	li	a0,32
10008f00:	00008067          	ret
10008f04:	00078713          	mv	a4,a5
10008f08:	fff74713          	not	a4,a4
10008f0c:	01f75713          	srli	a4,a4,0x1f
10008f10:	00e50533          	add	a0,a0,a4
10008f14:	00008067          	ret
10008f18:	00250513          	addi	a0,a0,2
10008f1c:	00008067          	ret

10008f20 <__lo0bits>:
10008f20:	00052783          	lw	a5,0(a0)
10008f24:	0077f713          	andi	a4,a5,7
10008f28:	02070663          	beqz	a4,10008f54 <__lo0bits+0x34>
10008f2c:	0017f693          	andi	a3,a5,1
10008f30:	00000713          	li	a4,0
10008f34:	00069c63          	bnez	a3,10008f4c <__lo0bits+0x2c>
10008f38:	0027f713          	andi	a4,a5,2
10008f3c:	0a070e63          	beqz	a4,10008ff8 <__lo0bits+0xd8>
10008f40:	0017d793          	srli	a5,a5,0x1
10008f44:	00f52023          	sw	a5,0(a0)
10008f48:	00100713          	li	a4,1
10008f4c:	00070513          	mv	a0,a4
10008f50:	00008067          	ret
10008f54:	01079713          	slli	a4,a5,0x10
10008f58:	01075713          	srli	a4,a4,0x10
10008f5c:	04071463          	bnez	a4,10008fa4 <__lo0bits+0x84>
10008f60:	0107d793          	srli	a5,a5,0x10
10008f64:	0ff7f693          	zext.b	a3,a5
10008f68:	01000713          	li	a4,16
10008f6c:	00069663          	bnez	a3,10008f78 <__lo0bits+0x58>
10008f70:	01800713          	li	a4,24
10008f74:	0087d793          	srli	a5,a5,0x8
10008f78:	00f7f693          	andi	a3,a5,15
10008f7c:	06068263          	beqz	a3,10008fe0 <__lo0bits+0xc0>
10008f80:	0037f693          	andi	a3,a5,3
10008f84:	04068063          	beqz	a3,10008fc4 <__lo0bits+0xa4>
10008f88:	0017f693          	andi	a3,a5,1
10008f8c:	00069663          	bnez	a3,10008f98 <__lo0bits+0x78>
10008f90:	00170713          	addi	a4,a4,1 # 40000001 <_sp+0x2ffec2e1>
10008f94:	0017d793          	srli	a5,a5,0x1
10008f98:	00f52023          	sw	a5,0(a0)
10008f9c:	00070513          	mv	a0,a4
10008fa0:	00008067          	ret
10008fa4:	0ff7f713          	zext.b	a4,a5
10008fa8:	04070263          	beqz	a4,10008fec <__lo0bits+0xcc>
10008fac:	00f7f713          	andi	a4,a5,15
10008fb0:	06071663          	bnez	a4,1000901c <__lo0bits+0xfc>
10008fb4:	00400713          	li	a4,4
10008fb8:	0047d793          	srli	a5,a5,0x4
10008fbc:	0037f693          	andi	a3,a5,3
10008fc0:	fc0694e3          	bnez	a3,10008f88 <__lo0bits+0x68>
10008fc4:	0027d693          	srli	a3,a5,0x2
10008fc8:	0016f613          	andi	a2,a3,1
10008fcc:	04060063          	beqz	a2,1000900c <__lo0bits+0xec>
10008fd0:	00068793          	mv	a5,a3
10008fd4:	00270713          	addi	a4,a4,2
10008fd8:	00f52023          	sw	a5,0(a0)
10008fdc:	fc1ff06f          	j	10008f9c <__lo0bits+0x7c>
10008fe0:	00470713          	addi	a4,a4,4
10008fe4:	0047d793          	srli	a5,a5,0x4
10008fe8:	fd5ff06f          	j	10008fbc <__lo0bits+0x9c>
10008fec:	00800713          	li	a4,8
10008ff0:	0087d793          	srli	a5,a5,0x8
10008ff4:	f85ff06f          	j	10008f78 <__lo0bits+0x58>
10008ff8:	0027d793          	srli	a5,a5,0x2
10008ffc:	00200713          	li	a4,2
10009000:	00f52023          	sw	a5,0(a0)
10009004:	00070513          	mv	a0,a4
10009008:	00008067          	ret
1000900c:	0037d793          	srli	a5,a5,0x3
10009010:	00079e63          	bnez	a5,1000902c <__lo0bits+0x10c>
10009014:	02000713          	li	a4,32
10009018:	f35ff06f          	j	10008f4c <__lo0bits+0x2c>
1000901c:	0037d793          	srli	a5,a5,0x3
10009020:	00300713          	li	a4,3
10009024:	00f52023          	sw	a5,0(a0)
10009028:	f75ff06f          	j	10008f9c <__lo0bits+0x7c>
1000902c:	00370713          	addi	a4,a4,3
10009030:	00f52023          	sw	a5,0(a0)
10009034:	f69ff06f          	j	10008f9c <__lo0bits+0x7c>

10009038 <__i2b>:
10009038:	04452783          	lw	a5,68(a0)
1000903c:	fe010113          	addi	sp,sp,-32
10009040:	00112e23          	sw	ra,28(sp)
10009044:	00050713          	mv	a4,a0
10009048:	00058693          	mv	a3,a1
1000904c:	02078863          	beqz	a5,1000907c <__i2b+0x44>
10009050:	0047a503          	lw	a0,4(a5)
10009054:	06050663          	beqz	a0,100090c0 <__i2b+0x88>
10009058:	00052703          	lw	a4,0(a0)
1000905c:	01c12083          	lw	ra,28(sp)
10009060:	00e7a223          	sw	a4,4(a5)
10009064:	00100793          	li	a5,1
10009068:	00052623          	sw	zero,12(a0)
1000906c:	00d52a23          	sw	a3,20(a0)
10009070:	00f52823          	sw	a5,16(a0)
10009074:	02010113          	addi	sp,sp,32
10009078:	00008067          	ret
1000907c:	00b12623          	sw	a1,12(sp)
10009080:	02100613          	li	a2,33
10009084:	00400593          	li	a1,4
10009088:	00a12423          	sw	a0,8(sp)
1000908c:	161010ef          	jal	1000a9ec <_calloc_r>
10009090:	00812703          	lw	a4,8(sp)
10009094:	00c12683          	lw	a3,12(sp)
10009098:	00050793          	mv	a5,a0
1000909c:	04a72223          	sw	a0,68(a4)
100090a0:	fa0518e3          	bnez	a0,10009050 <__i2b+0x18>
100090a4:	100116b7          	lui	a3,0x10011
100090a8:	10011537          	lui	a0,0x10011
100090ac:	b4468693          	addi	a3,a3,-1212 # 10010b44 <__clzsi2+0x1d0>
100090b0:	ba850513          	addi	a0,a0,-1112 # 10010ba8 <__clzsi2+0x234>
100090b4:	00000613          	li	a2,0
100090b8:	14500593          	li	a1,325
100090bc:	0cd010ef          	jal	1000a988 <__assert_func>
100090c0:	00070513          	mv	a0,a4
100090c4:	01c00613          	li	a2,28
100090c8:	00100593          	li	a1,1
100090cc:	00d12423          	sw	a3,8(sp)
100090d0:	11d010ef          	jal	1000a9ec <_calloc_r>
100090d4:	fc0508e3          	beqz	a0,100090a4 <__i2b+0x6c>
100090d8:	00812683          	lw	a3,8(sp)
100090dc:	01c12083          	lw	ra,28(sp)
100090e0:	00200793          	li	a5,2
100090e4:	00f52423          	sw	a5,8(a0)
100090e8:	00100713          	li	a4,1
100090ec:	00100793          	li	a5,1
100090f0:	00e52223          	sw	a4,4(a0)
100090f4:	00052623          	sw	zero,12(a0)
100090f8:	00d52a23          	sw	a3,20(a0)
100090fc:	00f52823          	sw	a5,16(a0)
10009100:	02010113          	addi	sp,sp,32
10009104:	00008067          	ret

10009108 <__multiply>:
10009108:	fe010113          	addi	sp,sp,-32
1000910c:	01212823          	sw	s2,16(sp)
10009110:	01312623          	sw	s3,12(sp)
10009114:	0105a903          	lw	s2,16(a1)
10009118:	01062983          	lw	s3,16(a2)
1000911c:	00912a23          	sw	s1,20(sp)
10009120:	01412423          	sw	s4,8(sp)
10009124:	00112e23          	sw	ra,28(sp)
10009128:	00812c23          	sw	s0,24(sp)
1000912c:	00058a13          	mv	s4,a1
10009130:	00060493          	mv	s1,a2
10009134:	01394c63          	blt	s2,s3,1000914c <__multiply+0x44>
10009138:	00098713          	mv	a4,s3
1000913c:	00058493          	mv	s1,a1
10009140:	00090993          	mv	s3,s2
10009144:	00060a13          	mv	s4,a2
10009148:	00070913          	mv	s2,a4
1000914c:	0084a783          	lw	a5,8(s1)
10009150:	0044a583          	lw	a1,4(s1)
10009154:	01298433          	add	s0,s3,s2
10009158:	0087a7b3          	slt	a5,a5,s0
1000915c:	00f585b3          	add	a1,a1,a5
10009160:	9cdff0ef          	jal	10008b2c <_Balloc>
10009164:	1c050a63          	beqz	a0,10009338 <__multiply+0x230>
10009168:	01450893          	addi	a7,a0,20
1000916c:	00241813          	slli	a6,s0,0x2
10009170:	01088833          	add	a6,a7,a6
10009174:	00088793          	mv	a5,a7
10009178:	0108f863          	bgeu	a7,a6,10009188 <__multiply+0x80>
1000917c:	0007a023          	sw	zero,0(a5)
10009180:	00478793          	addi	a5,a5,4
10009184:	ff07ece3          	bltu	a5,a6,1000917c <__multiply+0x74>
10009188:	014a0593          	addi	a1,s4,20
1000918c:	00291313          	slli	t1,s2,0x2
10009190:	00658333          	add	t1,a1,t1
10009194:	1665f263          	bgeu	a1,t1,100092f8 <__multiply+0x1f0>
10009198:	00299693          	slli	a3,s3,0x2
1000919c:	01448e93          	addi	t4,s1,20
100091a0:	00de86b3          	add	a3,t4,a3
100091a4:	01548e13          	addi	t3,s1,21
100091a8:	01c6be33          	sltu	t3,a3,t3
100091ac:	40968633          	sub	a2,a3,s1
100091b0:	001e4e13          	xori	t3,t3,1
100091b4:	feb60613          	addi	a2,a2,-21
100091b8:	0180006f          	j	100091d0 <__multiply+0xc8>
100091bc:	010fdf93          	srli	t6,t6,0x10
100091c0:	0a0f9663          	bnez	t6,1000926c <__multiply+0x164>
100091c4:	00458593          	addi	a1,a1,4
100091c8:	00488893          	addi	a7,a7,4
100091cc:	1265f663          	bgeu	a1,t1,100092f8 <__multiply+0x1f0>
100091d0:	0005af83          	lw	t6,0(a1)
100091d4:	010f9393          	slli	t2,t6,0x10
100091d8:	0103d393          	srli	t2,t2,0x10
100091dc:	fe0380e3          	beqz	t2,100091bc <__multiply+0xb4>
100091e0:	00088293          	mv	t0,a7
100091e4:	000e8f93          	mv	t6,t4
100091e8:	00000493          	li	s1,0
100091ec:	000fa783          	lw	a5,0(t6)
100091f0:	0002af03          	lw	t5,0(t0)
100091f4:	00428293          	addi	t0,t0,4
100091f8:	01079713          	slli	a4,a5,0x10
100091fc:	01075713          	srli	a4,a4,0x10
10009200:	02770733          	mul	a4,a4,t2
10009204:	0107d793          	srli	a5,a5,0x10
10009208:	010f1913          	slli	s2,t5,0x10
1000920c:	01095913          	srli	s2,s2,0x10
10009210:	010f5f13          	srli	t5,t5,0x10
10009214:	004f8f93          	addi	t6,t6,4
10009218:	027787b3          	mul	a5,a5,t2
1000921c:	01270733          	add	a4,a4,s2
10009220:	00970733          	add	a4,a4,s1
10009224:	01e787b3          	add	a5,a5,t5
10009228:	01075f13          	srli	t5,a4,0x10
1000922c:	01e787b3          	add	a5,a5,t5
10009230:	01071713          	slli	a4,a4,0x10
10009234:	01075713          	srli	a4,a4,0x10
10009238:	01079f13          	slli	t5,a5,0x10
1000923c:	00ef6733          	or	a4,t5,a4
10009240:	fee2ae23          	sw	a4,-4(t0)
10009244:	0107d493          	srli	s1,a5,0x10
10009248:	fadfe2e3          	bltu	t6,a3,100091ec <__multiply+0xe4>
1000924c:	00000793          	li	a5,0
10009250:	000e0463          	beqz	t3,10009258 <__multiply+0x150>
10009254:	ffc67793          	andi	a5,a2,-4
10009258:	00f887b3          	add	a5,a7,a5
1000925c:	0097a223          	sw	s1,4(a5)
10009260:	0005af83          	lw	t6,0(a1)
10009264:	010fdf93          	srli	t6,t6,0x10
10009268:	f40f8ee3          	beqz	t6,100091c4 <__multiply+0xbc>
1000926c:	0008a783          	lw	a5,0(a7)
10009270:	00088293          	mv	t0,a7
10009274:	000e8f13          	mv	t5,t4
10009278:	00078493          	mv	s1,a5
1000927c:	00000393          	li	t2,0
10009280:	000f5703          	lhu	a4,0(t5)
10009284:	0104d993          	srli	s3,s1,0x10
10009288:	01079793          	slli	a5,a5,0x10
1000928c:	03f70733          	mul	a4,a4,t6
10009290:	0107d793          	srli	a5,a5,0x10
10009294:	004f0f13          	addi	t5,t5,4
10009298:	0042a483          	lw	s1,4(t0)
1000929c:	00428293          	addi	t0,t0,4
100092a0:	01049913          	slli	s2,s1,0x10
100092a4:	01095913          	srli	s2,s2,0x10
100092a8:	00770733          	add	a4,a4,t2
100092ac:	01370733          	add	a4,a4,s3
100092b0:	01071393          	slli	t2,a4,0x10
100092b4:	00f3e7b3          	or	a5,t2,a5
100092b8:	fef2ae23          	sw	a5,-4(t0)
100092bc:	ffef5783          	lhu	a5,-2(t5)
100092c0:	01075713          	srli	a4,a4,0x10
100092c4:	03f787b3          	mul	a5,a5,t6
100092c8:	012787b3          	add	a5,a5,s2
100092cc:	00e787b3          	add	a5,a5,a4
100092d0:	0107d393          	srli	t2,a5,0x10
100092d4:	fadf66e3          	bltu	t5,a3,10009280 <__multiply+0x178>
100092d8:	00000713          	li	a4,0
100092dc:	000e0463          	beqz	t3,100092e4 <__multiply+0x1dc>
100092e0:	ffc67713          	andi	a4,a2,-4
100092e4:	00e88733          	add	a4,a7,a4
100092e8:	00f72223          	sw	a5,4(a4)
100092ec:	00458593          	addi	a1,a1,4
100092f0:	00488893          	addi	a7,a7,4
100092f4:	ec65eee3          	bltu	a1,t1,100091d0 <__multiply+0xc8>
100092f8:	00804863          	bgtz	s0,10009308 <__multiply+0x200>
100092fc:	0180006f          	j	10009314 <__multiply+0x20c>
10009300:	fff40413          	addi	s0,s0,-1
10009304:	00040863          	beqz	s0,10009314 <__multiply+0x20c>
10009308:	ffc82783          	lw	a5,-4(a6)
1000930c:	ffc80813          	addi	a6,a6,-4
10009310:	fe0788e3          	beqz	a5,10009300 <__multiply+0x1f8>
10009314:	01c12083          	lw	ra,28(sp)
10009318:	00852823          	sw	s0,16(a0)
1000931c:	01812403          	lw	s0,24(sp)
10009320:	01412483          	lw	s1,20(sp)
10009324:	01012903          	lw	s2,16(sp)
10009328:	00c12983          	lw	s3,12(sp)
1000932c:	00812a03          	lw	s4,8(sp)
10009330:	02010113          	addi	sp,sp,32
10009334:	00008067          	ret
10009338:	100116b7          	lui	a3,0x10011
1000933c:	10011537          	lui	a0,0x10011
10009340:	b4468693          	addi	a3,a3,-1212 # 10010b44 <__clzsi2+0x1d0>
10009344:	ba850513          	addi	a0,a0,-1112 # 10010ba8 <__clzsi2+0x234>
10009348:	00000613          	li	a2,0
1000934c:	16200593          	li	a1,354
10009350:	638010ef          	jal	1000a988 <__assert_func>

10009354 <__pow5mult>:
10009354:	fe010113          	addi	sp,sp,-32
10009358:	00812c23          	sw	s0,24(sp)
1000935c:	01212823          	sw	s2,16(sp)
10009360:	01312623          	sw	s3,12(sp)
10009364:	00112e23          	sw	ra,28(sp)
10009368:	00367793          	andi	a5,a2,3
1000936c:	00060413          	mv	s0,a2
10009370:	00050993          	mv	s3,a0
10009374:	00058913          	mv	s2,a1
10009378:	0c079a63          	bnez	a5,1000944c <__pow5mult+0xf8>
1000937c:	40245413          	srai	s0,s0,0x2
10009380:	0a040863          	beqz	s0,10009430 <__pow5mult+0xdc>
10009384:	00912a23          	sw	s1,20(sp)
10009388:	0409a483          	lw	s1,64(s3)
1000938c:	0e048263          	beqz	s1,10009470 <__pow5mult+0x11c>
10009390:	00147793          	andi	a5,s0,1
10009394:	40145413          	srai	s0,s0,0x1
10009398:	00079e63          	bnez	a5,100093b4 <__pow5mult+0x60>
1000939c:	0004a503          	lw	a0,0(s1)
100093a0:	04050a63          	beqz	a0,100093f4 <__pow5mult+0xa0>
100093a4:	00050493          	mv	s1,a0
100093a8:	00147793          	andi	a5,s0,1
100093ac:	40145413          	srai	s0,s0,0x1
100093b0:	fe0786e3          	beqz	a5,1000939c <__pow5mult+0x48>
100093b4:	00048613          	mv	a2,s1
100093b8:	00090593          	mv	a1,s2
100093bc:	00098513          	mv	a0,s3
100093c0:	d49ff0ef          	jal	10009108 <__multiply>
100093c4:	02090063          	beqz	s2,100093e4 <__pow5mult+0x90>
100093c8:	00492703          	lw	a4,4(s2)
100093cc:	0449a783          	lw	a5,68(s3)
100093d0:	00271713          	slli	a4,a4,0x2
100093d4:	00e787b3          	add	a5,a5,a4
100093d8:	0007a703          	lw	a4,0(a5)
100093dc:	00e92023          	sw	a4,0(s2)
100093e0:	0127a023          	sw	s2,0(a5)
100093e4:	02040863          	beqz	s0,10009414 <__pow5mult+0xc0>
100093e8:	00050913          	mv	s2,a0
100093ec:	0004a503          	lw	a0,0(s1)
100093f0:	fa051ae3          	bnez	a0,100093a4 <__pow5mult+0x50>
100093f4:	00048613          	mv	a2,s1
100093f8:	00048593          	mv	a1,s1
100093fc:	00098513          	mv	a0,s3
10009400:	d09ff0ef          	jal	10009108 <__multiply>
10009404:	00a4a023          	sw	a0,0(s1)
10009408:	00052023          	sw	zero,0(a0)
1000940c:	00050493          	mv	s1,a0
10009410:	f99ff06f          	j	100093a8 <__pow5mult+0x54>
10009414:	01c12083          	lw	ra,28(sp)
10009418:	01812403          	lw	s0,24(sp)
1000941c:	01412483          	lw	s1,20(sp)
10009420:	01012903          	lw	s2,16(sp)
10009424:	00c12983          	lw	s3,12(sp)
10009428:	02010113          	addi	sp,sp,32
1000942c:	00008067          	ret
10009430:	01c12083          	lw	ra,28(sp)
10009434:	01812403          	lw	s0,24(sp)
10009438:	00c12983          	lw	s3,12(sp)
1000943c:	00090513          	mv	a0,s2
10009440:	01012903          	lw	s2,16(sp)
10009444:	02010113          	addi	sp,sp,32
10009448:	00008067          	ret
1000944c:	10011737          	lui	a4,0x10011
10009450:	de070713          	addi	a4,a4,-544 # 10010de0 <p05.0>
10009454:	00279793          	slli	a5,a5,0x2
10009458:	00f707b3          	add	a5,a4,a5
1000945c:	ffc7a603          	lw	a2,-4(a5)
10009460:	00000693          	li	a3,0
10009464:	f98ff0ef          	jal	10008bfc <__multadd>
10009468:	00050913          	mv	s2,a0
1000946c:	f11ff06f          	j	1000937c <__pow5mult+0x28>
10009470:	00100593          	li	a1,1
10009474:	00098513          	mv	a0,s3
10009478:	eb4ff0ef          	jal	10008b2c <_Balloc>
1000947c:	00050493          	mv	s1,a0
10009480:	02050063          	beqz	a0,100094a0 <__pow5mult+0x14c>
10009484:	27100713          	li	a4,625
10009488:	00100793          	li	a5,1
1000948c:	00e52a23          	sw	a4,20(a0)
10009490:	00f52823          	sw	a5,16(a0)
10009494:	04a9a023          	sw	a0,64(s3)
10009498:	00052023          	sw	zero,0(a0)
1000949c:	ef5ff06f          	j	10009390 <__pow5mult+0x3c>
100094a0:	100116b7          	lui	a3,0x10011
100094a4:	10011537          	lui	a0,0x10011
100094a8:	b4468693          	addi	a3,a3,-1212 # 10010b44 <__clzsi2+0x1d0>
100094ac:	ba850513          	addi	a0,a0,-1112 # 10010ba8 <__clzsi2+0x234>
100094b0:	00000613          	li	a2,0
100094b4:	14500593          	li	a1,325
100094b8:	4d0010ef          	jal	1000a988 <__assert_func>

100094bc <__lshift>:
100094bc:	fd010113          	addi	sp,sp,-48
100094c0:	03212023          	sw	s2,32(sp)
100094c4:	0105a903          	lw	s2,16(a1)
100094c8:	0085a783          	lw	a5,8(a1)
100094cc:	01412c23          	sw	s4,24(sp)
100094d0:	40565a13          	srai	s4,a2,0x5
100094d4:	012a0933          	add	s2,s4,s2
100094d8:	02812423          	sw	s0,40(sp)
100094dc:	02912223          	sw	s1,36(sp)
100094e0:	01312e23          	sw	s3,28(sp)
100094e4:	02112623          	sw	ra,44(sp)
100094e8:	00190413          	addi	s0,s2,1
100094ec:	00058493          	mv	s1,a1
100094f0:	00050993          	mv	s3,a0
100094f4:	0045a583          	lw	a1,4(a1)
100094f8:	0087d863          	bge	a5,s0,10009508 <__lshift+0x4c>
100094fc:	00179793          	slli	a5,a5,0x1
10009500:	00158593          	addi	a1,a1,1
10009504:	fe87cce3          	blt	a5,s0,100094fc <__lshift+0x40>
10009508:	00098513          	mv	a0,s3
1000950c:	00c12623          	sw	a2,12(sp)
10009510:	e1cff0ef          	jal	10008b2c <_Balloc>
10009514:	00c12603          	lw	a2,12(sp)
10009518:	10050863          	beqz	a0,10009628 <__lshift+0x16c>
1000951c:	01450593          	addi	a1,a0,20
10009520:	03405463          	blez	s4,10009548 <__lshift+0x8c>
10009524:	005a0713          	addi	a4,s4,5
10009528:	00271713          	slli	a4,a4,0x2
1000952c:	00e50733          	add	a4,a0,a4
10009530:	00058793          	mv	a5,a1
10009534:	00478793          	addi	a5,a5,4
10009538:	fe07ae23          	sw	zero,-4(a5)
1000953c:	fee79ce3          	bne	a5,a4,10009534 <__lshift+0x78>
10009540:	002a1a13          	slli	s4,s4,0x2
10009544:	014585b3          	add	a1,a1,s4
10009548:	0104a803          	lw	a6,16(s1)
1000954c:	01448793          	addi	a5,s1,20
10009550:	01f67613          	andi	a2,a2,31
10009554:	00281813          	slli	a6,a6,0x2
10009558:	01078833          	add	a6,a5,a6
1000955c:	0a060063          	beqz	a2,100095fc <__lshift+0x140>
10009560:	02000313          	li	t1,32
10009564:	40c30333          	sub	t1,t1,a2
10009568:	00058893          	mv	a7,a1
1000956c:	00000693          	li	a3,0
10009570:	0007a703          	lw	a4,0(a5)
10009574:	00488893          	addi	a7,a7,4
10009578:	00478793          	addi	a5,a5,4
1000957c:	00c71733          	sll	a4,a4,a2
10009580:	00d76733          	or	a4,a4,a3
10009584:	fee8ae23          	sw	a4,-4(a7)
10009588:	ffc7a683          	lw	a3,-4(a5)
1000958c:	0066d6b3          	srl	a3,a3,t1
10009590:	ff07e0e3          	bltu	a5,a6,10009570 <__lshift+0xb4>
10009594:	01548793          	addi	a5,s1,21
10009598:	00000713          	li	a4,0
1000959c:	00f86863          	bltu	a6,a5,100095ac <__lshift+0xf0>
100095a0:	40980833          	sub	a6,a6,s1
100095a4:	feb80813          	addi	a6,a6,-21
100095a8:	ffc87713          	andi	a4,a6,-4
100095ac:	00e585b3          	add	a1,a1,a4
100095b0:	00d5a223          	sw	a3,4(a1)
100095b4:	00069463          	bnez	a3,100095bc <__lshift+0x100>
100095b8:	00090413          	mv	s0,s2
100095bc:	0044a703          	lw	a4,4(s1)
100095c0:	0449a783          	lw	a5,68(s3)
100095c4:	02c12083          	lw	ra,44(sp)
100095c8:	00271713          	slli	a4,a4,0x2
100095cc:	00e787b3          	add	a5,a5,a4
100095d0:	0007a703          	lw	a4,0(a5)
100095d4:	00852823          	sw	s0,16(a0)
100095d8:	02812403          	lw	s0,40(sp)
100095dc:	00e4a023          	sw	a4,0(s1)
100095e0:	0097a023          	sw	s1,0(a5)
100095e4:	02012903          	lw	s2,32(sp)
100095e8:	02412483          	lw	s1,36(sp)
100095ec:	01c12983          	lw	s3,28(sp)
100095f0:	01812a03          	lw	s4,24(sp)
100095f4:	03010113          	addi	sp,sp,48
100095f8:	00008067          	ret
100095fc:	0007a703          	lw	a4,0(a5)
10009600:	00478793          	addi	a5,a5,4
10009604:	00458593          	addi	a1,a1,4
10009608:	fee5ae23          	sw	a4,-4(a1)
1000960c:	fb07f6e3          	bgeu	a5,a6,100095b8 <__lshift+0xfc>
10009610:	0007a703          	lw	a4,0(a5)
10009614:	00478793          	addi	a5,a5,4
10009618:	00458593          	addi	a1,a1,4
1000961c:	fee5ae23          	sw	a4,-4(a1)
10009620:	fd07eee3          	bltu	a5,a6,100095fc <__lshift+0x140>
10009624:	f95ff06f          	j	100095b8 <__lshift+0xfc>
10009628:	100116b7          	lui	a3,0x10011
1000962c:	10011537          	lui	a0,0x10011
10009630:	b4468693          	addi	a3,a3,-1212 # 10010b44 <__clzsi2+0x1d0>
10009634:	ba850513          	addi	a0,a0,-1112 # 10010ba8 <__clzsi2+0x234>
10009638:	00000613          	li	a2,0
1000963c:	1de00593          	li	a1,478
10009640:	348010ef          	jal	1000a988 <__assert_func>

10009644 <__mcmp>:
10009644:	01052703          	lw	a4,16(a0)
10009648:	0105a783          	lw	a5,16(a1)
1000964c:	00050613          	mv	a2,a0
10009650:	40f70533          	sub	a0,a4,a5
10009654:	04f71263          	bne	a4,a5,10009698 <__mcmp+0x54>
10009658:	00279793          	slli	a5,a5,0x2
1000965c:	01460613          	addi	a2,a2,20
10009660:	01458593          	addi	a1,a1,20
10009664:	00f585b3          	add	a1,a1,a5
10009668:	00f607b3          	add	a5,a2,a5
1000966c:	0080006f          	j	10009674 <__mcmp+0x30>
10009670:	02f67463          	bgeu	a2,a5,10009698 <__mcmp+0x54>
10009674:	ffc7a683          	lw	a3,-4(a5)
10009678:	ffc5a703          	lw	a4,-4(a1)
1000967c:	ffc78793          	addi	a5,a5,-4
10009680:	ffc58593          	addi	a1,a1,-4
10009684:	fee686e3          	beq	a3,a4,10009670 <__mcmp+0x2c>
10009688:	00100513          	li	a0,1
1000968c:	00e6f663          	bgeu	a3,a4,10009698 <__mcmp+0x54>
10009690:	fff00513          	li	a0,-1
10009694:	00008067          	ret
10009698:	00008067          	ret

1000969c <__mdiff>:
1000969c:	0105a703          	lw	a4,16(a1)
100096a0:	01062783          	lw	a5,16(a2)
100096a4:	fe010113          	addi	sp,sp,-32
100096a8:	00112e23          	sw	ra,28(sp)
100096ac:	00058f13          	mv	t5,a1
100096b0:	40f708b3          	sub	a7,a4,a5
100096b4:	04f71063          	bne	a4,a5,100096f4 <__mdiff+0x58>
100096b8:	00279693          	slli	a3,a5,0x2
100096bc:	01458593          	addi	a1,a1,20
100096c0:	01460713          	addi	a4,a2,20
100096c4:	00d587b3          	add	a5,a1,a3
100096c8:	00d70733          	add	a4,a4,a3
100096cc:	0080006f          	j	100096d4 <__mdiff+0x38>
100096d0:	18f5fc63          	bgeu	a1,a5,10009868 <__mdiff+0x1cc>
100096d4:	ffc7a803          	lw	a6,-4(a5)
100096d8:	ffc72683          	lw	a3,-4(a4)
100096dc:	ffc78793          	addi	a5,a5,-4
100096e0:	ffc70713          	addi	a4,a4,-4
100096e4:	fed806e3          	beq	a6,a3,100096d0 <__mdiff+0x34>
100096e8:	1ad87263          	bgeu	a6,a3,1000988c <__mdiff+0x1f0>
100096ec:	00100893          	li	a7,1
100096f0:	0180006f          	j	10009708 <__mdiff+0x6c>
100096f4:	fe08cce3          	bltz	a7,100096ec <__mdiff+0x50>
100096f8:	00060793          	mv	a5,a2
100096fc:	00000893          	li	a7,0
10009700:	00058613          	mv	a2,a1
10009704:	00078f13          	mv	t5,a5
10009708:	00462583          	lw	a1,4(a2)
1000970c:	01e12623          	sw	t5,12(sp)
10009710:	01112423          	sw	a7,8(sp)
10009714:	00c12223          	sw	a2,4(sp)
10009718:	c14ff0ef          	jal	10008b2c <_Balloc>
1000971c:	00412603          	lw	a2,4(sp)
10009720:	00812883          	lw	a7,8(sp)
10009724:	00c12f03          	lw	t5,12(sp)
10009728:	18050863          	beqz	a0,100098b8 <__mdiff+0x21c>
1000972c:	01062803          	lw	a6,16(a2)
10009730:	010f2f83          	lw	t6,16(t5)
10009734:	01460293          	addi	t0,a2,20
10009738:	00281713          	slli	a4,a6,0x2
1000973c:	002f9f93          	slli	t6,t6,0x2
10009740:	014f0613          	addi	a2,t5,20
10009744:	01450393          	addi	t2,a0,20
10009748:	01152623          	sw	a7,12(a0)
1000974c:	00e28333          	add	t1,t0,a4
10009750:	01f60fb3          	add	t6,a2,t6
10009754:	00028e93          	mv	t4,t0
10009758:	00038e13          	mv	t3,t2
1000975c:	00000893          	li	a7,0
10009760:	000ea703          	lw	a4,0(t4)
10009764:	00062683          	lw	a3,0(a2)
10009768:	004e0e13          	addi	t3,t3,4
1000976c:	01071793          	slli	a5,a4,0x10
10009770:	01069593          	slli	a1,a3,0x10
10009774:	0107d793          	srli	a5,a5,0x10
10009778:	0105d593          	srli	a1,a1,0x10
1000977c:	40b787b3          	sub	a5,a5,a1
10009780:	011787b3          	add	a5,a5,a7
10009784:	0106d693          	srli	a3,a3,0x10
10009788:	01075713          	srli	a4,a4,0x10
1000978c:	40d70733          	sub	a4,a4,a3
10009790:	4107d693          	srai	a3,a5,0x10
10009794:	00d70733          	add	a4,a4,a3
10009798:	01079793          	slli	a5,a5,0x10
1000979c:	0107d793          	srli	a5,a5,0x10
100097a0:	01071693          	slli	a3,a4,0x10
100097a4:	00d7e7b3          	or	a5,a5,a3
100097a8:	00460613          	addi	a2,a2,4
100097ac:	fefe2e23          	sw	a5,-4(t3)
100097b0:	004e8e93          	addi	t4,t4,4
100097b4:	41075893          	srai	a7,a4,0x10
100097b8:	fbf664e3          	bltu	a2,t6,10009760 <__mdiff+0xc4>
100097bc:	015f0693          	addi	a3,t5,21
100097c0:	00000713          	li	a4,0
100097c4:	00dfe863          	bltu	t6,a3,100097d4 <__mdiff+0x138>
100097c8:	41ef8fb3          	sub	t6,t6,t5
100097cc:	febf8f93          	addi	t6,t6,-21
100097d0:	ffcff713          	andi	a4,t6,-4
100097d4:	00e28eb3          	add	t4,t0,a4
100097d8:	004e8e93          	addi	t4,t4,4
100097dc:	00770733          	add	a4,a4,t2
100097e0:	40538e33          	sub	t3,t2,t0
100097e4:	000e8613          	mv	a2,t4
100097e8:	00470f13          	addi	t5,a4,4
100097ec:	046efc63          	bgeu	t4,t1,10009844 <__mdiff+0x1a8>
100097f0:	00062683          	lw	a3,0(a2)
100097f4:	01c605b3          	add	a1,a2,t3
100097f8:	00460613          	addi	a2,a2,4
100097fc:	01069713          	slli	a4,a3,0x10
10009800:	01075713          	srli	a4,a4,0x10
10009804:	01170733          	add	a4,a4,a7
10009808:	011687b3          	add	a5,a3,a7
1000980c:	41075713          	srai	a4,a4,0x10
10009810:	0106d693          	srli	a3,a3,0x10
10009814:	00d70733          	add	a4,a4,a3
10009818:	01079793          	slli	a5,a5,0x10
1000981c:	0107d793          	srli	a5,a5,0x10
10009820:	01071693          	slli	a3,a4,0x10
10009824:	00d7e7b3          	or	a5,a5,a3
10009828:	00f5a023          	sw	a5,0(a1)
1000982c:	41075893          	srai	a7,a4,0x10
10009830:	fc6660e3          	bltu	a2,t1,100097f0 <__mdiff+0x154>
10009834:	fff30713          	addi	a4,t1,-1
10009838:	41d70733          	sub	a4,a4,t4
1000983c:	ffc77713          	andi	a4,a4,-4
10009840:	01e70733          	add	a4,a4,t5
10009844:	00079a63          	bnez	a5,10009858 <__mdiff+0x1bc>
10009848:	ffc72783          	lw	a5,-4(a4)
1000984c:	ffc70713          	addi	a4,a4,-4
10009850:	fff80813          	addi	a6,a6,-1
10009854:	fe078ae3          	beqz	a5,10009848 <__mdiff+0x1ac>
10009858:	01c12083          	lw	ra,28(sp)
1000985c:	01052823          	sw	a6,16(a0)
10009860:	02010113          	addi	sp,sp,32
10009864:	00008067          	ret
10009868:	00000593          	li	a1,0
1000986c:	ac0ff0ef          	jal	10008b2c <_Balloc>
10009870:	02050663          	beqz	a0,1000989c <__mdiff+0x200>
10009874:	01c12083          	lw	ra,28(sp)
10009878:	00100793          	li	a5,1
1000987c:	00052a23          	sw	zero,20(a0)
10009880:	00f52823          	sw	a5,16(a0)
10009884:	02010113          	addi	sp,sp,32
10009888:	00008067          	ret
1000988c:	00060793          	mv	a5,a2
10009890:	000f0613          	mv	a2,t5
10009894:	00078f13          	mv	t5,a5
10009898:	e71ff06f          	j	10009708 <__mdiff+0x6c>
1000989c:	100116b7          	lui	a3,0x10011
100098a0:	10011537          	lui	a0,0x10011
100098a4:	b4468693          	addi	a3,a3,-1212 # 10010b44 <__clzsi2+0x1d0>
100098a8:	ba850513          	addi	a0,a0,-1112 # 10010ba8 <__clzsi2+0x234>
100098ac:	00000613          	li	a2,0
100098b0:	23700593          	li	a1,567
100098b4:	0d4010ef          	jal	1000a988 <__assert_func>
100098b8:	100116b7          	lui	a3,0x10011
100098bc:	10011537          	lui	a0,0x10011
100098c0:	b4468693          	addi	a3,a3,-1212 # 10010b44 <__clzsi2+0x1d0>
100098c4:	ba850513          	addi	a0,a0,-1112 # 10010ba8 <__clzsi2+0x234>
100098c8:	00000613          	li	a2,0
100098cc:	24500593          	li	a1,581
100098d0:	0b8010ef          	jal	1000a988 <__assert_func>

100098d4 <__ulp>:
100098d4:	7ff007b7          	lui	a5,0x7ff00
100098d8:	00b7f5b3          	and	a1,a5,a1
100098dc:	fcc007b7          	lui	a5,0xfcc00
100098e0:	00f585b3          	add	a1,a1,a5
100098e4:	00000793          	li	a5,0
100098e8:	00b05663          	blez	a1,100098f4 <__ulp+0x20>
100098ec:	00078513          	mv	a0,a5
100098f0:	00008067          	ret
100098f4:	40b005b3          	neg	a1,a1
100098f8:	4145d593          	srai	a1,a1,0x14
100098fc:	01300793          	li	a5,19
10009900:	00b7cc63          	blt	a5,a1,10009918 <__ulp+0x44>
10009904:	000807b7          	lui	a5,0x80
10009908:	40b7d5b3          	sra	a1,a5,a1
1000990c:	00000793          	li	a5,0
10009910:	00078513          	mv	a0,a5
10009914:	00008067          	ret
10009918:	fec58593          	addi	a1,a1,-20
1000991c:	01e00713          	li	a4,30
10009920:	00100793          	li	a5,1
10009924:	00b74663          	blt	a4,a1,10009930 <__ulp+0x5c>
10009928:	800007b7          	lui	a5,0x80000
1000992c:	00b7d7b3          	srl	a5,a5,a1
10009930:	00000593          	li	a1,0
10009934:	00078513          	mv	a0,a5
10009938:	00008067          	ret

1000993c <__b2d>:
1000993c:	fd010113          	addi	sp,sp,-48
10009940:	02812423          	sw	s0,40(sp)
10009944:	01052403          	lw	s0,16(a0)
10009948:	02912223          	sw	s1,36(sp)
1000994c:	01450493          	addi	s1,a0,20
10009950:	00241413          	slli	s0,s0,0x2
10009954:	00848433          	add	s0,s1,s0
10009958:	03212023          	sw	s2,32(sp)
1000995c:	ffc42903          	lw	s2,-4(s0)
10009960:	01312e23          	sw	s3,28(sp)
10009964:	00b12623          	sw	a1,12(sp)
10009968:	00090513          	mv	a0,s2
1000996c:	02112623          	sw	ra,44(sp)
10009970:	d24ff0ef          	jal	10008e94 <__hi0bits>
10009974:	00c12583          	lw	a1,12(sp)
10009978:	02000713          	li	a4,32
1000997c:	40a707b3          	sub	a5,a4,a0
10009980:	00f5a023          	sw	a5,0(a1)
10009984:	00a00793          	li	a5,10
10009988:	ffc40993          	addi	s3,s0,-4
1000998c:	08a7da63          	bge	a5,a0,10009a20 <__b2d+0xe4>
10009990:	ff550613          	addi	a2,a0,-11
10009994:	0534f063          	bgeu	s1,s3,100099d4 <__b2d+0x98>
10009998:	ff842783          	lw	a5,-8(s0)
1000999c:	04060c63          	beqz	a2,100099f4 <__b2d+0xb8>
100099a0:	40c706b3          	sub	a3,a4,a2
100099a4:	00d7d733          	srl	a4,a5,a3
100099a8:	00c91933          	sll	s2,s2,a2
100099ac:	00e96933          	or	s2,s2,a4
100099b0:	00c797b3          	sll	a5,a5,a2
100099b4:	3ff00737          	lui	a4,0x3ff00
100099b8:	ff840613          	addi	a2,s0,-8
100099bc:	00e96733          	or	a4,s2,a4
100099c0:	02c4fe63          	bgeu	s1,a2,100099fc <__b2d+0xc0>
100099c4:	ff442603          	lw	a2,-12(s0)
100099c8:	00d656b3          	srl	a3,a2,a3
100099cc:	00d7e7b3          	or	a5,a5,a3
100099d0:	02c0006f          	j	100099fc <__b2d+0xc0>
100099d4:	00b00793          	li	a5,11
100099d8:	00f50c63          	beq	a0,a5,100099f0 <__b2d+0xb4>
100099dc:	00c91933          	sll	s2,s2,a2
100099e0:	3ff00737          	lui	a4,0x3ff00
100099e4:	00e96733          	or	a4,s2,a4
100099e8:	00000793          	li	a5,0
100099ec:	0100006f          	j	100099fc <__b2d+0xc0>
100099f0:	00000793          	li	a5,0
100099f4:	3ff00737          	lui	a4,0x3ff00
100099f8:	00e96733          	or	a4,s2,a4
100099fc:	02c12083          	lw	ra,44(sp)
10009a00:	02812403          	lw	s0,40(sp)
10009a04:	02412483          	lw	s1,36(sp)
10009a08:	02012903          	lw	s2,32(sp)
10009a0c:	01c12983          	lw	s3,28(sp)
10009a10:	00078513          	mv	a0,a5
10009a14:	00070593          	mv	a1,a4
10009a18:	03010113          	addi	sp,sp,48
10009a1c:	00008067          	ret
10009a20:	00b00693          	li	a3,11
10009a24:	40a686b3          	sub	a3,a3,a0
10009a28:	3ff007b7          	lui	a5,0x3ff00
10009a2c:	00d95733          	srl	a4,s2,a3
10009a30:	00f76733          	or	a4,a4,a5
10009a34:	00000793          	li	a5,0
10009a38:	0134f663          	bgeu	s1,s3,10009a44 <__b2d+0x108>
10009a3c:	ff842783          	lw	a5,-8(s0)
10009a40:	00d7d7b3          	srl	a5,a5,a3
10009a44:	01550513          	addi	a0,a0,21
10009a48:	00a91933          	sll	s2,s2,a0
10009a4c:	00f967b3          	or	a5,s2,a5
10009a50:	fadff06f          	j	100099fc <__b2d+0xc0>

10009a54 <__d2b>:
10009a54:	fc010113          	addi	sp,sp,-64
10009a58:	03212823          	sw	s2,48(sp)
10009a5c:	00058913          	mv	s2,a1
10009a60:	00100593          	li	a1,1
10009a64:	03312623          	sw	s3,44(sp)
10009a68:	03412423          	sw	s4,40(sp)
10009a6c:	00c12623          	sw	a2,12(sp)
10009a70:	02112e23          	sw	ra,60(sp)
10009a74:	02812c23          	sw	s0,56(sp)
10009a78:	02912a23          	sw	s1,52(sp)
10009a7c:	00068a13          	mv	s4,a3
10009a80:	00070993          	mv	s3,a4
10009a84:	8a8ff0ef          	jal	10008b2c <_Balloc>
10009a88:	00c12603          	lw	a2,12(sp)
10009a8c:	0e050a63          	beqz	a0,10009b80 <__d2b+0x12c>
10009a90:	01465413          	srli	s0,a2,0x14
10009a94:	00100737          	lui	a4,0x100
10009a98:	fff70793          	addi	a5,a4,-1 # fffff <__heap_size+0xfefff>
10009a9c:	7ff47413          	andi	s0,s0,2047
10009aa0:	00050493          	mv	s1,a0
10009aa4:	00c7f633          	and	a2,a5,a2
10009aa8:	00040463          	beqz	s0,10009ab0 <__d2b+0x5c>
10009aac:	00e66633          	or	a2,a2,a4
10009ab0:	00c12e23          	sw	a2,28(sp)
10009ab4:	06091063          	bnez	s2,10009b14 <__d2b+0xc0>
10009ab8:	01c10513          	addi	a0,sp,28
10009abc:	c64ff0ef          	jal	10008f20 <__lo0bits>
10009ac0:	01c12683          	lw	a3,28(sp)
10009ac4:	00100913          	li	s2,1
10009ac8:	0124a823          	sw	s2,16(s1)
10009acc:	00d4aa23          	sw	a3,20(s1)
10009ad0:	02050713          	addi	a4,a0,32
10009ad4:	08040463          	beqz	s0,10009b5c <__d2b+0x108>
10009ad8:	bcd40413          	addi	s0,s0,-1075
10009adc:	00e40433          	add	s0,s0,a4
10009ae0:	03500793          	li	a5,53
10009ae4:	008a2023          	sw	s0,0(s4)
10009ae8:	40e78533          	sub	a0,a5,a4
10009aec:	03c12083          	lw	ra,60(sp)
10009af0:	03812403          	lw	s0,56(sp)
10009af4:	00a9a023          	sw	a0,0(s3)
10009af8:	03012903          	lw	s2,48(sp)
10009afc:	02c12983          	lw	s3,44(sp)
10009b00:	02812a03          	lw	s4,40(sp)
10009b04:	00048513          	mv	a0,s1
10009b08:	03412483          	lw	s1,52(sp)
10009b0c:	04010113          	addi	sp,sp,64
10009b10:	00008067          	ret
10009b14:	01810513          	addi	a0,sp,24
10009b18:	01212c23          	sw	s2,24(sp)
10009b1c:	c04ff0ef          	jal	10008f20 <__lo0bits>
10009b20:	01c12683          	lw	a3,28(sp)
10009b24:	01812603          	lw	a2,24(sp)
10009b28:	00050713          	mv	a4,a0
10009b2c:	00050c63          	beqz	a0,10009b44 <__d2b+0xf0>
10009b30:	02000793          	li	a5,32
10009b34:	40a787b3          	sub	a5,a5,a0
10009b38:	00f697b3          	sll	a5,a3,a5
10009b3c:	00f66633          	or	a2,a2,a5
10009b40:	00a6d6b3          	srl	a3,a3,a0
10009b44:	00d03933          	snez	s2,a3
10009b48:	00190913          	addi	s2,s2,1
10009b4c:	00c4aa23          	sw	a2,20(s1)
10009b50:	00d4ac23          	sw	a3,24(s1)
10009b54:	0124a823          	sw	s2,16(s1)
10009b58:	f80410e3          	bnez	s0,10009ad8 <__d2b+0x84>
10009b5c:	00291693          	slli	a3,s2,0x2
10009b60:	00d486b3          	add	a3,s1,a3
10009b64:	0106a503          	lw	a0,16(a3)
10009b68:	bce70713          	addi	a4,a4,-1074
10009b6c:	00ea2023          	sw	a4,0(s4)
10009b70:	b24ff0ef          	jal	10008e94 <__hi0bits>
10009b74:	00591793          	slli	a5,s2,0x5
10009b78:	40a78533          	sub	a0,a5,a0
10009b7c:	f71ff06f          	j	10009aec <__d2b+0x98>
10009b80:	100116b7          	lui	a3,0x10011
10009b84:	10011537          	lui	a0,0x10011
10009b88:	b4468693          	addi	a3,a3,-1212 # 10010b44 <__clzsi2+0x1d0>
10009b8c:	ba850513          	addi	a0,a0,-1112 # 10010ba8 <__clzsi2+0x234>
10009b90:	00000613          	li	a2,0
10009b94:	30f00593          	li	a1,783
10009b98:	5f1000ef          	jal	1000a988 <__assert_func>

10009b9c <__ratio>:
10009b9c:	fd010113          	addi	sp,sp,-48
10009ba0:	03212023          	sw	s2,32(sp)
10009ba4:	00058913          	mv	s2,a1
10009ba8:	00810593          	addi	a1,sp,8
10009bac:	02112623          	sw	ra,44(sp)
10009bb0:	02812423          	sw	s0,40(sp)
10009bb4:	02912223          	sw	s1,36(sp)
10009bb8:	01312e23          	sw	s3,28(sp)
10009bbc:	00050993          	mv	s3,a0
10009bc0:	d7dff0ef          	jal	1000993c <__b2d>
10009bc4:	00050493          	mv	s1,a0
10009bc8:	00058413          	mv	s0,a1
10009bcc:	00090513          	mv	a0,s2
10009bd0:	00c10593          	addi	a1,sp,12
10009bd4:	d69ff0ef          	jal	1000993c <__b2d>
10009bd8:	0109a783          	lw	a5,16(s3)
10009bdc:	01092603          	lw	a2,16(s2)
10009be0:	00812703          	lw	a4,8(sp)
10009be4:	00c12683          	lw	a3,12(sp)
10009be8:	40c787b3          	sub	a5,a5,a2
10009bec:	00579793          	slli	a5,a5,0x5
10009bf0:	40d70733          	sub	a4,a4,a3
10009bf4:	00e787b3          	add	a5,a5,a4
10009bf8:	02f05e63          	blez	a5,10009c34 <__ratio+0x98>
10009bfc:	01479793          	slli	a5,a5,0x14
10009c00:	00878433          	add	s0,a5,s0
10009c04:	00050613          	mv	a2,a0
10009c08:	00058693          	mv	a3,a1
10009c0c:	00048513          	mv	a0,s1
10009c10:	00040593          	mv	a1,s0
10009c14:	39d020ef          	jal	1000c7b0 <__divdf3>
10009c18:	02c12083          	lw	ra,44(sp)
10009c1c:	02812403          	lw	s0,40(sp)
10009c20:	02412483          	lw	s1,36(sp)
10009c24:	02012903          	lw	s2,32(sp)
10009c28:	01c12983          	lw	s3,28(sp)
10009c2c:	03010113          	addi	sp,sp,48
10009c30:	00008067          	ret
10009c34:	01479793          	slli	a5,a5,0x14
10009c38:	40f585b3          	sub	a1,a1,a5
10009c3c:	fc9ff06f          	j	10009c04 <__ratio+0x68>

10009c40 <_mprec_log10>:
10009c40:	ff010113          	addi	sp,sp,-16
10009c44:	01212023          	sw	s2,0(sp)
10009c48:	00112623          	sw	ra,12(sp)
10009c4c:	01700793          	li	a5,23
10009c50:	00050913          	mv	s2,a0
10009c54:	04a7da63          	bge	a5,a0,10009ca8 <_mprec_log10+0x68>
10009c58:	00812423          	sw	s0,8(sp)
10009c5c:	00912223          	sw	s1,4(sp)
10009c60:	ef81a783          	lw	a5,-264(gp) # 100119d0 <__SDATA_BEGIN__+0x30>
10009c64:	efc1a583          	lw	a1,-260(gp) # 100119d4 <__SDATA_BEGIN__+0x34>
10009c68:	f001a403          	lw	s0,-256(gp) # 100119d8 <__SDATA_BEGIN__+0x38>
10009c6c:	f041a483          	lw	s1,-252(gp) # 100119dc <__SDATA_BEGIN__+0x3c>
10009c70:	00078513          	mv	a0,a5
10009c74:	00040613          	mv	a2,s0
10009c78:	00048693          	mv	a3,s1
10009c7c:	420030ef          	jal	1000d09c <__muldf3>
10009c80:	fff90913          	addi	s2,s2,-1
10009c84:	00050793          	mv	a5,a0
10009c88:	fe0914e3          	bnez	s2,10009c70 <_mprec_log10+0x30>
10009c8c:	00812403          	lw	s0,8(sp)
10009c90:	00c12083          	lw	ra,12(sp)
10009c94:	00412483          	lw	s1,4(sp)
10009c98:	00012903          	lw	s2,0(sp)
10009c9c:	00078513          	mv	a0,a5
10009ca0:	01010113          	addi	sp,sp,16
10009ca4:	00008067          	ret
10009ca8:	10011737          	lui	a4,0x10011
10009cac:	00351913          	slli	s2,a0,0x3
10009cb0:	e4070713          	addi	a4,a4,-448 # 10010e40 <__mprec_tens>
10009cb4:	01270733          	add	a4,a4,s2
10009cb8:	00072783          	lw	a5,0(a4)
10009cbc:	00c12083          	lw	ra,12(sp)
10009cc0:	00472583          	lw	a1,4(a4)
10009cc4:	00012903          	lw	s2,0(sp)
10009cc8:	00078513          	mv	a0,a5
10009ccc:	01010113          	addi	sp,sp,16
10009cd0:	00008067          	ret

10009cd4 <__copybits>:
10009cd4:	01062683          	lw	a3,16(a2)
10009cd8:	fff58593          	addi	a1,a1,-1
10009cdc:	4055d593          	srai	a1,a1,0x5
10009ce0:	00158593          	addi	a1,a1,1
10009ce4:	00269693          	slli	a3,a3,0x2
10009ce8:	01460793          	addi	a5,a2,20
10009cec:	00259593          	slli	a1,a1,0x2
10009cf0:	00d786b3          	add	a3,a5,a3
10009cf4:	00b505b3          	add	a1,a0,a1
10009cf8:	02d7f863          	bgeu	a5,a3,10009d28 <__copybits+0x54>
10009cfc:	00050713          	mv	a4,a0
10009d00:	0007a803          	lw	a6,0(a5) # 3ff00000 <_sp+0x2feec2e0>
10009d04:	00478793          	addi	a5,a5,4
10009d08:	00470713          	addi	a4,a4,4
10009d0c:	ff072e23          	sw	a6,-4(a4)
10009d10:	fed7e8e3          	bltu	a5,a3,10009d00 <__copybits+0x2c>
10009d14:	40c686b3          	sub	a3,a3,a2
10009d18:	feb68693          	addi	a3,a3,-21
10009d1c:	ffc6f693          	andi	a3,a3,-4
10009d20:	00450513          	addi	a0,a0,4
10009d24:	00a68533          	add	a0,a3,a0
10009d28:	00b57863          	bgeu	a0,a1,10009d38 <__copybits+0x64>
10009d2c:	00450513          	addi	a0,a0,4
10009d30:	fe052e23          	sw	zero,-4(a0)
10009d34:	feb56ce3          	bltu	a0,a1,10009d2c <__copybits+0x58>
10009d38:	00008067          	ret

10009d3c <__any_on>:
10009d3c:	01052703          	lw	a4,16(a0)
10009d40:	4055d613          	srai	a2,a1,0x5
10009d44:	01450693          	addi	a3,a0,20
10009d48:	02c75263          	bge	a4,a2,10009d6c <__any_on+0x30>
10009d4c:	00271713          	slli	a4,a4,0x2
10009d50:	00e687b3          	add	a5,a3,a4
10009d54:	04f6f263          	bgeu	a3,a5,10009d98 <__any_on+0x5c>
10009d58:	ffc7a703          	lw	a4,-4(a5)
10009d5c:	ffc78793          	addi	a5,a5,-4
10009d60:	fe070ae3          	beqz	a4,10009d54 <__any_on+0x18>
10009d64:	00100513          	li	a0,1
10009d68:	00008067          	ret
10009d6c:	00261793          	slli	a5,a2,0x2
10009d70:	00f687b3          	add	a5,a3,a5
10009d74:	fee650e3          	bge	a2,a4,10009d54 <__any_on+0x18>
10009d78:	01f5f593          	andi	a1,a1,31
10009d7c:	fc058ce3          	beqz	a1,10009d54 <__any_on+0x18>
10009d80:	0007a603          	lw	a2,0(a5)
10009d84:	00100513          	li	a0,1
10009d88:	00b65733          	srl	a4,a2,a1
10009d8c:	00b71733          	sll	a4,a4,a1
10009d90:	fce602e3          	beq	a2,a4,10009d54 <__any_on+0x18>
10009d94:	00008067          	ret
10009d98:	00000513          	li	a0,0
10009d9c:	00008067          	ret

10009da0 <_realloc_r>:
10009da0:	1e058863          	beqz	a1,10009f90 <_realloc_r+0x1f0>
10009da4:	fe010113          	addi	sp,sp,-32
10009da8:	00812c23          	sw	s0,24(sp)
10009dac:	00912a23          	sw	s1,20(sp)
10009db0:	00058413          	mv	s0,a1
10009db4:	00112e23          	sw	ra,28(sp)
10009db8:	00050493          	mv	s1,a0
10009dbc:	00c12023          	sw	a2,0(sp)
10009dc0:	f24f80ef          	jal	100024e4 <__malloc_lock>
10009dc4:	00012583          	lw	a1,0(sp)
10009dc8:	01600713          	li	a4,22
10009dcc:	00b58793          	addi	a5,a1,11
10009dd0:	12f77863          	bgeu	a4,a5,10009f00 <_realloc_r+0x160>
10009dd4:	ff87f793          	andi	a5,a5,-8
10009dd8:	00078693          	mv	a3,a5
10009ddc:	01f7d713          	srli	a4,a5,0x1f
10009de0:	1eb7e463          	bltu	a5,a1,10009fc8 <_realloc_r+0x228>
10009de4:	1e071263          	bnez	a4,10009fc8 <_realloc_r+0x228>
10009de8:	ffc42603          	lw	a2,-4(s0)
10009dec:	ff840813          	addi	a6,s0,-8
10009df0:	ffc67713          	andi	a4,a2,-4
10009df4:	12d75863          	bge	a4,a3,10009f24 <_realloc_r+0x184>
10009df8:	10011e37          	lui	t3,0x10011
10009dfc:	428e0e13          	addi	t3,t3,1064 # 10011428 <__malloc_av_>
10009e00:	008e2883          	lw	a7,8(t3)
10009e04:	00e80333          	add	t1,a6,a4
10009e08:	00432503          	lw	a0,4(t1)
10009e0c:	1e688063          	beq	a7,t1,10009fec <_realloc_r+0x24c>
10009e10:	ffe57893          	andi	a7,a0,-2
10009e14:	011308b3          	add	a7,t1,a7
10009e18:	0048a883          	lw	a7,4(a7)
10009e1c:	0018f893          	andi	a7,a7,1
10009e20:	14089a63          	bnez	a7,10009f74 <_realloc_r+0x1d4>
10009e24:	ffc57513          	andi	a0,a0,-4
10009e28:	00a708b3          	add	a7,a4,a0
10009e2c:	0ed8d263          	bge	a7,a3,10009f10 <_realloc_r+0x170>
10009e30:	00167613          	andi	a2,a2,1
10009e34:	02061463          	bnez	a2,10009e5c <_realloc_r+0xbc>
10009e38:	ff842e83          	lw	t4,-8(s0)
10009e3c:	41d80eb3          	sub	t4,a6,t4
10009e40:	004ea603          	lw	a2,4(t4)
10009e44:	ffc67613          	andi	a2,a2,-4
10009e48:	00c50533          	add	a0,a0,a2
10009e4c:	00e508b3          	add	a7,a0,a4
10009e50:	32d8d463          	bge	a7,a3,1000a178 <_realloc_r+0x3d8>
10009e54:	00c708b3          	add	a7,a4,a2
10009e58:	28d8dc63          	bge	a7,a3,1000a0f0 <_realloc_r+0x350>
10009e5c:	00048513          	mv	a0,s1
10009e60:	00e12423          	sw	a4,8(sp)
10009e64:	01012223          	sw	a6,4(sp)
10009e68:	00f12023          	sw	a5,0(sp)
10009e6c:	dfdf70ef          	jal	10001c68 <_malloc_r>
10009e70:	00012783          	lw	a5,0(sp)
10009e74:	00412803          	lw	a6,4(sp)
10009e78:	00812703          	lw	a4,8(sp)
10009e7c:	00050693          	mv	a3,a0
10009e80:	44050863          	beqz	a0,1000a2d0 <_realloc_r+0x530>
10009e84:	ffc42603          	lw	a2,-4(s0)
10009e88:	ff850593          	addi	a1,a0,-8
10009e8c:	ffe67613          	andi	a2,a2,-2
10009e90:	00c80633          	add	a2,a6,a2
10009e94:	22b60463          	beq	a2,a1,1000a0bc <_realloc_r+0x31c>
10009e98:	ffc70613          	addi	a2,a4,-4
10009e9c:	02400793          	li	a5,36
10009ea0:	2cc7e263          	bltu	a5,a2,1000a164 <_realloc_r+0x3c4>
10009ea4:	01300713          	li	a4,19
10009ea8:	22c76263          	bltu	a4,a2,1000a0cc <_realloc_r+0x32c>
10009eac:	00050793          	mv	a5,a0
10009eb0:	00040713          	mv	a4,s0
10009eb4:	00072603          	lw	a2,0(a4)
10009eb8:	00c7a023          	sw	a2,0(a5)
10009ebc:	00472603          	lw	a2,4(a4)
10009ec0:	00c7a223          	sw	a2,4(a5)
10009ec4:	00872703          	lw	a4,8(a4)
10009ec8:	00e7a423          	sw	a4,8(a5)
10009ecc:	00040593          	mv	a1,s0
10009ed0:	00048513          	mv	a0,s1
10009ed4:	00d12023          	sw	a3,0(sp)
10009ed8:	aa9f70ef          	jal	10001980 <_free_r>
10009edc:	00048513          	mv	a0,s1
10009ee0:	e08f80ef          	jal	100024e8 <__malloc_unlock>
10009ee4:	00012683          	lw	a3,0(sp)
10009ee8:	01c12083          	lw	ra,28(sp)
10009eec:	01812403          	lw	s0,24(sp)
10009ef0:	01412483          	lw	s1,20(sp)
10009ef4:	00068513          	mv	a0,a3
10009ef8:	02010113          	addi	sp,sp,32
10009efc:	00008067          	ret
10009f00:	01000693          	li	a3,16
10009f04:	00068793          	mv	a5,a3
10009f08:	00000713          	li	a4,0
10009f0c:	ed5ff06f          	j	10009de0 <_realloc_r+0x40>
10009f10:	00c32683          	lw	a3,12(t1)
10009f14:	00832603          	lw	a2,8(t1)
10009f18:	00088713          	mv	a4,a7
10009f1c:	00d62623          	sw	a3,12(a2)
10009f20:	00c6a423          	sw	a2,8(a3)
10009f24:	00482683          	lw	a3,4(a6)
10009f28:	40f70533          	sub	a0,a4,a5
10009f2c:	00f00593          	li	a1,15
10009f30:	0016f693          	andi	a3,a3,1
10009f34:	00e80633          	add	a2,a6,a4
10009f38:	06a5e063          	bltu	a1,a0,10009f98 <_realloc_r+0x1f8>
10009f3c:	00d766b3          	or	a3,a4,a3
10009f40:	00d82223          	sw	a3,4(a6)
10009f44:	00462783          	lw	a5,4(a2)
10009f48:	0017e793          	ori	a5,a5,1
10009f4c:	00f62223          	sw	a5,4(a2)
10009f50:	00048513          	mv	a0,s1
10009f54:	d94f80ef          	jal	100024e8 <__malloc_unlock>
10009f58:	00040693          	mv	a3,s0
10009f5c:	01c12083          	lw	ra,28(sp)
10009f60:	01812403          	lw	s0,24(sp)
10009f64:	01412483          	lw	s1,20(sp)
10009f68:	00068513          	mv	a0,a3
10009f6c:	02010113          	addi	sp,sp,32
10009f70:	00008067          	ret
10009f74:	00167613          	andi	a2,a2,1
10009f78:	ee0612e3          	bnez	a2,10009e5c <_realloc_r+0xbc>
10009f7c:	ff842e83          	lw	t4,-8(s0)
10009f80:	41d80eb3          	sub	t4,a6,t4
10009f84:	004ea603          	lw	a2,4(t4)
10009f88:	ffc67613          	andi	a2,a2,-4
10009f8c:	ec9ff06f          	j	10009e54 <_realloc_r+0xb4>
10009f90:	00060593          	mv	a1,a2
10009f94:	cd5f706f          	j	10001c68 <_malloc_r>
10009f98:	00d7e6b3          	or	a3,a5,a3
10009f9c:	00d82223          	sw	a3,4(a6)
10009fa0:	00f805b3          	add	a1,a6,a5
10009fa4:	00156513          	ori	a0,a0,1
10009fa8:	00a5a223          	sw	a0,4(a1)
10009fac:	00462783          	lw	a5,4(a2)
10009fb0:	00858593          	addi	a1,a1,8
10009fb4:	00048513          	mv	a0,s1
10009fb8:	0017e793          	ori	a5,a5,1
10009fbc:	00f62223          	sw	a5,4(a2)
10009fc0:	9c1f70ef          	jal	10001980 <_free_r>
10009fc4:	f8dff06f          	j	10009f50 <_realloc_r+0x1b0>
10009fc8:	00c00793          	li	a5,12
10009fcc:	00f4a023          	sw	a5,0(s1)
10009fd0:	00000693          	li	a3,0
10009fd4:	01c12083          	lw	ra,28(sp)
10009fd8:	01812403          	lw	s0,24(sp)
10009fdc:	01412483          	lw	s1,20(sp)
10009fe0:	00068513          	mv	a0,a3
10009fe4:	02010113          	addi	sp,sp,32
10009fe8:	00008067          	ret
10009fec:	ffc57513          	andi	a0,a0,-4
10009ff0:	00e508b3          	add	a7,a0,a4
10009ff4:	01078313          	addi	t1,a5,16
10009ff8:	2468da63          	bge	a7,t1,1000a24c <_realloc_r+0x4ac>
10009ffc:	00167613          	andi	a2,a2,1
1000a000:	e4061ee3          	bnez	a2,10009e5c <_realloc_r+0xbc>
1000a004:	ff842e83          	lw	t4,-8(s0)
1000a008:	41d80eb3          	sub	t4,a6,t4
1000a00c:	004ea603          	lw	a2,4(t4)
1000a010:	ffc67613          	andi	a2,a2,-4
1000a014:	00c50533          	add	a0,a0,a2
1000a018:	00e508b3          	add	a7,a0,a4
1000a01c:	e268cce3          	blt	a7,t1,10009e54 <_realloc_r+0xb4>
1000a020:	00cea683          	lw	a3,12(t4)
1000a024:	008ea583          	lw	a1,8(t4)
1000a028:	ffc70613          	addi	a2,a4,-4
1000a02c:	02400713          	li	a4,36
1000a030:	00d5a623          	sw	a3,12(a1)
1000a034:	00b6a423          	sw	a1,8(a3)
1000a038:	008e8693          	addi	a3,t4,8
1000a03c:	2ec76263          	bltu	a4,a2,1000a320 <_realloc_r+0x580>
1000a040:	01300593          	li	a1,19
1000a044:	00068713          	mv	a4,a3
1000a048:	02c5f263          	bgeu	a1,a2,1000a06c <_realloc_r+0x2cc>
1000a04c:	00042583          	lw	a1,0(s0)
1000a050:	01b00713          	li	a4,27
1000a054:	00bea423          	sw	a1,8(t4)
1000a058:	00442583          	lw	a1,4(s0)
1000a05c:	00bea623          	sw	a1,12(t4)
1000a060:	30c76a63          	bltu	a4,a2,1000a374 <_realloc_r+0x5d4>
1000a064:	00840413          	addi	s0,s0,8
1000a068:	010e8713          	addi	a4,t4,16
1000a06c:	00042603          	lw	a2,0(s0)
1000a070:	00c72023          	sw	a2,0(a4)
1000a074:	00442603          	lw	a2,4(s0)
1000a078:	00c72223          	sw	a2,4(a4)
1000a07c:	00842603          	lw	a2,8(s0)
1000a080:	00c72423          	sw	a2,8(a4)
1000a084:	00fe8633          	add	a2,t4,a5
1000a088:	40f88733          	sub	a4,a7,a5
1000a08c:	00ce2423          	sw	a2,8(t3)
1000a090:	00176713          	ori	a4,a4,1
1000a094:	00e62223          	sw	a4,4(a2)
1000a098:	004ea703          	lw	a4,4(t4)
1000a09c:	00048513          	mv	a0,s1
1000a0a0:	00d12023          	sw	a3,0(sp)
1000a0a4:	00177713          	andi	a4,a4,1
1000a0a8:	00f767b3          	or	a5,a4,a5
1000a0ac:	00fea223          	sw	a5,4(t4)
1000a0b0:	c38f80ef          	jal	100024e8 <__malloc_unlock>
1000a0b4:	00012683          	lw	a3,0(sp)
1000a0b8:	ea5ff06f          	j	10009f5c <_realloc_r+0x1bc>
1000a0bc:	ffc52683          	lw	a3,-4(a0)
1000a0c0:	ffc6f693          	andi	a3,a3,-4
1000a0c4:	00d70733          	add	a4,a4,a3
1000a0c8:	e5dff06f          	j	10009f24 <_realloc_r+0x184>
1000a0cc:	00042583          	lw	a1,0(s0)
1000a0d0:	01b00713          	li	a4,27
1000a0d4:	00b52023          	sw	a1,0(a0)
1000a0d8:	00442583          	lw	a1,4(s0)
1000a0dc:	00b52223          	sw	a1,4(a0)
1000a0e0:	10c76e63          	bltu	a4,a2,1000a1fc <_realloc_r+0x45c>
1000a0e4:	00840713          	addi	a4,s0,8
1000a0e8:	00850793          	addi	a5,a0,8
1000a0ec:	dc9ff06f          	j	10009eb4 <_realloc_r+0x114>
1000a0f0:	00cea683          	lw	a3,12(t4)
1000a0f4:	008ea583          	lw	a1,8(t4)
1000a0f8:	ffc70613          	addi	a2,a4,-4
1000a0fc:	02400513          	li	a0,36
1000a100:	00d5a623          	sw	a3,12(a1)
1000a104:	00b6a423          	sw	a1,8(a3)
1000a108:	008e8693          	addi	a3,t4,8
1000a10c:	10c56863          	bltu	a0,a2,1000a21c <_realloc_r+0x47c>
1000a110:	01300593          	li	a1,19
1000a114:	00068713          	mv	a4,a3
1000a118:	02c5f263          	bgeu	a1,a2,1000a13c <_realloc_r+0x39c>
1000a11c:	00042583          	lw	a1,0(s0)
1000a120:	01b00713          	li	a4,27
1000a124:	00bea423          	sw	a1,8(t4)
1000a128:	00442583          	lw	a1,4(s0)
1000a12c:	00bea623          	sw	a1,12(t4)
1000a130:	18c76063          	bltu	a4,a2,1000a2b0 <_realloc_r+0x510>
1000a134:	00840413          	addi	s0,s0,8
1000a138:	010e8713          	addi	a4,t4,16
1000a13c:	00042603          	lw	a2,0(s0)
1000a140:	00c72023          	sw	a2,0(a4)
1000a144:	00442603          	lw	a2,4(s0)
1000a148:	00c72223          	sw	a2,4(a4)
1000a14c:	00842603          	lw	a2,8(s0)
1000a150:	00c72423          	sw	a2,8(a4)
1000a154:	00068413          	mv	s0,a3
1000a158:	00088713          	mv	a4,a7
1000a15c:	000e8813          	mv	a6,t4
1000a160:	dc5ff06f          	j	10009f24 <_realloc_r+0x184>
1000a164:	00040593          	mv	a1,s0
1000a168:	00a12023          	sw	a0,0(sp)
1000a16c:	950fc0ef          	jal	100062bc <memmove>
1000a170:	00012683          	lw	a3,0(sp)
1000a174:	d59ff06f          	j	10009ecc <_realloc_r+0x12c>
1000a178:	00c32683          	lw	a3,12(t1)
1000a17c:	00832583          	lw	a1,8(t1)
1000a180:	ffc70613          	addi	a2,a4,-4
1000a184:	02400513          	li	a0,36
1000a188:	00d5a623          	sw	a3,12(a1)
1000a18c:	00b6a423          	sw	a1,8(a3)
1000a190:	00cea703          	lw	a4,12(t4)
1000a194:	008ea683          	lw	a3,8(t4)
1000a198:	008e8813          	addi	a6,t4,8
1000a19c:	00e6a623          	sw	a4,12(a3)
1000a1a0:	00d72423          	sw	a3,8(a4)
1000a1a4:	0cc56e63          	bltu	a0,a2,1000a280 <_realloc_r+0x4e0>
1000a1a8:	01300693          	li	a3,19
1000a1ac:	00080713          	mv	a4,a6
1000a1b0:	02c6f263          	bgeu	a3,a2,1000a1d4 <_realloc_r+0x434>
1000a1b4:	00042683          	lw	a3,0(s0)
1000a1b8:	01b00713          	li	a4,27
1000a1bc:	00dea423          	sw	a3,8(t4)
1000a1c0:	00442683          	lw	a3,4(s0)
1000a1c4:	00dea623          	sw	a3,12(t4)
1000a1c8:	12c76a63          	bltu	a4,a2,1000a2fc <_realloc_r+0x55c>
1000a1cc:	00840413          	addi	s0,s0,8
1000a1d0:	010e8713          	addi	a4,t4,16
1000a1d4:	00042683          	lw	a3,0(s0)
1000a1d8:	00d72023          	sw	a3,0(a4)
1000a1dc:	00442683          	lw	a3,4(s0)
1000a1e0:	00d72223          	sw	a3,4(a4)
1000a1e4:	00842683          	lw	a3,8(s0)
1000a1e8:	00d72423          	sw	a3,8(a4)
1000a1ec:	00080413          	mv	s0,a6
1000a1f0:	00088713          	mv	a4,a7
1000a1f4:	000e8813          	mv	a6,t4
1000a1f8:	d2dff06f          	j	10009f24 <_realloc_r+0x184>
1000a1fc:	00842703          	lw	a4,8(s0)
1000a200:	00e52423          	sw	a4,8(a0)
1000a204:	00c42703          	lw	a4,12(s0)
1000a208:	00e52623          	sw	a4,12(a0)
1000a20c:	0cf60a63          	beq	a2,a5,1000a2e0 <_realloc_r+0x540>
1000a210:	01040713          	addi	a4,s0,16
1000a214:	01050793          	addi	a5,a0,16
1000a218:	c9dff06f          	j	10009eb4 <_realloc_r+0x114>
1000a21c:	00068513          	mv	a0,a3
1000a220:	00040593          	mv	a1,s0
1000a224:	01d12623          	sw	t4,12(sp)
1000a228:	00f12423          	sw	a5,8(sp)
1000a22c:	01112223          	sw	a7,4(sp)
1000a230:	00d12023          	sw	a3,0(sp)
1000a234:	888fc0ef          	jal	100062bc <memmove>
1000a238:	00c12e83          	lw	t4,12(sp)
1000a23c:	00812783          	lw	a5,8(sp)
1000a240:	00412883          	lw	a7,4(sp)
1000a244:	00012683          	lw	a3,0(sp)
1000a248:	f0dff06f          	j	1000a154 <_realloc_r+0x3b4>
1000a24c:	00f80833          	add	a6,a6,a5
1000a250:	40f88733          	sub	a4,a7,a5
1000a254:	010e2423          	sw	a6,8(t3)
1000a258:	00176713          	ori	a4,a4,1
1000a25c:	00e82223          	sw	a4,4(a6)
1000a260:	ffc42703          	lw	a4,-4(s0)
1000a264:	00048513          	mv	a0,s1
1000a268:	00177713          	andi	a4,a4,1
1000a26c:	00f767b3          	or	a5,a4,a5
1000a270:	fef42e23          	sw	a5,-4(s0)
1000a274:	a74f80ef          	jal	100024e8 <__malloc_unlock>
1000a278:	00040693          	mv	a3,s0
1000a27c:	ce1ff06f          	j	10009f5c <_realloc_r+0x1bc>
1000a280:	00080513          	mv	a0,a6
1000a284:	00040593          	mv	a1,s0
1000a288:	01d12623          	sw	t4,12(sp)
1000a28c:	00f12423          	sw	a5,8(sp)
1000a290:	01112223          	sw	a7,4(sp)
1000a294:	01012023          	sw	a6,0(sp)
1000a298:	824fc0ef          	jal	100062bc <memmove>
1000a29c:	00012803          	lw	a6,0(sp)
1000a2a0:	00412883          	lw	a7,4(sp)
1000a2a4:	00812783          	lw	a5,8(sp)
1000a2a8:	00c12e83          	lw	t4,12(sp)
1000a2ac:	f41ff06f          	j	1000a1ec <_realloc_r+0x44c>
1000a2b0:	00842703          	lw	a4,8(s0)
1000a2b4:	00eea823          	sw	a4,16(t4)
1000a2b8:	00c42703          	lw	a4,12(s0)
1000a2bc:	00eeaa23          	sw	a4,20(t4)
1000a2c0:	08a60c63          	beq	a2,a0,1000a358 <_realloc_r+0x5b8>
1000a2c4:	01040413          	addi	s0,s0,16
1000a2c8:	018e8713          	addi	a4,t4,24
1000a2cc:	e71ff06f          	j	1000a13c <_realloc_r+0x39c>
1000a2d0:	00048513          	mv	a0,s1
1000a2d4:	a14f80ef          	jal	100024e8 <__malloc_unlock>
1000a2d8:	00000693          	li	a3,0
1000a2dc:	cf9ff06f          	j	10009fd4 <_realloc_r+0x234>
1000a2e0:	01042603          	lw	a2,16(s0)
1000a2e4:	01840713          	addi	a4,s0,24
1000a2e8:	01850793          	addi	a5,a0,24
1000a2ec:	00c52823          	sw	a2,16(a0)
1000a2f0:	01442603          	lw	a2,20(s0)
1000a2f4:	00c52a23          	sw	a2,20(a0)
1000a2f8:	bbdff06f          	j	10009eb4 <_realloc_r+0x114>
1000a2fc:	00842683          	lw	a3,8(s0)
1000a300:	02400713          	li	a4,36
1000a304:	00dea823          	sw	a3,16(t4)
1000a308:	00c42683          	lw	a3,12(s0)
1000a30c:	00deaa23          	sw	a3,20(t4)
1000a310:	08e60463          	beq	a2,a4,1000a398 <_realloc_r+0x5f8>
1000a314:	01040413          	addi	s0,s0,16
1000a318:	018e8713          	addi	a4,t4,24
1000a31c:	eb9ff06f          	j	1000a1d4 <_realloc_r+0x434>
1000a320:	00068513          	mv	a0,a3
1000a324:	00040593          	mv	a1,s0
1000a328:	01d12623          	sw	t4,12(sp)
1000a32c:	00f12423          	sw	a5,8(sp)
1000a330:	01112223          	sw	a7,4(sp)
1000a334:	00d12023          	sw	a3,0(sp)
1000a338:	f85fb0ef          	jal	100062bc <memmove>
1000a33c:	100117b7          	lui	a5,0x10011
1000a340:	42878e13          	addi	t3,a5,1064 # 10011428 <__malloc_av_>
1000a344:	00c12e83          	lw	t4,12(sp)
1000a348:	00812783          	lw	a5,8(sp)
1000a34c:	00412883          	lw	a7,4(sp)
1000a350:	00012683          	lw	a3,0(sp)
1000a354:	d31ff06f          	j	1000a084 <_realloc_r+0x2e4>
1000a358:	01042603          	lw	a2,16(s0)
1000a35c:	020e8713          	addi	a4,t4,32
1000a360:	01840413          	addi	s0,s0,24
1000a364:	00ceac23          	sw	a2,24(t4)
1000a368:	ffc42603          	lw	a2,-4(s0)
1000a36c:	00ceae23          	sw	a2,28(t4)
1000a370:	dcdff06f          	j	1000a13c <_realloc_r+0x39c>
1000a374:	00842583          	lw	a1,8(s0)
1000a378:	02400713          	li	a4,36
1000a37c:	00bea823          	sw	a1,16(t4)
1000a380:	00c42583          	lw	a1,12(s0)
1000a384:	00beaa23          	sw	a1,20(t4)
1000a388:	02e60663          	beq	a2,a4,1000a3b4 <_realloc_r+0x614>
1000a38c:	01040413          	addi	s0,s0,16
1000a390:	018e8713          	addi	a4,t4,24
1000a394:	cd9ff06f          	j	1000a06c <_realloc_r+0x2cc>
1000a398:	01042683          	lw	a3,16(s0)
1000a39c:	020e8713          	addi	a4,t4,32
1000a3a0:	01840413          	addi	s0,s0,24
1000a3a4:	00deac23          	sw	a3,24(t4)
1000a3a8:	ffc42683          	lw	a3,-4(s0)
1000a3ac:	00deae23          	sw	a3,28(t4)
1000a3b0:	e25ff06f          	j	1000a1d4 <_realloc_r+0x434>
1000a3b4:	01042603          	lw	a2,16(s0)
1000a3b8:	020e8713          	addi	a4,t4,32
1000a3bc:	01840413          	addi	s0,s0,24
1000a3c0:	00ceac23          	sw	a2,24(t4)
1000a3c4:	ffc42603          	lw	a2,-4(s0)
1000a3c8:	00ceae23          	sw	a2,28(t4)
1000a3cc:	ca1ff06f          	j	1000a06c <_realloc_r+0x2cc>

1000a3d0 <__smakebuf_r>:
1000a3d0:	00c59783          	lh	a5,12(a1)
1000a3d4:	0027f713          	andi	a4,a5,2
1000a3d8:	00070e63          	beqz	a4,1000a3f4 <__smakebuf_r+0x24>
1000a3dc:	04358793          	addi	a5,a1,67
1000a3e0:	00100713          	li	a4,1
1000a3e4:	00f5a023          	sw	a5,0(a1)
1000a3e8:	00f5a823          	sw	a5,16(a1)
1000a3ec:	00e5aa23          	sw	a4,20(a1)
1000a3f0:	00008067          	ret
1000a3f4:	00058713          	mv	a4,a1
1000a3f8:	00e59583          	lh	a1,14(a1)
1000a3fc:	f8010113          	addi	sp,sp,-128
1000a400:	06812c23          	sw	s0,120(sp)
1000a404:	06112e23          	sw	ra,124(sp)
1000a408:	00050413          	mv	s0,a0
1000a40c:	0805ce63          	bltz	a1,1000a4a8 <__smakebuf_r+0xd8>
1000a410:	01810613          	addi	a2,sp,24
1000a414:	00e12423          	sw	a4,8(sp)
1000a418:	334000ef          	jal	1000a74c <_fstat_r>
1000a41c:	00812703          	lw	a4,8(sp)
1000a420:	08054263          	bltz	a0,1000a4a4 <__smakebuf_r+0xd4>
1000a424:	40000593          	li	a1,1024
1000a428:	00040513          	mv	a0,s0
1000a42c:	06912a23          	sw	s1,116(sp)
1000a430:	00e12423          	sw	a4,8(sp)
1000a434:	01c12483          	lw	s1,28(sp)
1000a438:	831f70ef          	jal	10001c68 <_malloc_r>
1000a43c:	00812703          	lw	a4,8(sp)
1000a440:	00c71783          	lh	a5,12(a4)
1000a444:	0c050263          	beqz	a0,1000a508 <__smakebuf_r+0x138>
1000a448:	40000693          	li	a3,1024
1000a44c:	0807e793          	ori	a5,a5,128
1000a450:	00d72a23          	sw	a3,20(a4)
1000a454:	40c4d693          	srai	a3,s1,0xc
1000a458:	00f71623          	sh	a5,12(a4)
1000a45c:	00a72023          	sw	a0,0(a4)
1000a460:	00a72823          	sw	a0,16(a4)
1000a464:	00f6f693          	andi	a3,a3,15
1000a468:	00200613          	li	a2,2
1000a46c:	0cc69663          	bne	a3,a2,1000a538 <__smakebuf_r+0x168>
1000a470:	00e71583          	lh	a1,14(a4)
1000a474:	00040513          	mv	a0,s0
1000a478:	00e12423          	sw	a4,8(sp)
1000a47c:	334000ef          	jal	1000a7b0 <_isatty_r>
1000a480:	00812703          	lw	a4,8(sp)
1000a484:	00c71783          	lh	a5,12(a4)
1000a488:	0a050863          	beqz	a0,1000a538 <__smakebuf_r+0x168>
1000a48c:	ffc7f793          	andi	a5,a5,-4
1000a490:	000016b7          	lui	a3,0x1
1000a494:	07412483          	lw	s1,116(sp)
1000a498:	0017e793          	ori	a5,a5,1
1000a49c:	80068693          	addi	a3,a3,-2048 # 800 <__heap_size-0x800>
1000a4a0:	0500006f          	j	1000a4f0 <__smakebuf_r+0x120>
1000a4a4:	00c71783          	lh	a5,12(a4)
1000a4a8:	0807f793          	andi	a5,a5,128
1000a4ac:	0017b793          	seqz	a5,a5
1000a4b0:	40f007b3          	neg	a5,a5
1000a4b4:	3c07f593          	andi	a1,a5,960
1000a4b8:	04058593          	addi	a1,a1,64
1000a4bc:	00040513          	mv	a0,s0
1000a4c0:	00e12623          	sw	a4,12(sp)
1000a4c4:	00b12423          	sw	a1,8(sp)
1000a4c8:	fa0f70ef          	jal	10001c68 <_malloc_r>
1000a4cc:	00c12703          	lw	a4,12(sp)
1000a4d0:	00812583          	lw	a1,8(sp)
1000a4d4:	00c71783          	lh	a5,12(a4)
1000a4d8:	02050a63          	beqz	a0,1000a50c <__smakebuf_r+0x13c>
1000a4dc:	0807e793          	ori	a5,a5,128
1000a4e0:	00a72023          	sw	a0,0(a4)
1000a4e4:	00a72823          	sw	a0,16(a4)
1000a4e8:	00b72a23          	sw	a1,20(a4)
1000a4ec:	00000693          	li	a3,0
1000a4f0:	00d7e7b3          	or	a5,a5,a3
1000a4f4:	00f71623          	sh	a5,12(a4)
1000a4f8:	07c12083          	lw	ra,124(sp)
1000a4fc:	07812403          	lw	s0,120(sp)
1000a500:	08010113          	addi	sp,sp,128
1000a504:	00008067          	ret
1000a508:	07412483          	lw	s1,116(sp)
1000a50c:	2007f693          	andi	a3,a5,512
1000a510:	fe0694e3          	bnez	a3,1000a4f8 <__smakebuf_r+0x128>
1000a514:	ffc7f793          	andi	a5,a5,-4
1000a518:	04370693          	addi	a3,a4,67
1000a51c:	0027e793          	ori	a5,a5,2
1000a520:	00100613          	li	a2,1
1000a524:	00f71623          	sh	a5,12(a4)
1000a528:	00d72023          	sw	a3,0(a4)
1000a52c:	00d72823          	sw	a3,16(a4)
1000a530:	00c72a23          	sw	a2,20(a4)
1000a534:	fc5ff06f          	j	1000a4f8 <__smakebuf_r+0x128>
1000a538:	000016b7          	lui	a3,0x1
1000a53c:	07412483          	lw	s1,116(sp)
1000a540:	80068693          	addi	a3,a3,-2048 # 800 <__heap_size-0x800>
1000a544:	fadff06f          	j	1000a4f0 <__smakebuf_r+0x120>

1000a548 <__swhatbuf_r>:
1000a548:	00058793          	mv	a5,a1
1000a54c:	00e59583          	lh	a1,14(a1)
1000a550:	00060713          	mv	a4,a2
1000a554:	0805ca63          	bltz	a1,1000a5e8 <__swhatbuf_r+0xa0>
1000a558:	f8010113          	addi	sp,sp,-128
1000a55c:	00c12423          	sw	a2,8(sp)
1000a560:	01810613          	addi	a2,sp,24
1000a564:	00d12623          	sw	a3,12(sp)
1000a568:	00f12223          	sw	a5,4(sp)
1000a56c:	06112e23          	sw	ra,124(sp)
1000a570:	1dc000ef          	jal	1000a74c <_fstat_r>
1000a574:	00412783          	lw	a5,4(sp)
1000a578:	00812703          	lw	a4,8(sp)
1000a57c:	00c12683          	lw	a3,12(sp)
1000a580:	02054e63          	bltz	a0,1000a5bc <__swhatbuf_r+0x74>
1000a584:	01c12783          	lw	a5,28(sp)
1000a588:	0000f5b7          	lui	a1,0xf
1000a58c:	ffffe637          	lui	a2,0xffffe
1000a590:	00b7f7b3          	and	a5,a5,a1
1000a594:	00c787b3          	add	a5,a5,a2
1000a598:	07c12083          	lw	ra,124(sp)
1000a59c:	0017b793          	seqz	a5,a5
1000a5a0:	00f6a023          	sw	a5,0(a3)
1000a5a4:	40000613          	li	a2,1024
1000a5a8:	00001537          	lui	a0,0x1
1000a5ac:	00c72023          	sw	a2,0(a4)
1000a5b0:	80050513          	addi	a0,a0,-2048 # 800 <__heap_size-0x800>
1000a5b4:	08010113          	addi	sp,sp,128
1000a5b8:	00008067          	ret
1000a5bc:	00c7d783          	lhu	a5,12(a5)
1000a5c0:	0807f793          	andi	a5,a5,128
1000a5c4:	04078263          	beqz	a5,1000a608 <__swhatbuf_r+0xc0>
1000a5c8:	07c12083          	lw	ra,124(sp)
1000a5cc:	00000793          	li	a5,0
1000a5d0:	00f6a023          	sw	a5,0(a3)
1000a5d4:	04000613          	li	a2,64
1000a5d8:	00c72023          	sw	a2,0(a4)
1000a5dc:	00000513          	li	a0,0
1000a5e0:	08010113          	addi	sp,sp,128
1000a5e4:	00008067          	ret
1000a5e8:	00c7d783          	lhu	a5,12(a5)
1000a5ec:	0807f793          	andi	a5,a5,128
1000a5f0:	02079a63          	bnez	a5,1000a624 <__swhatbuf_r+0xdc>
1000a5f4:	40000613          	li	a2,1024
1000a5f8:	00f6a023          	sw	a5,0(a3)
1000a5fc:	00000513          	li	a0,0
1000a600:	00c72023          	sw	a2,0(a4)
1000a604:	00008067          	ret
1000a608:	07c12083          	lw	ra,124(sp)
1000a60c:	00f6a023          	sw	a5,0(a3)
1000a610:	40000613          	li	a2,1024
1000a614:	00c72023          	sw	a2,0(a4)
1000a618:	00000513          	li	a0,0
1000a61c:	08010113          	addi	sp,sp,128
1000a620:	00008067          	ret
1000a624:	00000793          	li	a5,0
1000a628:	04000613          	li	a2,64
1000a62c:	00f6a023          	sw	a5,0(a3)
1000a630:	00000513          	li	a0,0
1000a634:	00c72023          	sw	a2,0(a4)
1000a638:	00008067          	ret

1000a63c <_setlocale_r>:
1000a63c:	04060063          	beqz	a2,1000a67c <_setlocale_r+0x40>
1000a640:	100115b7          	lui	a1,0x10011
1000a644:	fe010113          	addi	sp,sp,-32
1000a648:	bf858593          	addi	a1,a1,-1032 # 10010bf8 <__clzsi2+0x284>
1000a64c:	00060513          	mv	a0,a2
1000a650:	00812c23          	sw	s0,24(sp)
1000a654:	00112e23          	sw	ra,28(sp)
1000a658:	00060413          	mv	s0,a2
1000a65c:	1b0000ef          	jal	1000a80c <strcmp>
1000a660:	100117b7          	lui	a5,0x10011
1000a664:	02051263          	bnez	a0,1000a688 <_setlocale_r+0x4c>
1000a668:	bf478513          	addi	a0,a5,-1036 # 10010bf4 <__clzsi2+0x280>
1000a66c:	01c12083          	lw	ra,28(sp)
1000a670:	01812403          	lw	s0,24(sp)
1000a674:	02010113          	addi	sp,sp,32
1000a678:	00008067          	ret
1000a67c:	100117b7          	lui	a5,0x10011
1000a680:	bf478513          	addi	a0,a5,-1036 # 10010bf4 <__clzsi2+0x280>
1000a684:	00008067          	ret
1000a688:	bf478593          	addi	a1,a5,-1036
1000a68c:	00040513          	mv	a0,s0
1000a690:	00f12623          	sw	a5,12(sp)
1000a694:	178000ef          	jal	1000a80c <strcmp>
1000a698:	00c12783          	lw	a5,12(sp)
1000a69c:	fc0506e3          	beqz	a0,1000a668 <_setlocale_r+0x2c>
1000a6a0:	100115b7          	lui	a1,0x10011
1000a6a4:	00040513          	mv	a0,s0
1000a6a8:	ac458593          	addi	a1,a1,-1340 # 10010ac4 <__clzsi2+0x150>
1000a6ac:	160000ef          	jal	1000a80c <strcmp>
1000a6b0:	00c12783          	lw	a5,12(sp)
1000a6b4:	fa050ae3          	beqz	a0,1000a668 <_setlocale_r+0x2c>
1000a6b8:	00000513          	li	a0,0
1000a6bc:	fb1ff06f          	j	1000a66c <_setlocale_r+0x30>

1000a6c0 <__locale_mb_cur_max>:
1000a6c0:	e801c503          	lbu	a0,-384(gp) # 10011958 <__global_locale+0x128>
1000a6c4:	00008067          	ret

1000a6c8 <setlocale>:
1000a6c8:	04058063          	beqz	a1,1000a708 <setlocale+0x40>
1000a6cc:	fe010113          	addi	sp,sp,-32
1000a6d0:	00812c23          	sw	s0,24(sp)
1000a6d4:	00058513          	mv	a0,a1
1000a6d8:	00058413          	mv	s0,a1
1000a6dc:	100115b7          	lui	a1,0x10011
1000a6e0:	bf858593          	addi	a1,a1,-1032 # 10010bf8 <__clzsi2+0x284>
1000a6e4:	00112e23          	sw	ra,28(sp)
1000a6e8:	124000ef          	jal	1000a80c <strcmp>
1000a6ec:	100117b7          	lui	a5,0x10011
1000a6f0:	02051263          	bnez	a0,1000a714 <setlocale+0x4c>
1000a6f4:	bf478513          	addi	a0,a5,-1036 # 10010bf4 <__clzsi2+0x280>
1000a6f8:	01c12083          	lw	ra,28(sp)
1000a6fc:	01812403          	lw	s0,24(sp)
1000a700:	02010113          	addi	sp,sp,32
1000a704:	00008067          	ret
1000a708:	100117b7          	lui	a5,0x10011
1000a70c:	bf478513          	addi	a0,a5,-1036 # 10010bf4 <__clzsi2+0x280>
1000a710:	00008067          	ret
1000a714:	bf478593          	addi	a1,a5,-1036
1000a718:	00040513          	mv	a0,s0
1000a71c:	00f12623          	sw	a5,12(sp)
1000a720:	0ec000ef          	jal	1000a80c <strcmp>
1000a724:	00c12783          	lw	a5,12(sp)
1000a728:	fc0506e3          	beqz	a0,1000a6f4 <setlocale+0x2c>
1000a72c:	100115b7          	lui	a1,0x10011
1000a730:	00040513          	mv	a0,s0
1000a734:	ac458593          	addi	a1,a1,-1340 # 10010ac4 <__clzsi2+0x150>
1000a738:	0d4000ef          	jal	1000a80c <strcmp>
1000a73c:	00c12783          	lw	a5,12(sp)
1000a740:	fa050ae3          	beqz	a0,1000a6f4 <setlocale+0x2c>
1000a744:	00000513          	li	a0,0
1000a748:	fb1ff06f          	j	1000a6f8 <setlocale+0x30>

1000a74c <_fstat_r>:
1000a74c:	ff010113          	addi	sp,sp,-16
1000a750:	00058793          	mv	a5,a1
1000a754:	00812423          	sw	s0,8(sp)
1000a758:	00912223          	sw	s1,4(sp)
1000a75c:	00060593          	mv	a1,a2
1000a760:	00050493          	mv	s1,a0
1000a764:	00078513          	mv	a0,a5
1000a768:	00112623          	sw	ra,12(sp)
1000a76c:	f201ae23          	sw	zero,-196(gp) # 10011a14 <errno>
1000a770:	c5bf50ef          	jal	100003ca <_fstat>
1000a774:	fff00793          	li	a5,-1
1000a778:	00f50c63          	beq	a0,a5,1000a790 <_fstat_r+0x44>
1000a77c:	00c12083          	lw	ra,12(sp)
1000a780:	00812403          	lw	s0,8(sp)
1000a784:	00412483          	lw	s1,4(sp)
1000a788:	01010113          	addi	sp,sp,16
1000a78c:	00008067          	ret
1000a790:	f3c1a783          	lw	a5,-196(gp) # 10011a14 <errno>
1000a794:	fe0784e3          	beqz	a5,1000a77c <_fstat_r+0x30>
1000a798:	00c12083          	lw	ra,12(sp)
1000a79c:	00812403          	lw	s0,8(sp)
1000a7a0:	00f4a023          	sw	a5,0(s1)
1000a7a4:	00412483          	lw	s1,4(sp)
1000a7a8:	01010113          	addi	sp,sp,16
1000a7ac:	00008067          	ret

1000a7b0 <_isatty_r>:
1000a7b0:	ff010113          	addi	sp,sp,-16
1000a7b4:	00812423          	sw	s0,8(sp)
1000a7b8:	00912223          	sw	s1,4(sp)
1000a7bc:	00050493          	mv	s1,a0
1000a7c0:	00058513          	mv	a0,a1
1000a7c4:	00112623          	sw	ra,12(sp)
1000a7c8:	f201ae23          	sw	zero,-196(gp) # 10011a14 <errno>
1000a7cc:	c3bf50ef          	jal	10000406 <_isatty>
1000a7d0:	fff00793          	li	a5,-1
1000a7d4:	00f50c63          	beq	a0,a5,1000a7ec <_isatty_r+0x3c>
1000a7d8:	00c12083          	lw	ra,12(sp)
1000a7dc:	00812403          	lw	s0,8(sp)
1000a7e0:	00412483          	lw	s1,4(sp)
1000a7e4:	01010113          	addi	sp,sp,16
1000a7e8:	00008067          	ret
1000a7ec:	f3c1a783          	lw	a5,-196(gp) # 10011a14 <errno>
1000a7f0:	fe0784e3          	beqz	a5,1000a7d8 <_isatty_r+0x28>
1000a7f4:	00c12083          	lw	ra,12(sp)
1000a7f8:	00812403          	lw	s0,8(sp)
1000a7fc:	00f4a023          	sw	a5,0(s1)
1000a800:	00412483          	lw	s1,4(sp)
1000a804:	01010113          	addi	sp,sp,16
1000a808:	00008067          	ret

1000a80c <strcmp>:
1000a80c:	00b56733          	or	a4,a0,a1
1000a810:	fff00393          	li	t2,-1
1000a814:	00377713          	andi	a4,a4,3
1000a818:	10071063          	bnez	a4,1000a918 <strcmp+0x10c>
1000a81c:	7f7f87b7          	lui	a5,0x7f7f8
1000a820:	f7f78793          	addi	a5,a5,-129 # 7f7f7f7f <_sp+0x6f7e425f>
1000a824:	00052603          	lw	a2,0(a0)
1000a828:	0005a683          	lw	a3,0(a1)
1000a82c:	00f672b3          	and	t0,a2,a5
1000a830:	00f66333          	or	t1,a2,a5
1000a834:	00f282b3          	add	t0,t0,a5
1000a838:	0062e2b3          	or	t0,t0,t1
1000a83c:	10729263          	bne	t0,t2,1000a940 <strcmp+0x134>
1000a840:	08d61663          	bne	a2,a3,1000a8cc <strcmp+0xc0>
1000a844:	00452603          	lw	a2,4(a0)
1000a848:	0045a683          	lw	a3,4(a1)
1000a84c:	00f672b3          	and	t0,a2,a5
1000a850:	00f66333          	or	t1,a2,a5
1000a854:	00f282b3          	add	t0,t0,a5
1000a858:	0062e2b3          	or	t0,t0,t1
1000a85c:	0c729e63          	bne	t0,t2,1000a938 <strcmp+0x12c>
1000a860:	06d61663          	bne	a2,a3,1000a8cc <strcmp+0xc0>
1000a864:	00852603          	lw	a2,8(a0)
1000a868:	0085a683          	lw	a3,8(a1)
1000a86c:	00f672b3          	and	t0,a2,a5
1000a870:	00f66333          	or	t1,a2,a5
1000a874:	00f282b3          	add	t0,t0,a5
1000a878:	0062e2b3          	or	t0,t0,t1
1000a87c:	0c729863          	bne	t0,t2,1000a94c <strcmp+0x140>
1000a880:	04d61663          	bne	a2,a3,1000a8cc <strcmp+0xc0>
1000a884:	00c52603          	lw	a2,12(a0)
1000a888:	00c5a683          	lw	a3,12(a1)
1000a88c:	00f672b3          	and	t0,a2,a5
1000a890:	00f66333          	or	t1,a2,a5
1000a894:	00f282b3          	add	t0,t0,a5
1000a898:	0062e2b3          	or	t0,t0,t1
1000a89c:	0c729263          	bne	t0,t2,1000a960 <strcmp+0x154>
1000a8a0:	02d61663          	bne	a2,a3,1000a8cc <strcmp+0xc0>
1000a8a4:	01052603          	lw	a2,16(a0)
1000a8a8:	0105a683          	lw	a3,16(a1)
1000a8ac:	00f672b3          	and	t0,a2,a5
1000a8b0:	00f66333          	or	t1,a2,a5
1000a8b4:	00f282b3          	add	t0,t0,a5
1000a8b8:	0062e2b3          	or	t0,t0,t1
1000a8bc:	0a729c63          	bne	t0,t2,1000a974 <strcmp+0x168>
1000a8c0:	01450513          	addi	a0,a0,20
1000a8c4:	01458593          	addi	a1,a1,20
1000a8c8:	f4d60ee3          	beq	a2,a3,1000a824 <strcmp+0x18>
1000a8cc:	01061713          	slli	a4,a2,0x10
1000a8d0:	01069793          	slli	a5,a3,0x10
1000a8d4:	00f71e63          	bne	a4,a5,1000a8f0 <strcmp+0xe4>
1000a8d8:	01065713          	srli	a4,a2,0x10
1000a8dc:	0106d793          	srli	a5,a3,0x10
1000a8e0:	40f70533          	sub	a0,a4,a5
1000a8e4:	0ff57593          	zext.b	a1,a0
1000a8e8:	02059063          	bnez	a1,1000a908 <strcmp+0xfc>
1000a8ec:	00008067          	ret
1000a8f0:	01075713          	srli	a4,a4,0x10
1000a8f4:	0107d793          	srli	a5,a5,0x10
1000a8f8:	40f70533          	sub	a0,a4,a5
1000a8fc:	0ff57593          	zext.b	a1,a0
1000a900:	00059463          	bnez	a1,1000a908 <strcmp+0xfc>
1000a904:	00008067          	ret
1000a908:	0ff77713          	zext.b	a4,a4
1000a90c:	0ff7f793          	zext.b	a5,a5
1000a910:	40f70533          	sub	a0,a4,a5
1000a914:	00008067          	ret
1000a918:	00054603          	lbu	a2,0(a0)
1000a91c:	0005c683          	lbu	a3,0(a1)
1000a920:	00150513          	addi	a0,a0,1
1000a924:	00158593          	addi	a1,a1,1
1000a928:	00d61463          	bne	a2,a3,1000a930 <strcmp+0x124>
1000a92c:	fe0616e3          	bnez	a2,1000a918 <strcmp+0x10c>
1000a930:	40d60533          	sub	a0,a2,a3
1000a934:	00008067          	ret
1000a938:	00450513          	addi	a0,a0,4
1000a93c:	00458593          	addi	a1,a1,4
1000a940:	fcd61ce3          	bne	a2,a3,1000a918 <strcmp+0x10c>
1000a944:	00000513          	li	a0,0
1000a948:	00008067          	ret
1000a94c:	00850513          	addi	a0,a0,8
1000a950:	00858593          	addi	a1,a1,8
1000a954:	fcd612e3          	bne	a2,a3,1000a918 <strcmp+0x10c>
1000a958:	00000513          	li	a0,0
1000a95c:	00008067          	ret
1000a960:	00c50513          	addi	a0,a0,12
1000a964:	00c58593          	addi	a1,a1,12
1000a968:	fad618e3          	bne	a2,a3,1000a918 <strcmp+0x10c>
1000a96c:	00000513          	li	a0,0
1000a970:	00008067          	ret
1000a974:	01050513          	addi	a0,a0,16
1000a978:	01058593          	addi	a1,a1,16
1000a97c:	f8d61ee3          	bne	a2,a3,1000a918 <strcmp+0x10c>
1000a980:	00000513          	li	a0,0
1000a984:	00008067          	ret

1000a988 <__assert_func>:
1000a988:	f2c1a783          	lw	a5,-212(gp) # 10011a04 <_impure_ptr>
1000a98c:	ff010113          	addi	sp,sp,-16
1000a990:	00060813          	mv	a6,a2
1000a994:	00112623          	sw	ra,12(sp)
1000a998:	00050313          	mv	t1,a0
1000a99c:	00058713          	mv	a4,a1
1000a9a0:	00c7a503          	lw	a0,12(a5)
1000a9a4:	00068613          	mv	a2,a3
1000a9a8:	02080063          	beqz	a6,1000a9c8 <__assert_func+0x40>
1000a9ac:	100117b7          	lui	a5,0x10011
1000a9b0:	c0078793          	addi	a5,a5,-1024 # 10010c00 <__clzsi2+0x28c>
1000a9b4:	100115b7          	lui	a1,0x10011
1000a9b8:	00030693          	mv	a3,t1
1000a9bc:	c1058593          	addi	a1,a1,-1008 # 10010c10 <__clzsi2+0x29c>
1000a9c0:	1ec000ef          	jal	1000abac <fiprintf>
1000a9c4:	b19f50ef          	jal	100004dc <abort>
1000a9c8:	100117b7          	lui	a5,0x10011
1000a9cc:	ac478793          	addi	a5,a5,-1340 # 10010ac4 <__clzsi2+0x150>
1000a9d0:	00078813          	mv	a6,a5
1000a9d4:	fe1ff06f          	j	1000a9b4 <__assert_func+0x2c>

1000a9d8 <__assert>:
1000a9d8:	ff010113          	addi	sp,sp,-16
1000a9dc:	00060693          	mv	a3,a2
1000a9e0:	00000613          	li	a2,0
1000a9e4:	00112623          	sw	ra,12(sp)
1000a9e8:	fa1ff0ef          	jal	1000a988 <__assert_func>

1000a9ec <_calloc_r>:
1000a9ec:	02c5b7b3          	mulhu	a5,a1,a2
1000a9f0:	fe010113          	addi	sp,sp,-32
1000a9f4:	00112e23          	sw	ra,28(sp)
1000a9f8:	02c585b3          	mul	a1,a1,a2
1000a9fc:	0a079063          	bnez	a5,1000aa9c <_calloc_r+0xb0>
1000aa00:	a68f70ef          	jal	10001c68 <_malloc_r>
1000aa04:	00050793          	mv	a5,a0
1000aa08:	0a050063          	beqz	a0,1000aaa8 <_calloc_r+0xbc>
1000aa0c:	ffc52603          	lw	a2,-4(a0)
1000aa10:	02400693          	li	a3,36
1000aa14:	ffc67613          	andi	a2,a2,-4
1000aa18:	ffc60613          	addi	a2,a2,-4 # ffffdffc <_sp+0xeffea2dc>
1000aa1c:	04c6e663          	bltu	a3,a2,1000aa68 <_calloc_r+0x7c>
1000aa20:	01300593          	li	a1,19
1000aa24:	00050713          	mv	a4,a0
1000aa28:	02c5f263          	bgeu	a1,a2,1000aa4c <_calloc_r+0x60>
1000aa2c:	00052023          	sw	zero,0(a0)
1000aa30:	00052223          	sw	zero,4(a0)
1000aa34:	01b00713          	li	a4,27
1000aa38:	04c77863          	bgeu	a4,a2,1000aa88 <_calloc_r+0x9c>
1000aa3c:	00052423          	sw	zero,8(a0)
1000aa40:	00052623          	sw	zero,12(a0)
1000aa44:	01050713          	addi	a4,a0,16
1000aa48:	06d60a63          	beq	a2,a3,1000aabc <_calloc_r+0xd0>
1000aa4c:	00072023          	sw	zero,0(a4)
1000aa50:	00072223          	sw	zero,4(a4)
1000aa54:	00072423          	sw	zero,8(a4)
1000aa58:	01c12083          	lw	ra,28(sp)
1000aa5c:	00078513          	mv	a0,a5
1000aa60:	02010113          	addi	sp,sp,32
1000aa64:	00008067          	ret
1000aa68:	00000593          	li	a1,0
1000aa6c:	00a12623          	sw	a0,12(sp)
1000aa70:	aa1f60ef          	jal	10001510 <memset>
1000aa74:	00c12783          	lw	a5,12(sp)
1000aa78:	01c12083          	lw	ra,28(sp)
1000aa7c:	00078513          	mv	a0,a5
1000aa80:	02010113          	addi	sp,sp,32
1000aa84:	00008067          	ret
1000aa88:	00850713          	addi	a4,a0,8
1000aa8c:	00072023          	sw	zero,0(a4)
1000aa90:	00072223          	sw	zero,4(a4)
1000aa94:	00072423          	sw	zero,8(a4)
1000aa98:	fc1ff06f          	j	1000aa58 <_calloc_r+0x6c>
1000aa9c:	5c0010ef          	jal	1000c05c <__errno>
1000aaa0:	00c00793          	li	a5,12
1000aaa4:	00f52023          	sw	a5,0(a0)
1000aaa8:	01c12083          	lw	ra,28(sp)
1000aaac:	00000793          	li	a5,0
1000aab0:	00078513          	mv	a0,a5
1000aab4:	02010113          	addi	sp,sp,32
1000aab8:	00008067          	ret
1000aabc:	00052823          	sw	zero,16(a0)
1000aac0:	00052a23          	sw	zero,20(a0)
1000aac4:	01850713          	addi	a4,a0,24
1000aac8:	f85ff06f          	j	1000aa4c <_calloc_r+0x60>

1000aacc <_mbtowc_r>:
1000aacc:	e3c1a783          	lw	a5,-452(gp) # 10011914 <__global_locale+0xe4>
1000aad0:	00078067          	jr	a5

1000aad4 <__ascii_mbtowc>:
1000aad4:	02058063          	beqz	a1,1000aaf4 <__ascii_mbtowc+0x20>
1000aad8:	04060263          	beqz	a2,1000ab1c <__ascii_mbtowc+0x48>
1000aadc:	04068863          	beqz	a3,1000ab2c <__ascii_mbtowc+0x58>
1000aae0:	00064783          	lbu	a5,0(a2)
1000aae4:	00f5a023          	sw	a5,0(a1)
1000aae8:	00064503          	lbu	a0,0(a2)
1000aaec:	00a03533          	snez	a0,a0
1000aaf0:	00008067          	ret
1000aaf4:	ff010113          	addi	sp,sp,-16
1000aaf8:	00c10593          	addi	a1,sp,12
1000aafc:	02060463          	beqz	a2,1000ab24 <__ascii_mbtowc+0x50>
1000ab00:	02068a63          	beqz	a3,1000ab34 <__ascii_mbtowc+0x60>
1000ab04:	00064783          	lbu	a5,0(a2)
1000ab08:	00f5a023          	sw	a5,0(a1)
1000ab0c:	00064503          	lbu	a0,0(a2)
1000ab10:	00a03533          	snez	a0,a0
1000ab14:	01010113          	addi	sp,sp,16
1000ab18:	00008067          	ret
1000ab1c:	00000513          	li	a0,0
1000ab20:	00008067          	ret
1000ab24:	00000513          	li	a0,0
1000ab28:	fedff06f          	j	1000ab14 <__ascii_mbtowc+0x40>
1000ab2c:	ffe00513          	li	a0,-2
1000ab30:	00008067          	ret
1000ab34:	ffe00513          	li	a0,-2
1000ab38:	fddff06f          	j	1000ab14 <__ascii_mbtowc+0x40>

1000ab3c <_wctomb_r>:
1000ab3c:	e381a783          	lw	a5,-456(gp) # 10011910 <__global_locale+0xe0>
1000ab40:	00078067          	jr	a5

1000ab44 <__ascii_wctomb>:
1000ab44:	02058463          	beqz	a1,1000ab6c <__ascii_wctomb+0x28>
1000ab48:	0ff00793          	li	a5,255
1000ab4c:	00c7e863          	bltu	a5,a2,1000ab5c <__ascii_wctomb+0x18>
1000ab50:	00c58023          	sb	a2,0(a1)
1000ab54:	00100513          	li	a0,1
1000ab58:	00008067          	ret
1000ab5c:	08a00793          	li	a5,138
1000ab60:	00f52023          	sw	a5,0(a0)
1000ab64:	fff00513          	li	a0,-1
1000ab68:	00008067          	ret
1000ab6c:	00000513          	li	a0,0
1000ab70:	00008067          	ret

1000ab74 <_fiprintf_r>:
1000ab74:	fc010113          	addi	sp,sp,-64
1000ab78:	02c10313          	addi	t1,sp,44
1000ab7c:	02d12623          	sw	a3,44(sp)
1000ab80:	00030693          	mv	a3,t1
1000ab84:	00112e23          	sw	ra,28(sp)
1000ab88:	02e12823          	sw	a4,48(sp)
1000ab8c:	02f12a23          	sw	a5,52(sp)
1000ab90:	03012c23          	sw	a6,56(sp)
1000ab94:	03112e23          	sw	a7,60(sp)
1000ab98:	00612623          	sw	t1,12(sp)
1000ab9c:	060000ef          	jal	1000abfc <_vfiprintf_r>
1000aba0:	01c12083          	lw	ra,28(sp)
1000aba4:	04010113          	addi	sp,sp,64
1000aba8:	00008067          	ret

1000abac <fiprintf>:
1000abac:	fc010113          	addi	sp,sp,-64
1000abb0:	00050e93          	mv	t4,a0
1000abb4:	f2c1a503          	lw	a0,-212(gp) # 10011a04 <_impure_ptr>
1000abb8:	00058e13          	mv	t3,a1
1000abbc:	02810313          	addi	t1,sp,40
1000abc0:	02c12423          	sw	a2,40(sp)
1000abc4:	02d12623          	sw	a3,44(sp)
1000abc8:	000e8593          	mv	a1,t4
1000abcc:	000e0613          	mv	a2,t3
1000abd0:	00030693          	mv	a3,t1
1000abd4:	00112e23          	sw	ra,28(sp)
1000abd8:	02e12823          	sw	a4,48(sp)
1000abdc:	02f12a23          	sw	a5,52(sp)
1000abe0:	03012c23          	sw	a6,56(sp)
1000abe4:	03112e23          	sw	a7,60(sp)
1000abe8:	00612623          	sw	t1,12(sp)
1000abec:	010000ef          	jal	1000abfc <_vfiprintf_r>
1000abf0:	01c12083          	lw	ra,28(sp)
1000abf4:	04010113          	addi	sp,sp,64
1000abf8:	00008067          	ret

1000abfc <_vfiprintf_r>:
1000abfc:	ed010113          	addi	sp,sp,-304
1000ac00:	12912223          	sw	s1,292(sp)
1000ac04:	11312e23          	sw	s3,284(sp)
1000ac08:	11412c23          	sw	s4,280(sp)
1000ac0c:	11512a23          	sw	s5,276(sp)
1000ac10:	12112623          	sw	ra,300(sp)
1000ac14:	11812423          	sw	s8,264(sp)
1000ac18:	00050a93          	mv	s5,a0
1000ac1c:	00060493          	mv	s1,a2
1000ac20:	00068a13          	mv	s4,a3
1000ac24:	00058993          	mv	s3,a1
1000ac28:	00050863          	beqz	a0,1000ac38 <_vfiprintf_r+0x3c>
1000ac2c:	03452783          	lw	a5,52(a0)
1000ac30:	00079463          	bnez	a5,1000ac38 <_vfiprintf_r+0x3c>
1000ac34:	0800106f          	j	1000bcb4 <_vfiprintf_r+0x10b8>
1000ac38:	00c99703          	lh	a4,12(s3)
1000ac3c:	0649a783          	lw	a5,100(s3)
1000ac40:	00002637          	lui	a2,0x2
1000ac44:	01271693          	slli	a3,a4,0x12
1000ac48:	0006ce63          	bltz	a3,1000ac64 <_vfiprintf_r+0x68>
1000ac4c:	ffffe6b7          	lui	a3,0xffffe
1000ac50:	fff68693          	addi	a3,a3,-1 # ffffdfff <_sp+0xeffea2df>
1000ac54:	00c76733          	or	a4,a4,a2
1000ac58:	00d7f7b3          	and	a5,a5,a3
1000ac5c:	00e99623          	sh	a4,12(s3)
1000ac60:	06f9a223          	sw	a5,100(s3)
1000ac64:	01279713          	slli	a4,a5,0x12
1000ac68:	00075463          	bgez	a4,1000ac70 <_vfiprintf_r+0x74>
1000ac6c:	2b80106f          	j	1000bf24 <_vfiprintf_r+0x1328>
1000ac70:	00c99783          	lh	a5,12(s3)
1000ac74:	0087f713          	andi	a4,a5,8
1000ac78:	26070463          	beqz	a4,1000aee0 <_vfiprintf_r+0x2e4>
1000ac7c:	0109a703          	lw	a4,16(s3)
1000ac80:	26070063          	beqz	a4,1000aee0 <_vfiprintf_r+0x2e4>
1000ac84:	01a7f793          	andi	a5,a5,26
1000ac88:	00a00713          	li	a4,10
1000ac8c:	26e78c63          	beq	a5,a4,1000af04 <_vfiprintf_r+0x308>
1000ac90:	11912223          	sw	s9,260(sp)
1000ac94:	10011cb7          	lui	s9,0x10011
1000ac98:	11612823          	sw	s6,272(sp)
1000ac9c:	11712623          	sw	s7,268(sp)
1000aca0:	04c10b13          	addi	s6,sp,76
1000aca4:	10011bb7          	lui	s7,0x10011
1000aca8:	00cc8713          	addi	a4,s9,12 # 1001100c <_ctype_+0x104>
1000acac:	13212023          	sw	s2,288(sp)
1000acb0:	12812423          	sw	s0,296(sp)
1000acb4:	11a12023          	sw	s10,256(sp)
1000acb8:	0fb12e23          	sw	s11,252(sp)
1000acbc:	04012423          	sw	zero,72(sp)
1000acc0:	04012223          	sw	zero,68(sp)
1000acc4:	05612023          	sw	s6,64(sp)
1000acc8:	000b0793          	mv	a5,s6
1000accc:	00e12623          	sw	a4,12(sp)
1000acd0:	178b8b93          	addi	s7,s7,376 # 10011178 <zeroes.0>
1000acd4:	00012823          	sw	zero,16(sp)
1000acd8:	02012023          	sw	zero,32(sp)
1000acdc:	02012223          	sw	zero,36(sp)
1000ace0:	00000c13          	li	s8,0
1000ace4:	01000913          	li	s2,16
1000ace8:	0004c703          	lbu	a4,0(s1)
1000acec:	00048413          	mv	s0,s1
1000acf0:	fdb70693          	addi	a3,a4,-37
1000acf4:	04068e63          	beqz	a3,1000ad50 <_vfiprintf_r+0x154>
1000acf8:	04070c63          	beqz	a4,1000ad50 <_vfiprintf_r+0x154>
1000acfc:	00040c93          	mv	s9,s0
1000ad00:	00144703          	lbu	a4,1(s0)
1000ad04:	00140413          	addi	s0,s0,1
1000ad08:	00070663          	beqz	a4,1000ad14 <_vfiprintf_r+0x118>
1000ad0c:	fdb70693          	addi	a3,a4,-37
1000ad10:	fe0696e3          	bnez	a3,1000acfc <_vfiprintf_r+0x100>
1000ad14:	40940d33          	sub	s10,s0,s1
1000ad18:	02940c63          	beq	s0,s1,1000ad50 <_vfiprintf_r+0x154>
1000ad1c:	04812683          	lw	a3,72(sp)
1000ad20:	04412703          	lw	a4,68(sp)
1000ad24:	0097a023          	sw	s1,0(a5)
1000ad28:	01a686b3          	add	a3,a3,s10
1000ad2c:	00170713          	addi	a4,a4,1
1000ad30:	01a7a223          	sw	s10,4(a5)
1000ad34:	04d12423          	sw	a3,72(sp)
1000ad38:	04e12223          	sw	a4,68(sp)
1000ad3c:	00700693          	li	a3,7
1000ad40:	00878793          	addi	a5,a5,8
1000ad44:	1ee6cc63          	blt	a3,a4,1000af3c <_vfiprintf_r+0x340>
1000ad48:	001cc703          	lbu	a4,1(s9)
1000ad4c:	01ac0c33          	add	s8,s8,s10
1000ad50:	20070463          	beqz	a4,1000af58 <_vfiprintf_r+0x35c>
1000ad54:	00144683          	lbu	a3,1(s0)
1000ad58:	00140493          	addi	s1,s0,1
1000ad5c:	02010da3          	sb	zero,59(sp)
1000ad60:	fff00413          	li	s0,-1
1000ad64:	00000c93          	li	s9,0
1000ad68:	00000d13          	li	s10,0
1000ad6c:	05a00d93          	li	s11,90
1000ad70:	00148493          	addi	s1,s1,1
1000ad74:	fe068713          	addi	a4,a3,-32
1000ad78:	04ede663          	bltu	s11,a4,1000adc4 <_vfiprintf_r+0x1c8>
1000ad7c:	00c12603          	lw	a2,12(sp)
1000ad80:	00271713          	slli	a4,a4,0x2
1000ad84:	00c70733          	add	a4,a4,a2
1000ad88:	00072703          	lw	a4,0(a4)
1000ad8c:	00070067          	jr	a4
1000ad90:	fd068713          	addi	a4,a3,-48
1000ad94:	00000c93          	li	s9,0
1000ad98:	00900593          	li	a1,9
1000ad9c:	002c9613          	slli	a2,s9,0x2
1000ada0:	0004c683          	lbu	a3,0(s1)
1000ada4:	01960cb3          	add	s9,a2,s9
1000ada8:	001c9c93          	slli	s9,s9,0x1
1000adac:	01970cb3          	add	s9,a4,s9
1000adb0:	fd068713          	addi	a4,a3,-48
1000adb4:	00148493          	addi	s1,s1,1
1000adb8:	fee5f2e3          	bgeu	a1,a4,1000ad9c <_vfiprintf_r+0x1a0>
1000adbc:	fe068713          	addi	a4,a3,-32
1000adc0:	faedfee3          	bgeu	s11,a4,1000ad7c <_vfiprintf_r+0x180>
1000adc4:	18068a63          	beqz	a3,1000af58 <_vfiprintf_r+0x35c>
1000adc8:	00100313          	li	t1,1
1000adcc:	08d10623          	sb	a3,140(sp)
1000add0:	02010da3          	sb	zero,59(sp)
1000add4:	00030813          	mv	a6,t1
1000add8:	00000413          	li	s0,0
1000addc:	08c10d93          	addi	s11,sp,140
1000ade0:	04812583          	lw	a1,72(sp)
1000ade4:	04412603          	lw	a2,68(sp)
1000ade8:	084d7893          	andi	a7,s10,132
1000adec:	00058693          	mv	a3,a1
1000adf0:	00060713          	mv	a4,a2
1000adf4:	06089c63          	bnez	a7,1000ae6c <_vfiprintf_r+0x270>
1000adf8:	410c8e33          	sub	t3,s9,a6
1000adfc:	2bc04ee3          	bgtz	t3,1000b8b8 <_vfiprintf_r+0xcbc>
1000ae00:	03b14603          	lbu	a2,59(sp)
1000ae04:	06060863          	beqz	a2,1000ae74 <_vfiprintf_r+0x278>
1000ae08:	00000893          	li	a7,0
1000ae0c:	00000e93          	li	t4,0
1000ae10:	03b10613          	addi	a2,sp,59
1000ae14:	00c7a023          	sw	a2,0(a5)
1000ae18:	00168693          	addi	a3,a3,1
1000ae1c:	00100613          	li	a2,1
1000ae20:	00170713          	addi	a4,a4,1
1000ae24:	00c7a223          	sw	a2,4(a5)
1000ae28:	04d12423          	sw	a3,72(sp)
1000ae2c:	04e12223          	sw	a4,68(sp)
1000ae30:	00700613          	li	a2,7
1000ae34:	00878793          	addi	a5,a5,8
1000ae38:	16e64a63          	blt	a2,a4,1000afac <_vfiprintf_r+0x3b0>
1000ae3c:	020e8863          	beqz	t4,1000ae6c <_vfiprintf_r+0x270>
1000ae40:	03c10613          	addi	a2,sp,60
1000ae44:	00c7a023          	sw	a2,0(a5)
1000ae48:	00268693          	addi	a3,a3,2
1000ae4c:	00200613          	li	a2,2
1000ae50:	00170713          	addi	a4,a4,1
1000ae54:	00c7a223          	sw	a2,4(a5)
1000ae58:	04d12423          	sw	a3,72(sp)
1000ae5c:	04e12223          	sw	a4,68(sp)
1000ae60:	00700613          	li	a2,7
1000ae64:	00878793          	addi	a5,a5,8
1000ae68:	1ae64ee3          	blt	a2,a4,1000b824 <_vfiprintf_r+0xc28>
1000ae6c:	08000613          	li	a2,128
1000ae70:	78c88e63          	beq	a7,a2,1000b60c <_vfiprintf_r+0xa10>
1000ae74:	40640433          	sub	s0,s0,t1
1000ae78:	08804ae3          	bgtz	s0,1000b70c <_vfiprintf_r+0xb10>
1000ae7c:	00d306b3          	add	a3,t1,a3
1000ae80:	00170713          	addi	a4,a4,1
1000ae84:	01b7a023          	sw	s11,0(a5)
1000ae88:	0067a223          	sw	t1,4(a5)
1000ae8c:	04d12423          	sw	a3,72(sp)
1000ae90:	04e12223          	sw	a4,68(sp)
1000ae94:	00700613          	li	a2,7
1000ae98:	00878793          	addi	a5,a5,8
1000ae9c:	14e644e3          	blt	a2,a4,1000b7e4 <_vfiprintf_r+0xbe8>
1000aea0:	004d7d13          	andi	s10,s10,4
1000aea4:	000d0663          	beqz	s10,1000aeb0 <_vfiprintf_r+0x2b4>
1000aea8:	410c8433          	sub	s0,s9,a6
1000aeac:	14804263          	bgtz	s0,1000aff0 <_vfiprintf_r+0x3f4>
1000aeb0:	010cd463          	bge	s9,a6,1000aeb8 <_vfiprintf_r+0x2bc>
1000aeb4:	00080c93          	mv	s9,a6
1000aeb8:	019c0c33          	add	s8,s8,s9
1000aebc:	140698e3          	bnez	a3,1000b80c <_vfiprintf_r+0xc10>
1000aec0:	04012223          	sw	zero,68(sp)
1000aec4:	000b0793          	mv	a5,s6
1000aec8:	e21ff06f          	j	1000ace8 <_vfiprintf_r+0xec>
1000aecc:	0004c683          	lbu	a3,0(s1)
1000aed0:	ea1ff06f          	j	1000ad70 <_vfiprintf_r+0x174>
1000aed4:	0004c683          	lbu	a3,0(s1)
1000aed8:	020d6d13          	ori	s10,s10,32
1000aedc:	e95ff06f          	j	1000ad70 <_vfiprintf_r+0x174>
1000aee0:	00098593          	mv	a1,s3
1000aee4:	000a8513          	mv	a0,s5
1000aee8:	8b0fb0ef          	jal	10005f98 <__swsetup_r>
1000aeec:	00050463          	beqz	a0,1000aef4 <_vfiprintf_r+0x2f8>
1000aef0:	0340106f          	j	1000bf24 <_vfiprintf_r+0x1328>
1000aef4:	00c99783          	lh	a5,12(s3)
1000aef8:	00a00713          	li	a4,10
1000aefc:	01a7f793          	andi	a5,a5,26
1000af00:	d8e798e3          	bne	a5,a4,1000ac90 <_vfiprintf_r+0x94>
1000af04:	00e99783          	lh	a5,14(s3)
1000af08:	d807c4e3          	bltz	a5,1000ac90 <_vfiprintf_r+0x94>
1000af0c:	12c12083          	lw	ra,300(sp)
1000af10:	10812c03          	lw	s8,264(sp)
1000af14:	000a0693          	mv	a3,s4
1000af18:	00048613          	mv	a2,s1
1000af1c:	11812a03          	lw	s4,280(sp)
1000af20:	12412483          	lw	s1,292(sp)
1000af24:	00098593          	mv	a1,s3
1000af28:	000a8513          	mv	a0,s5
1000af2c:	11c12983          	lw	s3,284(sp)
1000af30:	11412a83          	lw	s5,276(sp)
1000af34:	13010113          	addi	sp,sp,304
1000af38:	0640106f          	j	1000bf9c <__sbprintf>
1000af3c:	04010613          	addi	a2,sp,64
1000af40:	00098593          	mv	a1,s3
1000af44:	000a8513          	mv	a0,s5
1000af48:	ef0fa0ef          	jal	10005638 <__sprint_r>
1000af4c:	00051a63          	bnez	a0,1000af60 <_vfiprintf_r+0x364>
1000af50:	000b0793          	mv	a5,s6
1000af54:	df5ff06f          	j	1000ad48 <_vfiprintf_r+0x14c>
1000af58:	04812783          	lw	a5,72(sp)
1000af5c:	64079ce3          	bnez	a5,1000bdb4 <_vfiprintf_r+0x11b8>
1000af60:	00c9d783          	lhu	a5,12(s3)
1000af64:	12812403          	lw	s0,296(sp)
1000af68:	12012903          	lw	s2,288(sp)
1000af6c:	0407f793          	andi	a5,a5,64
1000af70:	11012b03          	lw	s6,272(sp)
1000af74:	10c12b83          	lw	s7,268(sp)
1000af78:	10412c83          	lw	s9,260(sp)
1000af7c:	10012d03          	lw	s10,256(sp)
1000af80:	0fc12d83          	lw	s11,252(sp)
1000af84:	7a0790e3          	bnez	a5,1000bf24 <_vfiprintf_r+0x1328>
1000af88:	12c12083          	lw	ra,300(sp)
1000af8c:	12412483          	lw	s1,292(sp)
1000af90:	11c12983          	lw	s3,284(sp)
1000af94:	11812a03          	lw	s4,280(sp)
1000af98:	11412a83          	lw	s5,276(sp)
1000af9c:	000c0513          	mv	a0,s8
1000afa0:	10812c03          	lw	s8,264(sp)
1000afa4:	13010113          	addi	sp,sp,304
1000afa8:	00008067          	ret
1000afac:	04010613          	addi	a2,sp,64
1000afb0:	00098593          	mv	a1,s3
1000afb4:	000a8513          	mv	a0,s5
1000afb8:	02612423          	sw	t1,40(sp)
1000afbc:	01112e23          	sw	a7,28(sp)
1000afc0:	01d12c23          	sw	t4,24(sp)
1000afc4:	01012a23          	sw	a6,20(sp)
1000afc8:	e70fa0ef          	jal	10005638 <__sprint_r>
1000afcc:	f8051ae3          	bnez	a0,1000af60 <_vfiprintf_r+0x364>
1000afd0:	04812683          	lw	a3,72(sp)
1000afd4:	04412703          	lw	a4,68(sp)
1000afd8:	02812303          	lw	t1,40(sp)
1000afdc:	01c12883          	lw	a7,28(sp)
1000afe0:	01812e83          	lw	t4,24(sp)
1000afe4:	01412803          	lw	a6,20(sp)
1000afe8:	000b0793          	mv	a5,s6
1000afec:	e51ff06f          	j	1000ae3c <_vfiprintf_r+0x240>
1000aff0:	01000d13          	li	s10,16
1000aff4:	04412703          	lw	a4,68(sp)
1000aff8:	100118b7          	lui	a7,0x10011
1000affc:	728d58e3          	bge	s10,s0,1000bf2c <_vfiprintf_r+0x1330>
1000b000:	00912c23          	sw	s1,24(sp)
1000b004:	00700d93          	li	s11,7
1000b008:	01012a23          	sw	a6,20(sp)
1000b00c:	18888493          	addi	s1,a7,392 # 10011188 <blanks.1>
1000b010:	00c0006f          	j	1000b01c <_vfiprintf_r+0x420>
1000b014:	ff040413          	addi	s0,s0,-16
1000b018:	048d5663          	bge	s10,s0,1000b064 <_vfiprintf_r+0x468>
1000b01c:	01068693          	addi	a3,a3,16
1000b020:	00170713          	addi	a4,a4,1
1000b024:	0097a023          	sw	s1,0(a5)
1000b028:	01a7a223          	sw	s10,4(a5)
1000b02c:	04d12423          	sw	a3,72(sp)
1000b030:	04e12223          	sw	a4,68(sp)
1000b034:	00878793          	addi	a5,a5,8
1000b038:	fceddee3          	bge	s11,a4,1000b014 <_vfiprintf_r+0x418>
1000b03c:	04010613          	addi	a2,sp,64
1000b040:	00098593          	mv	a1,s3
1000b044:	000a8513          	mv	a0,s5
1000b048:	df0fa0ef          	jal	10005638 <__sprint_r>
1000b04c:	f0051ae3          	bnez	a0,1000af60 <_vfiprintf_r+0x364>
1000b050:	ff040413          	addi	s0,s0,-16
1000b054:	04812683          	lw	a3,72(sp)
1000b058:	04412703          	lw	a4,68(sp)
1000b05c:	000b0793          	mv	a5,s6
1000b060:	fa8d4ee3          	blt	s10,s0,1000b01c <_vfiprintf_r+0x420>
1000b064:	00048893          	mv	a7,s1
1000b068:	01412803          	lw	a6,20(sp)
1000b06c:	01812483          	lw	s1,24(sp)
1000b070:	008686b3          	add	a3,a3,s0
1000b074:	00170713          	addi	a4,a4,1
1000b078:	0117a023          	sw	a7,0(a5)
1000b07c:	0087a223          	sw	s0,4(a5)
1000b080:	04d12423          	sw	a3,72(sp)
1000b084:	04e12223          	sw	a4,68(sp)
1000b088:	00700793          	li	a5,7
1000b08c:	e2e7d2e3          	bge	a5,a4,1000aeb0 <_vfiprintf_r+0x2b4>
1000b090:	04010613          	addi	a2,sp,64
1000b094:	00098593          	mv	a1,s3
1000b098:	000a8513          	mv	a0,s5
1000b09c:	01012a23          	sw	a6,20(sp)
1000b0a0:	d98fa0ef          	jal	10005638 <__sprint_r>
1000b0a4:	ea051ee3          	bnez	a0,1000af60 <_vfiprintf_r+0x364>
1000b0a8:	04812683          	lw	a3,72(sp)
1000b0ac:	01412803          	lw	a6,20(sp)
1000b0b0:	e01ff06f          	j	1000aeb0 <_vfiprintf_r+0x2b4>
1000b0b4:	020d7713          	andi	a4,s10,32
1000b0b8:	10071463          	bnez	a4,1000b1c0 <_vfiprintf_r+0x5c4>
1000b0bc:	010d7713          	andi	a4,s10,16
1000b0c0:	000a2883          	lw	a7,0(s4)
1000b0c4:	004a0593          	addi	a1,s4,4
1000b0c8:	12071ce3          	bnez	a4,1000ba00 <_vfiprintf_r+0xe04>
1000b0cc:	040d7713          	andi	a4,s10,64
1000b0d0:	460700e3          	beqz	a4,1000bd30 <_vfiprintf_r+0x1134>
1000b0d4:	01089893          	slli	a7,a7,0x10
1000b0d8:	4108d893          	srai	a7,a7,0x10
1000b0dc:	41f8d693          	srai	a3,a7,0x1f
1000b0e0:	00058a13          	mv	s4,a1
1000b0e4:	00068613          	mv	a2,a3
1000b0e8:	0e064a63          	bltz	a2,1000b1dc <_vfiprintf_r+0x5e0>
1000b0ec:	10044863          	bltz	s0,1000b1fc <_vfiprintf_r+0x600>
1000b0f0:	f7fd7d13          	andi	s10,s10,-129
1000b0f4:	10041463          	bnez	s0,1000b1fc <_vfiprintf_r+0x600>
1000b0f8:	00d8e733          	or	a4,a7,a3
1000b0fc:	10071063          	bnez	a4,1000b1fc <_vfiprintf_r+0x600>
1000b100:	03b14703          	lbu	a4,59(sp)
1000b104:	00000313          	li	t1,0
1000b108:	00000413          	li	s0,0
1000b10c:	0f010d93          	addi	s11,sp,240
1000b110:	1e070c63          	beqz	a4,1000b308 <_vfiprintf_r+0x70c>
1000b114:	00100813          	li	a6,1
1000b118:	04812683          	lw	a3,72(sp)
1000b11c:	04412703          	lw	a4,68(sp)
1000b120:	084d7893          	andi	a7,s10,132
1000b124:	00068593          	mv	a1,a3
1000b128:	00070613          	mv	a2,a4
1000b12c:	cc0886e3          	beqz	a7,1000adf8 <_vfiprintf_r+0x1fc>
1000b130:	00000e93          	li	t4,0
1000b134:	cddff06f          	j	1000ae10 <_vfiprintf_r+0x214>
1000b138:	000a2d83          	lw	s11,0(s4)
1000b13c:	02010da3          	sb	zero,59(sp)
1000b140:	004a0a13          	addi	s4,s4,4
1000b144:	3a0d84e3          	beqz	s11,1000bcec <_vfiprintf_r+0x10f0>
1000b148:	00f12a23          	sw	a5,20(sp)
1000b14c:	260440e3          	bltz	s0,1000bbac <_vfiprintf_r+0xfb0>
1000b150:	00040613          	mv	a2,s0
1000b154:	00000593          	li	a1,0
1000b158:	000d8513          	mv	a0,s11
1000b15c:	fa1fa0ef          	jal	100060fc <memchr>
1000b160:	03b14703          	lbu	a4,59(sp)
1000b164:	01412783          	lw	a5,20(sp)
1000b168:	5a0500e3          	beqz	a0,1000bf08 <_vfiprintf_r+0x130c>
1000b16c:	41b50333          	sub	t1,a0,s11
1000b170:	fff34813          	not	a6,t1
1000b174:	41f85813          	srai	a6,a6,0x1f
1000b178:	01037833          	and	a6,t1,a6
1000b17c:	24070ae3          	beqz	a4,1000bbd0 <_vfiprintf_r+0xfd4>
1000b180:	00180813          	addi	a6,a6,1
1000b184:	00000413          	li	s0,0
1000b188:	f91ff06f          	j	1000b118 <_vfiprintf_r+0x51c>
1000b18c:	000a2703          	lw	a4,0(s4)
1000b190:	00100313          	li	t1,1
1000b194:	02010da3          	sb	zero,59(sp)
1000b198:	08e10623          	sb	a4,140(sp)
1000b19c:	004a0a13          	addi	s4,s4,4
1000b1a0:	00030813          	mv	a6,t1
1000b1a4:	00000413          	li	s0,0
1000b1a8:	08c10d93          	addi	s11,sp,140
1000b1ac:	c35ff06f          	j	1000ade0 <_vfiprintf_r+0x1e4>
1000b1b0:	020d7713          	andi	a4,s10,32
1000b1b4:	004a0593          	addi	a1,s4,4
1000b1b8:	010d6d13          	ori	s10,s10,16
1000b1bc:	040702e3          	beqz	a4,1000ba00 <_vfiprintf_r+0xe04>
1000b1c0:	007a0713          	addi	a4,s4,7
1000b1c4:	ff877713          	andi	a4,a4,-8
1000b1c8:	00472603          	lw	a2,4(a4)
1000b1cc:	00072883          	lw	a7,0(a4)
1000b1d0:	00870a13          	addi	s4,a4,8
1000b1d4:	00060693          	mv	a3,a2
1000b1d8:	f0065ae3          	bgez	a2,1000b0ec <_vfiprintf_r+0x4f0>
1000b1dc:	01103733          	snez	a4,a7
1000b1e0:	40d006b3          	neg	a3,a3
1000b1e4:	40e686b3          	sub	a3,a3,a4
1000b1e8:	02d00713          	li	a4,45
1000b1ec:	02e10da3          	sb	a4,59(sp)
1000b1f0:	411008b3          	neg	a7,a7
1000b1f4:	00044463          	bltz	s0,1000b1fc <_vfiprintf_r+0x600>
1000b1f8:	f7fd7d13          	andi	s10,s10,-129
1000b1fc:	12069e63          	bnez	a3,1000b338 <_vfiprintf_r+0x73c>
1000b200:	00900713          	li	a4,9
1000b204:	13176a63          	bltu	a4,a7,1000b338 <_vfiprintf_r+0x73c>
1000b208:	03088893          	addi	a7,a7,48
1000b20c:	0f1107a3          	sb	a7,239(sp)
1000b210:	00040813          	mv	a6,s0
1000b214:	00804463          	bgtz	s0,1000b21c <_vfiprintf_r+0x620>
1000b218:	00100813          	li	a6,1
1000b21c:	03b14703          	lbu	a4,59(sp)
1000b220:	78071663          	bnez	a4,1000b9ac <_vfiprintf_r+0xdb0>
1000b224:	00100313          	li	t1,1
1000b228:	0ef10d93          	addi	s11,sp,239
1000b22c:	bb5ff06f          	j	1000ade0 <_vfiprintf_r+0x1e4>
1000b230:	000a2c83          	lw	s9,0(s4)
1000b234:	760cd663          	bgez	s9,1000b9a0 <_vfiprintf_r+0xda4>
1000b238:	41900cb3          	neg	s9,s9
1000b23c:	004a0a13          	addi	s4,s4,4
1000b240:	0004c683          	lbu	a3,0(s1)
1000b244:	004d6d13          	ori	s10,s10,4
1000b248:	b29ff06f          	j	1000ad70 <_vfiprintf_r+0x174>
1000b24c:	02b00713          	li	a4,43
1000b250:	0004c683          	lbu	a3,0(s1)
1000b254:	02e10da3          	sb	a4,59(sp)
1000b258:	b19ff06f          	j	1000ad70 <_vfiprintf_r+0x174>
1000b25c:	020d7713          	andi	a4,s10,32
1000b260:	010d6813          	ori	a6,s10,16
1000b264:	004a0593          	addi	a1,s4,4
1000b268:	78070463          	beqz	a4,1000b9f0 <_vfiprintf_r+0xdf4>
1000b26c:	007a0693          	addi	a3,s4,7
1000b270:	ff86f693          	andi	a3,a3,-8
1000b274:	0006a703          	lw	a4,0(a3)
1000b278:	0046a603          	lw	a2,4(a3)
1000b27c:	00868a13          	addi	s4,a3,8
1000b280:	02010da3          	sb	zero,59(sp)
1000b284:	bff87d13          	andi	s10,a6,-1025
1000b288:	5c044c63          	bltz	s0,1000b860 <_vfiprintf_r+0xc64>
1000b28c:	b7f87d13          	andi	s10,a6,-1153
1000b290:	5c041863          	bnez	s0,1000b860 <_vfiprintf_r+0xc64>
1000b294:	00c766b3          	or	a3,a4,a2
1000b298:	5c069463          	bnez	a3,1000b860 <_vfiprintf_r+0xc64>
1000b29c:	00187813          	andi	a6,a6,1
1000b2a0:	040800e3          	beqz	a6,1000bae0 <_vfiprintf_r+0xee4>
1000b2a4:	03000713          	li	a4,48
1000b2a8:	0ee107a3          	sb	a4,239(sp)
1000b2ac:	00080313          	mv	t1,a6
1000b2b0:	0ef10d93          	addi	s11,sp,239
1000b2b4:	b2dff06f          	j	1000ade0 <_vfiprintf_r+0x1e4>
1000b2b8:	0004c683          	lbu	a3,0(s1)
1000b2bc:	06800713          	li	a4,104
1000b2c0:	20e686e3          	beq	a3,a4,1000bccc <_vfiprintf_r+0x10d0>
1000b2c4:	040d6d13          	ori	s10,s10,64
1000b2c8:	aa9ff06f          	j	1000ad70 <_vfiprintf_r+0x174>
1000b2cc:	020d7713          	andi	a4,s10,32
1000b2d0:	004a0593          	addi	a1,s4,4
1000b2d4:	010d6d13          	ori	s10,s10,16
1000b2d8:	04071063          	bnez	a4,1000b318 <_vfiprintf_r+0x71c>
1000b2dc:	02010da3          	sb	zero,59(sp)
1000b2e0:	000a2883          	lw	a7,0(s4)
1000b2e4:	00000693          	li	a3,0
1000b2e8:	00058a13          	mv	s4,a1
1000b2ec:	f0044ae3          	bltz	s0,1000b200 <_vfiprintf_r+0x604>
1000b2f0:	f7fd7d13          	andi	s10,s10,-129
1000b2f4:	f00414e3          	bnez	s0,1000b1fc <_vfiprintf_r+0x600>
1000b2f8:	00d8e733          	or	a4,a7,a3
1000b2fc:	f00710e3          	bnez	a4,1000b1fc <_vfiprintf_r+0x600>
1000b300:	00000313          	li	t1,0
1000b304:	0f010d93          	addi	s11,sp,240
1000b308:	00000813          	li	a6,0
1000b30c:	ad5ff06f          	j	1000ade0 <_vfiprintf_r+0x1e4>
1000b310:	020d7713          	andi	a4,s10,32
1000b314:	70070c63          	beqz	a4,1000ba2c <_vfiprintf_r+0xe30>
1000b318:	007a0713          	addi	a4,s4,7
1000b31c:	ff877713          	andi	a4,a4,-8
1000b320:	02010da3          	sb	zero,59(sp)
1000b324:	00072883          	lw	a7,0(a4)
1000b328:	00472683          	lw	a3,4(a4)
1000b32c:	00870a13          	addi	s4,a4,8
1000b330:	fc0450e3          	bgez	s0,1000b2f0 <_vfiprintf_r+0x6f4>
1000b334:	ec0686e3          	beqz	a3,1000b200 <_vfiprintf_r+0x604>
1000b338:	ccccd837          	lui	a6,0xccccd
1000b33c:	ccccd337          	lui	t1,0xccccd
1000b340:	ccd80813          	addi	a6,a6,-819 # cccccccd <_sp+0xbccb8fad>
1000b344:	ccc30313          	addi	t1,t1,-820 # cccccccc <_sp+0xbccb8fac>
1000b348:	400d7e13          	andi	t3,s10,1024
1000b34c:	00000513          	li	a0,0
1000b350:	0f010593          	addi	a1,sp,240
1000b354:	07c0006f          	j	1000b3d0 <_vfiprintf_r+0x7d4>
1000b358:	01012703          	lw	a4,16(sp)
1000b35c:	00074703          	lbu	a4,0(a4)
1000b360:	00a71663          	bne	a4,a0,1000b36c <_vfiprintf_r+0x770>
1000b364:	f0170713          	addi	a4,a4,-255
1000b368:	10071ee3          	bnez	a4,1000bc84 <_vfiprintf_r+0x1088>
1000b36c:	00088e93          	mv	t4,a7
1000b370:	00068613          	mv	a2,a3
1000b374:	000d8593          	mv	a1,s11
1000b378:	00d88733          	add	a4,a7,a3
1000b37c:	01173f33          	sltu	t5,a4,a7
1000b380:	01e70733          	add	a4,a4,t5
1000b384:	03073f33          	mulhu	t5,a4,a6
1000b388:	002f5f93          	srli	t6,t5,0x2
1000b38c:	ffcf7f13          	andi	t5,t5,-4
1000b390:	01ff0f33          	add	t5,t5,t6
1000b394:	41e70733          	sub	a4,a4,t5
1000b398:	40e88733          	sub	a4,a7,a4
1000b39c:	00e8b8b3          	sltu	a7,a7,a4
1000b3a0:	411686b3          	sub	a3,a3,a7
1000b3a4:	02670f33          	mul	t5,a4,t1
1000b3a8:	030686b3          	mul	a3,a3,a6
1000b3ac:	030738b3          	mulhu	a7,a4,a6
1000b3b0:	01e686b3          	add	a3,a3,t5
1000b3b4:	03070733          	mul	a4,a4,a6
1000b3b8:	011686b3          	add	a3,a3,a7
1000b3bc:	01f69893          	slli	a7,a3,0x1f
1000b3c0:	0016d693          	srli	a3,a3,0x1
1000b3c4:	00175713          	srli	a4,a4,0x1
1000b3c8:	00e888b3          	add	a7,a7,a4
1000b3cc:	320608e3          	beqz	a2,1000befc <_vfiprintf_r+0x1300>
1000b3d0:	00d88733          	add	a4,a7,a3
1000b3d4:	01173633          	sltu	a2,a4,a7
1000b3d8:	00c70633          	add	a2,a4,a2
1000b3dc:	03063eb3          	mulhu	t4,a2,a6
1000b3e0:	00150513          	addi	a0,a0,1
1000b3e4:	fff58d93          	addi	s11,a1,-1
1000b3e8:	002edf13          	srli	t5,t4,0x2
1000b3ec:	ffcefe93          	andi	t4,t4,-4
1000b3f0:	01ee8eb3          	add	t4,t4,t5
1000b3f4:	41d60633          	sub	a2,a2,t4
1000b3f8:	40c88633          	sub	a2,a7,a2
1000b3fc:	00c8beb3          	sltu	t4,a7,a2
1000b400:	41d68eb3          	sub	t4,a3,t4
1000b404:	03063f33          	mulhu	t5,a2,a6
1000b408:	030e8eb3          	mul	t4,t4,a6
1000b40c:	03060633          	mul	a2,a2,a6
1000b410:	01ee8eb3          	add	t4,t4,t5
1000b414:	01fe9e93          	slli	t4,t4,0x1f
1000b418:	00165613          	srli	a2,a2,0x1
1000b41c:	00ce8633          	add	a2,t4,a2
1000b420:	00261e93          	slli	t4,a2,0x2
1000b424:	00ce8633          	add	a2,t4,a2
1000b428:	00161613          	slli	a2,a2,0x1
1000b42c:	40c88633          	sub	a2,a7,a2
1000b430:	03060613          	addi	a2,a2,48 # 2030 <__heap_size+0x1030>
1000b434:	fec58fa3          	sb	a2,-1(a1)
1000b438:	f20e10e3          	bnez	t3,1000b358 <_vfiprintf_r+0x75c>
1000b43c:	00088e93          	mv	t4,a7
1000b440:	00068613          	mv	a2,a3
1000b444:	000d8593          	mv	a1,s11
1000b448:	f35ff06f          	j	1000b37c <_vfiprintf_r+0x780>
1000b44c:	000a8513          	mv	a0,s5
1000b450:	00f12a23          	sw	a5,20(sp)
1000b454:	dfdfa0ef          	jal	10006250 <_localeconv_r>
1000b458:	00452783          	lw	a5,4(a0)
1000b45c:	00078513          	mv	a0,a5
1000b460:	02f12223          	sw	a5,36(sp)
1000b464:	988f60ef          	jal	100015ec <strlen>
1000b468:	02a12023          	sw	a0,32(sp)
1000b46c:	000a8513          	mv	a0,s5
1000b470:	de1fa0ef          	jal	10006250 <_localeconv_r>
1000b474:	00852783          	lw	a5,8(a0)
1000b478:	02012703          	lw	a4,32(sp)
1000b47c:	0004c683          	lbu	a3,0(s1)
1000b480:	00f12823          	sw	a5,16(sp)
1000b484:	01412783          	lw	a5,20(sp)
1000b488:	8e0704e3          	beqz	a4,1000ad70 <_vfiprintf_r+0x174>
1000b48c:	01012703          	lw	a4,16(sp)
1000b490:	8e0700e3          	beqz	a4,1000ad70 <_vfiprintf_r+0x174>
1000b494:	00074703          	lbu	a4,0(a4)
1000b498:	8c070ce3          	beqz	a4,1000ad70 <_vfiprintf_r+0x174>
1000b49c:	400d6d13          	ori	s10,s10,1024
1000b4a0:	8d1ff06f          	j	1000ad70 <_vfiprintf_r+0x174>
1000b4a4:	0004c683          	lbu	a3,0(s1)
1000b4a8:	080d6d13          	ori	s10,s10,128
1000b4ac:	8c5ff06f          	j	1000ad70 <_vfiprintf_r+0x174>
1000b4b0:	0004c683          	lbu	a3,0(s1)
1000b4b4:	02a00713          	li	a4,42
1000b4b8:	00148593          	addi	a1,s1,1
1000b4bc:	28e68ce3          	beq	a3,a4,1000bf54 <_vfiprintf_r+0x1358>
1000b4c0:	fd068713          	addi	a4,a3,-48
1000b4c4:	00900513          	li	a0,9
1000b4c8:	00000413          	li	s0,0
1000b4cc:	02e56463          	bltu	a0,a4,1000b4f4 <_vfiprintf_r+0x8f8>
1000b4d0:	00241613          	slli	a2,s0,0x2
1000b4d4:	0005c683          	lbu	a3,0(a1)
1000b4d8:	00860433          	add	s0,a2,s0
1000b4dc:	00141413          	slli	s0,s0,0x1
1000b4e0:	00e40433          	add	s0,s0,a4
1000b4e4:	fd068713          	addi	a4,a3,-48
1000b4e8:	00158593          	addi	a1,a1,1
1000b4ec:	fee572e3          	bgeu	a0,a4,1000b4d0 <_vfiprintf_r+0x8d4>
1000b4f0:	60044063          	bltz	s0,1000baf0 <_vfiprintf_r+0xef4>
1000b4f4:	00058493          	mv	s1,a1
1000b4f8:	87dff06f          	j	1000ad74 <_vfiprintf_r+0x178>
1000b4fc:	0004c683          	lbu	a3,0(s1)
1000b500:	001d6d13          	ori	s10,s10,1
1000b504:	86dff06f          	j	1000ad70 <_vfiprintf_r+0x174>
1000b508:	03b14703          	lbu	a4,59(sp)
1000b50c:	0004c683          	lbu	a3,0(s1)
1000b510:	860710e3          	bnez	a4,1000ad70 <_vfiprintf_r+0x174>
1000b514:	02000713          	li	a4,32
1000b518:	02e10da3          	sb	a4,59(sp)
1000b51c:	855ff06f          	j	1000ad70 <_vfiprintf_r+0x174>
1000b520:	00008737          	lui	a4,0x8
1000b524:	83070713          	addi	a4,a4,-2000 # 7830 <__heap_size+0x6830>
1000b528:	02e11e23          	sh	a4,60(sp)
1000b52c:	02010da3          	sb	zero,59(sp)
1000b530:	000a2703          	lw	a4,0(s4)
1000b534:	004a0693          	addi	a3,s4,4
1000b538:	00000613          	li	a2,0
1000b53c:	54044263          	bltz	s0,1000ba80 <_vfiprintf_r+0xe84>
1000b540:	f7fd7d13          	andi	s10,s10,-129
1000b544:	002d6d13          	ori	s10,s10,2
1000b548:	220714e3          	bnez	a4,1000bf70 <_vfiprintf_r+0x1374>
1000b54c:	220412e3          	bnez	s0,1000bf70 <_vfiprintf_r+0x1374>
1000b550:	00068a13          	mv	s4,a3
1000b554:	00000313          	li	t1,0
1000b558:	00000813          	li	a6,0
1000b55c:	0f010d93          	addi	s11,sp,240
1000b560:	04812583          	lw	a1,72(sp)
1000b564:	04412603          	lw	a2,68(sp)
1000b568:	084d7893          	andi	a7,s10,132
1000b56c:	00280813          	addi	a6,a6,2
1000b570:	00058693          	mv	a3,a1
1000b574:	00060713          	mv	a4,a2
1000b578:	8c0894e3          	bnez	a7,1000ae40 <_vfiprintf_r+0x244>
1000b57c:	410c8e33          	sub	t3,s9,a6
1000b580:	8dc050e3          	blez	t3,1000ae40 <_vfiprintf_r+0x244>
1000b584:	00200e93          	li	t4,2
1000b588:	3340006f          	j	1000b8bc <_vfiprintf_r+0xcc0>
1000b58c:	020d7713          	andi	a4,s10,32
1000b590:	4e071463          	bnez	a4,1000ba78 <_vfiprintf_r+0xe7c>
1000b594:	010d7693          	andi	a3,s10,16
1000b598:	000a2703          	lw	a4,0(s4)
1000b59c:	004a0593          	addi	a1,s4,4
1000b5a0:	44069663          	bnez	a3,1000b9ec <_vfiprintf_r+0xdf0>
1000b5a4:	040d7693          	andi	a3,s10,64
1000b5a8:	76068263          	beqz	a3,1000bd0c <_vfiprintf_r+0x1110>
1000b5ac:	01071713          	slli	a4,a4,0x10
1000b5b0:	01075713          	srli	a4,a4,0x10
1000b5b4:	00058a13          	mv	s4,a1
1000b5b8:	000d0813          	mv	a6,s10
1000b5bc:	00000613          	li	a2,0
1000b5c0:	cc1ff06f          	j	1000b280 <_vfiprintf_r+0x684>
1000b5c4:	020d7713          	andi	a4,s10,32
1000b5c8:	004a0693          	addi	a3,s4,4
1000b5cc:	44071463          	bnez	a4,1000ba14 <_vfiprintf_r+0xe18>
1000b5d0:	010d7713          	andi	a4,s10,16
1000b5d4:	70071463          	bnez	a4,1000bcdc <_vfiprintf_r+0x10e0>
1000b5d8:	040d7713          	andi	a4,s10,64
1000b5dc:	78071663          	bnez	a4,1000bd68 <_vfiprintf_r+0x116c>
1000b5e0:	200d7d13          	andi	s10,s10,512
1000b5e4:	6e0d0c63          	beqz	s10,1000bcdc <_vfiprintf_r+0x10e0>
1000b5e8:	000a2703          	lw	a4,0(s4)
1000b5ec:	00068a13          	mv	s4,a3
1000b5f0:	01870023          	sb	s8,0(a4)
1000b5f4:	ef4ff06f          	j	1000ace8 <_vfiprintf_r+0xec>
1000b5f8:	0004c683          	lbu	a3,0(s1)
1000b5fc:	06c00713          	li	a4,108
1000b600:	6ae68e63          	beq	a3,a4,1000bcbc <_vfiprintf_r+0x10c0>
1000b604:	010d6d13          	ori	s10,s10,16
1000b608:	f68ff06f          	j	1000ad70 <_vfiprintf_r+0x174>
1000b60c:	410c88b3          	sub	a7,s9,a6
1000b610:	871052e3          	blez	a7,1000ae74 <_vfiprintf_r+0x278>
1000b614:	01000e13          	li	t3,16
1000b618:	10011eb7          	lui	t4,0x10011
1000b61c:	111e5ce3          	bge	t3,a7,1000bf34 <_vfiprintf_r+0x1338>
1000b620:	00812c23          	sw	s0,24(sp)
1000b624:	02912423          	sw	s1,40(sp)
1000b628:	00700f13          	li	t5,7
1000b62c:	01012a23          	sw	a6,20(sp)
1000b630:	00088413          	mv	s0,a7
1000b634:	00612e23          	sw	t1,28(sp)
1000b638:	178e8493          	addi	s1,t4,376 # 10011178 <zeroes.0>
1000b63c:	00c0006f          	j	1000b648 <_vfiprintf_r+0xa4c>
1000b640:	ff040413          	addi	s0,s0,-16
1000b644:	048e5a63          	bge	t3,s0,1000b698 <_vfiprintf_r+0xa9c>
1000b648:	01068693          	addi	a3,a3,16
1000b64c:	00170713          	addi	a4,a4,1
1000b650:	0097a023          	sw	s1,0(a5)
1000b654:	01c7a223          	sw	t3,4(a5)
1000b658:	04d12423          	sw	a3,72(sp)
1000b65c:	04e12223          	sw	a4,68(sp)
1000b660:	00878793          	addi	a5,a5,8
1000b664:	fcef5ee3          	bge	t5,a4,1000b640 <_vfiprintf_r+0xa44>
1000b668:	04010613          	addi	a2,sp,64
1000b66c:	00098593          	mv	a1,s3
1000b670:	000a8513          	mv	a0,s5
1000b674:	fc5f90ef          	jal	10005638 <__sprint_r>
1000b678:	8e0514e3          	bnez	a0,1000af60 <_vfiprintf_r+0x364>
1000b67c:	01000e13          	li	t3,16
1000b680:	ff040413          	addi	s0,s0,-16
1000b684:	04812683          	lw	a3,72(sp)
1000b688:	04412703          	lw	a4,68(sp)
1000b68c:	000b0793          	mv	a5,s6
1000b690:	00700f13          	li	t5,7
1000b694:	fa8e4ae3          	blt	t3,s0,1000b648 <_vfiprintf_r+0xa4c>
1000b698:	00040893          	mv	a7,s0
1000b69c:	00048e93          	mv	t4,s1
1000b6a0:	01412803          	lw	a6,20(sp)
1000b6a4:	01812403          	lw	s0,24(sp)
1000b6a8:	01c12303          	lw	t1,28(sp)
1000b6ac:	02812483          	lw	s1,40(sp)
1000b6b0:	011686b3          	add	a3,a3,a7
1000b6b4:	00170713          	addi	a4,a4,1
1000b6b8:	01d7a023          	sw	t4,0(a5)
1000b6bc:	0117a223          	sw	a7,4(a5)
1000b6c0:	04d12423          	sw	a3,72(sp)
1000b6c4:	04e12223          	sw	a4,68(sp)
1000b6c8:	00700613          	li	a2,7
1000b6cc:	00878793          	addi	a5,a5,8
1000b6d0:	fae65263          	bge	a2,a4,1000ae74 <_vfiprintf_r+0x278>
1000b6d4:	04010613          	addi	a2,sp,64
1000b6d8:	00098593          	mv	a1,s3
1000b6dc:	000a8513          	mv	a0,s5
1000b6e0:	00612c23          	sw	t1,24(sp)
1000b6e4:	01012a23          	sw	a6,20(sp)
1000b6e8:	f51f90ef          	jal	10005638 <__sprint_r>
1000b6ec:	86051ae3          	bnez	a0,1000af60 <_vfiprintf_r+0x364>
1000b6f0:	01812303          	lw	t1,24(sp)
1000b6f4:	04812683          	lw	a3,72(sp)
1000b6f8:	04412703          	lw	a4,68(sp)
1000b6fc:	40640433          	sub	s0,s0,t1
1000b700:	01412803          	lw	a6,20(sp)
1000b704:	000b0793          	mv	a5,s6
1000b708:	f6805a63          	blez	s0,1000ae7c <_vfiprintf_r+0x280>
1000b70c:	10011eb7          	lui	t4,0x10011
1000b710:	178e8e93          	addi	t4,t4,376 # 10011178 <zeroes.0>
1000b714:	06895c63          	bge	s2,s0,1000b78c <_vfiprintf_r+0xb90>
1000b718:	00700893          	li	a7,7
1000b71c:	01012a23          	sw	a6,20(sp)
1000b720:	00612c23          	sw	t1,24(sp)
1000b724:	01712e23          	sw	s7,28(sp)
1000b728:	00c0006f          	j	1000b734 <_vfiprintf_r+0xb38>
1000b72c:	ff040413          	addi	s0,s0,-16
1000b730:	04895863          	bge	s2,s0,1000b780 <_vfiprintf_r+0xb84>
1000b734:	01068693          	addi	a3,a3,16
1000b738:	00170713          	addi	a4,a4,1
1000b73c:	0177a023          	sw	s7,0(a5)
1000b740:	0127a223          	sw	s2,4(a5)
1000b744:	04d12423          	sw	a3,72(sp)
1000b748:	04e12223          	sw	a4,68(sp)
1000b74c:	00878793          	addi	a5,a5,8
1000b750:	fce8dee3          	bge	a7,a4,1000b72c <_vfiprintf_r+0xb30>
1000b754:	04010613          	addi	a2,sp,64
1000b758:	00098593          	mv	a1,s3
1000b75c:	000a8513          	mv	a0,s5
1000b760:	ed9f90ef          	jal	10005638 <__sprint_r>
1000b764:	fe051e63          	bnez	a0,1000af60 <_vfiprintf_r+0x364>
1000b768:	ff040413          	addi	s0,s0,-16
1000b76c:	04812683          	lw	a3,72(sp)
1000b770:	04412703          	lw	a4,68(sp)
1000b774:	000b0793          	mv	a5,s6
1000b778:	00700893          	li	a7,7
1000b77c:	fa894ce3          	blt	s2,s0,1000b734 <_vfiprintf_r+0xb38>
1000b780:	01412803          	lw	a6,20(sp)
1000b784:	01812303          	lw	t1,24(sp)
1000b788:	01c12e83          	lw	t4,28(sp)
1000b78c:	008686b3          	add	a3,a3,s0
1000b790:	00170713          	addi	a4,a4,1
1000b794:	01d7a023          	sw	t4,0(a5)
1000b798:	0087a223          	sw	s0,4(a5)
1000b79c:	04d12423          	sw	a3,72(sp)
1000b7a0:	04e12223          	sw	a4,68(sp)
1000b7a4:	00700613          	li	a2,7
1000b7a8:	00878793          	addi	a5,a5,8
1000b7ac:	ece65863          	bge	a2,a4,1000ae7c <_vfiprintf_r+0x280>
1000b7b0:	04010613          	addi	a2,sp,64
1000b7b4:	00098593          	mv	a1,s3
1000b7b8:	000a8513          	mv	a0,s5
1000b7bc:	00612c23          	sw	t1,24(sp)
1000b7c0:	01012a23          	sw	a6,20(sp)
1000b7c4:	e75f90ef          	jal	10005638 <__sprint_r>
1000b7c8:	f8051c63          	bnez	a0,1000af60 <_vfiprintf_r+0x364>
1000b7cc:	04812683          	lw	a3,72(sp)
1000b7d0:	04412703          	lw	a4,68(sp)
1000b7d4:	01812303          	lw	t1,24(sp)
1000b7d8:	01412803          	lw	a6,20(sp)
1000b7dc:	000b0793          	mv	a5,s6
1000b7e0:	e9cff06f          	j	1000ae7c <_vfiprintf_r+0x280>
1000b7e4:	04010613          	addi	a2,sp,64
1000b7e8:	00098593          	mv	a1,s3
1000b7ec:	000a8513          	mv	a0,s5
1000b7f0:	01012a23          	sw	a6,20(sp)
1000b7f4:	e45f90ef          	jal	10005638 <__sprint_r>
1000b7f8:	f6051463          	bnez	a0,1000af60 <_vfiprintf_r+0x364>
1000b7fc:	04812683          	lw	a3,72(sp)
1000b800:	01412803          	lw	a6,20(sp)
1000b804:	000b0793          	mv	a5,s6
1000b808:	e98ff06f          	j	1000aea0 <_vfiprintf_r+0x2a4>
1000b80c:	04010613          	addi	a2,sp,64
1000b810:	00098593          	mv	a1,s3
1000b814:	000a8513          	mv	a0,s5
1000b818:	e21f90ef          	jal	10005638 <__sprint_r>
1000b81c:	ea050263          	beqz	a0,1000aec0 <_vfiprintf_r+0x2c4>
1000b820:	f40ff06f          	j	1000af60 <_vfiprintf_r+0x364>
1000b824:	04010613          	addi	a2,sp,64
1000b828:	00098593          	mv	a1,s3
1000b82c:	000a8513          	mv	a0,s5
1000b830:	00612e23          	sw	t1,28(sp)
1000b834:	01112c23          	sw	a7,24(sp)
1000b838:	01012a23          	sw	a6,20(sp)
1000b83c:	dfdf90ef          	jal	10005638 <__sprint_r>
1000b840:	f2051063          	bnez	a0,1000af60 <_vfiprintf_r+0x364>
1000b844:	04812683          	lw	a3,72(sp)
1000b848:	04412703          	lw	a4,68(sp)
1000b84c:	01c12303          	lw	t1,28(sp)
1000b850:	01812883          	lw	a7,24(sp)
1000b854:	01412803          	lw	a6,20(sp)
1000b858:	000b0793          	mv	a5,s6
1000b85c:	e10ff06f          	j	1000ae6c <_vfiprintf_r+0x270>
1000b860:	0f010d93          	addi	s11,sp,240
1000b864:	01d61593          	slli	a1,a2,0x1d
1000b868:	00777693          	andi	a3,a4,7
1000b86c:	00375713          	srli	a4,a4,0x3
1000b870:	000d8513          	mv	a0,s11
1000b874:	00e58733          	add	a4,a1,a4
1000b878:	03068693          	addi	a3,a3,48
1000b87c:	00365613          	srli	a2,a2,0x3
1000b880:	00c765b3          	or	a1,a4,a2
1000b884:	fedd8fa3          	sb	a3,-1(s11)
1000b888:	fffd8d93          	addi	s11,s11,-1
1000b88c:	fc059ce3          	bnez	a1,1000b864 <_vfiprintf_r+0xc68>
1000b890:	fd068693          	addi	a3,a3,-48
1000b894:	00068663          	beqz	a3,1000b8a0 <_vfiprintf_r+0xca4>
1000b898:	001d7713          	andi	a4,s10,1
1000b89c:	12071463          	bnez	a4,1000b9c4 <_vfiprintf_r+0xdc8>
1000b8a0:	0f010713          	addi	a4,sp,240
1000b8a4:	41b70333          	sub	t1,a4,s11
1000b8a8:	00040813          	mv	a6,s0
1000b8ac:	d2645a63          	bge	s0,t1,1000ade0 <_vfiprintf_r+0x1e4>
1000b8b0:	00030813          	mv	a6,t1
1000b8b4:	d2cff06f          	j	1000ade0 <_vfiprintf_r+0x1e4>
1000b8b8:	00000e93          	li	t4,0
1000b8bc:	01000f93          	li	t6,16
1000b8c0:	00058693          	mv	a3,a1
1000b8c4:	00060713          	mv	a4,a2
1000b8c8:	100118b7          	lui	a7,0x10011
1000b8cc:	65cfd863          	bge	t6,t3,1000bf1c <_vfiprintf_r+0x1320>
1000b8d0:	00812e23          	sw	s0,28(sp)
1000b8d4:	02912623          	sw	s1,44(sp)
1000b8d8:	00700f13          	li	t5,7
1000b8dc:	01012a23          	sw	a6,20(sp)
1000b8e0:	01d12c23          	sw	t4,24(sp)
1000b8e4:	000e0413          	mv	s0,t3
1000b8e8:	02612423          	sw	t1,40(sp)
1000b8ec:	18888493          	addi	s1,a7,392 # 10011188 <blanks.1>
1000b8f0:	00c0006f          	j	1000b8fc <_vfiprintf_r+0xd00>
1000b8f4:	ff040413          	addi	s0,s0,-16
1000b8f8:	048fda63          	bge	t6,s0,1000b94c <_vfiprintf_r+0xd50>
1000b8fc:	01068693          	addi	a3,a3,16
1000b900:	00170713          	addi	a4,a4,1
1000b904:	0097a023          	sw	s1,0(a5)
1000b908:	01f7a223          	sw	t6,4(a5)
1000b90c:	04d12423          	sw	a3,72(sp)
1000b910:	04e12223          	sw	a4,68(sp)
1000b914:	00878793          	addi	a5,a5,8
1000b918:	fcef5ee3          	bge	t5,a4,1000b8f4 <_vfiprintf_r+0xcf8>
1000b91c:	04010613          	addi	a2,sp,64
1000b920:	00098593          	mv	a1,s3
1000b924:	000a8513          	mv	a0,s5
1000b928:	d11f90ef          	jal	10005638 <__sprint_r>
1000b92c:	e2051a63          	bnez	a0,1000af60 <_vfiprintf_r+0x364>
1000b930:	01000f93          	li	t6,16
1000b934:	ff040413          	addi	s0,s0,-16
1000b938:	04812683          	lw	a3,72(sp)
1000b93c:	04412703          	lw	a4,68(sp)
1000b940:	000b0793          	mv	a5,s6
1000b944:	00700f13          	li	t5,7
1000b948:	fa8fcae3          	blt	t6,s0,1000b8fc <_vfiprintf_r+0xd00>
1000b94c:	00040e13          	mv	t3,s0
1000b950:	00048893          	mv	a7,s1
1000b954:	01412803          	lw	a6,20(sp)
1000b958:	01812e83          	lw	t4,24(sp)
1000b95c:	01c12403          	lw	s0,28(sp)
1000b960:	02812303          	lw	t1,40(sp)
1000b964:	02c12483          	lw	s1,44(sp)
1000b968:	00de06b3          	add	a3,t3,a3
1000b96c:	00170713          	addi	a4,a4,1
1000b970:	04d12423          	sw	a3,72(sp)
1000b974:	04e12223          	sw	a4,68(sp)
1000b978:	0117a023          	sw	a7,0(a5)
1000b97c:	01c7a223          	sw	t3,4(a5)
1000b980:	00700613          	li	a2,7
1000b984:	28e64863          	blt	a2,a4,1000bc14 <_vfiprintf_r+0x1018>
1000b988:	03b14603          	lbu	a2,59(sp)
1000b98c:	00878793          	addi	a5,a5,8
1000b990:	02061663          	bnez	a2,1000b9bc <_vfiprintf_r+0xdc0>
1000b994:	ce0e8063          	beqz	t4,1000ae74 <_vfiprintf_r+0x278>
1000b998:	00000893          	li	a7,0
1000b99c:	ca4ff06f          	j	1000ae40 <_vfiprintf_r+0x244>
1000b9a0:	0004c683          	lbu	a3,0(s1)
1000b9a4:	004a0a13          	addi	s4,s4,4
1000b9a8:	bc8ff06f          	j	1000ad70 <_vfiprintf_r+0x174>
1000b9ac:	00180813          	addi	a6,a6,1
1000b9b0:	00100313          	li	t1,1
1000b9b4:	0ef10d93          	addi	s11,sp,239
1000b9b8:	f60ff06f          	j	1000b118 <_vfiprintf_r+0x51c>
1000b9bc:	00000893          	li	a7,0
1000b9c0:	c50ff06f          	j	1000ae10 <_vfiprintf_r+0x214>
1000b9c4:	ffe50513          	addi	a0,a0,-2
1000b9c8:	03000713          	li	a4,48
1000b9cc:	0f010693          	addi	a3,sp,240
1000b9d0:	40a68333          	sub	t1,a3,a0
1000b9d4:	feed8fa3          	sb	a4,-1(s11)
1000b9d8:	00040813          	mv	a6,s0
1000b9dc:	00645463          	bge	s0,t1,1000b9e4 <_vfiprintf_r+0xde8>
1000b9e0:	00030813          	mv	a6,t1
1000b9e4:	00050d93          	mv	s11,a0
1000b9e8:	bf8ff06f          	j	1000ade0 <_vfiprintf_r+0x1e4>
1000b9ec:	000d0813          	mv	a6,s10
1000b9f0:	000a2703          	lw	a4,0(s4)
1000b9f4:	00000613          	li	a2,0
1000b9f8:	00058a13          	mv	s4,a1
1000b9fc:	885ff06f          	j	1000b280 <_vfiprintf_r+0x684>
1000ba00:	000a2883          	lw	a7,0(s4)
1000ba04:	00058a13          	mv	s4,a1
1000ba08:	41f8d693          	srai	a3,a7,0x1f
1000ba0c:	00068613          	mv	a2,a3
1000ba10:	ed8ff06f          	j	1000b0e8 <_vfiprintf_r+0x4ec>
1000ba14:	000a2703          	lw	a4,0(s4)
1000ba18:	41fc5613          	srai	a2,s8,0x1f
1000ba1c:	00068a13          	mv	s4,a3
1000ba20:	01872023          	sw	s8,0(a4)
1000ba24:	00c72223          	sw	a2,4(a4)
1000ba28:	ac0ff06f          	j	1000ace8 <_vfiprintf_r+0xec>
1000ba2c:	010d7813          	andi	a6,s10,16
1000ba30:	000a2883          	lw	a7,0(s4)
1000ba34:	004a0593          	addi	a1,s4,4
1000ba38:	8a0812e3          	bnez	a6,1000b2dc <_vfiprintf_r+0x6e0>
1000ba3c:	040d7713          	andi	a4,s10,64
1000ba40:	18070c63          	beqz	a4,1000bbd8 <_vfiprintf_r+0xfdc>
1000ba44:	01089893          	slli	a7,a7,0x10
1000ba48:	02010da3          	sb	zero,59(sp)
1000ba4c:	0108d893          	srli	a7,a7,0x10
1000ba50:	00000693          	li	a3,0
1000ba54:	18044e63          	bltz	s0,1000bbf0 <_vfiprintf_r+0xff4>
1000ba58:	f7fd7d13          	andi	s10,s10,-129
1000ba5c:	18041a63          	bnez	s0,1000bbf0 <_vfiprintf_r+0xff4>
1000ba60:	00d8e733          	or	a4,a7,a3
1000ba64:	18071663          	bnez	a4,1000bbf0 <_vfiprintf_r+0xff4>
1000ba68:	00058a13          	mv	s4,a1
1000ba6c:	00000313          	li	t1,0
1000ba70:	0f010d93          	addi	s11,sp,240
1000ba74:	b6cff06f          	j	1000ade0 <_vfiprintf_r+0x1e4>
1000ba78:	000d0813          	mv	a6,s10
1000ba7c:	ff0ff06f          	j	1000b26c <_vfiprintf_r+0x670>
1000ba80:	10011537          	lui	a0,0x10011
1000ba84:	002d6d13          	ori	s10,s10,2
1000ba88:	00068a13          	mv	s4,a3
1000ba8c:	b0050513          	addi	a0,a0,-1280 # 10010b00 <__clzsi2+0x18c>
1000ba90:	00200593          	li	a1,2
1000ba94:	0f010d93          	addi	s11,sp,240
1000ba98:	00f77693          	andi	a3,a4,15
1000ba9c:	00d506b3          	add	a3,a0,a3
1000baa0:	0006c683          	lbu	a3,0(a3)
1000baa4:	01c61813          	slli	a6,a2,0x1c
1000baa8:	00475713          	srli	a4,a4,0x4
1000baac:	00e80733          	add	a4,a6,a4
1000bab0:	00465613          	srli	a2,a2,0x4
1000bab4:	fedd8fa3          	sb	a3,-1(s11)
1000bab8:	00c766b3          	or	a3,a4,a2
1000babc:	fffd8d93          	addi	s11,s11,-1
1000bac0:	fc069ce3          	bnez	a3,1000ba98 <_vfiprintf_r+0xe9c>
1000bac4:	0f010713          	addi	a4,sp,240
1000bac8:	41b70333          	sub	t1,a4,s11
1000bacc:	00040813          	mv	a6,s0
1000bad0:	00645463          	bge	s0,t1,1000bad8 <_vfiprintf_r+0xedc>
1000bad4:	00030813          	mv	a6,t1
1000bad8:	a80594e3          	bnez	a1,1000b560 <_vfiprintf_r+0x964>
1000badc:	0700006f          	j	1000bb4c <_vfiprintf_r+0xf50>
1000bae0:	00000313          	li	t1,0
1000bae4:	00000413          	li	s0,0
1000bae8:	0f010d93          	addi	s11,sp,240
1000baec:	af4ff06f          	j	1000ade0 <_vfiprintf_r+0x1e4>
1000baf0:	fff00413          	li	s0,-1
1000baf4:	00058493          	mv	s1,a1
1000baf8:	a7cff06f          	j	1000ad74 <_vfiprintf_r+0x178>
1000bafc:	10011537          	lui	a0,0x10011
1000bb00:	020d7713          	andi	a4,s10,32
1000bb04:	b1450513          	addi	a0,a0,-1260 # 10010b14 <__clzsi2+0x1a0>
1000bb08:	06070e63          	beqz	a4,1000bb84 <_vfiprintf_r+0xf88>
1000bb0c:	007a0613          	addi	a2,s4,7
1000bb10:	ff867613          	andi	a2,a2,-8
1000bb14:	00062703          	lw	a4,0(a2)
1000bb18:	00860a13          	addi	s4,a2,8
1000bb1c:	00462603          	lw	a2,4(a2)
1000bb20:	001d7593          	andi	a1,s10,1
1000bb24:	00c76833          	or	a6,a4,a2
1000bb28:	00058463          	beqz	a1,1000bb30 <_vfiprintf_r+0xf34>
1000bb2c:	12081a63          	bnez	a6,1000bc60 <_vfiprintf_r+0x1064>
1000bb30:	02010da3          	sb	zero,59(sp)
1000bb34:	0c044a63          	bltz	s0,1000bc08 <_vfiprintf_r+0x100c>
1000bb38:	b7fd7d13          	andi	s10,s10,-1153
1000bb3c:	40041863          	bnez	s0,1000bf4c <_vfiprintf_r+0x1350>
1000bb40:	40081663          	bnez	a6,1000bf4c <_vfiprintf_r+0x1350>
1000bb44:	00000313          	li	t1,0
1000bb48:	0f010d93          	addi	s11,sp,240
1000bb4c:	04812683          	lw	a3,72(sp)
1000bb50:	04412703          	lw	a4,68(sp)
1000bb54:	084d7893          	andi	a7,s10,132
1000bb58:	00068593          	mv	a1,a3
1000bb5c:	00070613          	mv	a2,a4
1000bb60:	a8088c63          	beqz	a7,1000adf8 <_vfiprintf_r+0x1fc>
1000bb64:	03b14603          	lbu	a2,59(sp)
1000bb68:	00000e93          	li	t4,0
1000bb6c:	aa061263          	bnez	a2,1000ae10 <_vfiprintf_r+0x214>
1000bb70:	afcff06f          	j	1000ae6c <_vfiprintf_r+0x270>
1000bb74:	10011537          	lui	a0,0x10011
1000bb78:	020d7713          	andi	a4,s10,32
1000bb7c:	b0050513          	addi	a0,a0,-1280 # 10010b00 <__clzsi2+0x18c>
1000bb80:	f80716e3          	bnez	a4,1000bb0c <_vfiprintf_r+0xf10>
1000bb84:	010d7613          	andi	a2,s10,16
1000bb88:	000a2703          	lw	a4,0(s4)
1000bb8c:	004a0a13          	addi	s4,s4,4
1000bb90:	06061863          	bnez	a2,1000bc00 <_vfiprintf_r+0x1004>
1000bb94:	040d7613          	andi	a2,s10,64
1000bb98:	06060063          	beqz	a2,1000bbf8 <_vfiprintf_r+0xffc>
1000bb9c:	01071713          	slli	a4,a4,0x10
1000bba0:	01075713          	srli	a4,a4,0x10
1000bba4:	00000613          	li	a2,0
1000bba8:	f79ff06f          	j	1000bb20 <_vfiprintf_r+0xf24>
1000bbac:	000d8513          	mv	a0,s11
1000bbb0:	a3df50ef          	jal	100015ec <strlen>
1000bbb4:	03b14703          	lbu	a4,59(sp)
1000bbb8:	fff54813          	not	a6,a0
1000bbbc:	41f85813          	srai	a6,a6,0x1f
1000bbc0:	01412783          	lw	a5,20(sp)
1000bbc4:	00050313          	mv	t1,a0
1000bbc8:	01057833          	and	a6,a0,a6
1000bbcc:	da071a63          	bnez	a4,1000b180 <_vfiprintf_r+0x584>
1000bbd0:	00000413          	li	s0,0
1000bbd4:	a0cff06f          	j	1000ade0 <_vfiprintf_r+0x1e4>
1000bbd8:	200d7713          	andi	a4,s10,512
1000bbdc:	02010da3          	sb	zero,59(sp)
1000bbe0:	1c070263          	beqz	a4,1000bda4 <_vfiprintf_r+0x11a8>
1000bbe4:	0ff8f893          	zext.b	a7,a7
1000bbe8:	00000693          	li	a3,0
1000bbec:	e60456e3          	bgez	s0,1000ba58 <_vfiprintf_r+0xe5c>
1000bbf0:	00058a13          	mv	s4,a1
1000bbf4:	e08ff06f          	j	1000b1fc <_vfiprintf_r+0x600>
1000bbf8:	200d7613          	andi	a2,s10,512
1000bbfc:	18061663          	bnez	a2,1000bd88 <_vfiprintf_r+0x118c>
1000bc00:	00000613          	li	a2,0
1000bc04:	f1dff06f          	j	1000bb20 <_vfiprintf_r+0xf24>
1000bc08:	bffd7d13          	andi	s10,s10,-1025
1000bc0c:	00000593          	li	a1,0
1000bc10:	e85ff06f          	j	1000ba94 <_vfiprintf_r+0xe98>
1000bc14:	04010613          	addi	a2,sp,64
1000bc18:	00098593          	mv	a1,s3
1000bc1c:	000a8513          	mv	a0,s5
1000bc20:	00612e23          	sw	t1,28(sp)
1000bc24:	01d12c23          	sw	t4,24(sp)
1000bc28:	01012a23          	sw	a6,20(sp)
1000bc2c:	a0df90ef          	jal	10005638 <__sprint_r>
1000bc30:	00050893          	mv	a7,a0
1000bc34:	b2051663          	bnez	a0,1000af60 <_vfiprintf_r+0x364>
1000bc38:	03b14783          	lbu	a5,59(sp)
1000bc3c:	04812683          	lw	a3,72(sp)
1000bc40:	04412703          	lw	a4,68(sp)
1000bc44:	01412803          	lw	a6,20(sp)
1000bc48:	01812e83          	lw	t4,24(sp)
1000bc4c:	01c12303          	lw	t1,28(sp)
1000bc50:	0c079c63          	bnez	a5,1000bd28 <_vfiprintf_r+0x112c>
1000bc54:	000b0793          	mv	a5,s6
1000bc58:	9e0e9463          	bnez	t4,1000ae40 <_vfiprintf_r+0x244>
1000bc5c:	a18ff06f          	j	1000ae74 <_vfiprintf_r+0x278>
1000bc60:	02d10ea3          	sb	a3,61(sp)
1000bc64:	03000693          	li	a3,48
1000bc68:	02010da3          	sb	zero,59(sp)
1000bc6c:	02d10e23          	sb	a3,60(sp)
1000bc70:	0e044063          	bltz	s0,1000bd50 <_vfiprintf_r+0x1154>
1000bc74:	b7fd7d13          	andi	s10,s10,-1153
1000bc78:	002d6d13          	ori	s10,s10,2
1000bc7c:	00200593          	li	a1,2
1000bc80:	e15ff06f          	j	1000ba94 <_vfiprintf_r+0xe98>
1000bc84:	14069263          	bnez	a3,1000bdc8 <_vfiprintf_r+0x11cc>
1000bc88:	00900713          	li	a4,9
1000bc8c:	13176e63          	bltu	a4,a7,1000bdc8 <_vfiprintf_r+0x11cc>
1000bc90:	0f010713          	addi	a4,sp,240
1000bc94:	41b70333          	sub	t1,a4,s11
1000bc98:	00040813          	mv	a6,s0
1000bc9c:	03b14703          	lbu	a4,59(sp)
1000bca0:	00645463          	bge	s0,t1,1000bca8 <_vfiprintf_r+0x10ac>
1000bca4:	00030813          	mv	a6,t1
1000bca8:	00e03733          	snez	a4,a4
1000bcac:	00e80833          	add	a6,a6,a4
1000bcb0:	e9dff06f          	j	1000bb4c <_vfiprintf_r+0xf50>
1000bcb4:	bc9f40ef          	jal	1000087c <__sinit>
1000bcb8:	f81fe06f          	j	1000ac38 <_vfiprintf_r+0x3c>
1000bcbc:	0014c683          	lbu	a3,1(s1)
1000bcc0:	020d6d13          	ori	s10,s10,32
1000bcc4:	00148493          	addi	s1,s1,1
1000bcc8:	8a8ff06f          	j	1000ad70 <_vfiprintf_r+0x174>
1000bccc:	0014c683          	lbu	a3,1(s1)
1000bcd0:	200d6d13          	ori	s10,s10,512
1000bcd4:	00148493          	addi	s1,s1,1
1000bcd8:	898ff06f          	j	1000ad70 <_vfiprintf_r+0x174>
1000bcdc:	000a2703          	lw	a4,0(s4)
1000bce0:	00068a13          	mv	s4,a3
1000bce4:	01872023          	sw	s8,0(a4)
1000bce8:	800ff06f          	j	1000ace8 <_vfiprintf_r+0xec>
1000bcec:	00600713          	li	a4,6
1000bcf0:	00040813          	mv	a6,s0
1000bcf4:	06876663          	bltu	a4,s0,1000bd60 <_vfiprintf_r+0x1164>
1000bcf8:	10011db7          	lui	s11,0x10011
1000bcfc:	b28d8d93          	addi	s11,s11,-1240 # 10010b28 <__clzsi2+0x1b4>
1000bd00:	00080313          	mv	t1,a6
1000bd04:	00000413          	li	s0,0
1000bd08:	8d8ff06f          	j	1000ade0 <_vfiprintf_r+0x1e4>
1000bd0c:	200d7693          	andi	a3,s10,512
1000bd10:	08068263          	beqz	a3,1000bd94 <_vfiprintf_r+0x1198>
1000bd14:	0ff77713          	zext.b	a4,a4
1000bd18:	00058a13          	mv	s4,a1
1000bd1c:	000d0813          	mv	a6,s10
1000bd20:	00000613          	li	a2,0
1000bd24:	d5cff06f          	j	1000b280 <_vfiprintf_r+0x684>
1000bd28:	000b0793          	mv	a5,s6
1000bd2c:	8e4ff06f          	j	1000ae10 <_vfiprintf_r+0x214>
1000bd30:	200d7713          	andi	a4,s10,512
1000bd34:	04070263          	beqz	a4,1000bd78 <_vfiprintf_r+0x117c>
1000bd38:	01889893          	slli	a7,a7,0x18
1000bd3c:	4188d893          	srai	a7,a7,0x18
1000bd40:	41f8d693          	srai	a3,a7,0x1f
1000bd44:	00058a13          	mv	s4,a1
1000bd48:	00068613          	mv	a2,a3
1000bd4c:	b9cff06f          	j	1000b0e8 <_vfiprintf_r+0x4ec>
1000bd50:	bffd7d13          	andi	s10,s10,-1025
1000bd54:	002d6d13          	ori	s10,s10,2
1000bd58:	00200593          	li	a1,2
1000bd5c:	d39ff06f          	j	1000ba94 <_vfiprintf_r+0xe98>
1000bd60:	00070813          	mv	a6,a4
1000bd64:	f95ff06f          	j	1000bcf8 <_vfiprintf_r+0x10fc>
1000bd68:	000a2703          	lw	a4,0(s4)
1000bd6c:	00068a13          	mv	s4,a3
1000bd70:	01871023          	sh	s8,0(a4)
1000bd74:	f75fe06f          	j	1000ace8 <_vfiprintf_r+0xec>
1000bd78:	41f8d693          	srai	a3,a7,0x1f
1000bd7c:	00058a13          	mv	s4,a1
1000bd80:	00068613          	mv	a2,a3
1000bd84:	b64ff06f          	j	1000b0e8 <_vfiprintf_r+0x4ec>
1000bd88:	0ff77713          	zext.b	a4,a4
1000bd8c:	00000613          	li	a2,0
1000bd90:	d91ff06f          	j	1000bb20 <_vfiprintf_r+0xf24>
1000bd94:	00058a13          	mv	s4,a1
1000bd98:	000d0813          	mv	a6,s10
1000bd9c:	00000613          	li	a2,0
1000bda0:	ce0ff06f          	j	1000b280 <_vfiprintf_r+0x684>
1000bda4:	00000693          	li	a3,0
1000bda8:	00058a13          	mv	s4,a1
1000bdac:	ca0456e3          	bgez	s0,1000ba58 <_vfiprintf_r+0xe5c>
1000bdb0:	c50ff06f          	j	1000b200 <_vfiprintf_r+0x604>
1000bdb4:	000a8513          	mv	a0,s5
1000bdb8:	04010613          	addi	a2,sp,64
1000bdbc:	00098593          	mv	a1,s3
1000bdc0:	879f90ef          	jal	10005638 <__sprint_r>
1000bdc4:	99cff06f          	j	1000af60 <_vfiprintf_r+0x364>
1000bdc8:	00f12c23          	sw	a5,24(sp)
1000bdcc:	02012783          	lw	a5,32(sp)
1000bdd0:	02412583          	lw	a1,36(sp)
1000bdd4:	02d12623          	sw	a3,44(sp)
1000bdd8:	40fd8eb3          	sub	t4,s11,a5
1000bddc:	00078613          	mv	a2,a5
1000bde0:	000e8513          	mv	a0,t4
1000bde4:	03112423          	sw	a7,40(sp)
1000bde8:	01c12e23          	sw	t3,28(sp)
1000bdec:	01d12a23          	sw	t4,20(sp)
1000bdf0:	bb0fa0ef          	jal	100061a0 <strncpy>
1000bdf4:	02812883          	lw	a7,40(sp)
1000bdf8:	02c12683          	lw	a3,44(sp)
1000bdfc:	01012783          	lw	a5,16(sp)
1000be00:	ccccd537          	lui	a0,0xccccd
1000be04:	00d88733          	add	a4,a7,a3
1000be08:	01173633          	sltu	a2,a4,a7
1000be0c:	00c70733          	add	a4,a4,a2
1000be10:	ccccd637          	lui	a2,0xccccd
1000be14:	ccd60613          	addi	a2,a2,-819 # cccccccd <_sp+0xbccb8fad>
1000be18:	02c735b3          	mulhu	a1,a4,a2
1000be1c:	0017cf03          	lbu	t5,1(a5)
1000be20:	ccc50513          	addi	a0,a0,-820 # cccccccc <_sp+0xbccb8fac>
1000be24:	01412e83          	lw	t4,20(sp)
1000be28:	01e03f33          	snez	t5,t5
1000be2c:	01e787b3          	add	a5,a5,t5
1000be30:	ccccd837          	lui	a6,0xccccd
1000be34:	ccccd337          	lui	t1,0xccccd
1000be38:	00f12823          	sw	a5,16(sp)
1000be3c:	01c12e03          	lw	t3,28(sp)
1000be40:	0025df13          	srli	t5,a1,0x2
1000be44:	ffc5f593          	andi	a1,a1,-4
1000be48:	01e585b3          	add	a1,a1,t5
1000be4c:	40b70733          	sub	a4,a4,a1
1000be50:	40e88733          	sub	a4,a7,a4
1000be54:	00e8b8b3          	sltu	a7,a7,a4
1000be58:	411686b3          	sub	a3,a3,a7
1000be5c:	02a70533          	mul	a0,a4,a0
1000be60:	01812783          	lw	a5,24(sp)
1000be64:	fffe8d93          	addi	s11,t4,-1
1000be68:	ccd80813          	addi	a6,a6,-819 # cccccccd <_sp+0xbccb8fad>
1000be6c:	ccc30313          	addi	t1,t1,-820 # cccccccc <_sp+0xbccb8fac>
1000be70:	02c686b3          	mul	a3,a3,a2
1000be74:	02c735b3          	mulhu	a1,a4,a2
1000be78:	00a686b3          	add	a3,a3,a0
1000be7c:	00100513          	li	a0,1
1000be80:	02c70733          	mul	a4,a4,a2
1000be84:	00b686b3          	add	a3,a3,a1
1000be88:	01f69593          	slli	a1,a3,0x1f
1000be8c:	0016d693          	srli	a3,a3,0x1
1000be90:	00175713          	srli	a4,a4,0x1
1000be94:	00e588b3          	add	a7,a1,a4
1000be98:	00d88733          	add	a4,a7,a3
1000be9c:	011735b3          	sltu	a1,a4,a7
1000bea0:	00b70733          	add	a4,a4,a1
1000bea4:	02c735b3          	mulhu	a1,a4,a2
1000bea8:	0025df13          	srli	t5,a1,0x2
1000beac:	ffc5f593          	andi	a1,a1,-4
1000beb0:	01e585b3          	add	a1,a1,t5
1000beb4:	40b70733          	sub	a4,a4,a1
1000beb8:	40e88733          	sub	a4,a7,a4
1000bebc:	00e8b5b3          	sltu	a1,a7,a4
1000bec0:	40b685b3          	sub	a1,a3,a1
1000bec4:	02c73f33          	mulhu	t5,a4,a2
1000bec8:	02c585b3          	mul	a1,a1,a2
1000becc:	02c70733          	mul	a4,a4,a2
1000bed0:	01e58633          	add	a2,a1,t5
1000bed4:	01f61613          	slli	a2,a2,0x1f
1000bed8:	00175713          	srli	a4,a4,0x1
1000bedc:	00e60733          	add	a4,a2,a4
1000bee0:	00271613          	slli	a2,a4,0x2
1000bee4:	00e60733          	add	a4,a2,a4
1000bee8:	00171713          	slli	a4,a4,0x1
1000beec:	40e88733          	sub	a4,a7,a4
1000bef0:	03070713          	addi	a4,a4,48
1000bef4:	feee8fa3          	sb	a4,-1(t4)
1000bef8:	c60ff06f          	j	1000b358 <_vfiprintf_r+0x75c>
1000befc:	00900713          	li	a4,9
1000bf00:	cdd76863          	bltu	a4,t4,1000b3d0 <_vfiprintf_r+0x7d4>
1000bf04:	d8dff06f          	j	1000bc90 <_vfiprintf_r+0x1094>
1000bf08:	02070a63          	beqz	a4,1000bf3c <_vfiprintf_r+0x1340>
1000bf0c:	00140813          	addi	a6,s0,1
1000bf10:	00040313          	mv	t1,s0
1000bf14:	00000413          	li	s0,0
1000bf18:	a00ff06f          	j	1000b118 <_vfiprintf_r+0x51c>
1000bf1c:	18888893          	addi	a7,a7,392
1000bf20:	a49ff06f          	j	1000b968 <_vfiprintf_r+0xd6c>
1000bf24:	fff00c13          	li	s8,-1
1000bf28:	860ff06f          	j	1000af88 <_vfiprintf_r+0x38c>
1000bf2c:	18888893          	addi	a7,a7,392
1000bf30:	940ff06f          	j	1000b070 <_vfiprintf_r+0x474>
1000bf34:	178e8e93          	addi	t4,t4,376
1000bf38:	f78ff06f          	j	1000b6b0 <_vfiprintf_r+0xab4>
1000bf3c:	00040313          	mv	t1,s0
1000bf40:	00040813          	mv	a6,s0
1000bf44:	00000413          	li	s0,0
1000bf48:	e99fe06f          	j	1000ade0 <_vfiprintf_r+0x1e4>
1000bf4c:	00000593          	li	a1,0
1000bf50:	b45ff06f          	j	1000ba94 <_vfiprintf_r+0xe98>
1000bf54:	000a2403          	lw	s0,0(s4)
1000bf58:	004a0a13          	addi	s4,s4,4
1000bf5c:	00045463          	bgez	s0,1000bf64 <_vfiprintf_r+0x1368>
1000bf60:	fff00413          	li	s0,-1
1000bf64:	0014c683          	lbu	a3,1(s1)
1000bf68:	00058493          	mv	s1,a1
1000bf6c:	e05fe06f          	j	1000ad70 <_vfiprintf_r+0x174>
1000bf70:	10011537          	lui	a0,0x10011
1000bf74:	00068a13          	mv	s4,a3
1000bf78:	b0050513          	addi	a0,a0,-1280 # 10010b00 <__clzsi2+0x18c>
1000bf7c:	00200593          	li	a1,2
1000bf80:	b15ff06f          	j	1000ba94 <_vfiprintf_r+0xe98>

1000bf84 <vfiprintf>:
1000bf84:	00050713          	mv	a4,a0
1000bf88:	f2c1a503          	lw	a0,-212(gp) # 10011a04 <_impure_ptr>
1000bf8c:	00060693          	mv	a3,a2
1000bf90:	00058613          	mv	a2,a1
1000bf94:	00070593          	mv	a1,a4
1000bf98:	c65fe06f          	j	1000abfc <_vfiprintf_r>

1000bf9c <__sbprintf>:
1000bf9c:	00c5d783          	lhu	a5,12(a1)
1000bfa0:	0645ae83          	lw	t4,100(a1)
1000bfa4:	00e5de03          	lhu	t3,14(a1)
1000bfa8:	01c5a303          	lw	t1,28(a1)
1000bfac:	0245a883          	lw	a7,36(a1)
1000bfb0:	b7010113          	addi	sp,sp,-1168
1000bfb4:	ffd7f793          	andi	a5,a5,-3
1000bfb8:	08010813          	addi	a6,sp,128
1000bfbc:	40000713          	li	a4,1024
1000bfc0:	48812423          	sw	s0,1160(sp)
1000bfc4:	00058413          	mv	s0,a1
1000bfc8:	01810593          	addi	a1,sp,24
1000bfcc:	48912223          	sw	s1,1156(sp)
1000bfd0:	02f11223          	sh	a5,36(sp)
1000bfd4:	48112623          	sw	ra,1164(sp)
1000bfd8:	02012823          	sw	zero,48(sp)
1000bfdc:	07d12e23          	sw	t4,124(sp)
1000bfe0:	03c11323          	sh	t3,38(sp)
1000bfe4:	02612a23          	sw	t1,52(sp)
1000bfe8:	03112e23          	sw	a7,60(sp)
1000bfec:	01012c23          	sw	a6,24(sp)
1000bff0:	03012423          	sw	a6,40(sp)
1000bff4:	02e12023          	sw	a4,32(sp)
1000bff8:	02e12623          	sw	a4,44(sp)
1000bffc:	00050493          	mv	s1,a0
1000c000:	bfdfe0ef          	jal	1000abfc <_vfiprintf_r>
1000c004:	00050793          	mv	a5,a0
1000c008:	02055a63          	bgez	a0,1000c03c <__sbprintf+0xa0>
1000c00c:	02415703          	lhu	a4,36(sp)
1000c010:	04077713          	andi	a4,a4,64
1000c014:	00070863          	beqz	a4,1000c024 <__sbprintf+0x88>
1000c018:	00c45703          	lhu	a4,12(s0)
1000c01c:	04076713          	ori	a4,a4,64
1000c020:	00e41623          	sh	a4,12(s0)
1000c024:	48c12083          	lw	ra,1164(sp)
1000c028:	48812403          	lw	s0,1160(sp)
1000c02c:	48412483          	lw	s1,1156(sp)
1000c030:	00078513          	mv	a0,a5
1000c034:	49010113          	addi	sp,sp,1168
1000c038:	00008067          	ret
1000c03c:	00a12623          	sw	a0,12(sp)
1000c040:	01810593          	addi	a1,sp,24
1000c044:	00048513          	mv	a0,s1
1000c048:	99df90ef          	jal	100059e4 <_fflush_r>
1000c04c:	00c12783          	lw	a5,12(sp)
1000c050:	fa050ee3          	beqz	a0,1000c00c <__sbprintf+0x70>
1000c054:	fff00793          	li	a5,-1
1000c058:	fb5ff06f          	j	1000c00c <__sbprintf+0x70>

1000c05c <__errno>:
1000c05c:	f2c1a503          	lw	a0,-212(gp) # 10011a04 <_impure_ptr>
1000c060:	00008067          	ret

1000c064 <__adddf3>:
1000c064:	00100737          	lui	a4,0x100
1000c068:	fe010113          	addi	sp,sp,-32
1000c06c:	fff70713          	addi	a4,a4,-1 # fffff <__heap_size+0xfefff>
1000c070:	00b777b3          	and	a5,a4,a1
1000c074:	0146d893          	srli	a7,a3,0x14
1000c078:	00d77733          	and	a4,a4,a3
1000c07c:	00812c23          	sw	s0,24(sp)
1000c080:	0145d413          	srli	s0,a1,0x14
1000c084:	00371713          	slli	a4,a4,0x3
1000c088:	01d65813          	srli	a6,a2,0x1d
1000c08c:	01212823          	sw	s2,16(sp)
1000c090:	7ff47413          	andi	s0,s0,2047
1000c094:	01f5d913          	srli	s2,a1,0x1f
1000c098:	00379793          	slli	a5,a5,0x3
1000c09c:	01d55593          	srli	a1,a0,0x1d
1000c0a0:	7ff8f893          	andi	a7,a7,2047
1000c0a4:	00112e23          	sw	ra,28(sp)
1000c0a8:	00912a23          	sw	s1,20(sp)
1000c0ac:	01312623          	sw	s3,12(sp)
1000c0b0:	01f6d693          	srli	a3,a3,0x1f
1000c0b4:	00f5e7b3          	or	a5,a1,a5
1000c0b8:	00e86833          	or	a6,a6,a4
1000c0bc:	00351513          	slli	a0,a0,0x3
1000c0c0:	00361613          	slli	a2,a2,0x3
1000c0c4:	41140733          	sub	a4,s0,a7
1000c0c8:	7ff00593          	li	a1,2047
1000c0cc:	30d91463          	bne	s2,a3,1000c3d4 <__adddf3+0x370>
1000c0d0:	10e05263          	blez	a4,1000c1d4 <__adddf3+0x170>
1000c0d4:	02089c63          	bnez	a7,1000c10c <__adddf3+0xa8>
1000c0d8:	00c86733          	or	a4,a6,a2
1000c0dc:	02070463          	beqz	a4,1000c104 <__adddf3+0xa0>
1000c0e0:	fff40713          	addi	a4,s0,-1
1000c0e4:	00071e63          	bnez	a4,1000c100 <__adddf3+0x9c>
1000c0e8:	00c50633          	add	a2,a0,a2
1000c0ec:	010787b3          	add	a5,a5,a6
1000c0f0:	00a63533          	sltu	a0,a2,a0
1000c0f4:	00a787b3          	add	a5,a5,a0
1000c0f8:	00100413          	li	s0,1
1000c0fc:	0600006f          	j	1000c15c <__adddf3+0xf8>
1000c100:	00b41c63          	bne	s0,a1,1000c118 <__adddf3+0xb4>
1000c104:	00050613          	mv	a2,a0
1000c108:	1d80006f          	j	1000c2e0 <__adddf3+0x27c>
1000c10c:	feb40ce3          	beq	s0,a1,1000c104 <__adddf3+0xa0>
1000c110:	008006b7          	lui	a3,0x800
1000c114:	00d86833          	or	a6,a6,a3
1000c118:	03800693          	li	a3,56
1000c11c:	0ae6c663          	blt	a3,a4,1000c1c8 <__adddf3+0x164>
1000c120:	01f00693          	li	a3,31
1000c124:	02000893          	li	a7,32
1000c128:	06e6c863          	blt	a3,a4,1000c198 <__adddf3+0x134>
1000c12c:	40e888b3          	sub	a7,a7,a4
1000c130:	011816b3          	sll	a3,a6,a7
1000c134:	00e655b3          	srl	a1,a2,a4
1000c138:	011618b3          	sll	a7,a2,a7
1000c13c:	00b6e6b3          	or	a3,a3,a1
1000c140:	011038b3          	snez	a7,a7
1000c144:	0116e6b3          	or	a3,a3,a7
1000c148:	00e85733          	srl	a4,a6,a4
1000c14c:	00a68633          	add	a2,a3,a0
1000c150:	00f70733          	add	a4,a4,a5
1000c154:	00d636b3          	sltu	a3,a2,a3
1000c158:	00d707b3          	add	a5,a4,a3
1000c15c:	00879713          	slli	a4,a5,0x8
1000c160:	22075663          	bgez	a4,1000c38c <__adddf3+0x328>
1000c164:	00140413          	addi	s0,s0,1
1000c168:	7ff00713          	li	a4,2047
1000c16c:	60e40863          	beq	s0,a4,1000c77c <__adddf3+0x718>
1000c170:	ff800737          	lui	a4,0xff800
1000c174:	fff70713          	addi	a4,a4,-1 # ff7fffff <_sp+0xef7ec2df>
1000c178:	00e7f7b3          	and	a5,a5,a4
1000c17c:	00165713          	srli	a4,a2,0x1
1000c180:	00167613          	andi	a2,a2,1
1000c184:	00c76733          	or	a4,a4,a2
1000c188:	01f79613          	slli	a2,a5,0x1f
1000c18c:	00e66633          	or	a2,a2,a4
1000c190:	0017d793          	srli	a5,a5,0x1
1000c194:	1f80006f          	j	1000c38c <__adddf3+0x328>
1000c198:	fe070693          	addi	a3,a4,-32
1000c19c:	00d856b3          	srl	a3,a6,a3
1000c1a0:	00000593          	li	a1,0
1000c1a4:	01170863          	beq	a4,a7,1000c1b4 <__adddf3+0x150>
1000c1a8:	04000593          	li	a1,64
1000c1ac:	40e585b3          	sub	a1,a1,a4
1000c1b0:	00b815b3          	sll	a1,a6,a1
1000c1b4:	00c5e5b3          	or	a1,a1,a2
1000c1b8:	00b035b3          	snez	a1,a1
1000c1bc:	00b6e6b3          	or	a3,a3,a1
1000c1c0:	00000713          	li	a4,0
1000c1c4:	f89ff06f          	j	1000c14c <__adddf3+0xe8>
1000c1c8:	00c866b3          	or	a3,a6,a2
1000c1cc:	00d036b3          	snez	a3,a3
1000c1d0:	ff1ff06f          	j	1000c1c0 <__adddf3+0x15c>
1000c1d4:	0c070263          	beqz	a4,1000c298 <__adddf3+0x234>
1000c1d8:	40888733          	sub	a4,a7,s0
1000c1dc:	02041263          	bnez	s0,1000c200 <__adddf3+0x19c>
1000c1e0:	00a7e6b3          	or	a3,a5,a0
1000c1e4:	00068863          	beqz	a3,1000c1f4 <__adddf3+0x190>
1000c1e8:	fff70693          	addi	a3,a4,-1
1000c1ec:	ee068ee3          	beqz	a3,1000c0e8 <__adddf3+0x84>
1000c1f0:	02b71063          	bne	a4,a1,1000c210 <__adddf3+0x1ac>
1000c1f4:	00080793          	mv	a5,a6
1000c1f8:	00070413          	mv	s0,a4
1000c1fc:	0e40006f          	j	1000c2e0 <__adddf3+0x27c>
1000c200:	58b88663          	beq	a7,a1,1000c78c <__adddf3+0x728>
1000c204:	008006b7          	lui	a3,0x800
1000c208:	00d7e7b3          	or	a5,a5,a3
1000c20c:	00070693          	mv	a3,a4
1000c210:	03800713          	li	a4,56
1000c214:	06d74c63          	blt	a4,a3,1000c28c <__adddf3+0x228>
1000c218:	01f00713          	li	a4,31
1000c21c:	02000313          	li	t1,32
1000c220:	02d74e63          	blt	a4,a3,1000c25c <__adddf3+0x1f8>
1000c224:	40d30333          	sub	t1,t1,a3
1000c228:	00679733          	sll	a4,a5,t1
1000c22c:	00d555b3          	srl	a1,a0,a3
1000c230:	00651333          	sll	t1,a0,t1
1000c234:	00b76733          	or	a4,a4,a1
1000c238:	00603333          	snez	t1,t1
1000c23c:	00676733          	or	a4,a4,t1
1000c240:	00d7d6b3          	srl	a3,a5,a3
1000c244:	00c70633          	add	a2,a4,a2
1000c248:	010686b3          	add	a3,a3,a6
1000c24c:	00e63733          	sltu	a4,a2,a4
1000c250:	00e687b3          	add	a5,a3,a4
1000c254:	00088413          	mv	s0,a7
1000c258:	f05ff06f          	j	1000c15c <__adddf3+0xf8>
1000c25c:	fe068713          	addi	a4,a3,-32 # 7fffe0 <__heap_size+0x7fefe0>
1000c260:	00e7d733          	srl	a4,a5,a4
1000c264:	00000593          	li	a1,0
1000c268:	00668863          	beq	a3,t1,1000c278 <__adddf3+0x214>
1000c26c:	04000593          	li	a1,64
1000c270:	40d585b3          	sub	a1,a1,a3
1000c274:	00b795b3          	sll	a1,a5,a1
1000c278:	00a5e5b3          	or	a1,a1,a0
1000c27c:	00b035b3          	snez	a1,a1
1000c280:	00b76733          	or	a4,a4,a1
1000c284:	00000693          	li	a3,0
1000c288:	fbdff06f          	j	1000c244 <__adddf3+0x1e0>
1000c28c:	00a7e733          	or	a4,a5,a0
1000c290:	00e03733          	snez	a4,a4
1000c294:	ff1ff06f          	j	1000c284 <__adddf3+0x220>
1000c298:	00140713          	addi	a4,s0,1
1000c29c:	7fe77693          	andi	a3,a4,2046
1000c2a0:	0c069263          	bnez	a3,1000c364 <__adddf3+0x300>
1000c2a4:	00a7e733          	or	a4,a5,a0
1000c2a8:	0a041463          	bnez	s0,1000c350 <__adddf3+0x2ec>
1000c2ac:	4a070863          	beqz	a4,1000c75c <__adddf3+0x6f8>
1000c2b0:	00c86733          	or	a4,a6,a2
1000c2b4:	4a070863          	beqz	a4,1000c764 <__adddf3+0x700>
1000c2b8:	00c50633          	add	a2,a0,a2
1000c2bc:	010787b3          	add	a5,a5,a6
1000c2c0:	00a63533          	sltu	a0,a2,a0
1000c2c4:	00a787b3          	add	a5,a5,a0
1000c2c8:	00879713          	slli	a4,a5,0x8
1000c2cc:	32075a63          	bgez	a4,1000c600 <__adddf3+0x59c>
1000c2d0:	ff800737          	lui	a4,0xff800
1000c2d4:	fff70713          	addi	a4,a4,-1 # ff7fffff <_sp+0xef7ec2df>
1000c2d8:	00e7f7b3          	and	a5,a5,a4
1000c2dc:	00100413          	li	s0,1
1000c2e0:	01d79713          	slli	a4,a5,0x1d
1000c2e4:	00365613          	srli	a2,a2,0x3
1000c2e8:	7ff00693          	li	a3,2047
1000c2ec:	00c76733          	or	a4,a4,a2
1000c2f0:	0037d793          	srli	a5,a5,0x3
1000c2f4:	00d41e63          	bne	s0,a3,1000c310 <__adddf3+0x2ac>
1000c2f8:	00f76733          	or	a4,a4,a5
1000c2fc:	00000793          	li	a5,0
1000c300:	00070863          	beqz	a4,1000c310 <__adddf3+0x2ac>
1000c304:	000807b7          	lui	a5,0x80
1000c308:	00000713          	li	a4,0
1000c30c:	00000913          	li	s2,0
1000c310:	7ff47413          	andi	s0,s0,2047
1000c314:	00c79793          	slli	a5,a5,0xc
1000c318:	00c7d793          	srli	a5,a5,0xc
1000c31c:	01441413          	slli	s0,s0,0x14
1000c320:	01f91593          	slli	a1,s2,0x1f
1000c324:	00f46433          	or	s0,s0,a5
1000c328:	01c12083          	lw	ra,28(sp)
1000c32c:	00b467b3          	or	a5,s0,a1
1000c330:	01812403          	lw	s0,24(sp)
1000c334:	01412483          	lw	s1,20(sp)
1000c338:	01012903          	lw	s2,16(sp)
1000c33c:	00c12983          	lw	s3,12(sp)
1000c340:	00070513          	mv	a0,a4
1000c344:	00078593          	mv	a1,a5
1000c348:	02010113          	addi	sp,sp,32
1000c34c:	00008067          	ret
1000c350:	40070e63          	beqz	a4,1000c76c <__adddf3+0x708>
1000c354:	00c86833          	or	a6,a6,a2
1000c358:	2c081c63          	bnez	a6,1000c630 <__adddf3+0x5cc>
1000c35c:	00050613          	mv	a2,a0
1000c360:	4100006f          	j	1000c770 <__adddf3+0x70c>
1000c364:	40b70a63          	beq	a4,a1,1000c778 <__adddf3+0x714>
1000c368:	00c50633          	add	a2,a0,a2
1000c36c:	00a63533          	sltu	a0,a2,a0
1000c370:	010787b3          	add	a5,a5,a6
1000c374:	00a787b3          	add	a5,a5,a0
1000c378:	01f79693          	slli	a3,a5,0x1f
1000c37c:	00165613          	srli	a2,a2,0x1
1000c380:	00c6e633          	or	a2,a3,a2
1000c384:	0017d793          	srli	a5,a5,0x1
1000c388:	00070413          	mv	s0,a4
1000c38c:	00767713          	andi	a4,a2,7
1000c390:	02070063          	beqz	a4,1000c3b0 <__adddf3+0x34c>
1000c394:	00f67713          	andi	a4,a2,15
1000c398:	00400693          	li	a3,4
1000c39c:	00d70a63          	beq	a4,a3,1000c3b0 <__adddf3+0x34c>
1000c3a0:	00d60733          	add	a4,a2,a3
1000c3a4:	00c736b3          	sltu	a3,a4,a2
1000c3a8:	00d787b3          	add	a5,a5,a3
1000c3ac:	00070613          	mv	a2,a4
1000c3b0:	00879713          	slli	a4,a5,0x8
1000c3b4:	f20756e3          	bgez	a4,1000c2e0 <__adddf3+0x27c>
1000c3b8:	00140413          	addi	s0,s0,1
1000c3bc:	7ff00713          	li	a4,2047
1000c3c0:	3ae40e63          	beq	s0,a4,1000c77c <__adddf3+0x718>
1000c3c4:	ff800737          	lui	a4,0xff800
1000c3c8:	fff70713          	addi	a4,a4,-1 # ff7fffff <_sp+0xef7ec2df>
1000c3cc:	00e7f7b3          	and	a5,a5,a4
1000c3d0:	f11ff06f          	j	1000c2e0 <__adddf3+0x27c>
1000c3d4:	0ee05063          	blez	a4,1000c4b4 <__adddf3+0x450>
1000c3d8:	08089863          	bnez	a7,1000c468 <__adddf3+0x404>
1000c3dc:	00c86733          	or	a4,a6,a2
1000c3e0:	d20702e3          	beqz	a4,1000c104 <__adddf3+0xa0>
1000c3e4:	fff40713          	addi	a4,s0,-1
1000c3e8:	00071e63          	bnez	a4,1000c404 <__adddf3+0x3a0>
1000c3ec:	40c50633          	sub	a2,a0,a2
1000c3f0:	410787b3          	sub	a5,a5,a6
1000c3f4:	00c53533          	sltu	a0,a0,a2
1000c3f8:	40a787b3          	sub	a5,a5,a0
1000c3fc:	00100413          	li	s0,1
1000c400:	04c0006f          	j	1000c44c <__adddf3+0x3e8>
1000c404:	d0b400e3          	beq	s0,a1,1000c104 <__adddf3+0xa0>
1000c408:	03800693          	li	a3,56
1000c40c:	08e6ce63          	blt	a3,a4,1000c4a8 <__adddf3+0x444>
1000c410:	01f00693          	li	a3,31
1000c414:	02000893          	li	a7,32
1000c418:	06e6c063          	blt	a3,a4,1000c478 <__adddf3+0x414>
1000c41c:	40e888b3          	sub	a7,a7,a4
1000c420:	011816b3          	sll	a3,a6,a7
1000c424:	00e655b3          	srl	a1,a2,a4
1000c428:	011618b3          	sll	a7,a2,a7
1000c42c:	00b6e6b3          	or	a3,a3,a1
1000c430:	011038b3          	snez	a7,a7
1000c434:	0116e6b3          	or	a3,a3,a7
1000c438:	00e85733          	srl	a4,a6,a4
1000c43c:	40d50633          	sub	a2,a0,a3
1000c440:	40e78733          	sub	a4,a5,a4
1000c444:	00c53533          	sltu	a0,a0,a2
1000c448:	40a707b3          	sub	a5,a4,a0
1000c44c:	00879713          	slli	a4,a5,0x8
1000c450:	f2075ee3          	bgez	a4,1000c38c <__adddf3+0x328>
1000c454:	008004b7          	lui	s1,0x800
1000c458:	fff48493          	addi	s1,s1,-1 # 7fffff <__heap_size+0x7fefff>
1000c45c:	0097f4b3          	and	s1,a5,s1
1000c460:	00060993          	mv	s3,a2
1000c464:	2140006f          	j	1000c678 <__adddf3+0x614>
1000c468:	c8b40ee3          	beq	s0,a1,1000c104 <__adddf3+0xa0>
1000c46c:	008006b7          	lui	a3,0x800
1000c470:	00d86833          	or	a6,a6,a3
1000c474:	f95ff06f          	j	1000c408 <__adddf3+0x3a4>
1000c478:	fe070693          	addi	a3,a4,-32
1000c47c:	00d856b3          	srl	a3,a6,a3
1000c480:	00000593          	li	a1,0
1000c484:	01170863          	beq	a4,a7,1000c494 <__adddf3+0x430>
1000c488:	04000593          	li	a1,64
1000c48c:	40e585b3          	sub	a1,a1,a4
1000c490:	00b815b3          	sll	a1,a6,a1
1000c494:	00c5e5b3          	or	a1,a1,a2
1000c498:	00b035b3          	snez	a1,a1
1000c49c:	00b6e6b3          	or	a3,a3,a1
1000c4a0:	00000713          	li	a4,0
1000c4a4:	f99ff06f          	j	1000c43c <__adddf3+0x3d8>
1000c4a8:	00c866b3          	or	a3,a6,a2
1000c4ac:	00d036b3          	snez	a3,a3
1000c4b0:	ff1ff06f          	j	1000c4a0 <__adddf3+0x43c>
1000c4b4:	0e070663          	beqz	a4,1000c5a0 <__adddf3+0x53c>
1000c4b8:	40888333          	sub	t1,a7,s0
1000c4bc:	04041263          	bnez	s0,1000c500 <__adddf3+0x49c>
1000c4c0:	00a7e733          	or	a4,a5,a0
1000c4c4:	02070663          	beqz	a4,1000c4f0 <__adddf3+0x48c>
1000c4c8:	fff30713          	addi	a4,t1,-1
1000c4cc:	02071063          	bnez	a4,1000c4ec <__adddf3+0x488>
1000c4d0:	40a60533          	sub	a0,a2,a0
1000c4d4:	00a63733          	sltu	a4,a2,a0
1000c4d8:	40f807b3          	sub	a5,a6,a5
1000c4dc:	00050613          	mv	a2,a0
1000c4e0:	40e787b3          	sub	a5,a5,a4
1000c4e4:	00068913          	mv	s2,a3
1000c4e8:	f15ff06f          	j	1000c3fc <__adddf3+0x398>
1000c4ec:	02b31263          	bne	t1,a1,1000c510 <__adddf3+0x4ac>
1000c4f0:	00068913          	mv	s2,a3
1000c4f4:	00080793          	mv	a5,a6
1000c4f8:	00030413          	mv	s0,t1
1000c4fc:	de5ff06f          	j	1000c2e0 <__adddf3+0x27c>
1000c500:	28b88463          	beq	a7,a1,1000c788 <__adddf3+0x724>
1000c504:	00800737          	lui	a4,0x800
1000c508:	00e7e7b3          	or	a5,a5,a4
1000c50c:	00030713          	mv	a4,t1
1000c510:	03800593          	li	a1,56
1000c514:	08e5c063          	blt	a1,a4,1000c594 <__adddf3+0x530>
1000c518:	01f00593          	li	a1,31
1000c51c:	02000e13          	li	t3,32
1000c520:	04e5c263          	blt	a1,a4,1000c564 <__adddf3+0x500>
1000c524:	40ee0e33          	sub	t3,t3,a4
1000c528:	01c795b3          	sll	a1,a5,t3
1000c52c:	00e55333          	srl	t1,a0,a4
1000c530:	01c51e33          	sll	t3,a0,t3
1000c534:	0065e5b3          	or	a1,a1,t1
1000c538:	01c03e33          	snez	t3,t3
1000c53c:	01c5e5b3          	or	a1,a1,t3
1000c540:	00e7d733          	srl	a4,a5,a4
1000c544:	40b605b3          	sub	a1,a2,a1
1000c548:	00b637b3          	sltu	a5,a2,a1
1000c54c:	40e80733          	sub	a4,a6,a4
1000c550:	00058613          	mv	a2,a1
1000c554:	40f707b3          	sub	a5,a4,a5
1000c558:	00088413          	mv	s0,a7
1000c55c:	00068913          	mv	s2,a3
1000c560:	eedff06f          	j	1000c44c <__adddf3+0x3e8>
1000c564:	fe070593          	addi	a1,a4,-32 # 7fffe0 <__heap_size+0x7fefe0>
1000c568:	00b7d5b3          	srl	a1,a5,a1
1000c56c:	00000313          	li	t1,0
1000c570:	01c70863          	beq	a4,t3,1000c580 <__adddf3+0x51c>
1000c574:	04000313          	li	t1,64
1000c578:	40e30333          	sub	t1,t1,a4
1000c57c:	00679333          	sll	t1,a5,t1
1000c580:	00a36333          	or	t1,t1,a0
1000c584:	00603333          	snez	t1,t1
1000c588:	0065e5b3          	or	a1,a1,t1
1000c58c:	00000713          	li	a4,0
1000c590:	fb5ff06f          	j	1000c544 <__adddf3+0x4e0>
1000c594:	00a7e5b3          	or	a1,a5,a0
1000c598:	00b035b3          	snez	a1,a1
1000c59c:	ff1ff06f          	j	1000c58c <__adddf3+0x528>
1000c5a0:	00140713          	addi	a4,s0,1
1000c5a4:	7fe77713          	andi	a4,a4,2046
1000c5a8:	0a071063          	bnez	a4,1000c648 <__adddf3+0x5e4>
1000c5ac:	00a7e8b3          	or	a7,a5,a0
1000c5b0:	00c86733          	or	a4,a6,a2
1000c5b4:	06041863          	bnez	s0,1000c624 <__adddf3+0x5c0>
1000c5b8:	00089a63          	bnez	a7,1000c5cc <__adddf3+0x568>
1000c5bc:	00080793          	mv	a5,a6
1000c5c0:	02071e63          	bnez	a4,1000c5fc <__adddf3+0x598>
1000c5c4:	00000913          	li	s2,0
1000c5c8:	1b40006f          	j	1000c77c <__adddf3+0x718>
1000c5cc:	18070c63          	beqz	a4,1000c764 <__adddf3+0x700>
1000c5d0:	40c505b3          	sub	a1,a0,a2
1000c5d4:	00b538b3          	sltu	a7,a0,a1
1000c5d8:	41078733          	sub	a4,a5,a6
1000c5dc:	41170733          	sub	a4,a4,a7
1000c5e0:	00871893          	slli	a7,a4,0x8
1000c5e4:	0208d663          	bgez	a7,1000c610 <__adddf3+0x5ac>
1000c5e8:	40a60533          	sub	a0,a2,a0
1000c5ec:	00a63733          	sltu	a4,a2,a0
1000c5f0:	40f807b3          	sub	a5,a6,a5
1000c5f4:	00050613          	mv	a2,a0
1000c5f8:	40e787b3          	sub	a5,a5,a4
1000c5fc:	00068913          	mv	s2,a3
1000c600:	00f66733          	or	a4,a2,a5
1000c604:	1a070063          	beqz	a4,1000c7a4 <__adddf3+0x740>
1000c608:	00000413          	li	s0,0
1000c60c:	d81ff06f          	j	1000c38c <__adddf3+0x328>
1000c610:	00e5e633          	or	a2,a1,a4
1000c614:	18060263          	beqz	a2,1000c798 <__adddf3+0x734>
1000c618:	00070793          	mv	a5,a4
1000c61c:	00058613          	mv	a2,a1
1000c620:	fe1ff06f          	j	1000c600 <__adddf3+0x59c>
1000c624:	00089e63          	bnez	a7,1000c640 <__adddf3+0x5dc>
1000c628:	00068913          	mv	s2,a3
1000c62c:	14071063          	bnez	a4,1000c76c <__adddf3+0x708>
1000c630:	00000913          	li	s2,0
1000c634:	004007b7          	lui	a5,0x400
1000c638:	00000613          	li	a2,0
1000c63c:	1340006f          	j	1000c770 <__adddf3+0x70c>
1000c640:	d0070ee3          	beqz	a4,1000c35c <__adddf3+0x2f8>
1000c644:	fedff06f          	j	1000c630 <__adddf3+0x5cc>
1000c648:	40c50733          	sub	a4,a0,a2
1000c64c:	00e535b3          	sltu	a1,a0,a4
1000c650:	410784b3          	sub	s1,a5,a6
1000c654:	40b484b3          	sub	s1,s1,a1
1000c658:	00849593          	slli	a1,s1,0x8
1000c65c:	00070993          	mv	s3,a4
1000c660:	0605de63          	bgez	a1,1000c6dc <__adddf3+0x678>
1000c664:	40a609b3          	sub	s3,a2,a0
1000c668:	40f804b3          	sub	s1,a6,a5
1000c66c:	01363633          	sltu	a2,a2,s3
1000c670:	40c484b3          	sub	s1,s1,a2
1000c674:	00068913          	mv	s2,a3
1000c678:	06048e63          	beqz	s1,1000c6f4 <__adddf3+0x690>
1000c67c:	00048513          	mv	a0,s1
1000c680:	2f4040ef          	jal	10010974 <__clzsi2>
1000c684:	ff850713          	addi	a4,a0,-8
1000c688:	02000793          	li	a5,32
1000c68c:	40e787b3          	sub	a5,a5,a4
1000c690:	00e494b3          	sll	s1,s1,a4
1000c694:	00f9d7b3          	srl	a5,s3,a5
1000c698:	0097e7b3          	or	a5,a5,s1
1000c69c:	00e99633          	sll	a2,s3,a4
1000c6a0:	0a874463          	blt	a4,s0,1000c748 <__adddf3+0x6e4>
1000c6a4:	40870733          	sub	a4,a4,s0
1000c6a8:	00170513          	addi	a0,a4,1
1000c6ac:	01f00693          	li	a3,31
1000c6b0:	02000593          	li	a1,32
1000c6b4:	06a6c263          	blt	a3,a0,1000c718 <__adddf3+0x6b4>
1000c6b8:	40a585b3          	sub	a1,a1,a0
1000c6bc:	00b79733          	sll	a4,a5,a1
1000c6c0:	00a656b3          	srl	a3,a2,a0
1000c6c4:	00b615b3          	sll	a1,a2,a1
1000c6c8:	00d76733          	or	a4,a4,a3
1000c6cc:	00b035b3          	snez	a1,a1
1000c6d0:	00b76633          	or	a2,a4,a1
1000c6d4:	00a7d7b3          	srl	a5,a5,a0
1000c6d8:	f29ff06f          	j	1000c600 <__adddf3+0x59c>
1000c6dc:	00976633          	or	a2,a4,s1
1000c6e0:	f8061ce3          	bnez	a2,1000c678 <__adddf3+0x614>
1000c6e4:	00000913          	li	s2,0
1000c6e8:	00000793          	li	a5,0
1000c6ec:	00000413          	li	s0,0
1000c6f0:	bf1ff06f          	j	1000c2e0 <__adddf3+0x27c>
1000c6f4:	00098513          	mv	a0,s3
1000c6f8:	27c040ef          	jal	10010974 <__clzsi2>
1000c6fc:	01850713          	addi	a4,a0,24
1000c700:	01f00793          	li	a5,31
1000c704:	f8e7d2e3          	bge	a5,a4,1000c688 <__adddf3+0x624>
1000c708:	ff850793          	addi	a5,a0,-8
1000c70c:	00f997b3          	sll	a5,s3,a5
1000c710:	00000613          	li	a2,0
1000c714:	f8dff06f          	j	1000c6a0 <__adddf3+0x63c>
1000c718:	fe170713          	addi	a4,a4,-31
1000c71c:	00e7d733          	srl	a4,a5,a4
1000c720:	00000693          	li	a3,0
1000c724:	00b50863          	beq	a0,a1,1000c734 <__adddf3+0x6d0>
1000c728:	04000693          	li	a3,64
1000c72c:	40a686b3          	sub	a3,a3,a0
1000c730:	00d796b3          	sll	a3,a5,a3
1000c734:	00d666b3          	or	a3,a2,a3
1000c738:	00d036b3          	snez	a3,a3
1000c73c:	00d76633          	or	a2,a4,a3
1000c740:	00000793          	li	a5,0
1000c744:	ebdff06f          	j	1000c600 <__adddf3+0x59c>
1000c748:	40e40433          	sub	s0,s0,a4
1000c74c:	ff800737          	lui	a4,0xff800
1000c750:	fff70713          	addi	a4,a4,-1 # ff7fffff <_sp+0xef7ec2df>
1000c754:	00e7f7b3          	and	a5,a5,a4
1000c758:	c35ff06f          	j	1000c38c <__adddf3+0x328>
1000c75c:	00080793          	mv	a5,a6
1000c760:	ea1ff06f          	j	1000c600 <__adddf3+0x59c>
1000c764:	00050613          	mv	a2,a0
1000c768:	e99ff06f          	j	1000c600 <__adddf3+0x59c>
1000c76c:	00080793          	mv	a5,a6
1000c770:	00058413          	mv	s0,a1
1000c774:	b6dff06f          	j	1000c2e0 <__adddf3+0x27c>
1000c778:	00070413          	mv	s0,a4
1000c77c:	00000793          	li	a5,0
1000c780:	00000613          	li	a2,0
1000c784:	b5dff06f          	j	1000c2e0 <__adddf3+0x27c>
1000c788:	00068913          	mv	s2,a3
1000c78c:	00080793          	mv	a5,a6
1000c790:	00088413          	mv	s0,a7
1000c794:	b4dff06f          	j	1000c2e0 <__adddf3+0x27c>
1000c798:	00000913          	li	s2,0
1000c79c:	00000793          	li	a5,0
1000c7a0:	b41ff06f          	j	1000c2e0 <__adddf3+0x27c>
1000c7a4:	00000793          	li	a5,0
1000c7a8:	00000613          	li	a2,0
1000c7ac:	f41ff06f          	j	1000c6ec <__adddf3+0x688>

1000c7b0 <__divdf3>:
1000c7b0:	fd010113          	addi	sp,sp,-48
1000c7b4:	0145d713          	srli	a4,a1,0x14
1000c7b8:	02812423          	sw	s0,40(sp)
1000c7bc:	03212023          	sw	s2,32(sp)
1000c7c0:	01312e23          	sw	s3,28(sp)
1000c7c4:	01512a23          	sw	s5,20(sp)
1000c7c8:	01712623          	sw	s7,12(sp)
1000c7cc:	00c59413          	slli	s0,a1,0xc
1000c7d0:	02112623          	sw	ra,44(sp)
1000c7d4:	02912223          	sw	s1,36(sp)
1000c7d8:	01412c23          	sw	s4,24(sp)
1000c7dc:	01612823          	sw	s6,16(sp)
1000c7e0:	7ff77713          	andi	a4,a4,2047
1000c7e4:	00050993          	mv	s3,a0
1000c7e8:	00060b93          	mv	s7,a2
1000c7ec:	00068a93          	mv	s5,a3
1000c7f0:	00c45413          	srli	s0,s0,0xc
1000c7f4:	01f5d913          	srli	s2,a1,0x1f
1000c7f8:	0a070063          	beqz	a4,1000c898 <__divdf3+0xe8>
1000c7fc:	7ff00793          	li	a5,2047
1000c800:	10f70063          	beq	a4,a5,1000c900 <__divdf3+0x150>
1000c804:	01d55a13          	srli	s4,a0,0x1d
1000c808:	00341413          	slli	s0,s0,0x3
1000c80c:	008a6a33          	or	s4,s4,s0
1000c810:	008007b7          	lui	a5,0x800
1000c814:	00fa6a33          	or	s4,s4,a5
1000c818:	00351493          	slli	s1,a0,0x3
1000c81c:	c0170993          	addi	s3,a4,-1023
1000c820:	00000b13          	li	s6,0
1000c824:	014ad793          	srli	a5,s5,0x14
1000c828:	00ca9413          	slli	s0,s5,0xc
1000c82c:	7ff7f793          	andi	a5,a5,2047
1000c830:	00c45413          	srli	s0,s0,0xc
1000c834:	01fada93          	srli	s5,s5,0x1f
1000c838:	10078263          	beqz	a5,1000c93c <__divdf3+0x18c>
1000c83c:	7ff00693          	li	a3,2047
1000c840:	16d78663          	beq	a5,a3,1000c9ac <__divdf3+0x1fc>
1000c844:	00341413          	slli	s0,s0,0x3
1000c848:	01dbd693          	srli	a3,s7,0x1d
1000c84c:	0086e6b3          	or	a3,a3,s0
1000c850:	00800437          	lui	s0,0x800
1000c854:	0086e433          	or	s0,a3,s0
1000c858:	003b9f13          	slli	t5,s7,0x3
1000c85c:	c0178793          	addi	a5,a5,-1023 # 7ffc01 <__heap_size+0x7fec01>
1000c860:	00000693          	li	a3,0
1000c864:	40f98733          	sub	a4,s3,a5
1000c868:	002b1793          	slli	a5,s6,0x2
1000c86c:	00d7e7b3          	or	a5,a5,a3
1000c870:	fff78793          	addi	a5,a5,-1
1000c874:	00e00613          	li	a2,14
1000c878:	01594833          	xor	a6,s2,s5
1000c87c:	16f66063          	bltu	a2,a5,1000c9dc <__divdf3+0x22c>
1000c880:	10011637          	lui	a2,0x10011
1000c884:	00279793          	slli	a5,a5,0x2
1000c888:	19860613          	addi	a2,a2,408 # 10011198 <blanks.1+0x10>
1000c88c:	00c787b3          	add	a5,a5,a2
1000c890:	0007a783          	lw	a5,0(a5)
1000c894:	00078067          	jr	a5
1000c898:	00a46a33          	or	s4,s0,a0
1000c89c:	060a0e63          	beqz	s4,1000c918 <__divdf3+0x168>
1000c8a0:	04040063          	beqz	s0,1000c8e0 <__divdf3+0x130>
1000c8a4:	00040513          	mv	a0,s0
1000c8a8:	0cc040ef          	jal	10010974 <__clzsi2>
1000c8ac:	00050793          	mv	a5,a0
1000c8b0:	ff550713          	addi	a4,a0,-11
1000c8b4:	01d00a13          	li	s4,29
1000c8b8:	ff878693          	addi	a3,a5,-8
1000c8bc:	40ea0a33          	sub	s4,s4,a4
1000c8c0:	00d41433          	sll	s0,s0,a3
1000c8c4:	0149da33          	srl	s4,s3,s4
1000c8c8:	008a6a33          	or	s4,s4,s0
1000c8cc:	00d99433          	sll	s0,s3,a3
1000c8d0:	c0d00713          	li	a4,-1011
1000c8d4:	40f709b3          	sub	s3,a4,a5
1000c8d8:	00040493          	mv	s1,s0
1000c8dc:	f45ff06f          	j	1000c820 <__divdf3+0x70>
1000c8e0:	094040ef          	jal	10010974 <__clzsi2>
1000c8e4:	01550713          	addi	a4,a0,21
1000c8e8:	01c00693          	li	a3,28
1000c8ec:	02050793          	addi	a5,a0,32
1000c8f0:	fce6d2e3          	bge	a3,a4,1000c8b4 <__divdf3+0x104>
1000c8f4:	ff850513          	addi	a0,a0,-8
1000c8f8:	00a99a33          	sll	s4,s3,a0
1000c8fc:	fd5ff06f          	j	1000c8d0 <__divdf3+0x120>
1000c900:	00a46a33          	or	s4,s0,a0
1000c904:	020a1263          	bnez	s4,1000c928 <__divdf3+0x178>
1000c908:	00000493          	li	s1,0
1000c90c:	00070993          	mv	s3,a4
1000c910:	00200b13          	li	s6,2
1000c914:	f11ff06f          	j	1000c824 <__divdf3+0x74>
1000c918:	00000493          	li	s1,0
1000c91c:	00000993          	li	s3,0
1000c920:	00100b13          	li	s6,1
1000c924:	f01ff06f          	j	1000c824 <__divdf3+0x74>
1000c928:	00050493          	mv	s1,a0
1000c92c:	00040a13          	mv	s4,s0
1000c930:	00070993          	mv	s3,a4
1000c934:	00300b13          	li	s6,3
1000c938:	eedff06f          	j	1000c824 <__divdf3+0x74>
1000c93c:	01746f33          	or	t5,s0,s7
1000c940:	080f0063          	beqz	t5,1000c9c0 <__divdf3+0x210>
1000c944:	04040263          	beqz	s0,1000c988 <__divdf3+0x1d8>
1000c948:	00040513          	mv	a0,s0
1000c94c:	028040ef          	jal	10010974 <__clzsi2>
1000c950:	00050693          	mv	a3,a0
1000c954:	ff550793          	addi	a5,a0,-11
1000c958:	01d00593          	li	a1,29
1000c95c:	ff868613          	addi	a2,a3,-8 # 7ffff8 <__heap_size+0x7feff8>
1000c960:	40f585b3          	sub	a1,a1,a5
1000c964:	00c41433          	sll	s0,s0,a2
1000c968:	00bbd5b3          	srl	a1,s7,a1
1000c96c:	0085e5b3          	or	a1,a1,s0
1000c970:	00cb9433          	sll	s0,s7,a2
1000c974:	c0d00793          	li	a5,-1011
1000c978:	00040f13          	mv	t5,s0
1000c97c:	40d787b3          	sub	a5,a5,a3
1000c980:	00058413          	mv	s0,a1
1000c984:	eddff06f          	j	1000c860 <__divdf3+0xb0>
1000c988:	000b8513          	mv	a0,s7
1000c98c:	7e9030ef          	jal	10010974 <__clzsi2>
1000c990:	01550793          	addi	a5,a0,21
1000c994:	01c00613          	li	a2,28
1000c998:	02050693          	addi	a3,a0,32
1000c99c:	faf65ee3          	bge	a2,a5,1000c958 <__divdf3+0x1a8>
1000c9a0:	ff850593          	addi	a1,a0,-8
1000c9a4:	00bb95b3          	sll	a1,s7,a1
1000c9a8:	fcdff06f          	j	1000c974 <__divdf3+0x1c4>
1000c9ac:	01746f33          	or	t5,s0,s7
1000c9b0:	020f1063          	bnez	t5,1000c9d0 <__divdf3+0x220>
1000c9b4:	00000413          	li	s0,0
1000c9b8:	00200693          	li	a3,2
1000c9bc:	ea9ff06f          	j	1000c864 <__divdf3+0xb4>
1000c9c0:	00000413          	li	s0,0
1000c9c4:	00000793          	li	a5,0
1000c9c8:	00100693          	li	a3,1
1000c9cc:	e99ff06f          	j	1000c864 <__divdf3+0xb4>
1000c9d0:	000b8f13          	mv	t5,s7
1000c9d4:	00300693          	li	a3,3
1000c9d8:	e8dff06f          	j	1000c864 <__divdf3+0xb4>
1000c9dc:	01446663          	bltu	s0,s4,1000c9e8 <__divdf3+0x238>
1000c9e0:	308a1863          	bne	s4,s0,1000ccf0 <__divdf3+0x540>
1000c9e4:	31e4e663          	bltu	s1,t5,1000ccf0 <__divdf3+0x540>
1000c9e8:	01fa1693          	slli	a3,s4,0x1f
1000c9ec:	0014d793          	srli	a5,s1,0x1
1000c9f0:	01f49613          	slli	a2,s1,0x1f
1000c9f4:	001a5a13          	srli	s4,s4,0x1
1000c9f8:	00f6e4b3          	or	s1,a3,a5
1000c9fc:	00841893          	slli	a7,s0,0x8
1000ca00:	018f5693          	srli	a3,t5,0x18
1000ca04:	0116e6b3          	or	a3,a3,a7
1000ca08:	0108d893          	srli	a7,a7,0x10
1000ca0c:	031a55b3          	divu	a1,s4,a7
1000ca10:	01069e93          	slli	t4,a3,0x10
1000ca14:	010ede93          	srli	t4,t4,0x10
1000ca18:	0104d793          	srli	a5,s1,0x10
1000ca1c:	008f1513          	slli	a0,t5,0x8
1000ca20:	031a7a33          	remu	s4,s4,a7
1000ca24:	02be8333          	mul	t1,t4,a1
1000ca28:	010a1a13          	slli	s4,s4,0x10
1000ca2c:	0147e7b3          	or	a5,a5,s4
1000ca30:	0067fa63          	bgeu	a5,t1,1000ca44 <__divdf3+0x294>
1000ca34:	00f687b3          	add	a5,a3,a5
1000ca38:	00d7e463          	bltu	a5,a3,1000ca40 <__divdf3+0x290>
1000ca3c:	2c67e063          	bltu	a5,t1,1000ccfc <__divdf3+0x54c>
1000ca40:	fff58593          	addi	a1,a1,-1
1000ca44:	406787b3          	sub	a5,a5,t1
1000ca48:	0317d333          	divu	t1,a5,a7
1000ca4c:	01049493          	slli	s1,s1,0x10
1000ca50:	0104d493          	srli	s1,s1,0x10
1000ca54:	0317f7b3          	remu	a5,a5,a7
1000ca58:	026e8e33          	mul	t3,t4,t1
1000ca5c:	01079793          	slli	a5,a5,0x10
1000ca60:	00f4e4b3          	or	s1,s1,a5
1000ca64:	01c4fa63          	bgeu	s1,t3,1000ca78 <__divdf3+0x2c8>
1000ca68:	009684b3          	add	s1,a3,s1
1000ca6c:	01c4f463          	bgeu	s1,t3,1000ca74 <__divdf3+0x2c4>
1000ca70:	28d4fc63          	bgeu	s1,a3,1000cd08 <__divdf3+0x558>
1000ca74:	fff30313          	addi	t1,t1,-1
1000ca78:	01059593          	slli	a1,a1,0x10
1000ca7c:	0065e5b3          	or	a1,a1,t1
1000ca80:	41c484b3          	sub	s1,s1,t3
1000ca84:	01059793          	slli	a5,a1,0x10
1000ca88:	01051e13          	slli	t3,a0,0x10
1000ca8c:	0105df93          	srli	t6,a1,0x10
1000ca90:	01055313          	srli	t1,a0,0x10
1000ca94:	0107d793          	srli	a5,a5,0x10
1000ca98:	010e5e13          	srli	t3,t3,0x10
1000ca9c:	03c782b3          	mul	t0,a5,t3
1000caa0:	03cf83b3          	mul	t2,t6,t3
1000caa4:	02f307b3          	mul	a5,t1,a5
1000caa8:	00778f33          	add	t5,a5,t2
1000caac:	0102d793          	srli	a5,t0,0x10
1000cab0:	01e787b3          	add	a5,a5,t5
1000cab4:	026f8fb3          	mul	t6,t6,t1
1000cab8:	0077f663          	bgeu	a5,t2,1000cac4 <__divdf3+0x314>
1000cabc:	00010f37          	lui	t5,0x10
1000cac0:	01ef8fb3          	add	t6,t6,t5
1000cac4:	0107df13          	srli	t5,a5,0x10
1000cac8:	01029293          	slli	t0,t0,0x10
1000cacc:	01079793          	slli	a5,a5,0x10
1000cad0:	0102d293          	srli	t0,t0,0x10
1000cad4:	01ff0f33          	add	t5,t5,t6
1000cad8:	005787b3          	add	a5,a5,t0
1000cadc:	01e4e663          	bltu	s1,t5,1000cae8 <__divdf3+0x338>
1000cae0:	23e49a63          	bne	s1,t5,1000cd14 <__divdf3+0x564>
1000cae4:	22f67863          	bgeu	a2,a5,1000cd14 <__divdf3+0x564>
1000cae8:	00a60fb3          	add	t6,a2,a0
1000caec:	00cfb2b3          	sltu	t0,t6,a2
1000caf0:	00d283b3          	add	t2,t0,a3
1000caf4:	007484b3          	add	s1,s1,t2
1000caf8:	fff58413          	addi	s0,a1,-1
1000cafc:	000f8613          	mv	a2,t6
1000cb00:	0096e663          	bltu	a3,s1,1000cb0c <__divdf3+0x35c>
1000cb04:	02029463          	bnez	t0,1000cb2c <__divdf3+0x37c>
1000cb08:	02969263          	bne	a3,s1,1000cb2c <__divdf3+0x37c>
1000cb0c:	01e4e663          	bltu	s1,t5,1000cb18 <__divdf3+0x368>
1000cb10:	009f1e63          	bne	t5,s1,1000cb2c <__divdf3+0x37c>
1000cb14:	00fffc63          	bgeu	t6,a5,1000cb2c <__divdf3+0x37c>
1000cb18:	01f50633          	add	a2,a0,t6
1000cb1c:	ffe58413          	addi	s0,a1,-2
1000cb20:	00a635b3          	sltu	a1,a2,a0
1000cb24:	00d585b3          	add	a1,a1,a3
1000cb28:	00b484b3          	add	s1,s1,a1
1000cb2c:	40f607b3          	sub	a5,a2,a5
1000cb30:	41e484b3          	sub	s1,s1,t5
1000cb34:	00f63633          	sltu	a2,a2,a5
1000cb38:	40c484b3          	sub	s1,s1,a2
1000cb3c:	fff00f13          	li	t5,-1
1000cb40:	10968663          	beq	a3,s1,1000cc4c <__divdf3+0x49c>
1000cb44:	0314d5b3          	divu	a1,s1,a7
1000cb48:	0107d613          	srli	a2,a5,0x10
1000cb4c:	0314f4b3          	remu	s1,s1,a7
1000cb50:	02be8f33          	mul	t5,t4,a1
1000cb54:	01049493          	slli	s1,s1,0x10
1000cb58:	00966633          	or	a2,a2,s1
1000cb5c:	01e67a63          	bgeu	a2,t5,1000cb70 <__divdf3+0x3c0>
1000cb60:	00c68633          	add	a2,a3,a2
1000cb64:	00d66463          	bltu	a2,a3,1000cb6c <__divdf3+0x3bc>
1000cb68:	1be66a63          	bltu	a2,t5,1000cd1c <__divdf3+0x56c>
1000cb6c:	fff58593          	addi	a1,a1,-1
1000cb70:	41e60633          	sub	a2,a2,t5
1000cb74:	03165f33          	divu	t5,a2,a7
1000cb78:	01079793          	slli	a5,a5,0x10
1000cb7c:	0107d793          	srli	a5,a5,0x10
1000cb80:	03167633          	remu	a2,a2,a7
1000cb84:	03ee8eb3          	mul	t4,t4,t5
1000cb88:	01061613          	slli	a2,a2,0x10
1000cb8c:	00c7e7b3          	or	a5,a5,a2
1000cb90:	01d7fa63          	bgeu	a5,t4,1000cba4 <__divdf3+0x3f4>
1000cb94:	00f687b3          	add	a5,a3,a5
1000cb98:	01d7f463          	bgeu	a5,t4,1000cba0 <__divdf3+0x3f0>
1000cb9c:	18d7f663          	bgeu	a5,a3,1000cd28 <__divdf3+0x578>
1000cba0:	ffff0f13          	addi	t5,t5,-1 # ffff <__heap_size+0xefff>
1000cba4:	01059613          	slli	a2,a1,0x10
1000cba8:	01e66633          	or	a2,a2,t5
1000cbac:	01061593          	slli	a1,a2,0x10
1000cbb0:	0105d593          	srli	a1,a1,0x10
1000cbb4:	41d787b3          	sub	a5,a5,t4
1000cbb8:	01065e93          	srli	t4,a2,0x10
1000cbbc:	02be0f33          	mul	t5,t3,a1
1000cbc0:	03ce8e33          	mul	t3,t4,t3
1000cbc4:	03d30eb3          	mul	t4,t1,t4
1000cbc8:	02b30333          	mul	t1,t1,a1
1000cbcc:	010f5593          	srli	a1,t5,0x10
1000cbd0:	01c30333          	add	t1,t1,t3
1000cbd4:	006585b3          	add	a1,a1,t1
1000cbd8:	01c5f663          	bgeu	a1,t3,1000cbe4 <__divdf3+0x434>
1000cbdc:	000108b7          	lui	a7,0x10
1000cbe0:	011e8eb3          	add	t4,t4,a7
1000cbe4:	0105d893          	srli	a7,a1,0x10
1000cbe8:	010f1f13          	slli	t5,t5,0x10
1000cbec:	01059593          	slli	a1,a1,0x10
1000cbf0:	010f5f13          	srli	t5,t5,0x10
1000cbf4:	01d888b3          	add	a7,a7,t4
1000cbf8:	01e585b3          	add	a1,a1,t5
1000cbfc:	0117e663          	bltu	a5,a7,1000cc08 <__divdf3+0x458>
1000cc00:	05179463          	bne	a5,a7,1000cc48 <__divdf3+0x498>
1000cc04:	12058863          	beqz	a1,1000cd34 <__divdf3+0x584>
1000cc08:	00f68333          	add	t1,a3,a5
1000cc0c:	fff60f13          	addi	t5,a2,-1
1000cc10:	00030793          	mv	a5,t1
1000cc14:	02d36463          	bltu	t1,a3,1000cc3c <__divdf3+0x48c>
1000cc18:	01136663          	bltu	t1,a7,1000cc24 <__divdf3+0x474>
1000cc1c:	03131463          	bne	t1,a7,1000cc44 <__divdf3+0x494>
1000cc20:	00b57e63          	bgeu	a0,a1,1000cc3c <__divdf3+0x48c>
1000cc24:	ffe60f13          	addi	t5,a2,-2
1000cc28:	00151613          	slli	a2,a0,0x1
1000cc2c:	00a637b3          	sltu	a5,a2,a0
1000cc30:	00d787b3          	add	a5,a5,a3
1000cc34:	00f307b3          	add	a5,t1,a5
1000cc38:	00060513          	mv	a0,a2
1000cc3c:	00b51463          	bne	a0,a1,1000cc44 <__divdf3+0x494>
1000cc40:	01178663          	beq	a5,a7,1000cc4c <__divdf3+0x49c>
1000cc44:	000f0613          	mv	a2,t5
1000cc48:	00166f13          	ori	t5,a2,1
1000cc4c:	3ff70793          	addi	a5,a4,1023
1000cc50:	12f05663          	blez	a5,1000cd7c <__divdf3+0x5cc>
1000cc54:	007f7693          	andi	a3,t5,7
1000cc58:	02068063          	beqz	a3,1000cc78 <__divdf3+0x4c8>
1000cc5c:	00ff7693          	andi	a3,t5,15
1000cc60:	00400613          	li	a2,4
1000cc64:	00c68a63          	beq	a3,a2,1000cc78 <__divdf3+0x4c8>
1000cc68:	00cf06b3          	add	a3,t5,a2
1000cc6c:	01e6b633          	sltu	a2,a3,t5
1000cc70:	00c40433          	add	s0,s0,a2
1000cc74:	00068f13          	mv	t5,a3
1000cc78:	00741693          	slli	a3,s0,0x7
1000cc7c:	0006da63          	bgez	a3,1000cc90 <__divdf3+0x4e0>
1000cc80:	ff0007b7          	lui	a5,0xff000
1000cc84:	fff78793          	addi	a5,a5,-1 # feffffff <_sp+0xeefec2df>
1000cc88:	00f47433          	and	s0,s0,a5
1000cc8c:	40070793          	addi	a5,a4,1024
1000cc90:	7fe00713          	li	a4,2046
1000cc94:	1af74a63          	blt	a4,a5,1000ce48 <__divdf3+0x698>
1000cc98:	01d41713          	slli	a4,s0,0x1d
1000cc9c:	003f5f13          	srli	t5,t5,0x3
1000cca0:	01e76733          	or	a4,a4,t5
1000cca4:	00345413          	srli	s0,s0,0x3
1000cca8:	00c41413          	slli	s0,s0,0xc
1000ccac:	00c45413          	srli	s0,s0,0xc
1000ccb0:	01479793          	slli	a5,a5,0x14
1000ccb4:	02c12083          	lw	ra,44(sp)
1000ccb8:	0087e7b3          	or	a5,a5,s0
1000ccbc:	02812403          	lw	s0,40(sp)
1000ccc0:	01f81813          	slli	a6,a6,0x1f
1000ccc4:	02412483          	lw	s1,36(sp)
1000ccc8:	02012903          	lw	s2,32(sp)
1000cccc:	01c12983          	lw	s3,28(sp)
1000ccd0:	01812a03          	lw	s4,24(sp)
1000ccd4:	01412a83          	lw	s5,20(sp)
1000ccd8:	01012b03          	lw	s6,16(sp)
1000ccdc:	00c12b83          	lw	s7,12(sp)
1000cce0:	00070513          	mv	a0,a4
1000cce4:	0107e5b3          	or	a1,a5,a6
1000cce8:	03010113          	addi	sp,sp,48
1000ccec:	00008067          	ret
1000ccf0:	fff70713          	addi	a4,a4,-1
1000ccf4:	00000613          	li	a2,0
1000ccf8:	d05ff06f          	j	1000c9fc <__divdf3+0x24c>
1000ccfc:	ffe58593          	addi	a1,a1,-2
1000cd00:	00d787b3          	add	a5,a5,a3
1000cd04:	d41ff06f          	j	1000ca44 <__divdf3+0x294>
1000cd08:	ffe30313          	addi	t1,t1,-2
1000cd0c:	00d484b3          	add	s1,s1,a3
1000cd10:	d69ff06f          	j	1000ca78 <__divdf3+0x2c8>
1000cd14:	00058413          	mv	s0,a1
1000cd18:	e15ff06f          	j	1000cb2c <__divdf3+0x37c>
1000cd1c:	ffe58593          	addi	a1,a1,-2
1000cd20:	00d60633          	add	a2,a2,a3
1000cd24:	e4dff06f          	j	1000cb70 <__divdf3+0x3c0>
1000cd28:	ffef0f13          	addi	t5,t5,-2
1000cd2c:	00d787b3          	add	a5,a5,a3
1000cd30:	e75ff06f          	j	1000cba4 <__divdf3+0x3f4>
1000cd34:	00000513          	li	a0,0
1000cd38:	00060f13          	mv	t5,a2
1000cd3c:	f01ff06f          	j	1000cc3c <__divdf3+0x48c>
1000cd40:	000a8813          	mv	a6,s5
1000cd44:	00068b13          	mv	s6,a3
1000cd48:	00200793          	li	a5,2
1000cd4c:	0efb0e63          	beq	s6,a5,1000ce48 <__divdf3+0x698>
1000cd50:	00300793          	li	a5,3
1000cd54:	0efb0063          	beq	s6,a5,1000ce34 <__divdf3+0x684>
1000cd58:	00100793          	li	a5,1
1000cd5c:	eefb18e3          	bne	s6,a5,1000cc4c <__divdf3+0x49c>
1000cd60:	00000413          	li	s0,0
1000cd64:	00000713          	li	a4,0
1000cd68:	08c0006f          	j	1000cdf4 <__divdf3+0x644>
1000cd6c:	00090813          	mv	a6,s2
1000cd70:	000a0413          	mv	s0,s4
1000cd74:	00048f13          	mv	t5,s1
1000cd78:	fd1ff06f          	j	1000cd48 <__divdf3+0x598>
1000cd7c:	08078063          	beqz	a5,1000cdfc <__divdf3+0x64c>
1000cd80:	fc900693          	li	a3,-55
1000cd84:	fcd7cee3          	blt	a5,a3,1000cd60 <__divdf3+0x5b0>
1000cd88:	fe200693          	li	a3,-30
1000cd8c:	06d7cc63          	blt	a5,a3,1000ce04 <__divdf3+0x654>
1000cd90:	00100693          	li	a3,1
1000cd94:	40f686b3          	sub	a3,a3,a5
1000cd98:	41e70713          	addi	a4,a4,1054
1000cd9c:	00df57b3          	srl	a5,t5,a3
1000cda0:	00ef1f33          	sll	t5,t5,a4
1000cda4:	01e03f33          	snez	t5,t5
1000cda8:	00e41733          	sll	a4,s0,a4
1000cdac:	00ef6f33          	or	t5,t5,a4
1000cdb0:	01e7e7b3          	or	a5,a5,t5
1000cdb4:	00d45433          	srl	s0,s0,a3
1000cdb8:	0077f713          	andi	a4,a5,7
1000cdbc:	02070063          	beqz	a4,1000cddc <__divdf3+0x62c>
1000cdc0:	00f7f713          	andi	a4,a5,15
1000cdc4:	00400693          	li	a3,4
1000cdc8:	00d70a63          	beq	a4,a3,1000cddc <__divdf3+0x62c>
1000cdcc:	00d78733          	add	a4,a5,a3
1000cdd0:	00f736b3          	sltu	a3,a4,a5
1000cdd4:	00d40433          	add	s0,s0,a3
1000cdd8:	00070793          	mv	a5,a4
1000cddc:	00841713          	slli	a4,s0,0x8
1000cde0:	06074c63          	bltz	a4,1000ce58 <__divdf3+0x6a8>
1000cde4:	01d41713          	slli	a4,s0,0x1d
1000cde8:	0037d793          	srli	a5,a5,0x3
1000cdec:	00f76733          	or	a4,a4,a5
1000cdf0:	00345413          	srli	s0,s0,0x3
1000cdf4:	00000793          	li	a5,0
1000cdf8:	eb1ff06f          	j	1000cca8 <__divdf3+0x4f8>
1000cdfc:	00100693          	li	a3,1
1000ce00:	f99ff06f          	j	1000cd98 <__divdf3+0x5e8>
1000ce04:	fe100593          	li	a1,-31
1000ce08:	40f586b3          	sub	a3,a1,a5
1000ce0c:	00d456b3          	srl	a3,s0,a3
1000ce10:	00000613          	li	a2,0
1000ce14:	00b78663          	beq	a5,a1,1000ce20 <__divdf3+0x670>
1000ce18:	43e70713          	addi	a4,a4,1086
1000ce1c:	00e41633          	sll	a2,s0,a4
1000ce20:	01e66633          	or	a2,a2,t5
1000ce24:	00c03633          	snez	a2,a2
1000ce28:	00c6e7b3          	or	a5,a3,a2
1000ce2c:	00000413          	li	s0,0
1000ce30:	f89ff06f          	j	1000cdb8 <__divdf3+0x608>
1000ce34:	00080437          	lui	s0,0x80
1000ce38:	00000713          	li	a4,0
1000ce3c:	7ff00793          	li	a5,2047
1000ce40:	00000813          	li	a6,0
1000ce44:	e65ff06f          	j	1000cca8 <__divdf3+0x4f8>
1000ce48:	00000413          	li	s0,0
1000ce4c:	00000713          	li	a4,0
1000ce50:	7ff00793          	li	a5,2047
1000ce54:	e55ff06f          	j	1000cca8 <__divdf3+0x4f8>
1000ce58:	00000413          	li	s0,0
1000ce5c:	00000713          	li	a4,0
1000ce60:	00100793          	li	a5,1
1000ce64:	e45ff06f          	j	1000cca8 <__divdf3+0x4f8>

1000ce68 <__eqdf2>:
1000ce68:	001007b7          	lui	a5,0x100
1000ce6c:	0145d813          	srli	a6,a1,0x14
1000ce70:	fff78793          	addi	a5,a5,-1 # fffff <__heap_size+0xfefff>
1000ce74:	0146d313          	srli	t1,a3,0x14
1000ce78:	7ff87813          	andi	a6,a6,2047
1000ce7c:	7ff00e93          	li	t4,2047
1000ce80:	00b7f733          	and	a4,a5,a1
1000ce84:	00050893          	mv	a7,a0
1000ce88:	01f5df93          	srli	t6,a1,0x1f
1000ce8c:	00d7f7b3          	and	a5,a5,a3
1000ce90:	7ff37313          	andi	t1,t1,2047
1000ce94:	01f6df13          	srli	t5,a3,0x1f
1000ce98:	01d81863          	bne	a6,t4,1000cea8 <__eqdf2+0x40>
1000ce9c:	00a76e33          	or	t3,a4,a0
1000cea0:	00100513          	li	a0,1
1000cea4:	040e1263          	bnez	t3,1000cee8 <__eqdf2+0x80>
1000cea8:	01d31863          	bne	t1,t4,1000ceb8 <__eqdf2+0x50>
1000ceac:	00c7e7b3          	or	a5,a5,a2
1000ceb0:	00100513          	li	a0,1
1000ceb4:	02079a63          	bnez	a5,1000cee8 <__eqdf2+0x80>
1000ceb8:	00b6c6b3          	xor	a3,a3,a1
1000cebc:	00169693          	slli	a3,a3,0x1
1000cec0:	02069263          	bnez	a3,1000cee4 <__eqdf2+0x7c>
1000cec4:	03161063          	bne	a2,a7,1000cee4 <__eqdf2+0x7c>
1000cec8:	00000513          	li	a0,0
1000cecc:	01ef8e63          	beq	t6,t5,1000cee8 <__eqdf2+0x80>
1000ced0:	00100513          	li	a0,1
1000ced4:	00081a63          	bnez	a6,1000cee8 <__eqdf2+0x80>
1000ced8:	01176733          	or	a4,a4,a7
1000cedc:	00e03533          	snez	a0,a4
1000cee0:	00008067          	ret
1000cee4:	00100513          	li	a0,1
1000cee8:	00008067          	ret

1000ceec <__gedf2>:
1000ceec:	0145d893          	srli	a7,a1,0x14
1000cef0:	00100737          	lui	a4,0x100
1000cef4:	fff70713          	addi	a4,a4,-1 # fffff <__heap_size+0xfefff>
1000cef8:	0146d813          	srli	a6,a3,0x14
1000cefc:	7ff8f893          	andi	a7,a7,2047
1000cf00:	7ff00793          	li	a5,2047
1000cf04:	00b77333          	and	t1,a4,a1
1000cf08:	7ff87813          	andi	a6,a6,2047
1000cf0c:	00d77733          	and	a4,a4,a3
1000cf10:	01f5d593          	srli	a1,a1,0x1f
1000cf14:	01f6d693          	srli	a3,a3,0x1f
1000cf18:	02f88063          	beq	a7,a5,1000cf38 <__gedf2+0x4c>
1000cf1c:	7ff00e13          	li	t3,2047
1000cf20:	00080793          	mv	a5,a6
1000cf24:	03c81463          	bne	a6,t3,1000cf4c <__gedf2+0x60>
1000cf28:	00c76e33          	or	t3,a4,a2
1000cf2c:	020e0063          	beqz	t3,1000cf4c <__gedf2+0x60>
1000cf30:	ffe00793          	li	a5,-2
1000cf34:	0100006f          	j	1000cf44 <__gedf2+0x58>
1000cf38:	00a36e33          	or	t3,t1,a0
1000cf3c:	ffe00793          	li	a5,-2
1000cf40:	fc0e0ee3          	beqz	t3,1000cf1c <__gedf2+0x30>
1000cf44:	00078513          	mv	a0,a5
1000cf48:	00008067          	ret
1000cf4c:	00000e13          	li	t3,0
1000cf50:	00089663          	bnez	a7,1000cf5c <__gedf2+0x70>
1000cf54:	00a36e33          	or	t3,t1,a0
1000cf58:	001e3e13          	seqz	t3,t3
1000cf5c:	04081863          	bnez	a6,1000cfac <__gedf2+0xc0>
1000cf60:	00c76eb3          	or	t4,a4,a2
1000cf64:	000e0a63          	beqz	t3,1000cf78 <__gedf2+0x8c>
1000cf68:	fc0e8ee3          	beqz	t4,1000cf44 <__gedf2+0x58>
1000cf6c:	00169793          	slli	a5,a3,0x1
1000cf70:	fff78793          	addi	a5,a5,-1
1000cf74:	fd1ff06f          	j	1000cf44 <__gedf2+0x58>
1000cf78:	020e9c63          	bnez	t4,1000cfb0 <__gedf2+0xc4>
1000cf7c:	40b005b3          	neg	a1,a1
1000cf80:	0015e793          	ori	a5,a1,1
1000cf84:	fc1ff06f          	j	1000cf44 <__gedf2+0x58>
1000cf88:	ff08c2e3          	blt	a7,a6,1000cf6c <__gedf2+0x80>
1000cf8c:	fe6768e3          	bltu	a4,t1,1000cf7c <__gedf2+0x90>
1000cf90:	00a67463          	bgeu	a2,a0,1000cf98 <__gedf2+0xac>
1000cf94:	fee304e3          	beq	t1,a4,1000cf7c <__gedf2+0x90>
1000cf98:	00c56663          	bltu	a0,a2,1000cfa4 <__gedf2+0xb8>
1000cf9c:	00000793          	li	a5,0
1000cfa0:	fae372e3          	bgeu	t1,a4,1000cf44 <__gedf2+0x58>
1000cfa4:	00159793          	slli	a5,a1,0x1
1000cfa8:	fc9ff06f          	j	1000cf70 <__gedf2+0x84>
1000cfac:	fc0e10e3          	bnez	t3,1000cf6c <__gedf2+0x80>
1000cfb0:	fcb696e3          	bne	a3,a1,1000cf7c <__gedf2+0x90>
1000cfb4:	fd185ae3          	bge	a6,a7,1000cf88 <__gedf2+0x9c>
1000cfb8:	40d006b3          	neg	a3,a3
1000cfbc:	0016e793          	ori	a5,a3,1
1000cfc0:	f85ff06f          	j	1000cf44 <__gedf2+0x58>

1000cfc4 <__ledf2>:
1000cfc4:	0145d893          	srli	a7,a1,0x14
1000cfc8:	00100737          	lui	a4,0x100
1000cfcc:	fff70713          	addi	a4,a4,-1 # fffff <__heap_size+0xfefff>
1000cfd0:	0146d813          	srli	a6,a3,0x14
1000cfd4:	7ff8f893          	andi	a7,a7,2047
1000cfd8:	7ff00793          	li	a5,2047
1000cfdc:	00b77333          	and	t1,a4,a1
1000cfe0:	7ff87813          	andi	a6,a6,2047
1000cfe4:	00d77733          	and	a4,a4,a3
1000cfe8:	01f5d593          	srli	a1,a1,0x1f
1000cfec:	01f6d693          	srli	a3,a3,0x1f
1000cff0:	02f88063          	beq	a7,a5,1000d010 <__ledf2+0x4c>
1000cff4:	7ff00e13          	li	t3,2047
1000cff8:	00080793          	mv	a5,a6
1000cffc:	03c81463          	bne	a6,t3,1000d024 <__ledf2+0x60>
1000d000:	00c76e33          	or	t3,a4,a2
1000d004:	020e0063          	beqz	t3,1000d024 <__ledf2+0x60>
1000d008:	00200793          	li	a5,2
1000d00c:	0100006f          	j	1000d01c <__ledf2+0x58>
1000d010:	00a36e33          	or	t3,t1,a0
1000d014:	00200793          	li	a5,2
1000d018:	fc0e0ee3          	beqz	t3,1000cff4 <__ledf2+0x30>
1000d01c:	00078513          	mv	a0,a5
1000d020:	00008067          	ret
1000d024:	00000e13          	li	t3,0
1000d028:	00089663          	bnez	a7,1000d034 <__ledf2+0x70>
1000d02c:	00a36e33          	or	t3,t1,a0
1000d030:	001e3e13          	seqz	t3,t3
1000d034:	04081863          	bnez	a6,1000d084 <__ledf2+0xc0>
1000d038:	00c76eb3          	or	t4,a4,a2
1000d03c:	000e0a63          	beqz	t3,1000d050 <__ledf2+0x8c>
1000d040:	fc0e8ee3          	beqz	t4,1000d01c <__ledf2+0x58>
1000d044:	00169793          	slli	a5,a3,0x1
1000d048:	fff78793          	addi	a5,a5,-1
1000d04c:	fd1ff06f          	j	1000d01c <__ledf2+0x58>
1000d050:	020e9c63          	bnez	t4,1000d088 <__ledf2+0xc4>
1000d054:	40b005b3          	neg	a1,a1
1000d058:	0015e793          	ori	a5,a1,1
1000d05c:	fc1ff06f          	j	1000d01c <__ledf2+0x58>
1000d060:	ff08c2e3          	blt	a7,a6,1000d044 <__ledf2+0x80>
1000d064:	fe6768e3          	bltu	a4,t1,1000d054 <__ledf2+0x90>
1000d068:	00a67463          	bgeu	a2,a0,1000d070 <__ledf2+0xac>
1000d06c:	fee304e3          	beq	t1,a4,1000d054 <__ledf2+0x90>
1000d070:	00c56663          	bltu	a0,a2,1000d07c <__ledf2+0xb8>
1000d074:	00000793          	li	a5,0
1000d078:	fae372e3          	bgeu	t1,a4,1000d01c <__ledf2+0x58>
1000d07c:	00159793          	slli	a5,a1,0x1
1000d080:	fc9ff06f          	j	1000d048 <__ledf2+0x84>
1000d084:	fc0e10e3          	bnez	t3,1000d044 <__ledf2+0x80>
1000d088:	fcb696e3          	bne	a3,a1,1000d054 <__ledf2+0x90>
1000d08c:	fd185ae3          	bge	a6,a7,1000d060 <__ledf2+0x9c>
1000d090:	40d006b3          	neg	a3,a3
1000d094:	0016e793          	ori	a5,a3,1
1000d098:	f85ff06f          	j	1000d01c <__ledf2+0x58>

1000d09c <__muldf3>:
1000d09c:	fd010113          	addi	sp,sp,-48
1000d0a0:	01312e23          	sw	s3,28(sp)
1000d0a4:	0145d993          	srli	s3,a1,0x14
1000d0a8:	02812423          	sw	s0,40(sp)
1000d0ac:	02912223          	sw	s1,36(sp)
1000d0b0:	01412c23          	sw	s4,24(sp)
1000d0b4:	01512a23          	sw	s5,20(sp)
1000d0b8:	01712623          	sw	s7,12(sp)
1000d0bc:	00c59493          	slli	s1,a1,0xc
1000d0c0:	02112623          	sw	ra,44(sp)
1000d0c4:	03212023          	sw	s2,32(sp)
1000d0c8:	01612823          	sw	s6,16(sp)
1000d0cc:	7ff9f993          	andi	s3,s3,2047
1000d0d0:	00050413          	mv	s0,a0
1000d0d4:	00060b93          	mv	s7,a2
1000d0d8:	00068a13          	mv	s4,a3
1000d0dc:	00c4d493          	srli	s1,s1,0xc
1000d0e0:	01f5da93          	srli	s5,a1,0x1f
1000d0e4:	0c098263          	beqz	s3,1000d1a8 <__muldf3+0x10c>
1000d0e8:	7ff00793          	li	a5,2047
1000d0ec:	12f98463          	beq	s3,a5,1000d214 <__muldf3+0x178>
1000d0f0:	00349493          	slli	s1,s1,0x3
1000d0f4:	01d55793          	srli	a5,a0,0x1d
1000d0f8:	0097e7b3          	or	a5,a5,s1
1000d0fc:	008004b7          	lui	s1,0x800
1000d100:	0097e4b3          	or	s1,a5,s1
1000d104:	00351913          	slli	s2,a0,0x3
1000d108:	c0198993          	addi	s3,s3,-1023
1000d10c:	00000b13          	li	s6,0
1000d110:	014a5713          	srli	a4,s4,0x14
1000d114:	00ca1413          	slli	s0,s4,0xc
1000d118:	7ff77713          	andi	a4,a4,2047
1000d11c:	00c45413          	srli	s0,s0,0xc
1000d120:	01fa5a13          	srli	s4,s4,0x1f
1000d124:	12070063          	beqz	a4,1000d244 <__muldf3+0x1a8>
1000d128:	7ff00793          	li	a5,2047
1000d12c:	18f70463          	beq	a4,a5,1000d2b4 <__muldf3+0x218>
1000d130:	00341413          	slli	s0,s0,0x3
1000d134:	01dbd793          	srli	a5,s7,0x1d
1000d138:	0087e7b3          	or	a5,a5,s0
1000d13c:	00800437          	lui	s0,0x800
1000d140:	0087e433          	or	s0,a5,s0
1000d144:	c0170713          	addi	a4,a4,-1023
1000d148:	003b9793          	slli	a5,s7,0x3
1000d14c:	00000813          	li	a6,0
1000d150:	00e989b3          	add	s3,s3,a4
1000d154:	002b1713          	slli	a4,s6,0x2
1000d158:	01076733          	or	a4,a4,a6
1000d15c:	00a00693          	li	a3,10
1000d160:	00198513          	addi	a0,s3,1
1000d164:	1ae6c263          	blt	a3,a4,1000d308 <__muldf3+0x26c>
1000d168:	00200613          	li	a2,2
1000d16c:	014ac5b3          	xor	a1,s5,s4
1000d170:	00100693          	li	a3,1
1000d174:	16e64863          	blt	a2,a4,1000d2e4 <__muldf3+0x248>
1000d178:	fff70713          	addi	a4,a4,-1
1000d17c:	1ae6e663          	bltu	a3,a4,1000d328 <__muldf3+0x28c>
1000d180:	00080b13          	mv	s6,a6
1000d184:	00200713          	li	a4,2
1000d188:	4ceb0e63          	beq	s6,a4,1000d664 <__muldf3+0x5c8>
1000d18c:	00300713          	li	a4,3
1000d190:	4ceb0463          	beq	s6,a4,1000d658 <__muldf3+0x5bc>
1000d194:	00100713          	li	a4,1
1000d198:	34eb1463          	bne	s6,a4,1000d4e0 <__muldf3+0x444>
1000d19c:	00000413          	li	s0,0
1000d1a0:	00000613          	li	a2,0
1000d1a4:	4640006f          	j	1000d608 <__muldf3+0x56c>
1000d1a8:	00a4e933          	or	s2,s1,a0
1000d1ac:	06090e63          	beqz	s2,1000d228 <__muldf3+0x18c>
1000d1b0:	04048263          	beqz	s1,1000d1f4 <__muldf3+0x158>
1000d1b4:	00048513          	mv	a0,s1
1000d1b8:	7bc030ef          	jal	10010974 <__clzsi2>
1000d1bc:	00050713          	mv	a4,a0
1000d1c0:	ff550693          	addi	a3,a0,-11
1000d1c4:	01d00793          	li	a5,29
1000d1c8:	ff870613          	addi	a2,a4,-8
1000d1cc:	40d787b3          	sub	a5,a5,a3
1000d1d0:	00c494b3          	sll	s1,s1,a2
1000d1d4:	00f457b3          	srl	a5,s0,a5
1000d1d8:	0097e7b3          	or	a5,a5,s1
1000d1dc:	00c414b3          	sll	s1,s0,a2
1000d1e0:	c0d00993          	li	s3,-1011
1000d1e4:	00048913          	mv	s2,s1
1000d1e8:	40e989b3          	sub	s3,s3,a4
1000d1ec:	00078493          	mv	s1,a5
1000d1f0:	f1dff06f          	j	1000d10c <__muldf3+0x70>
1000d1f4:	780030ef          	jal	10010974 <__clzsi2>
1000d1f8:	01550693          	addi	a3,a0,21
1000d1fc:	01c00793          	li	a5,28
1000d200:	02050713          	addi	a4,a0,32
1000d204:	fcd7d0e3          	bge	a5,a3,1000d1c4 <__muldf3+0x128>
1000d208:	ff850793          	addi	a5,a0,-8
1000d20c:	00f417b3          	sll	a5,s0,a5
1000d210:	fd1ff06f          	j	1000d1e0 <__muldf3+0x144>
1000d214:	00a4e933          	or	s2,s1,a0
1000d218:	02091063          	bnez	s2,1000d238 <__muldf3+0x19c>
1000d21c:	00000493          	li	s1,0
1000d220:	00200b13          	li	s6,2
1000d224:	eedff06f          	j	1000d110 <__muldf3+0x74>
1000d228:	00000493          	li	s1,0
1000d22c:	00000993          	li	s3,0
1000d230:	00100b13          	li	s6,1
1000d234:	eddff06f          	j	1000d110 <__muldf3+0x74>
1000d238:	00050913          	mv	s2,a0
1000d23c:	00300b13          	li	s6,3
1000d240:	ed1ff06f          	j	1000d110 <__muldf3+0x74>
1000d244:	017467b3          	or	a5,s0,s7
1000d248:	08078063          	beqz	a5,1000d2c8 <__muldf3+0x22c>
1000d24c:	04040263          	beqz	s0,1000d290 <__muldf3+0x1f4>
1000d250:	00040513          	mv	a0,s0
1000d254:	720030ef          	jal	10010974 <__clzsi2>
1000d258:	00050793          	mv	a5,a0
1000d25c:	ff550713          	addi	a4,a0,-11
1000d260:	01d00693          	li	a3,29
1000d264:	ff878613          	addi	a2,a5,-8
1000d268:	40e686b3          	sub	a3,a3,a4
1000d26c:	00c41433          	sll	s0,s0,a2
1000d270:	00dbd6b3          	srl	a3,s7,a3
1000d274:	0086e6b3          	or	a3,a3,s0
1000d278:	00cb9433          	sll	s0,s7,a2
1000d27c:	c0d00713          	li	a4,-1011
1000d280:	40f70733          	sub	a4,a4,a5
1000d284:	00040793          	mv	a5,s0
1000d288:	00068413          	mv	s0,a3
1000d28c:	ec1ff06f          	j	1000d14c <__muldf3+0xb0>
1000d290:	000b8513          	mv	a0,s7
1000d294:	6e0030ef          	jal	10010974 <__clzsi2>
1000d298:	01550713          	addi	a4,a0,21
1000d29c:	01c00693          	li	a3,28
1000d2a0:	02050793          	addi	a5,a0,32
1000d2a4:	fae6dee3          	bge	a3,a4,1000d260 <__muldf3+0x1c4>
1000d2a8:	ff850693          	addi	a3,a0,-8
1000d2ac:	00db96b3          	sll	a3,s7,a3
1000d2b0:	fcdff06f          	j	1000d27c <__muldf3+0x1e0>
1000d2b4:	017467b3          	or	a5,s0,s7
1000d2b8:	02079063          	bnez	a5,1000d2d8 <__muldf3+0x23c>
1000d2bc:	00000413          	li	s0,0
1000d2c0:	00200813          	li	a6,2
1000d2c4:	e8dff06f          	j	1000d150 <__muldf3+0xb4>
1000d2c8:	00000413          	li	s0,0
1000d2cc:	00000713          	li	a4,0
1000d2d0:	00100813          	li	a6,1
1000d2d4:	e7dff06f          	j	1000d150 <__muldf3+0xb4>
1000d2d8:	000b8793          	mv	a5,s7
1000d2dc:	00300813          	li	a6,3
1000d2e0:	e71ff06f          	j	1000d150 <__muldf3+0xb4>
1000d2e4:	00e69733          	sll	a4,a3,a4
1000d2e8:	53077613          	andi	a2,a4,1328
1000d2ec:	02061863          	bnez	a2,1000d31c <__muldf3+0x280>
1000d2f0:	24077693          	andi	a3,a4,576
1000d2f4:	34069a63          	bnez	a3,1000d648 <__muldf3+0x5ac>
1000d2f8:	08877713          	andi	a4,a4,136
1000d2fc:	02070663          	beqz	a4,1000d328 <__muldf3+0x28c>
1000d300:	000a0593          	mv	a1,s4
1000d304:	e7dff06f          	j	1000d180 <__muldf3+0xe4>
1000d308:	00f00693          	li	a3,15
1000d30c:	34d70663          	beq	a4,a3,1000d658 <__muldf3+0x5bc>
1000d310:	00b00693          	li	a3,11
1000d314:	000a8593          	mv	a1,s5
1000d318:	fed704e3          	beq	a4,a3,1000d300 <__muldf3+0x264>
1000d31c:	00048413          	mv	s0,s1
1000d320:	00090793          	mv	a5,s2
1000d324:	e61ff06f          	j	1000d184 <__muldf3+0xe8>
1000d328:	01095893          	srli	a7,s2,0x10
1000d32c:	01079e13          	slli	t3,a5,0x10
1000d330:	01091913          	slli	s2,s2,0x10
1000d334:	0107d613          	srli	a2,a5,0x10
1000d338:	01095913          	srli	s2,s2,0x10
1000d33c:	010e5e13          	srli	t3,t3,0x10
1000d340:	03c907b3          	mul	a5,s2,t3
1000d344:	03c88333          	mul	t1,a7,t3
1000d348:	0107d813          	srli	a6,a5,0x10
1000d34c:	03260733          	mul	a4,a2,s2
1000d350:	00670733          	add	a4,a4,t1
1000d354:	00e80833          	add	a6,a6,a4
1000d358:	02c886b3          	mul	a3,a7,a2
1000d35c:	00687663          	bgeu	a6,t1,1000d368 <__muldf3+0x2cc>
1000d360:	00010737          	lui	a4,0x10
1000d364:	00e686b3          	add	a3,a3,a4
1000d368:	01045713          	srli	a4,s0,0x10
1000d36c:	01079793          	slli	a5,a5,0x10
1000d370:	01041413          	slli	s0,s0,0x10
1000d374:	0107d793          	srli	a5,a5,0x10
1000d378:	01045413          	srli	s0,s0,0x10
1000d37c:	01085f93          	srli	t6,a6,0x10
1000d380:	01081813          	slli	a6,a6,0x10
1000d384:	02890f33          	mul	t5,s2,s0
1000d388:	00f80833          	add	a6,a6,a5
1000d38c:	03270933          	mul	s2,a4,s2
1000d390:	010f5313          	srli	t1,t5,0x10
1000d394:	028887b3          	mul	a5,a7,s0
1000d398:	00f90933          	add	s2,s2,a5
1000d39c:	01230333          	add	t1,t1,s2
1000d3a0:	02e888b3          	mul	a7,a7,a4
1000d3a4:	00f37663          	bgeu	t1,a5,1000d3b0 <__muldf3+0x314>
1000d3a8:	000107b7          	lui	a5,0x10
1000d3ac:	00f888b3          	add	a7,a7,a5
1000d3b0:	010f1f13          	slli	t5,t5,0x10
1000d3b4:	010f5f13          	srli	t5,t5,0x10
1000d3b8:	01031793          	slli	a5,t1,0x10
1000d3bc:	01e787b3          	add	a5,a5,t5
1000d3c0:	0104df13          	srli	t5,s1,0x10
1000d3c4:	01049493          	slli	s1,s1,0x10
1000d3c8:	0104d493          	srli	s1,s1,0x10
1000d3cc:	03c482b3          	mul	t0,s1,t3
1000d3d0:	01035e93          	srli	t4,t1,0x10
1000d3d4:	011e8eb3          	add	t4,t4,a7
1000d3d8:	00ff8fb3          	add	t6,t6,a5
1000d3dc:	03cf0e33          	mul	t3,t5,t3
1000d3e0:	0102d893          	srli	a7,t0,0x10
1000d3e4:	03e603b3          	mul	t2,a2,t5
1000d3e8:	02960633          	mul	a2,a2,s1
1000d3ec:	01c60633          	add	a2,a2,t3
1000d3f0:	00c888b3          	add	a7,a7,a2
1000d3f4:	01c8f663          	bgeu	a7,t3,1000d400 <__muldf3+0x364>
1000d3f8:	00010637          	lui	a2,0x10
1000d3fc:	00c383b3          	add	t2,t2,a2
1000d400:	02848633          	mul	a2,s1,s0
1000d404:	01029293          	slli	t0,t0,0x10
1000d408:	0108d313          	srli	t1,a7,0x10
1000d40c:	0102d293          	srli	t0,t0,0x10
1000d410:	01089893          	slli	a7,a7,0x10
1000d414:	00730333          	add	t1,t1,t2
1000d418:	005888b3          	add	a7,a7,t0
1000d41c:	028f0433          	mul	s0,t5,s0
1000d420:	01065e13          	srli	t3,a2,0x10
1000d424:	03e70f33          	mul	t5,a4,t5
1000d428:	02970733          	mul	a4,a4,s1
1000d42c:	00870733          	add	a4,a4,s0
1000d430:	00ee0e33          	add	t3,t3,a4
1000d434:	008e7663          	bgeu	t3,s0,1000d440 <__muldf3+0x3a4>
1000d438:	00010737          	lui	a4,0x10
1000d43c:	00ef0f33          	add	t5,t5,a4
1000d440:	01061613          	slli	a2,a2,0x10
1000d444:	010e1713          	slli	a4,t3,0x10
1000d448:	01065613          	srli	a2,a2,0x10
1000d44c:	01f686b3          	add	a3,a3,t6
1000d450:	00c70733          	add	a4,a4,a2
1000d454:	01d70eb3          	add	t4,a4,t4
1000d458:	00f6b7b3          	sltu	a5,a3,a5
1000d45c:	00fe87b3          	add	a5,t4,a5
1000d460:	011688b3          	add	a7,a3,a7
1000d464:	00678333          	add	t1,a5,t1
1000d468:	00d8b6b3          	sltu	a3,a7,a3
1000d46c:	00eeb633          	sltu	a2,t4,a4
1000d470:	00d306b3          	add	a3,t1,a3
1000d474:	01d7beb3          	sltu	t4,a5,t4
1000d478:	00f33733          	sltu	a4,t1,a5
1000d47c:	01d66633          	or	a2,a2,t4
1000d480:	0066b333          	sltu	t1,a3,t1
1000d484:	010e5e13          	srli	t3,t3,0x10
1000d488:	00989793          	slli	a5,a7,0x9
1000d48c:	01c60633          	add	a2,a2,t3
1000d490:	00676733          	or	a4,a4,t1
1000d494:	00c70733          	add	a4,a4,a2
1000d498:	0107e7b3          	or	a5,a5,a6
1000d49c:	01e70733          	add	a4,a4,t5
1000d4a0:	00f037b3          	snez	a5,a5
1000d4a4:	0178d893          	srli	a7,a7,0x17
1000d4a8:	00971713          	slli	a4,a4,0x9
1000d4ac:	0176d413          	srli	s0,a3,0x17
1000d4b0:	0117e7b3          	or	a5,a5,a7
1000d4b4:	00969693          	slli	a3,a3,0x9
1000d4b8:	00d7e7b3          	or	a5,a5,a3
1000d4bc:	00771693          	slli	a3,a4,0x7
1000d4c0:	00876433          	or	s0,a4,s0
1000d4c4:	0c06d263          	bgez	a3,1000d588 <__muldf3+0x4ec>
1000d4c8:	0017d713          	srli	a4,a5,0x1
1000d4cc:	0017f793          	andi	a5,a5,1
1000d4d0:	00f76733          	or	a4,a4,a5
1000d4d4:	01f41793          	slli	a5,s0,0x1f
1000d4d8:	00f767b3          	or	a5,a4,a5
1000d4dc:	00145413          	srli	s0,s0,0x1
1000d4e0:	3ff50713          	addi	a4,a0,1023
1000d4e4:	0ae05663          	blez	a4,1000d590 <__muldf3+0x4f4>
1000d4e8:	0077f693          	andi	a3,a5,7
1000d4ec:	02068063          	beqz	a3,1000d50c <__muldf3+0x470>
1000d4f0:	00f7f693          	andi	a3,a5,15
1000d4f4:	00400613          	li	a2,4
1000d4f8:	00c68a63          	beq	a3,a2,1000d50c <__muldf3+0x470>
1000d4fc:	00c786b3          	add	a3,a5,a2
1000d500:	00f6b633          	sltu	a2,a3,a5
1000d504:	00c40433          	add	s0,s0,a2
1000d508:	00068793          	mv	a5,a3
1000d50c:	00741693          	slli	a3,s0,0x7
1000d510:	0006da63          	bgez	a3,1000d524 <__muldf3+0x488>
1000d514:	ff000737          	lui	a4,0xff000
1000d518:	fff70713          	addi	a4,a4,-1 # feffffff <_sp+0xeefec2df>
1000d51c:	00e47433          	and	s0,s0,a4
1000d520:	40050713          	addi	a4,a0,1024
1000d524:	7fe00693          	li	a3,2046
1000d528:	12e6ce63          	blt	a3,a4,1000d664 <__muldf3+0x5c8>
1000d52c:	01d41613          	slli	a2,s0,0x1d
1000d530:	0037d793          	srli	a5,a5,0x3
1000d534:	00f66633          	or	a2,a2,a5
1000d538:	00345413          	srli	s0,s0,0x3
1000d53c:	00c41413          	slli	s0,s0,0xc
1000d540:	00c45413          	srli	s0,s0,0xc
1000d544:	01471713          	slli	a4,a4,0x14
1000d548:	02c12083          	lw	ra,44(sp)
1000d54c:	00876733          	or	a4,a4,s0
1000d550:	02812403          	lw	s0,40(sp)
1000d554:	01f59593          	slli	a1,a1,0x1f
1000d558:	00b767b3          	or	a5,a4,a1
1000d55c:	02412483          	lw	s1,36(sp)
1000d560:	02012903          	lw	s2,32(sp)
1000d564:	01c12983          	lw	s3,28(sp)
1000d568:	01812a03          	lw	s4,24(sp)
1000d56c:	01412a83          	lw	s5,20(sp)
1000d570:	01012b03          	lw	s6,16(sp)
1000d574:	00c12b83          	lw	s7,12(sp)
1000d578:	00060513          	mv	a0,a2
1000d57c:	00078593          	mv	a1,a5
1000d580:	03010113          	addi	sp,sp,48
1000d584:	00008067          	ret
1000d588:	00098513          	mv	a0,s3
1000d58c:	f55ff06f          	j	1000d4e0 <__muldf3+0x444>
1000d590:	08070063          	beqz	a4,1000d610 <__muldf3+0x574>
1000d594:	fc900693          	li	a3,-55
1000d598:	c0d742e3          	blt	a4,a3,1000d19c <__muldf3+0x100>
1000d59c:	fe200693          	li	a3,-30
1000d5a0:	06d74c63          	blt	a4,a3,1000d618 <__muldf3+0x57c>
1000d5a4:	00100693          	li	a3,1
1000d5a8:	40e68733          	sub	a4,a3,a4
1000d5ac:	41e50513          	addi	a0,a0,1054
1000d5b0:	00e7d6b3          	srl	a3,a5,a4
1000d5b4:	00a797b3          	sll	a5,a5,a0
1000d5b8:	00f037b3          	snez	a5,a5
1000d5bc:	00a41533          	sll	a0,s0,a0
1000d5c0:	00a7e7b3          	or	a5,a5,a0
1000d5c4:	00d7e7b3          	or	a5,a5,a3
1000d5c8:	00e45433          	srl	s0,s0,a4
1000d5cc:	0077f713          	andi	a4,a5,7
1000d5d0:	02070063          	beqz	a4,1000d5f0 <__muldf3+0x554>
1000d5d4:	00f7f713          	andi	a4,a5,15
1000d5d8:	00400693          	li	a3,4
1000d5dc:	00d70a63          	beq	a4,a3,1000d5f0 <__muldf3+0x554>
1000d5e0:	00d78733          	add	a4,a5,a3
1000d5e4:	00f736b3          	sltu	a3,a4,a5
1000d5e8:	00d40433          	add	s0,s0,a3
1000d5ec:	00070793          	mv	a5,a4
1000d5f0:	00841713          	slli	a4,s0,0x8
1000d5f4:	08074063          	bltz	a4,1000d674 <__muldf3+0x5d8>
1000d5f8:	01d41613          	slli	a2,s0,0x1d
1000d5fc:	0037d793          	srli	a5,a5,0x3
1000d600:	00f66633          	or	a2,a2,a5
1000d604:	00345413          	srli	s0,s0,0x3
1000d608:	00000713          	li	a4,0
1000d60c:	f31ff06f          	j	1000d53c <__muldf3+0x4a0>
1000d610:	00100713          	li	a4,1
1000d614:	f99ff06f          	j	1000d5ac <__muldf3+0x510>
1000d618:	fe100813          	li	a6,-31
1000d61c:	40e806b3          	sub	a3,a6,a4
1000d620:	00d456b3          	srl	a3,s0,a3
1000d624:	00000613          	li	a2,0
1000d628:	01070663          	beq	a4,a6,1000d634 <__muldf3+0x598>
1000d62c:	43e50513          	addi	a0,a0,1086
1000d630:	00a41633          	sll	a2,s0,a0
1000d634:	00c7e7b3          	or	a5,a5,a2
1000d638:	00f037b3          	snez	a5,a5
1000d63c:	00f6e7b3          	or	a5,a3,a5
1000d640:	00000413          	li	s0,0
1000d644:	f89ff06f          	j	1000d5cc <__muldf3+0x530>
1000d648:	00080437          	lui	s0,0x80
1000d64c:	7ff00713          	li	a4,2047
1000d650:	00000593          	li	a1,0
1000d654:	ee9ff06f          	j	1000d53c <__muldf3+0x4a0>
1000d658:	00080437          	lui	s0,0x80
1000d65c:	00000613          	li	a2,0
1000d660:	fedff06f          	j	1000d64c <__muldf3+0x5b0>
1000d664:	00000413          	li	s0,0
1000d668:	00000613          	li	a2,0
1000d66c:	7ff00713          	li	a4,2047
1000d670:	ecdff06f          	j	1000d53c <__muldf3+0x4a0>
1000d674:	00000413          	li	s0,0
1000d678:	00000613          	li	a2,0
1000d67c:	00100713          	li	a4,1
1000d680:	ebdff06f          	j	1000d53c <__muldf3+0x4a0>

1000d684 <__subdf3>:
1000d684:	00100837          	lui	a6,0x100
1000d688:	fff80813          	addi	a6,a6,-1 # fffff <__heap_size+0xfefff>
1000d68c:	fe010113          	addi	sp,sp,-32
1000d690:	00b877b3          	and	a5,a6,a1
1000d694:	0145d713          	srli	a4,a1,0x14
1000d698:	00d87833          	and	a6,a6,a3
1000d69c:	0146d893          	srli	a7,a3,0x14
1000d6a0:	00912a23          	sw	s1,20(sp)
1000d6a4:	00379793          	slli	a5,a5,0x3
1000d6a8:	7ff77493          	andi	s1,a4,2047
1000d6ac:	01d55713          	srli	a4,a0,0x1d
1000d6b0:	01212823          	sw	s2,16(sp)
1000d6b4:	00f767b3          	or	a5,a4,a5
1000d6b8:	01f5d913          	srli	s2,a1,0x1f
1000d6bc:	01d65713          	srli	a4,a2,0x1d
1000d6c0:	00381813          	slli	a6,a6,0x3
1000d6c4:	00112e23          	sw	ra,28(sp)
1000d6c8:	00812c23          	sw	s0,24(sp)
1000d6cc:	01312623          	sw	s3,12(sp)
1000d6d0:	7ff8f893          	andi	a7,a7,2047
1000d6d4:	7ff00593          	li	a1,2047
1000d6d8:	00351513          	slli	a0,a0,0x3
1000d6dc:	01f6d693          	srli	a3,a3,0x1f
1000d6e0:	01076733          	or	a4,a4,a6
1000d6e4:	00361613          	slli	a2,a2,0x3
1000d6e8:	00b89663          	bne	a7,a1,1000d6f4 <__subdf3+0x70>
1000d6ec:	00c765b3          	or	a1,a4,a2
1000d6f0:	00059463          	bnez	a1,1000d6f8 <__subdf3+0x74>
1000d6f4:	0016c693          	xori	a3,a3,1
1000d6f8:	41148833          	sub	a6,s1,a7
1000d6fc:	7ff00593          	li	a1,2047
1000d700:	31269463          	bne	a3,s2,1000da08 <__subdf3+0x384>
1000d704:	11005263          	blez	a6,1000d808 <__subdf3+0x184>
1000d708:	02089c63          	bnez	a7,1000d740 <__subdf3+0xbc>
1000d70c:	00c766b3          	or	a3,a4,a2
1000d710:	02068463          	beqz	a3,1000d738 <__subdf3+0xb4>
1000d714:	fff48813          	addi	a6,s1,-1 # 7fffff <__heap_size+0x7fefff>
1000d718:	00081e63          	bnez	a6,1000d734 <__subdf3+0xb0>
1000d71c:	00c50633          	add	a2,a0,a2
1000d720:	00e787b3          	add	a5,a5,a4
1000d724:	00a63533          	sltu	a0,a2,a0
1000d728:	00a787b3          	add	a5,a5,a0
1000d72c:	00100493          	li	s1,1
1000d730:	0600006f          	j	1000d790 <__subdf3+0x10c>
1000d734:	00b49c63          	bne	s1,a1,1000d74c <__subdf3+0xc8>
1000d738:	00050613          	mv	a2,a0
1000d73c:	1d80006f          	j	1000d914 <__subdf3+0x290>
1000d740:	feb48ce3          	beq	s1,a1,1000d738 <__subdf3+0xb4>
1000d744:	008006b7          	lui	a3,0x800
1000d748:	00d76733          	or	a4,a4,a3
1000d74c:	03800693          	li	a3,56
1000d750:	0b06c663          	blt	a3,a6,1000d7fc <__subdf3+0x178>
1000d754:	01f00693          	li	a3,31
1000d758:	02000893          	li	a7,32
1000d75c:	0706c863          	blt	a3,a6,1000d7cc <__subdf3+0x148>
1000d760:	410888b3          	sub	a7,a7,a6
1000d764:	011716b3          	sll	a3,a4,a7
1000d768:	010655b3          	srl	a1,a2,a6
1000d76c:	011618b3          	sll	a7,a2,a7
1000d770:	00b6e6b3          	or	a3,a3,a1
1000d774:	011038b3          	snez	a7,a7
1000d778:	0116e6b3          	or	a3,a3,a7
1000d77c:	01075833          	srl	a6,a4,a6
1000d780:	00a68633          	add	a2,a3,a0
1000d784:	00f80833          	add	a6,a6,a5
1000d788:	00d636b3          	sltu	a3,a2,a3
1000d78c:	00d807b3          	add	a5,a6,a3
1000d790:	00879713          	slli	a4,a5,0x8
1000d794:	22075663          	bgez	a4,1000d9c0 <__subdf3+0x33c>
1000d798:	00148493          	addi	s1,s1,1
1000d79c:	7ff00713          	li	a4,2047
1000d7a0:	60e48863          	beq	s1,a4,1000ddb0 <__subdf3+0x72c>
1000d7a4:	ff800737          	lui	a4,0xff800
1000d7a8:	fff70713          	addi	a4,a4,-1 # ff7fffff <_sp+0xef7ec2df>
1000d7ac:	00e7f7b3          	and	a5,a5,a4
1000d7b0:	00165713          	srli	a4,a2,0x1
1000d7b4:	00167613          	andi	a2,a2,1
1000d7b8:	00c76733          	or	a4,a4,a2
1000d7bc:	01f79613          	slli	a2,a5,0x1f
1000d7c0:	00e66633          	or	a2,a2,a4
1000d7c4:	0017d793          	srli	a5,a5,0x1
1000d7c8:	1f80006f          	j	1000d9c0 <__subdf3+0x33c>
1000d7cc:	fe080693          	addi	a3,a6,-32
1000d7d0:	00d756b3          	srl	a3,a4,a3
1000d7d4:	00000593          	li	a1,0
1000d7d8:	01180863          	beq	a6,a7,1000d7e8 <__subdf3+0x164>
1000d7dc:	04000593          	li	a1,64
1000d7e0:	410585b3          	sub	a1,a1,a6
1000d7e4:	00b715b3          	sll	a1,a4,a1
1000d7e8:	00c5e5b3          	or	a1,a1,a2
1000d7ec:	00b035b3          	snez	a1,a1
1000d7f0:	00b6e6b3          	or	a3,a3,a1
1000d7f4:	00000813          	li	a6,0
1000d7f8:	f89ff06f          	j	1000d780 <__subdf3+0xfc>
1000d7fc:	00c766b3          	or	a3,a4,a2
1000d800:	00d036b3          	snez	a3,a3
1000d804:	ff1ff06f          	j	1000d7f4 <__subdf3+0x170>
1000d808:	0c080263          	beqz	a6,1000d8cc <__subdf3+0x248>
1000d80c:	409886b3          	sub	a3,a7,s1
1000d810:	02049263          	bnez	s1,1000d834 <__subdf3+0x1b0>
1000d814:	00a7e833          	or	a6,a5,a0
1000d818:	00080863          	beqz	a6,1000d828 <__subdf3+0x1a4>
1000d81c:	fff68813          	addi	a6,a3,-1 # 7fffff <__heap_size+0x7fefff>
1000d820:	ee080ee3          	beqz	a6,1000d71c <__subdf3+0x98>
1000d824:	02b69063          	bne	a3,a1,1000d844 <__subdf3+0x1c0>
1000d828:	00070793          	mv	a5,a4
1000d82c:	00068493          	mv	s1,a3
1000d830:	0e40006f          	j	1000d914 <__subdf3+0x290>
1000d834:	58b88663          	beq	a7,a1,1000ddc0 <__subdf3+0x73c>
1000d838:	008005b7          	lui	a1,0x800
1000d83c:	00b7e7b3          	or	a5,a5,a1
1000d840:	00068813          	mv	a6,a3
1000d844:	03800693          	li	a3,56
1000d848:	0706cc63          	blt	a3,a6,1000d8c0 <__subdf3+0x23c>
1000d84c:	01f00693          	li	a3,31
1000d850:	02000313          	li	t1,32
1000d854:	0306ce63          	blt	a3,a6,1000d890 <__subdf3+0x20c>
1000d858:	41030333          	sub	t1,t1,a6
1000d85c:	006796b3          	sll	a3,a5,t1
1000d860:	010555b3          	srl	a1,a0,a6
1000d864:	00651333          	sll	t1,a0,t1
1000d868:	00b6e6b3          	or	a3,a3,a1
1000d86c:	00603333          	snez	t1,t1
1000d870:	0066e6b3          	or	a3,a3,t1
1000d874:	0107d833          	srl	a6,a5,a6
1000d878:	00c68633          	add	a2,a3,a2
1000d87c:	00e80833          	add	a6,a6,a4
1000d880:	00d636b3          	sltu	a3,a2,a3
1000d884:	00d807b3          	add	a5,a6,a3
1000d888:	00088493          	mv	s1,a7
1000d88c:	f05ff06f          	j	1000d790 <__subdf3+0x10c>
1000d890:	fe080693          	addi	a3,a6,-32
1000d894:	00d7d6b3          	srl	a3,a5,a3
1000d898:	00000593          	li	a1,0
1000d89c:	00680863          	beq	a6,t1,1000d8ac <__subdf3+0x228>
1000d8a0:	04000593          	li	a1,64
1000d8a4:	410585b3          	sub	a1,a1,a6
1000d8a8:	00b795b3          	sll	a1,a5,a1
1000d8ac:	00a5e5b3          	or	a1,a1,a0
1000d8b0:	00b035b3          	snez	a1,a1
1000d8b4:	00b6e6b3          	or	a3,a3,a1
1000d8b8:	00000813          	li	a6,0
1000d8bc:	fbdff06f          	j	1000d878 <__subdf3+0x1f4>
1000d8c0:	00a7e6b3          	or	a3,a5,a0
1000d8c4:	00d036b3          	snez	a3,a3
1000d8c8:	ff1ff06f          	j	1000d8b8 <__subdf3+0x234>
1000d8cc:	00148693          	addi	a3,s1,1
1000d8d0:	7fe6f813          	andi	a6,a3,2046
1000d8d4:	0c081263          	bnez	a6,1000d998 <__subdf3+0x314>
1000d8d8:	00a7e6b3          	or	a3,a5,a0
1000d8dc:	0a049463          	bnez	s1,1000d984 <__subdf3+0x300>
1000d8e0:	4a068863          	beqz	a3,1000dd90 <__subdf3+0x70c>
1000d8e4:	00c766b3          	or	a3,a4,a2
1000d8e8:	4a068863          	beqz	a3,1000dd98 <__subdf3+0x714>
1000d8ec:	00c50633          	add	a2,a0,a2
1000d8f0:	00e787b3          	add	a5,a5,a4
1000d8f4:	00a63533          	sltu	a0,a2,a0
1000d8f8:	00a787b3          	add	a5,a5,a0
1000d8fc:	00879713          	slli	a4,a5,0x8
1000d900:	32075a63          	bgez	a4,1000dc34 <__subdf3+0x5b0>
1000d904:	ff800737          	lui	a4,0xff800
1000d908:	fff70713          	addi	a4,a4,-1 # ff7fffff <_sp+0xef7ec2df>
1000d90c:	00e7f7b3          	and	a5,a5,a4
1000d910:	00100493          	li	s1,1
1000d914:	01d79693          	slli	a3,a5,0x1d
1000d918:	00365613          	srli	a2,a2,0x3
1000d91c:	7ff00713          	li	a4,2047
1000d920:	00c6e6b3          	or	a3,a3,a2
1000d924:	0037d793          	srli	a5,a5,0x3
1000d928:	00e49e63          	bne	s1,a4,1000d944 <__subdf3+0x2c0>
1000d92c:	00f6e6b3          	or	a3,a3,a5
1000d930:	00000793          	li	a5,0
1000d934:	00068863          	beqz	a3,1000d944 <__subdf3+0x2c0>
1000d938:	000807b7          	lui	a5,0x80
1000d93c:	00000693          	li	a3,0
1000d940:	00000913          	li	s2,0
1000d944:	7ff4f713          	andi	a4,s1,2047
1000d948:	00c79793          	slli	a5,a5,0xc
1000d94c:	01c12083          	lw	ra,28(sp)
1000d950:	01812403          	lw	s0,24(sp)
1000d954:	00c7d793          	srli	a5,a5,0xc
1000d958:	01471713          	slli	a4,a4,0x14
1000d95c:	01f91593          	slli	a1,s2,0x1f
1000d960:	00f76733          	or	a4,a4,a5
1000d964:	00b767b3          	or	a5,a4,a1
1000d968:	01412483          	lw	s1,20(sp)
1000d96c:	01012903          	lw	s2,16(sp)
1000d970:	00c12983          	lw	s3,12(sp)
1000d974:	00068513          	mv	a0,a3
1000d978:	00078593          	mv	a1,a5
1000d97c:	02010113          	addi	sp,sp,32
1000d980:	00008067          	ret
1000d984:	40068e63          	beqz	a3,1000dda0 <__subdf3+0x71c>
1000d988:	00c76733          	or	a4,a4,a2
1000d98c:	2c071c63          	bnez	a4,1000dc64 <__subdf3+0x5e0>
1000d990:	00050613          	mv	a2,a0
1000d994:	4100006f          	j	1000dda4 <__subdf3+0x720>
1000d998:	40b68a63          	beq	a3,a1,1000ddac <__subdf3+0x728>
1000d99c:	00c50633          	add	a2,a0,a2
1000d9a0:	00e787b3          	add	a5,a5,a4
1000d9a4:	00a63533          	sltu	a0,a2,a0
1000d9a8:	00a787b3          	add	a5,a5,a0
1000d9ac:	01f79713          	slli	a4,a5,0x1f
1000d9b0:	00165613          	srli	a2,a2,0x1
1000d9b4:	00c76633          	or	a2,a4,a2
1000d9b8:	0017d793          	srli	a5,a5,0x1
1000d9bc:	00068493          	mv	s1,a3
1000d9c0:	00767713          	andi	a4,a2,7
1000d9c4:	02070063          	beqz	a4,1000d9e4 <__subdf3+0x360>
1000d9c8:	00f67713          	andi	a4,a2,15
1000d9cc:	00400693          	li	a3,4
1000d9d0:	00d70a63          	beq	a4,a3,1000d9e4 <__subdf3+0x360>
1000d9d4:	00d60733          	add	a4,a2,a3
1000d9d8:	00c736b3          	sltu	a3,a4,a2
1000d9dc:	00d787b3          	add	a5,a5,a3
1000d9e0:	00070613          	mv	a2,a4
1000d9e4:	00879713          	slli	a4,a5,0x8
1000d9e8:	f20756e3          	bgez	a4,1000d914 <__subdf3+0x290>
1000d9ec:	00148493          	addi	s1,s1,1
1000d9f0:	7ff00713          	li	a4,2047
1000d9f4:	3ae48e63          	beq	s1,a4,1000ddb0 <__subdf3+0x72c>
1000d9f8:	ff800737          	lui	a4,0xff800
1000d9fc:	fff70713          	addi	a4,a4,-1 # ff7fffff <_sp+0xef7ec2df>
1000da00:	00e7f7b3          	and	a5,a5,a4
1000da04:	f11ff06f          	j	1000d914 <__subdf3+0x290>
1000da08:	0f005063          	blez	a6,1000dae8 <__subdf3+0x464>
1000da0c:	08089863          	bnez	a7,1000da9c <__subdf3+0x418>
1000da10:	00c766b3          	or	a3,a4,a2
1000da14:	d20682e3          	beqz	a3,1000d738 <__subdf3+0xb4>
1000da18:	fff48813          	addi	a6,s1,-1
1000da1c:	00081e63          	bnez	a6,1000da38 <__subdf3+0x3b4>
1000da20:	40c50633          	sub	a2,a0,a2
1000da24:	40e787b3          	sub	a5,a5,a4
1000da28:	00c53533          	sltu	a0,a0,a2
1000da2c:	40a787b3          	sub	a5,a5,a0
1000da30:	00100493          	li	s1,1
1000da34:	04c0006f          	j	1000da80 <__subdf3+0x3fc>
1000da38:	d0b480e3          	beq	s1,a1,1000d738 <__subdf3+0xb4>
1000da3c:	03800693          	li	a3,56
1000da40:	0906ce63          	blt	a3,a6,1000dadc <__subdf3+0x458>
1000da44:	01f00693          	li	a3,31
1000da48:	02000893          	li	a7,32
1000da4c:	0706c063          	blt	a3,a6,1000daac <__subdf3+0x428>
1000da50:	410888b3          	sub	a7,a7,a6
1000da54:	011716b3          	sll	a3,a4,a7
1000da58:	010655b3          	srl	a1,a2,a6
1000da5c:	011618b3          	sll	a7,a2,a7
1000da60:	00b6e6b3          	or	a3,a3,a1
1000da64:	011038b3          	snez	a7,a7
1000da68:	0116e6b3          	or	a3,a3,a7
1000da6c:	01075833          	srl	a6,a4,a6
1000da70:	40d50633          	sub	a2,a0,a3
1000da74:	41078833          	sub	a6,a5,a6
1000da78:	00c53533          	sltu	a0,a0,a2
1000da7c:	40a807b3          	sub	a5,a6,a0
1000da80:	00879713          	slli	a4,a5,0x8
1000da84:	f2075ee3          	bgez	a4,1000d9c0 <__subdf3+0x33c>
1000da88:	00800437          	lui	s0,0x800
1000da8c:	fff40413          	addi	s0,s0,-1 # 7fffff <__heap_size+0x7fefff>
1000da90:	0087f433          	and	s0,a5,s0
1000da94:	00060993          	mv	s3,a2
1000da98:	2140006f          	j	1000dcac <__subdf3+0x628>
1000da9c:	c8b48ee3          	beq	s1,a1,1000d738 <__subdf3+0xb4>
1000daa0:	008006b7          	lui	a3,0x800
1000daa4:	00d76733          	or	a4,a4,a3
1000daa8:	f95ff06f          	j	1000da3c <__subdf3+0x3b8>
1000daac:	fe080693          	addi	a3,a6,-32
1000dab0:	00d756b3          	srl	a3,a4,a3
1000dab4:	00000593          	li	a1,0
1000dab8:	01180863          	beq	a6,a7,1000dac8 <__subdf3+0x444>
1000dabc:	04000593          	li	a1,64
1000dac0:	410585b3          	sub	a1,a1,a6
1000dac4:	00b715b3          	sll	a1,a4,a1
1000dac8:	00c5e5b3          	or	a1,a1,a2
1000dacc:	00b035b3          	snez	a1,a1
1000dad0:	00b6e6b3          	or	a3,a3,a1
1000dad4:	00000813          	li	a6,0
1000dad8:	f99ff06f          	j	1000da70 <__subdf3+0x3ec>
1000dadc:	00c766b3          	or	a3,a4,a2
1000dae0:	00d036b3          	snez	a3,a3
1000dae4:	ff1ff06f          	j	1000dad4 <__subdf3+0x450>
1000dae8:	0e080663          	beqz	a6,1000dbd4 <__subdf3+0x550>
1000daec:	40988333          	sub	t1,a7,s1
1000daf0:	04049263          	bnez	s1,1000db34 <__subdf3+0x4b0>
1000daf4:	00a7e833          	or	a6,a5,a0
1000daf8:	02080663          	beqz	a6,1000db24 <__subdf3+0x4a0>
1000dafc:	fff30813          	addi	a6,t1,-1
1000db00:	02081063          	bnez	a6,1000db20 <__subdf3+0x49c>
1000db04:	40a60533          	sub	a0,a2,a0
1000db08:	00a635b3          	sltu	a1,a2,a0
1000db0c:	40f707b3          	sub	a5,a4,a5
1000db10:	00050613          	mv	a2,a0
1000db14:	40b787b3          	sub	a5,a5,a1
1000db18:	00068913          	mv	s2,a3
1000db1c:	f15ff06f          	j	1000da30 <__subdf3+0x3ac>
1000db20:	02b31263          	bne	t1,a1,1000db44 <__subdf3+0x4c0>
1000db24:	00068913          	mv	s2,a3
1000db28:	00070793          	mv	a5,a4
1000db2c:	00030493          	mv	s1,t1
1000db30:	de5ff06f          	j	1000d914 <__subdf3+0x290>
1000db34:	28b88463          	beq	a7,a1,1000ddbc <__subdf3+0x738>
1000db38:	008005b7          	lui	a1,0x800
1000db3c:	00b7e7b3          	or	a5,a5,a1
1000db40:	00030813          	mv	a6,t1
1000db44:	03800593          	li	a1,56
1000db48:	0905c063          	blt	a1,a6,1000dbc8 <__subdf3+0x544>
1000db4c:	01f00593          	li	a1,31
1000db50:	02000e13          	li	t3,32
1000db54:	0505c263          	blt	a1,a6,1000db98 <__subdf3+0x514>
1000db58:	410e0e33          	sub	t3,t3,a6
1000db5c:	01c795b3          	sll	a1,a5,t3
1000db60:	01055333          	srl	t1,a0,a6
1000db64:	01c51e33          	sll	t3,a0,t3
1000db68:	0065e5b3          	or	a1,a1,t1
1000db6c:	01c03e33          	snez	t3,t3
1000db70:	01c5e5b3          	or	a1,a1,t3
1000db74:	0107d833          	srl	a6,a5,a6
1000db78:	40b605b3          	sub	a1,a2,a1
1000db7c:	00b637b3          	sltu	a5,a2,a1
1000db80:	41070833          	sub	a6,a4,a6
1000db84:	00058613          	mv	a2,a1
1000db88:	40f807b3          	sub	a5,a6,a5
1000db8c:	00088493          	mv	s1,a7
1000db90:	00068913          	mv	s2,a3
1000db94:	eedff06f          	j	1000da80 <__subdf3+0x3fc>
1000db98:	fe080593          	addi	a1,a6,-32
1000db9c:	00b7d5b3          	srl	a1,a5,a1
1000dba0:	00000313          	li	t1,0
1000dba4:	01c80863          	beq	a6,t3,1000dbb4 <__subdf3+0x530>
1000dba8:	04000313          	li	t1,64
1000dbac:	41030333          	sub	t1,t1,a6
1000dbb0:	00679333          	sll	t1,a5,t1
1000dbb4:	00a36333          	or	t1,t1,a0
1000dbb8:	00603333          	snez	t1,t1
1000dbbc:	0065e5b3          	or	a1,a1,t1
1000dbc0:	00000813          	li	a6,0
1000dbc4:	fb5ff06f          	j	1000db78 <__subdf3+0x4f4>
1000dbc8:	00a7e5b3          	or	a1,a5,a0
1000dbcc:	00b035b3          	snez	a1,a1
1000dbd0:	ff1ff06f          	j	1000dbc0 <__subdf3+0x53c>
1000dbd4:	00148813          	addi	a6,s1,1
1000dbd8:	7fe87813          	andi	a6,a6,2046
1000dbdc:	0a081063          	bnez	a6,1000dc7c <__subdf3+0x5f8>
1000dbe0:	00c76833          	or	a6,a4,a2
1000dbe4:	00a7e8b3          	or	a7,a5,a0
1000dbe8:	06049863          	bnez	s1,1000dc58 <__subdf3+0x5d4>
1000dbec:	00089a63          	bnez	a7,1000dc00 <__subdf3+0x57c>
1000dbf0:	00070793          	mv	a5,a4
1000dbf4:	02081e63          	bnez	a6,1000dc30 <__subdf3+0x5ac>
1000dbf8:	00000913          	li	s2,0
1000dbfc:	1b40006f          	j	1000ddb0 <__subdf3+0x72c>
1000dc00:	18080c63          	beqz	a6,1000dd98 <__subdf3+0x714>
1000dc04:	40c50833          	sub	a6,a0,a2
1000dc08:	010538b3          	sltu	a7,a0,a6
1000dc0c:	40e785b3          	sub	a1,a5,a4
1000dc10:	411585b3          	sub	a1,a1,a7
1000dc14:	00859893          	slli	a7,a1,0x8
1000dc18:	0208d663          	bgez	a7,1000dc44 <__subdf3+0x5c0>
1000dc1c:	40a60533          	sub	a0,a2,a0
1000dc20:	00a635b3          	sltu	a1,a2,a0
1000dc24:	40f707b3          	sub	a5,a4,a5
1000dc28:	00050613          	mv	a2,a0
1000dc2c:	40b787b3          	sub	a5,a5,a1
1000dc30:	00068913          	mv	s2,a3
1000dc34:	00f66733          	or	a4,a2,a5
1000dc38:	1a070063          	beqz	a4,1000ddd8 <__subdf3+0x754>
1000dc3c:	00000493          	li	s1,0
1000dc40:	d81ff06f          	j	1000d9c0 <__subdf3+0x33c>
1000dc44:	00b86633          	or	a2,a6,a1
1000dc48:	18060263          	beqz	a2,1000ddcc <__subdf3+0x748>
1000dc4c:	00058793          	mv	a5,a1
1000dc50:	00080613          	mv	a2,a6
1000dc54:	fe1ff06f          	j	1000dc34 <__subdf3+0x5b0>
1000dc58:	00089e63          	bnez	a7,1000dc74 <__subdf3+0x5f0>
1000dc5c:	00068913          	mv	s2,a3
1000dc60:	14081063          	bnez	a6,1000dda0 <__subdf3+0x71c>
1000dc64:	00000913          	li	s2,0
1000dc68:	004007b7          	lui	a5,0x400
1000dc6c:	00000613          	li	a2,0
1000dc70:	1340006f          	j	1000dda4 <__subdf3+0x720>
1000dc74:	d0080ee3          	beqz	a6,1000d990 <__subdf3+0x30c>
1000dc78:	fedff06f          	j	1000dc64 <__subdf3+0x5e0>
1000dc7c:	40c505b3          	sub	a1,a0,a2
1000dc80:	00b53833          	sltu	a6,a0,a1
1000dc84:	40e78433          	sub	s0,a5,a4
1000dc88:	41040433          	sub	s0,s0,a6
1000dc8c:	00841813          	slli	a6,s0,0x8
1000dc90:	00058993          	mv	s3,a1
1000dc94:	06085e63          	bgez	a6,1000dd10 <__subdf3+0x68c>
1000dc98:	40a609b3          	sub	s3,a2,a0
1000dc9c:	40f70433          	sub	s0,a4,a5
1000dca0:	01363633          	sltu	a2,a2,s3
1000dca4:	40c40433          	sub	s0,s0,a2
1000dca8:	00068913          	mv	s2,a3
1000dcac:	06040e63          	beqz	s0,1000dd28 <__subdf3+0x6a4>
1000dcb0:	00040513          	mv	a0,s0
1000dcb4:	4c1020ef          	jal	10010974 <__clzsi2>
1000dcb8:	ff850713          	addi	a4,a0,-8
1000dcbc:	02000793          	li	a5,32
1000dcc0:	40e787b3          	sub	a5,a5,a4
1000dcc4:	00e41433          	sll	s0,s0,a4
1000dcc8:	00f9d7b3          	srl	a5,s3,a5
1000dccc:	0087e7b3          	or	a5,a5,s0
1000dcd0:	00e99633          	sll	a2,s3,a4
1000dcd4:	0a974463          	blt	a4,s1,1000dd7c <__subdf3+0x6f8>
1000dcd8:	40970733          	sub	a4,a4,s1
1000dcdc:	00170513          	addi	a0,a4,1
1000dce0:	01f00693          	li	a3,31
1000dce4:	02000593          	li	a1,32
1000dce8:	06a6c263          	blt	a3,a0,1000dd4c <__subdf3+0x6c8>
1000dcec:	40a585b3          	sub	a1,a1,a0
1000dcf0:	00b79733          	sll	a4,a5,a1
1000dcf4:	00a656b3          	srl	a3,a2,a0
1000dcf8:	00b615b3          	sll	a1,a2,a1
1000dcfc:	00d76733          	or	a4,a4,a3
1000dd00:	00b035b3          	snez	a1,a1
1000dd04:	00b76633          	or	a2,a4,a1
1000dd08:	00a7d7b3          	srl	a5,a5,a0
1000dd0c:	f29ff06f          	j	1000dc34 <__subdf3+0x5b0>
1000dd10:	0085e633          	or	a2,a1,s0
1000dd14:	f8061ce3          	bnez	a2,1000dcac <__subdf3+0x628>
1000dd18:	00000913          	li	s2,0
1000dd1c:	00000793          	li	a5,0
1000dd20:	00000493          	li	s1,0
1000dd24:	bf1ff06f          	j	1000d914 <__subdf3+0x290>
1000dd28:	00098513          	mv	a0,s3
1000dd2c:	449020ef          	jal	10010974 <__clzsi2>
1000dd30:	01850713          	addi	a4,a0,24
1000dd34:	01f00793          	li	a5,31
1000dd38:	f8e7d2e3          	bge	a5,a4,1000dcbc <__subdf3+0x638>
1000dd3c:	ff850793          	addi	a5,a0,-8
1000dd40:	00f997b3          	sll	a5,s3,a5
1000dd44:	00000613          	li	a2,0
1000dd48:	f8dff06f          	j	1000dcd4 <__subdf3+0x650>
1000dd4c:	fe170713          	addi	a4,a4,-31
1000dd50:	00e7d733          	srl	a4,a5,a4
1000dd54:	00000693          	li	a3,0
1000dd58:	00b50863          	beq	a0,a1,1000dd68 <__subdf3+0x6e4>
1000dd5c:	04000693          	li	a3,64
1000dd60:	40a686b3          	sub	a3,a3,a0
1000dd64:	00d796b3          	sll	a3,a5,a3
1000dd68:	00d666b3          	or	a3,a2,a3
1000dd6c:	00d036b3          	snez	a3,a3
1000dd70:	00d76633          	or	a2,a4,a3
1000dd74:	00000793          	li	a5,0
1000dd78:	ebdff06f          	j	1000dc34 <__subdf3+0x5b0>
1000dd7c:	40e484b3          	sub	s1,s1,a4
1000dd80:	ff800737          	lui	a4,0xff800
1000dd84:	fff70713          	addi	a4,a4,-1 # ff7fffff <_sp+0xef7ec2df>
1000dd88:	00e7f7b3          	and	a5,a5,a4
1000dd8c:	c35ff06f          	j	1000d9c0 <__subdf3+0x33c>
1000dd90:	00070793          	mv	a5,a4
1000dd94:	ea1ff06f          	j	1000dc34 <__subdf3+0x5b0>
1000dd98:	00050613          	mv	a2,a0
1000dd9c:	e99ff06f          	j	1000dc34 <__subdf3+0x5b0>
1000dda0:	00070793          	mv	a5,a4
1000dda4:	00058493          	mv	s1,a1
1000dda8:	b6dff06f          	j	1000d914 <__subdf3+0x290>
1000ddac:	00068493          	mv	s1,a3
1000ddb0:	00000793          	li	a5,0
1000ddb4:	00000613          	li	a2,0
1000ddb8:	b5dff06f          	j	1000d914 <__subdf3+0x290>
1000ddbc:	00068913          	mv	s2,a3
1000ddc0:	00070793          	mv	a5,a4
1000ddc4:	00088493          	mv	s1,a7
1000ddc8:	b4dff06f          	j	1000d914 <__subdf3+0x290>
1000ddcc:	00000913          	li	s2,0
1000ddd0:	00000793          	li	a5,0
1000ddd4:	b41ff06f          	j	1000d914 <__subdf3+0x290>
1000ddd8:	00000793          	li	a5,0
1000dddc:	00000613          	li	a2,0
1000dde0:	f41ff06f          	j	1000dd20 <__subdf3+0x69c>

1000dde4 <__fixdfsi>:
1000dde4:	0145d713          	srli	a4,a1,0x14
1000dde8:	001006b7          	lui	a3,0x100
1000ddec:	fff68793          	addi	a5,a3,-1 # fffff <__heap_size+0xfefff>
1000ddf0:	7ff77713          	andi	a4,a4,2047
1000ddf4:	3fe00613          	li	a2,1022
1000ddf8:	00b7f7b3          	and	a5,a5,a1
1000ddfc:	01f5d593          	srli	a1,a1,0x1f
1000de00:	04e65c63          	bge	a2,a4,1000de58 <__fixdfsi+0x74>
1000de04:	41d00613          	li	a2,1053
1000de08:	00e65a63          	bge	a2,a4,1000de1c <__fixdfsi+0x38>
1000de0c:	80000537          	lui	a0,0x80000
1000de10:	fff50513          	addi	a0,a0,-1 # 7fffffff <_sp+0x6ffec2df>
1000de14:	00a58533          	add	a0,a1,a0
1000de18:	00008067          	ret
1000de1c:	00d7e7b3          	or	a5,a5,a3
1000de20:	41300693          	li	a3,1043
1000de24:	02e6d463          	bge	a3,a4,1000de4c <__fixdfsi+0x68>
1000de28:	bed70693          	addi	a3,a4,-1043
1000de2c:	00d797b3          	sll	a5,a5,a3
1000de30:	43300693          	li	a3,1075
1000de34:	40e68733          	sub	a4,a3,a4
1000de38:	00e55533          	srl	a0,a0,a4
1000de3c:	00a7e533          	or	a0,a5,a0
1000de40:	00058e63          	beqz	a1,1000de5c <__fixdfsi+0x78>
1000de44:	40a00533          	neg	a0,a0
1000de48:	00008067          	ret
1000de4c:	40e686b3          	sub	a3,a3,a4
1000de50:	00d7d533          	srl	a0,a5,a3
1000de54:	fedff06f          	j	1000de40 <__fixdfsi+0x5c>
1000de58:	00000513          	li	a0,0
1000de5c:	00008067          	ret

1000de60 <__floatsidf>:
1000de60:	ff010113          	addi	sp,sp,-16
1000de64:	00112623          	sw	ra,12(sp)
1000de68:	00812423          	sw	s0,8(sp)
1000de6c:	00912223          	sw	s1,4(sp)
1000de70:	00050793          	mv	a5,a0
1000de74:	08050063          	beqz	a0,1000def4 <__floatsidf+0x94>
1000de78:	41f55713          	srai	a4,a0,0x1f
1000de7c:	00a74433          	xor	s0,a4,a0
1000de80:	40e40433          	sub	s0,s0,a4
1000de84:	01f55493          	srli	s1,a0,0x1f
1000de88:	00040513          	mv	a0,s0
1000de8c:	2e9020ef          	jal	10010974 <__clzsi2>
1000de90:	41e00793          	li	a5,1054
1000de94:	00a00713          	li	a4,10
1000de98:	40a787b3          	sub	a5,a5,a0
1000de9c:	04a74463          	blt	a4,a0,1000dee4 <__floatsidf+0x84>
1000dea0:	00b00713          	li	a4,11
1000dea4:	40a70733          	sub	a4,a4,a0
1000dea8:	01550513          	addi	a0,a0,21
1000deac:	00e45733          	srl	a4,s0,a4
1000deb0:	00a41433          	sll	s0,s0,a0
1000deb4:	00c12083          	lw	ra,12(sp)
1000deb8:	00040513          	mv	a0,s0
1000debc:	00c71713          	slli	a4,a4,0xc
1000dec0:	00812403          	lw	s0,8(sp)
1000dec4:	01479793          	slli	a5,a5,0x14
1000dec8:	00c75713          	srli	a4,a4,0xc
1000decc:	01f49493          	slli	s1,s1,0x1f
1000ded0:	00e7e7b3          	or	a5,a5,a4
1000ded4:	0097e5b3          	or	a1,a5,s1
1000ded8:	00412483          	lw	s1,4(sp)
1000dedc:	01010113          	addi	sp,sp,16
1000dee0:	00008067          	ret
1000dee4:	ff550513          	addi	a0,a0,-11
1000dee8:	00a41733          	sll	a4,s0,a0
1000deec:	00000413          	li	s0,0
1000def0:	fc5ff06f          	j	1000deb4 <__floatsidf+0x54>
1000def4:	00000493          	li	s1,0
1000def8:	00000713          	li	a4,0
1000defc:	ff1ff06f          	j	1000deec <__floatsidf+0x8c>

1000df00 <__eqtf2>:
1000df00:	00c52883          	lw	a7,12(a0)
1000df04:	00c5a303          	lw	t1,12(a1) # 80000c <__heap_size+0x7ff00c>
1000df08:	0005a683          	lw	a3,0(a1)
1000df0c:	0045a603          	lw	a2,4(a1)
1000df10:	0085a703          	lw	a4,8(a1)
1000df14:	000085b7          	lui	a1,0x8
1000df18:	0108d813          	srli	a6,a7,0x10
1000df1c:	fff58593          	addi	a1,a1,-1 # 7fff <__heap_size+0x6fff>
1000df20:	01089e13          	slli	t3,a7,0x10
1000df24:	01031293          	slli	t0,t1,0x10
1000df28:	01035793          	srli	a5,t1,0x10
1000df2c:	00b87833          	and	a6,a6,a1
1000df30:	00052e83          	lw	t4,0(a0)
1000df34:	00452f83          	lw	t6,4(a0)
1000df38:	00852f03          	lw	t5,8(a0)
1000df3c:	ff010113          	addi	sp,sp,-16
1000df40:	010e5e13          	srli	t3,t3,0x10
1000df44:	01f8d893          	srli	a7,a7,0x1f
1000df48:	0102d293          	srli	t0,t0,0x10
1000df4c:	00b7f7b3          	and	a5,a5,a1
1000df50:	01f35313          	srli	t1,t1,0x1f
1000df54:	02b81063          	bne	a6,a1,1000df74 <__eqtf2+0x74>
1000df58:	01dfe5b3          	or	a1,t6,t4
1000df5c:	01e5e5b3          	or	a1,a1,t5
1000df60:	01c5e5b3          	or	a1,a1,t3
1000df64:	00100513          	li	a0,1
1000df68:	06059c63          	bnez	a1,1000dfe0 <__eqtf2+0xe0>
1000df6c:	07079a63          	bne	a5,a6,1000dfe0 <__eqtf2+0xe0>
1000df70:	0080006f          	j	1000df78 <__eqtf2+0x78>
1000df74:	00b79c63          	bne	a5,a1,1000df8c <__eqtf2+0x8c>
1000df78:	00c6e5b3          	or	a1,a3,a2
1000df7c:	00e5e5b3          	or	a1,a1,a4
1000df80:	0055e5b3          	or	a1,a1,t0
1000df84:	00100513          	li	a0,1
1000df88:	04059c63          	bnez	a1,1000dfe0 <__eqtf2+0xe0>
1000df8c:	41d686b3          	sub	a3,a3,t4
1000df90:	40cf8633          	sub	a2,t6,a2
1000df94:	00d036b3          	snez	a3,a3
1000df98:	00c03633          	snez	a2,a2
1000df9c:	410787b3          	sub	a5,a5,a6
1000dfa0:	00c6e6b3          	or	a3,a3,a2
1000dfa4:	00f037b3          	snez	a5,a5
1000dfa8:	40ef0733          	sub	a4,t5,a4
1000dfac:	00d7e7b3          	or	a5,a5,a3
1000dfb0:	00e03733          	snez	a4,a4
1000dfb4:	00f76733          	or	a4,a4,a5
1000dfb8:	02071863          	bnez	a4,1000dfe8 <__eqtf2+0xe8>
1000dfbc:	025e1663          	bne	t3,t0,1000dfe8 <__eqtf2+0xe8>
1000dfc0:	00000513          	li	a0,0
1000dfc4:	00688e63          	beq	a7,t1,1000dfe0 <__eqtf2+0xe0>
1000dfc8:	00100513          	li	a0,1
1000dfcc:	00081a63          	bnez	a6,1000dfe0 <__eqtf2+0xe0>
1000dfd0:	01dfe533          	or	a0,t6,t4
1000dfd4:	01e56533          	or	a0,a0,t5
1000dfd8:	01c56533          	or	a0,a0,t3
1000dfdc:	00a03533          	snez	a0,a0
1000dfe0:	01010113          	addi	sp,sp,16
1000dfe4:	00008067          	ret
1000dfe8:	00100513          	li	a0,1
1000dfec:	ff5ff06f          	j	1000dfe0 <__eqtf2+0xe0>

1000dff0 <__getf2>:
1000dff0:	00c52783          	lw	a5,12(a0)
1000dff4:	00c5a683          	lw	a3,12(a1)
1000dff8:	00008737          	lui	a4,0x8
1000dffc:	fff70713          	addi	a4,a4,-1 # 7fff <__heap_size+0x6fff>
1000e000:	0005a283          	lw	t0,0(a1)
1000e004:	0045a303          	lw	t1,4(a1)
1000e008:	0085a383          	lw	t2,8(a1)
1000e00c:	0107d593          	srli	a1,a5,0x10
1000e010:	01079e13          	slli	t3,a5,0x10
1000e014:	0106d613          	srli	a2,a3,0x10
1000e018:	00e5f5b3          	and	a1,a1,a4
1000e01c:	00052f03          	lw	t5,0(a0)
1000e020:	00452883          	lw	a7,4(a0)
1000e024:	00852f83          	lw	t6,8(a0)
1000e028:	ff010113          	addi	sp,sp,-16
1000e02c:	010e5e13          	srli	t3,t3,0x10
1000e030:	01f7d793          	srli	a5,a5,0x1f
1000e034:	00e67633          	and	a2,a2,a4
1000e038:	01f6de93          	srli	t4,a3,0x1f
1000e03c:	00e59c63          	bne	a1,a4,1000e054 <__getf2+0x64>
1000e040:	01e8e733          	or	a4,a7,t5
1000e044:	01f76733          	or	a4,a4,t6
1000e048:	01c76733          	or	a4,a4,t3
1000e04c:	ffe00513          	li	a0,-2
1000e050:	06071a63          	bnez	a4,1000e0c4 <__getf2+0xd4>
1000e054:	00008737          	lui	a4,0x8
1000e058:	01069693          	slli	a3,a3,0x10
1000e05c:	fff70713          	addi	a4,a4,-1 # 7fff <__heap_size+0x6fff>
1000e060:	0106d693          	srli	a3,a3,0x10
1000e064:	00060513          	mv	a0,a2
1000e068:	00e61a63          	bne	a2,a4,1000e07c <__getf2+0x8c>
1000e06c:	00536733          	or	a4,t1,t0
1000e070:	00776733          	or	a4,a4,t2
1000e074:	00d76733          	or	a4,a4,a3
1000e078:	04071a63          	bnez	a4,1000e0cc <__getf2+0xdc>
1000e07c:	00000713          	li	a4,0
1000e080:	00059a63          	bnez	a1,1000e094 <__getf2+0xa4>
1000e084:	01e8e733          	or	a4,a7,t5
1000e088:	01f76733          	or	a4,a4,t6
1000e08c:	01c76733          	or	a4,a4,t3
1000e090:	00173713          	seqz	a4,a4
1000e094:	04061463          	bnez	a2,1000e0dc <__getf2+0xec>
1000e098:	00536833          	or	a6,t1,t0
1000e09c:	00786833          	or	a6,a6,t2
1000e0a0:	00d86833          	or	a6,a6,a3
1000e0a4:	00070a63          	beqz	a4,1000e0b8 <__getf2+0xc8>
1000e0a8:	00080e63          	beqz	a6,1000e0c4 <__getf2+0xd4>
1000e0ac:	001e9513          	slli	a0,t4,0x1
1000e0b0:	fff50513          	addi	a0,a0,-1
1000e0b4:	0100006f          	j	1000e0c4 <__getf2+0xd4>
1000e0b8:	02081463          	bnez	a6,1000e0e0 <__getf2+0xf0>
1000e0bc:	40f00533          	neg	a0,a5
1000e0c0:	00156513          	ori	a0,a0,1
1000e0c4:	01010113          	addi	sp,sp,16
1000e0c8:	00008067          	ret
1000e0cc:	ffe00513          	li	a0,-2
1000e0d0:	ff5ff06f          	j	1000e0c4 <__getf2+0xd4>
1000e0d4:	00000513          	li	a0,0
1000e0d8:	fedff06f          	j	1000e0c4 <__getf2+0xd4>
1000e0dc:	fc0718e3          	bnez	a4,1000e0ac <__getf2+0xbc>
1000e0e0:	fcfe9ee3          	bne	t4,a5,1000e0bc <__getf2+0xcc>
1000e0e4:	41d00533          	neg	a0,t4
1000e0e8:	fcb64ce3          	blt	a2,a1,1000e0c0 <__getf2+0xd0>
1000e0ec:	fcc5c0e3          	blt	a1,a2,1000e0ac <__getf2+0xbc>
1000e0f0:	fdc6e6e3          	bltu	a3,t3,1000e0bc <__getf2+0xcc>
1000e0f4:	02de1463          	bne	t3,a3,1000e11c <__getf2+0x12c>
1000e0f8:	fdf3e2e3          	bltu	t2,t6,1000e0bc <__getf2+0xcc>
1000e0fc:	03f39063          	bne	t2,t6,1000e11c <__getf2+0x12c>
1000e100:	fb136ee3          	bltu	t1,a7,1000e0bc <__getf2+0xcc>
1000e104:	41130733          	sub	a4,t1,a7
1000e108:	01e2f463          	bgeu	t0,t5,1000e110 <__getf2+0x120>
1000e10c:	fa0708e3          	beqz	a4,1000e0bc <__getf2+0xcc>
1000e110:	0068e663          	bltu	a7,t1,1000e11c <__getf2+0x12c>
1000e114:	fc5f70e3          	bgeu	t5,t0,1000e0d4 <__getf2+0xe4>
1000e118:	fa071ee3          	bnez	a4,1000e0d4 <__getf2+0xe4>
1000e11c:	00179513          	slli	a0,a5,0x1
1000e120:	f91ff06f          	j	1000e0b0 <__getf2+0xc0>

1000e124 <__letf2>:
1000e124:	00c52783          	lw	a5,12(a0)
1000e128:	00c5a683          	lw	a3,12(a1)
1000e12c:	00008737          	lui	a4,0x8
1000e130:	fff70713          	addi	a4,a4,-1 # 7fff <__heap_size+0x6fff>
1000e134:	0005a283          	lw	t0,0(a1)
1000e138:	0045a303          	lw	t1,4(a1)
1000e13c:	0085a383          	lw	t2,8(a1)
1000e140:	0107d593          	srli	a1,a5,0x10
1000e144:	01079e13          	slli	t3,a5,0x10
1000e148:	0106d613          	srli	a2,a3,0x10
1000e14c:	00e5f5b3          	and	a1,a1,a4
1000e150:	00052f03          	lw	t5,0(a0)
1000e154:	00452883          	lw	a7,4(a0)
1000e158:	00852f83          	lw	t6,8(a0)
1000e15c:	ff010113          	addi	sp,sp,-16
1000e160:	010e5e13          	srli	t3,t3,0x10
1000e164:	01f7d793          	srli	a5,a5,0x1f
1000e168:	00e67633          	and	a2,a2,a4
1000e16c:	01f6de93          	srli	t4,a3,0x1f
1000e170:	00e59c63          	bne	a1,a4,1000e188 <__letf2+0x64>
1000e174:	01e8e733          	or	a4,a7,t5
1000e178:	01f76733          	or	a4,a4,t6
1000e17c:	01c76733          	or	a4,a4,t3
1000e180:	00200513          	li	a0,2
1000e184:	06071a63          	bnez	a4,1000e1f8 <__letf2+0xd4>
1000e188:	00008737          	lui	a4,0x8
1000e18c:	01069693          	slli	a3,a3,0x10
1000e190:	fff70713          	addi	a4,a4,-1 # 7fff <__heap_size+0x6fff>
1000e194:	0106d693          	srli	a3,a3,0x10
1000e198:	00060513          	mv	a0,a2
1000e19c:	00e61a63          	bne	a2,a4,1000e1b0 <__letf2+0x8c>
1000e1a0:	00536733          	or	a4,t1,t0
1000e1a4:	00776733          	or	a4,a4,t2
1000e1a8:	00d76733          	or	a4,a4,a3
1000e1ac:	04071a63          	bnez	a4,1000e200 <__letf2+0xdc>
1000e1b0:	00000713          	li	a4,0
1000e1b4:	00059a63          	bnez	a1,1000e1c8 <__letf2+0xa4>
1000e1b8:	01e8e733          	or	a4,a7,t5
1000e1bc:	01f76733          	or	a4,a4,t6
1000e1c0:	01c76733          	or	a4,a4,t3
1000e1c4:	00173713          	seqz	a4,a4
1000e1c8:	04061463          	bnez	a2,1000e210 <__letf2+0xec>
1000e1cc:	00536833          	or	a6,t1,t0
1000e1d0:	00786833          	or	a6,a6,t2
1000e1d4:	00d86833          	or	a6,a6,a3
1000e1d8:	00070a63          	beqz	a4,1000e1ec <__letf2+0xc8>
1000e1dc:	00080e63          	beqz	a6,1000e1f8 <__letf2+0xd4>
1000e1e0:	001e9513          	slli	a0,t4,0x1
1000e1e4:	fff50513          	addi	a0,a0,-1
1000e1e8:	0100006f          	j	1000e1f8 <__letf2+0xd4>
1000e1ec:	02081463          	bnez	a6,1000e214 <__letf2+0xf0>
1000e1f0:	40f00533          	neg	a0,a5
1000e1f4:	00156513          	ori	a0,a0,1
1000e1f8:	01010113          	addi	sp,sp,16
1000e1fc:	00008067          	ret
1000e200:	00200513          	li	a0,2
1000e204:	ff5ff06f          	j	1000e1f8 <__letf2+0xd4>
1000e208:	00000513          	li	a0,0
1000e20c:	fedff06f          	j	1000e1f8 <__letf2+0xd4>
1000e210:	fc0718e3          	bnez	a4,1000e1e0 <__letf2+0xbc>
1000e214:	fcfe9ee3          	bne	t4,a5,1000e1f0 <__letf2+0xcc>
1000e218:	41d00533          	neg	a0,t4
1000e21c:	fcb64ce3          	blt	a2,a1,1000e1f4 <__letf2+0xd0>
1000e220:	fcc5c0e3          	blt	a1,a2,1000e1e0 <__letf2+0xbc>
1000e224:	fdc6e6e3          	bltu	a3,t3,1000e1f0 <__letf2+0xcc>
1000e228:	02de1463          	bne	t3,a3,1000e250 <__letf2+0x12c>
1000e22c:	fdf3e2e3          	bltu	t2,t6,1000e1f0 <__letf2+0xcc>
1000e230:	03f39063          	bne	t2,t6,1000e250 <__letf2+0x12c>
1000e234:	fb136ee3          	bltu	t1,a7,1000e1f0 <__letf2+0xcc>
1000e238:	41130733          	sub	a4,t1,a7
1000e23c:	01e2f463          	bgeu	t0,t5,1000e244 <__letf2+0x120>
1000e240:	fa0708e3          	beqz	a4,1000e1f0 <__letf2+0xcc>
1000e244:	0068e663          	bltu	a7,t1,1000e250 <__letf2+0x12c>
1000e248:	fc5f70e3          	bgeu	t5,t0,1000e208 <__letf2+0xe4>
1000e24c:	fa071ee3          	bnez	a4,1000e208 <__letf2+0xe4>
1000e250:	00179513          	slli	a0,a5,0x1
1000e254:	f91ff06f          	j	1000e1e4 <__letf2+0xc0>

1000e258 <__multf3>:
1000e258:	f5010113          	addi	sp,sp,-176
1000e25c:	09412c23          	sw	s4,152(sp)
1000e260:	00c5aa03          	lw	s4,12(a1)
1000e264:	0045a783          	lw	a5,4(a1)
1000e268:	0085a683          	lw	a3,8(a1)
1000e26c:	00a12423          	sw	a0,8(sp)
1000e270:	0005a503          	lw	a0,0(a1)
1000e274:	0b212023          	sw	s2,160(sp)
1000e278:	09512a23          	sw	s5,148(sp)
1000e27c:	00c62903          	lw	s2,12(a2) # 1000c <__heap_size+0xf00c>
1000e280:	00462a83          	lw	s5,4(a2)
1000e284:	09612823          	sw	s6,144(sp)
1000e288:	09712623          	sw	s7,140(sp)
1000e28c:	00062b03          	lw	s6,0(a2)
1000e290:	00862b83          	lw	s7,8(a2)
1000e294:	010a1713          	slli	a4,s4,0x10
1000e298:	00008637          	lui	a2,0x8
1000e29c:	0a912223          	sw	s1,164(sp)
1000e2a0:	01075713          	srli	a4,a4,0x10
1000e2a4:	010a5493          	srli	s1,s4,0x10
1000e2a8:	fff60613          	addi	a2,a2,-1 # 7fff <__heap_size+0x6fff>
1000e2ac:	0a812423          	sw	s0,168(sp)
1000e2b0:	0a112623          	sw	ra,172(sp)
1000e2b4:	09312e23          	sw	s3,156(sp)
1000e2b8:	09812423          	sw	s8,136(sp)
1000e2bc:	09912223          	sw	s9,132(sp)
1000e2c0:	09a12023          	sw	s10,128(sp)
1000e2c4:	07b12e23          	sw	s11,124(sp)
1000e2c8:	04a12823          	sw	a0,80(sp)
1000e2cc:	04f12a23          	sw	a5,84(sp)
1000e2d0:	04d12c23          	sw	a3,88(sp)
1000e2d4:	05412e23          	sw	s4,92(sp)
1000e2d8:	02a12023          	sw	a0,32(sp)
1000e2dc:	02f12223          	sw	a5,36(sp)
1000e2e0:	02d12423          	sw	a3,40(sp)
1000e2e4:	02e12623          	sw	a4,44(sp)
1000e2e8:	00c4f4b3          	and	s1,s1,a2
1000e2ec:	01fa5413          	srli	s0,s4,0x1f
1000e2f0:	16048ee3          	beqz	s1,1000ec6c <__multf3+0xa14>
1000e2f4:	28c484e3          	beq	s1,a2,1000ed7c <__multf3+0xb24>
1000e2f8:	000107b7          	lui	a5,0x10
1000e2fc:	00f76733          	or	a4,a4,a5
1000e300:	02e12623          	sw	a4,44(sp)
1000e304:	02010613          	addi	a2,sp,32
1000e308:	02c10793          	addi	a5,sp,44
1000e30c:	0007a703          	lw	a4,0(a5) # 10000 <__heap_size+0xf000>
1000e310:	ffc7a683          	lw	a3,-4(a5)
1000e314:	ffc78793          	addi	a5,a5,-4
1000e318:	00371713          	slli	a4,a4,0x3
1000e31c:	01d6d693          	srli	a3,a3,0x1d
1000e320:	00d76733          	or	a4,a4,a3
1000e324:	00e7a223          	sw	a4,4(a5)
1000e328:	fef612e3          	bne	a2,a5,1000e30c <__multf3+0xb4>
1000e32c:	ffffc7b7          	lui	a5,0xffffc
1000e330:	00351513          	slli	a0,a0,0x3
1000e334:	00178793          	addi	a5,a5,1 # ffffc001 <_sp+0xeffe82e1>
1000e338:	02a12023          	sw	a0,32(sp)
1000e33c:	00f484b3          	add	s1,s1,a5
1000e340:	00000993          	li	s3,0
1000e344:	01091513          	slli	a0,s2,0x10
1000e348:	00008737          	lui	a4,0x8
1000e34c:	01095793          	srli	a5,s2,0x10
1000e350:	01055513          	srli	a0,a0,0x10
1000e354:	fff70713          	addi	a4,a4,-1 # 7fff <__heap_size+0x6fff>
1000e358:	05212e23          	sw	s2,92(sp)
1000e35c:	05612823          	sw	s6,80(sp)
1000e360:	05512a23          	sw	s5,84(sp)
1000e364:	05712c23          	sw	s7,88(sp)
1000e368:	03612823          	sw	s6,48(sp)
1000e36c:	03512a23          	sw	s5,52(sp)
1000e370:	03712c23          	sw	s7,56(sp)
1000e374:	02a12e23          	sw	a0,60(sp)
1000e378:	00e7f7b3          	and	a5,a5,a4
1000e37c:	01f95913          	srli	s2,s2,0x1f
1000e380:	220782e3          	beqz	a5,1000eda4 <__multf3+0xb4c>
1000e384:	32e78ae3          	beq	a5,a4,1000eeb8 <__multf3+0xc60>
1000e388:	00010737          	lui	a4,0x10
1000e38c:	00e56533          	or	a0,a0,a4
1000e390:	02a12e23          	sw	a0,60(sp)
1000e394:	03010593          	addi	a1,sp,48
1000e398:	03c10713          	addi	a4,sp,60
1000e39c:	00072683          	lw	a3,0(a4) # 10000 <__heap_size+0xf000>
1000e3a0:	ffc72603          	lw	a2,-4(a4)
1000e3a4:	ffc70713          	addi	a4,a4,-4
1000e3a8:	00369693          	slli	a3,a3,0x3
1000e3ac:	01d65613          	srli	a2,a2,0x1d
1000e3b0:	00c6e6b3          	or	a3,a3,a2
1000e3b4:	00d72223          	sw	a3,4(a4)
1000e3b8:	fee592e3          	bne	a1,a4,1000e39c <__multf3+0x144>
1000e3bc:	ffffc737          	lui	a4,0xffffc
1000e3c0:	003b1b13          	slli	s6,s6,0x3
1000e3c4:	00170713          	addi	a4,a4,1 # ffffc001 <_sp+0xeffe82e1>
1000e3c8:	03612823          	sw	s6,48(sp)
1000e3cc:	00e787b3          	add	a5,a5,a4
1000e3d0:	00000713          	li	a4,0
1000e3d4:	009787b3          	add	a5,a5,s1
1000e3d8:	00f12823          	sw	a5,16(sp)
1000e3dc:	00178793          	addi	a5,a5,1
1000e3e0:	00f12623          	sw	a5,12(sp)
1000e3e4:	00299793          	slli	a5,s3,0x2
1000e3e8:	00e7e7b3          	or	a5,a5,a4
1000e3ec:	00a00693          	li	a3,10
1000e3f0:	32f6c0e3          	blt	a3,a5,1000ef10 <__multf3+0xcb8>
1000e3f4:	00200613          	li	a2,2
1000e3f8:	01244433          	xor	s0,s0,s2
1000e3fc:	00100693          	li	a3,1
1000e400:	2cf64ae3          	blt	a2,a5,1000eed4 <__multf3+0xc7c>
1000e404:	fff78793          	addi	a5,a5,-1
1000e408:	30f6fee3          	bgeu	a3,a5,1000ef24 <__multf3+0xccc>
1000e40c:	02012803          	lw	a6,32(sp)
1000e410:	03012e03          	lw	t3,48(sp)
1000e414:	01085993          	srli	s3,a6,0x10
1000e418:	010e5693          	srli	a3,t3,0x10
1000e41c:	01081813          	slli	a6,a6,0x10
1000e420:	010e1e13          	slli	t3,t3,0x10
1000e424:	01085813          	srli	a6,a6,0x10
1000e428:	010e5e13          	srli	t3,t3,0x10
1000e42c:	030e0633          	mul	a2,t3,a6
1000e430:	03c985b3          	mul	a1,s3,t3
1000e434:	01065793          	srli	a5,a2,0x10
1000e438:	03068733          	mul	a4,a3,a6
1000e43c:	00b70733          	add	a4,a4,a1
1000e440:	00e787b3          	add	a5,a5,a4
1000e444:	02d98c33          	mul	s8,s3,a3
1000e448:	00b7f663          	bgeu	a5,a1,1000e454 <__multf3+0x1fc>
1000e44c:	00010737          	lui	a4,0x10
1000e450:	00ec0c33          	add	s8,s8,a4
1000e454:	03412303          	lw	t1,52(sp)
1000e458:	01061613          	slli	a2,a2,0x10
1000e45c:	01065613          	srli	a2,a2,0x10
1000e460:	01035493          	srli	s1,t1,0x10
1000e464:	0107d713          	srli	a4,a5,0x10
1000e468:	01031313          	slli	t1,t1,0x10
1000e46c:	01079793          	slli	a5,a5,0x10
1000e470:	00c787b3          	add	a5,a5,a2
1000e474:	01035313          	srli	t1,t1,0x10
1000e478:	026985b3          	mul	a1,s3,t1
1000e47c:	00f12a23          	sw	a5,20(sp)
1000e480:	04f12823          	sw	a5,80(sp)
1000e484:	03048633          	mul	a2,s1,a6
1000e488:	030307b3          	mul	a5,t1,a6
1000e48c:	00b60633          	add	a2,a2,a1
1000e490:	0107df13          	srli	t5,a5,0x10
1000e494:	00cf0f33          	add	t5,t5,a2
1000e498:	02998bb3          	mul	s7,s3,s1
1000e49c:	00bf7663          	bgeu	t5,a1,1000e4a8 <__multf3+0x250>
1000e4a0:	00010637          	lui	a2,0x10
1000e4a4:	00cb8bb3          	add	s7,s7,a2
1000e4a8:	02412503          	lw	a0,36(sp)
1000e4ac:	01079793          	slli	a5,a5,0x10
1000e4b0:	0107d793          	srli	a5,a5,0x10
1000e4b4:	01055913          	srli	s2,a0,0x10
1000e4b8:	01051513          	slli	a0,a0,0x10
1000e4bc:	01055513          	srli	a0,a0,0x10
1000e4c0:	010f5613          	srli	a2,t5,0x10
1000e4c4:	010f1f13          	slli	t5,t5,0x10
1000e4c8:	00ff0f33          	add	t5,t5,a5
1000e4cc:	03c90fb3          	mul	t6,s2,t3
1000e4d0:	01e70733          	add	a4,a4,t5
1000e4d4:	03c507b3          	mul	a5,a0,t3
1000e4d8:	02a688b3          	mul	a7,a3,a0
1000e4dc:	0107de93          	srli	t4,a5,0x10
1000e4e0:	01f888b3          	add	a7,a7,t6
1000e4e4:	011e8eb3          	add	t4,t4,a7
1000e4e8:	032685b3          	mul	a1,a3,s2
1000e4ec:	01fef663          	bgeu	t4,t6,1000e4f8 <__multf3+0x2a0>
1000e4f0:	000108b7          	lui	a7,0x10
1000e4f4:	011585b3          	add	a1,a1,a7
1000e4f8:	010eda93          	srli	s5,t4,0x10
1000e4fc:	00ba8ab3          	add	s5,s5,a1
1000e500:	01079793          	slli	a5,a5,0x10
1000e504:	0107d793          	srli	a5,a5,0x10
1000e508:	010e9e93          	slli	t4,t4,0x10
1000e50c:	00fe8eb3          	add	t4,t4,a5
1000e510:	02a305b3          	mul	a1,t1,a0
1000e514:	026908b3          	mul	a7,s2,t1
1000e518:	0105d793          	srli	a5,a1,0x10
1000e51c:	02a482b3          	mul	t0,s1,a0
1000e520:	011282b3          	add	t0,t0,a7
1000e524:	005787b3          	add	a5,a5,t0
1000e528:	03248fb3          	mul	t6,s1,s2
1000e52c:	0117f663          	bgeu	a5,a7,1000e538 <__multf3+0x2e0>
1000e530:	000108b7          	lui	a7,0x10
1000e534:	011f8fb3          	add	t6,t6,a7
1000e538:	0107d893          	srli	a7,a5,0x10
1000e53c:	01f888b3          	add	a7,a7,t6
1000e540:	01112c23          	sw	a7,24(sp)
1000e544:	03812883          	lw	a7,56(sp)
1000e548:	01059593          	slli	a1,a1,0x10
1000e54c:	0105d593          	srli	a1,a1,0x10
1000e550:	0108d293          	srli	t0,a7,0x10
1000e554:	01079793          	slli	a5,a5,0x10
1000e558:	01089893          	slli	a7,a7,0x10
1000e55c:	00b787b3          	add	a5,a5,a1
1000e560:	0108d893          	srli	a7,a7,0x10
1000e564:	030885b3          	mul	a1,a7,a6
1000e568:	00f12e23          	sw	a5,28(sp)
1000e56c:	031983b3          	mul	t2,s3,a7
1000e570:	0105da13          	srli	s4,a1,0x10
1000e574:	030287b3          	mul	a5,t0,a6
1000e578:	007787b3          	add	a5,a5,t2
1000e57c:	00fa07b3          	add	a5,s4,a5
1000e580:	02598fb3          	mul	t6,s3,t0
1000e584:	0077f663          	bgeu	a5,t2,1000e590 <__multf3+0x338>
1000e588:	000103b7          	lui	t2,0x10
1000e58c:	007f8fb3          	add	t6,t6,t2
1000e590:	01059593          	slli	a1,a1,0x10
1000e594:	0107da13          	srli	s4,a5,0x10
1000e598:	0105d593          	srli	a1,a1,0x10
1000e59c:	01079793          	slli	a5,a5,0x10
1000e5a0:	00b787b3          	add	a5,a5,a1
1000e5a4:	02812583          	lw	a1,40(sp)
1000e5a8:	01fa0a33          	add	s4,s4,t6
1000e5ac:	0105d393          	srli	t2,a1,0x10
1000e5b0:	01059593          	slli	a1,a1,0x10
1000e5b4:	0105d593          	srli	a1,a1,0x10
1000e5b8:	03c58fb3          	mul	t6,a1,t3
1000e5bc:	03c38d33          	mul	s10,t2,t3
1000e5c0:	010fdd93          	srli	s11,t6,0x10
1000e5c4:	02b68b33          	mul	s6,a3,a1
1000e5c8:	01ab0b33          	add	s6,s6,s10
1000e5cc:	016d8b33          	add	s6,s11,s6
1000e5d0:	02768cb3          	mul	s9,a3,t2
1000e5d4:	01ab7663          	bgeu	s6,s10,1000e5e0 <__multf3+0x388>
1000e5d8:	00010d37          	lui	s10,0x10
1000e5dc:	01ac8cb3          	add	s9,s9,s10
1000e5e0:	00ec0733          	add	a4,s8,a4
1000e5e4:	01e73f33          	sltu	t5,a4,t5
1000e5e8:	01e60633          	add	a2,a2,t5
1000e5ec:	01760633          	add	a2,a2,s7
1000e5f0:	01d70eb3          	add	t4,a4,t4
1000e5f4:	01560ab3          	add	s5,a2,s5
1000e5f8:	010f9f93          	slli	t6,t6,0x10
1000e5fc:	00eeb733          	sltu	a4,t4,a4
1000e600:	00ea8733          	add	a4,s5,a4
1000e604:	010b5d13          	srli	s10,s6,0x10
1000e608:	010fdf93          	srli	t6,t6,0x10
1000e60c:	010b1b13          	slli	s6,s6,0x10
1000e610:	01fb0fb3          	add	t6,s6,t6
1000e614:	00cabb33          	sltu	s6,s5,a2
1000e618:	01573ab3          	sltu	s5,a4,s5
1000e61c:	01e63633          	sltu	a2,a2,t5
1000e620:	01c12f03          	lw	t5,28(sp)
1000e624:	015b6b33          	or	s6,s6,s5
1000e628:	01812a83          	lw	s5,24(sp)
1000e62c:	00cb0633          	add	a2,s6,a2
1000e630:	01e70f33          	add	t5,a4,t5
1000e634:	01560ab3          	add	s5,a2,s5
1000e638:	00ef3733          	sltu	a4,t5,a4
1000e63c:	00ea8733          	add	a4,s5,a4
1000e640:	00ff07b3          	add	a5,t5,a5
1000e644:	01470a33          	add	s4,a4,s4
1000e648:	01e7bf33          	sltu	t5,a5,t5
1000e64c:	01ea0f33          	add	t5,s4,t5
1000e650:	00cab633          	sltu	a2,s5,a2
1000e654:	01573ab3          	sltu	s5,a4,s5
1000e658:	00ea3733          	sltu	a4,s4,a4
1000e65c:	014f3a33          	sltu	s4,t5,s4
1000e660:	01476733          	or	a4,a4,s4
1000e664:	03c12a03          	lw	s4,60(sp)
1000e668:	01566633          	or	a2,a2,s5
1000e66c:	00e60633          	add	a2,a2,a4
1000e670:	010a5a93          	srli	s5,s4,0x10
1000e674:	010a1a13          	slli	s4,s4,0x10
1000e678:	010a5a13          	srli	s4,s4,0x10
1000e67c:	030a0733          	mul	a4,s4,a6
1000e680:	01f78fb3          	add	t6,a5,t6
1000e684:	019d0cb3          	add	s9,s10,s9
1000e688:	019f0cb3          	add	s9,t5,s9
1000e68c:	00ffb7b3          	sltu	a5,t6,a5
1000e690:	00fc87b3          	add	a5,s9,a5
1000e694:	01ecbf33          	sltu	t5,s9,t5
1000e698:	0197bcb3          	sltu	s9,a5,s9
1000e69c:	019f6f33          	or	t5,t5,s9
1000e6a0:	00cf0f33          	add	t5,t5,a2
1000e6a4:	03498b33          	mul	s6,s3,s4
1000e6a8:	01075613          	srli	a2,a4,0x10
1000e6ac:	05d12a23          	sw	t4,84(sp)
1000e6b0:	05f12c23          	sw	t6,88(sp)
1000e6b4:	030a8833          	mul	a6,s5,a6
1000e6b8:	01680833          	add	a6,a6,s6
1000e6bc:	01060633          	add	a2,a2,a6
1000e6c0:	035989b3          	mul	s3,s3,s5
1000e6c4:	01667663          	bgeu	a2,s6,1000e6d0 <__multf3+0x478>
1000e6c8:	00010837          	lui	a6,0x10
1000e6cc:	010989b3          	add	s3,s3,a6
1000e6d0:	02c12b03          	lw	s6,44(sp)
1000e6d4:	01065813          	srli	a6,a2,0x10
1000e6d8:	013809b3          	add	s3,a6,s3
1000e6dc:	01071713          	slli	a4,a4,0x10
1000e6e0:	010b5813          	srli	a6,s6,0x10
1000e6e4:	010b1b13          	slli	s6,s6,0x10
1000e6e8:	01075713          	srli	a4,a4,0x10
1000e6ec:	010b5b13          	srli	s6,s6,0x10
1000e6f0:	01061613          	slli	a2,a2,0x10
1000e6f4:	03068bb3          	mul	s7,a3,a6
1000e6f8:	00e60633          	add	a2,a2,a4
1000e6fc:	036686b3          	mul	a3,a3,s6
1000e700:	03cb0733          	mul	a4,s6,t3
1000e704:	03c80e33          	mul	t3,a6,t3
1000e708:	01075c13          	srli	s8,a4,0x10
1000e70c:	01c686b3          	add	a3,a3,t3
1000e710:	00dc06b3          	add	a3,s8,a3
1000e714:	01c6f663          	bgeu	a3,t3,1000e720 <__multf3+0x4c8>
1000e718:	00010e37          	lui	t3,0x10
1000e71c:	01cb8bb3          	add	s7,s7,t3
1000e720:	0106de13          	srli	t3,a3,0x10
1000e724:	01071713          	slli	a4,a4,0x10
1000e728:	017e0e33          	add	t3,t3,s7
1000e72c:	01069693          	slli	a3,a3,0x10
1000e730:	01075713          	srli	a4,a4,0x10
1000e734:	00e68db3          	add	s11,a3,a4
1000e738:	01c12c23          	sw	t3,24(sp)
1000e73c:	031506b3          	mul	a3,a0,a7
1000e740:	03190e33          	mul	t3,s2,a7
1000e744:	0106dc13          	srli	s8,a3,0x10
1000e748:	02a28733          	mul	a4,t0,a0
1000e74c:	01c70733          	add	a4,a4,t3
1000e750:	00ec0733          	add	a4,s8,a4
1000e754:	02590bb3          	mul	s7,s2,t0
1000e758:	01c77663          	bgeu	a4,t3,1000e764 <__multf3+0x50c>
1000e75c:	00010e37          	lui	t3,0x10
1000e760:	01cb8bb3          	add	s7,s7,t3
1000e764:	01069693          	slli	a3,a3,0x10
1000e768:	01075e13          	srli	t3,a4,0x10
1000e76c:	0106d693          	srli	a3,a3,0x10
1000e770:	01071713          	slli	a4,a4,0x10
1000e774:	017e0e33          	add	t3,t3,s7
1000e778:	00d70733          	add	a4,a4,a3
1000e77c:	02638c33          	mul	s8,t2,t1
1000e780:	02b306b3          	mul	a3,t1,a1
1000e784:	02b48bb3          	mul	s7,s1,a1
1000e788:	0106dd13          	srli	s10,a3,0x10
1000e78c:	018b8bb3          	add	s7,s7,s8
1000e790:	017d0bb3          	add	s7,s10,s7
1000e794:	02748cb3          	mul	s9,s1,t2
1000e798:	018bf663          	bgeu	s7,s8,1000e7a4 <__multf3+0x54c>
1000e79c:	00010c37          	lui	s8,0x10
1000e7a0:	018c8cb3          	add	s9,s9,s8
1000e7a4:	010bdc13          	srli	s8,s7,0x10
1000e7a8:	00c78633          	add	a2,a5,a2
1000e7ac:	019c0c33          	add	s8,s8,s9
1000e7b0:	01069693          	slli	a3,a3,0x10
1000e7b4:	01812c83          	lw	s9,24(sp)
1000e7b8:	013f09b3          	add	s3,t5,s3
1000e7bc:	010b9b93          	slli	s7,s7,0x10
1000e7c0:	00f637b3          	sltu	a5,a2,a5
1000e7c4:	0106d693          	srli	a3,a3,0x10
1000e7c8:	00f987b3          	add	a5,s3,a5
1000e7cc:	00db86b3          	add	a3,s7,a3
1000e7d0:	01b60bb3          	add	s7,a2,s11
1000e7d4:	01978cb3          	add	s9,a5,s9
1000e7d8:	00cbb633          	sltu	a2,s7,a2
1000e7dc:	00cc8633          	add	a2,s9,a2
1000e7e0:	00eb8733          	add	a4,s7,a4
1000e7e4:	01c60e33          	add	t3,a2,t3
1000e7e8:	01773bb3          	sltu	s7,a4,s7
1000e7ec:	017e0bb3          	add	s7,t3,s7
1000e7f0:	00d706b3          	add	a3,a4,a3
1000e7f4:	018b8c33          	add	s8,s7,s8
1000e7f8:	01e9bf33          	sltu	t5,s3,t5
1000e7fc:	00e6b733          	sltu	a4,a3,a4
1000e800:	0137b9b3          	sltu	s3,a5,s3
1000e804:	00fcb7b3          	sltu	a5,s9,a5
1000e808:	01963cb3          	sltu	s9,a2,s9
1000e80c:	013f69b3          	or	s3,t5,s3
1000e810:	00ce3633          	sltu	a2,t3,a2
1000e814:	0197e7b3          	or	a5,a5,s9
1000e818:	01cbbe33          	sltu	t3,s7,t3
1000e81c:	00ec0733          	add	a4,s8,a4
1000e820:	00f987b3          	add	a5,s3,a5
1000e824:	01c66633          	or	a2,a2,t3
1000e828:	017c3e33          	sltu	t3,s8,s7
1000e82c:	01873c33          	sltu	s8,a4,s8
1000e830:	00f60633          	add	a2,a2,a5
1000e834:	018e6e33          	or	t3,t3,s8
1000e838:	03138f33          	mul	t5,t2,a7
1000e83c:	00ce0e33          	add	t3,t3,a2
1000e840:	04d12e23          	sw	a3,92(sp)
1000e844:	02b88633          	mul	a2,a7,a1
1000e848:	02b28bb3          	mul	s7,t0,a1
1000e84c:	01065793          	srli	a5,a2,0x10
1000e850:	01eb8bb3          	add	s7,s7,t5
1000e854:	017787b3          	add	a5,a5,s7
1000e858:	027289b3          	mul	s3,t0,t2
1000e85c:	01e7f663          	bgeu	a5,t5,1000e868 <__multf3+0x610>
1000e860:	00010f37          	lui	t5,0x10
1000e864:	01e989b3          	add	s3,s3,t5
1000e868:	01061613          	slli	a2,a2,0x10
1000e86c:	0107df13          	srli	t5,a5,0x10
1000e870:	01065613          	srli	a2,a2,0x10
1000e874:	01079793          	slli	a5,a5,0x10
1000e878:	00c787b3          	add	a5,a5,a2
1000e87c:	013f0f33          	add	t5,t5,s3
1000e880:	02aa0633          	mul	a2,s4,a0
1000e884:	03490bb3          	mul	s7,s2,s4
1000e888:	01065993          	srli	s3,a2,0x10
1000e88c:	02aa8533          	mul	a0,s5,a0
1000e890:	01750533          	add	a0,a0,s7
1000e894:	00a989b3          	add	s3,s3,a0
1000e898:	03590933          	mul	s2,s2,s5
1000e89c:	0179f663          	bgeu	s3,s7,1000e8a8 <__multf3+0x650>
1000e8a0:	00010537          	lui	a0,0x10
1000e8a4:	00a90933          	add	s2,s2,a0
1000e8a8:	01061613          	slli	a2,a2,0x10
1000e8ac:	0109d513          	srli	a0,s3,0x10
1000e8b0:	01065613          	srli	a2,a2,0x10
1000e8b4:	01099993          	slli	s3,s3,0x10
1000e8b8:	00c989b3          	add	s3,s3,a2
1000e8bc:	01250933          	add	s2,a0,s2
1000e8c0:	026b0633          	mul	a2,s6,t1
1000e8c4:	03048bb3          	mul	s7,s1,a6
1000e8c8:	01065513          	srli	a0,a2,0x10
1000e8cc:	02680333          	mul	t1,a6,t1
1000e8d0:	036484b3          	mul	s1,s1,s6
1000e8d4:	006484b3          	add	s1,s1,t1
1000e8d8:	00950533          	add	a0,a0,s1
1000e8dc:	00657663          	bgeu	a0,t1,1000e8e8 <__multf3+0x690>
1000e8e0:	00010337          	lui	t1,0x10
1000e8e4:	006b8bb3          	add	s7,s7,t1
1000e8e8:	01061613          	slli	a2,a2,0x10
1000e8ec:	01055313          	srli	t1,a0,0x10
1000e8f0:	01065613          	srli	a2,a2,0x10
1000e8f4:	01051513          	slli	a0,a0,0x10
1000e8f8:	034384b3          	mul	s1,t2,s4
1000e8fc:	00c50533          	add	a0,a0,a2
1000e900:	01730333          	add	t1,t1,s7
1000e904:	02ba0633          	mul	a2,s4,a1
1000e908:	02ba85b3          	mul	a1,s5,a1
1000e90c:	01065b93          	srli	s7,a2,0x10
1000e910:	009585b3          	add	a1,a1,s1
1000e914:	00bb85b3          	add	a1,s7,a1
1000e918:	035383b3          	mul	t2,t2,s5
1000e91c:	0095f663          	bgeu	a1,s1,1000e928 <__multf3+0x6d0>
1000e920:	000104b7          	lui	s1,0x10
1000e924:	009383b3          	add	t2,t2,s1
1000e928:	0105d493          	srli	s1,a1,0x10
1000e92c:	007483b3          	add	t2,s1,t2
1000e930:	01061613          	slli	a2,a2,0x10
1000e934:	01065613          	srli	a2,a2,0x10
1000e938:	01059593          	slli	a1,a1,0x10
1000e93c:	00c585b3          	add	a1,a1,a2
1000e940:	031b04b3          	mul	s1,s6,a7
1000e944:	03028bb3          	mul	s7,t0,a6
1000e948:	0104d613          	srli	a2,s1,0x10
1000e94c:	031808b3          	mul	a7,a6,a7
1000e950:	036282b3          	mul	t0,t0,s6
1000e954:	011282b3          	add	t0,t0,a7
1000e958:	00560633          	add	a2,a2,t0
1000e95c:	01167663          	bgeu	a2,a7,1000e968 <__multf3+0x710>
1000e960:	000108b7          	lui	a7,0x10
1000e964:	011b8bb3          	add	s7,s7,a7
1000e968:	00f707b3          	add	a5,a4,a5
1000e96c:	01ee0f33          	add	t5,t3,t5
1000e970:	00e7b733          	sltu	a4,a5,a4
1000e974:	00ef0733          	add	a4,t5,a4
1000e978:	013789b3          	add	s3,a5,s3
1000e97c:	01270933          	add	s2,a4,s2
1000e980:	00f9b7b3          	sltu	a5,s3,a5
1000e984:	00f902b3          	add	t0,s2,a5
1000e988:	00a987b3          	add	a5,s3,a0
1000e98c:	036a0533          	mul	a0,s4,s6
1000e990:	00628333          	add	t1,t0,t1
1000e994:	06f12023          	sw	a5,96(sp)
1000e998:	0137b7b3          	sltu	a5,a5,s3
1000e99c:	00f307b3          	add	a5,t1,a5
1000e9a0:	01cf3e33          	sltu	t3,t5,t3
1000e9a4:	01e73f33          	sltu	t5,a4,t5
1000e9a8:	00e93733          	sltu	a4,s2,a4
1000e9ac:	0122b933          	sltu	s2,t0,s2
1000e9b0:	01276733          	or	a4,a4,s2
1000e9b4:	03480a33          	mul	s4,a6,s4
1000e9b8:	005332b3          	sltu	t0,t1,t0
1000e9bc:	01ee6e33          	or	t3,t3,t5
1000e9c0:	0067b333          	sltu	t1,a5,t1
1000e9c4:	00ee0e33          	add	t3,t3,a4
1000e9c8:	01049493          	slli	s1,s1,0x10
1000e9cc:	0062e2b3          	or	t0,t0,t1
1000e9d0:	00b785b3          	add	a1,a5,a1
1000e9d4:	01065893          	srli	a7,a2,0x10
1000e9d8:	01c282b3          	add	t0,t0,t3
1000e9dc:	030a8833          	mul	a6,s5,a6
1000e9e0:	01061613          	slli	a2,a2,0x10
1000e9e4:	0104d493          	srli	s1,s1,0x10
1000e9e8:	007283b3          	add	t2,t0,t2
1000e9ec:	00960633          	add	a2,a2,s1
1000e9f0:	00f5b7b3          	sltu	a5,a1,a5
1000e9f4:	00f387b3          	add	a5,t2,a5
1000e9f8:	00c58633          	add	a2,a1,a2
1000e9fc:	017888b3          	add	a7,a7,s7
1000ea00:	011788b3          	add	a7,a5,a7
1000ea04:	036a8ab3          	mul	s5,s5,s6
1000ea08:	06c12223          	sw	a2,100(sp)
1000ea0c:	00b63633          	sltu	a2,a2,a1
1000ea10:	00c88633          	add	a2,a7,a2
1000ea14:	01055713          	srli	a4,a0,0x10
1000ea18:	0053b2b3          	sltu	t0,t2,t0
1000ea1c:	0077b3b3          	sltu	t2,a5,t2
1000ea20:	00f8b7b3          	sltu	a5,a7,a5
1000ea24:	011638b3          	sltu	a7,a2,a7
1000ea28:	0072e2b3          	or	t0,t0,t2
1000ea2c:	014a8ab3          	add	s5,s5,s4
1000ea30:	01570733          	add	a4,a4,s5
1000ea34:	0117e7b3          	or	a5,a5,a7
1000ea38:	01477663          	bgeu	a4,s4,1000ea44 <__multf3+0x7ec>
1000ea3c:	000105b7          	lui	a1,0x10
1000ea40:	00b80833          	add	a6,a6,a1
1000ea44:	01051513          	slli	a0,a0,0x10
1000ea48:	01075593          	srli	a1,a4,0x10
1000ea4c:	01055513          	srli	a0,a0,0x10
1000ea50:	01071713          	slli	a4,a4,0x10
1000ea54:	00a70733          	add	a4,a4,a0
1000ea58:	005585b3          	add	a1,a1,t0
1000ea5c:	00e60733          	add	a4,a2,a4
1000ea60:	00f587b3          	add	a5,a1,a5
1000ea64:	00c73633          	sltu	a2,a4,a2
1000ea68:	00f60633          	add	a2,a2,a5
1000ea6c:	01412783          	lw	a5,20(sp)
1000ea70:	01060633          	add	a2,a2,a6
1000ea74:	00d69693          	slli	a3,a3,0xd
1000ea78:	01d7e7b3          	or	a5,a5,t4
1000ea7c:	00ffefb3          	or	t6,t6,a5
1000ea80:	06c12623          	sw	a2,108(sp)
1000ea84:	06e12423          	sw	a4,104(sp)
1000ea88:	01f6e6b3          	or	a3,a3,t6
1000ea8c:	05010793          	addi	a5,sp,80
1000ea90:	06010593          	addi	a1,sp,96
1000ea94:	00c7a703          	lw	a4,12(a5)
1000ea98:	0107a603          	lw	a2,16(a5)
1000ea9c:	00478793          	addi	a5,a5,4
1000eaa0:	01375713          	srli	a4,a4,0x13
1000eaa4:	00d61613          	slli	a2,a2,0xd
1000eaa8:	00c76733          	or	a4,a4,a2
1000eaac:	fee7ae23          	sw	a4,-4(a5)
1000eab0:	fef592e3          	bne	a1,a5,1000ea94 <__multf3+0x83c>
1000eab4:	05012783          	lw	a5,80(sp)
1000eab8:	00d036b3          	snez	a3,a3
1000eabc:	05c12703          	lw	a4,92(sp)
1000eac0:	00f6e6b3          	or	a3,a3,a5
1000eac4:	05812783          	lw	a5,88(sp)
1000eac8:	04e12623          	sw	a4,76(sp)
1000eacc:	04d12023          	sw	a3,64(sp)
1000ead0:	04f12423          	sw	a5,72(sp)
1000ead4:	05412783          	lw	a5,84(sp)
1000ead8:	04f12223          	sw	a5,68(sp)
1000eadc:	00b71793          	slli	a5,a4,0xb
1000eae0:	4a07da63          	bgez	a5,1000ef94 <__multf3+0xd3c>
1000eae4:	01f69693          	slli	a3,a3,0x1f
1000eae8:	04010793          	addi	a5,sp,64
1000eaec:	04c10513          	addi	a0,sp,76
1000eaf0:	0007a603          	lw	a2,0(a5)
1000eaf4:	0047a583          	lw	a1,4(a5)
1000eaf8:	00478793          	addi	a5,a5,4
1000eafc:	00165613          	srli	a2,a2,0x1
1000eb00:	01f59593          	slli	a1,a1,0x1f
1000eb04:	00b66633          	or	a2,a2,a1
1000eb08:	fec7ae23          	sw	a2,-4(a5)
1000eb0c:	fef512e3          	bne	a0,a5,1000eaf0 <__multf3+0x898>
1000eb10:	04012783          	lw	a5,64(sp)
1000eb14:	01f6d693          	srli	a3,a3,0x1f
1000eb18:	00175713          	srli	a4,a4,0x1
1000eb1c:	00d7e7b3          	or	a5,a5,a3
1000eb20:	04e12623          	sw	a4,76(sp)
1000eb24:	04f12023          	sw	a5,64(sp)
1000eb28:	00c12703          	lw	a4,12(sp)
1000eb2c:	000047b7          	lui	a5,0x4
1000eb30:	fff78793          	addi	a5,a5,-1 # 3fff <__heap_size+0x2fff>
1000eb34:	00f707b3          	add	a5,a4,a5
1000eb38:	46f05463          	blez	a5,1000efa0 <__multf3+0xd48>
1000eb3c:	04012703          	lw	a4,64(sp)
1000eb40:	00777693          	andi	a3,a4,7
1000eb44:	04068663          	beqz	a3,1000eb90 <__multf3+0x938>
1000eb48:	00f77693          	andi	a3,a4,15
1000eb4c:	00400613          	li	a2,4
1000eb50:	04c68063          	beq	a3,a2,1000eb90 <__multf3+0x938>
1000eb54:	00c706b3          	add	a3,a4,a2
1000eb58:	ffc73713          	sltiu	a4,a4,-4
1000eb5c:	04d12023          	sw	a3,64(sp)
1000eb60:	00173693          	seqz	a3,a4
1000eb64:	04412703          	lw	a4,68(sp)
1000eb68:	00e68733          	add	a4,a3,a4
1000eb6c:	04e12223          	sw	a4,68(sp)
1000eb70:	00d73733          	sltu	a4,a4,a3
1000eb74:	04812683          	lw	a3,72(sp)
1000eb78:	00e68733          	add	a4,a3,a4
1000eb7c:	04e12423          	sw	a4,72(sp)
1000eb80:	00d73733          	sltu	a4,a4,a3
1000eb84:	04c12683          	lw	a3,76(sp)
1000eb88:	00d70733          	add	a4,a4,a3
1000eb8c:	04e12623          	sw	a4,76(sp)
1000eb90:	04c12703          	lw	a4,76(sp)
1000eb94:	00b71693          	slli	a3,a4,0xb
1000eb98:	0206d063          	bgez	a3,1000ebb8 <__multf3+0x960>
1000eb9c:	00c12683          	lw	a3,12(sp)
1000eba0:	fff007b7          	lui	a5,0xfff00
1000eba4:	fff78793          	addi	a5,a5,-1 # ffefffff <_sp+0xefeec2df>
1000eba8:	00f77733          	and	a4,a4,a5
1000ebac:	000047b7          	lui	a5,0x4
1000ebb0:	04e12623          	sw	a4,76(sp)
1000ebb4:	00f687b3          	add	a5,a3,a5
1000ebb8:	04010693          	addi	a3,sp,64
1000ebbc:	04c10513          	addi	a0,sp,76
1000ebc0:	0006a603          	lw	a2,0(a3)
1000ebc4:	0046a583          	lw	a1,4(a3)
1000ebc8:	00468693          	addi	a3,a3,4
1000ebcc:	00365613          	srli	a2,a2,0x3
1000ebd0:	01d59593          	slli	a1,a1,0x1d
1000ebd4:	00b66633          	or	a2,a2,a1
1000ebd8:	fec6ae23          	sw	a2,-4(a3)
1000ebdc:	fed512e3          	bne	a0,a3,1000ebc0 <__multf3+0x968>
1000ebe0:	000086b7          	lui	a3,0x8
1000ebe4:	ffe68693          	addi	a3,a3,-2 # 7ffe <__heap_size+0x6ffe>
1000ebe8:	58f6ca63          	blt	a3,a5,1000f17c <__multf3+0xf24>
1000ebec:	00375713          	srli	a4,a4,0x3
1000ebf0:	04e12623          	sw	a4,76(sp)
1000ebf4:	04c12703          	lw	a4,76(sp)
1000ebf8:	0ac12083          	lw	ra,172(sp)
1000ebfc:	0a412483          	lw	s1,164(sp)
1000ec00:	04e11e23          	sh	a4,92(sp)
1000ec04:	00f41713          	slli	a4,s0,0xf
1000ec08:	00f767b3          	or	a5,a4,a5
1000ec0c:	04f11f23          	sh	a5,94(sp)
1000ec10:	00812703          	lw	a4,8(sp)
1000ec14:	04012783          	lw	a5,64(sp)
1000ec18:	0a812403          	lw	s0,168(sp)
1000ec1c:	0a012903          	lw	s2,160(sp)
1000ec20:	00f72023          	sw	a5,0(a4) # 10000 <__heap_size+0xf000>
1000ec24:	04412783          	lw	a5,68(sp)
1000ec28:	09c12983          	lw	s3,156(sp)
1000ec2c:	09812a03          	lw	s4,152(sp)
1000ec30:	00f72223          	sw	a5,4(a4)
1000ec34:	04812783          	lw	a5,72(sp)
1000ec38:	09412a83          	lw	s5,148(sp)
1000ec3c:	09012b03          	lw	s6,144(sp)
1000ec40:	00f72423          	sw	a5,8(a4)
1000ec44:	05c12783          	lw	a5,92(sp)
1000ec48:	08c12b83          	lw	s7,140(sp)
1000ec4c:	08812c03          	lw	s8,136(sp)
1000ec50:	00f72623          	sw	a5,12(a4)
1000ec54:	08412c83          	lw	s9,132(sp)
1000ec58:	08012d03          	lw	s10,128(sp)
1000ec5c:	07c12d83          	lw	s11,124(sp)
1000ec60:	00070513          	mv	a0,a4
1000ec64:	0b010113          	addi	sp,sp,176
1000ec68:	00008067          	ret
1000ec6c:	00a7e633          	or	a2,a5,a0
1000ec70:	00d66633          	or	a2,a2,a3
1000ec74:	00e66633          	or	a2,a2,a4
1000ec78:	12060063          	beqz	a2,1000ed98 <__multf3+0xb40>
1000ec7c:	04070863          	beqz	a4,1000eccc <__multf3+0xa74>
1000ec80:	00070513          	mv	a0,a4
1000ec84:	4f1010ef          	jal	10010974 <__clzsi2>
1000ec88:	ff450693          	addi	a3,a0,-12 # fff4 <__heap_size+0xeff4>
1000ec8c:	4056d713          	srai	a4,a3,0x5
1000ec90:	01f6f693          	andi	a3,a3,31
1000ec94:	02c10793          	addi	a5,sp,44
1000ec98:	06068463          	beqz	a3,1000ed00 <__multf3+0xaa8>
1000ec9c:	02000893          	li	a7,32
1000eca0:	00271813          	slli	a6,a4,0x2
1000eca4:	40d888b3          	sub	a7,a7,a3
1000eca8:	02010593          	addi	a1,sp,32
1000ecac:	410787b3          	sub	a5,a5,a6
1000ecb0:	08f59a63          	bne	a1,a5,1000ed44 <__multf3+0xaec>
1000ecb4:	fff70793          	addi	a5,a4,-1
1000ecb8:	02012703          	lw	a4,32(sp)
1000ecbc:	010585b3          	add	a1,a1,a6
1000ecc0:	00d71733          	sll	a4,a4,a3
1000ecc4:	00e5a023          	sw	a4,0(a1) # 10000 <__heap_size+0xf000>
1000ecc8:	0600006f          	j	1000ed28 <__multf3+0xad0>
1000eccc:	00068a63          	beqz	a3,1000ece0 <__multf3+0xa88>
1000ecd0:	00068513          	mv	a0,a3
1000ecd4:	4a1010ef          	jal	10010974 <__clzsi2>
1000ecd8:	02050513          	addi	a0,a0,32
1000ecdc:	fadff06f          	j	1000ec88 <__multf3+0xa30>
1000ece0:	00078a63          	beqz	a5,1000ecf4 <__multf3+0xa9c>
1000ece4:	00078513          	mv	a0,a5
1000ece8:	48d010ef          	jal	10010974 <__clzsi2>
1000ecec:	04050513          	addi	a0,a0,64
1000ecf0:	f99ff06f          	j	1000ec88 <__multf3+0xa30>
1000ecf4:	481010ef          	jal	10010974 <__clzsi2>
1000ecf8:	06050513          	addi	a0,a0,96
1000ecfc:	f8dff06f          	j	1000ec88 <__multf3+0xa30>
1000ed00:	ffc00613          	li	a2,-4
1000ed04:	02c70633          	mul	a2,a4,a2
1000ed08:	00300693          	li	a3,3
1000ed0c:	00c785b3          	add	a1,a5,a2
1000ed10:	0005a583          	lw	a1,0(a1)
1000ed14:	fff68693          	addi	a3,a3,-1
1000ed18:	ffc78793          	addi	a5,a5,-4 # 3ffc <__heap_size+0x2ffc>
1000ed1c:	00b7a223          	sw	a1,4(a5)
1000ed20:	fee6d6e3          	bge	a3,a4,1000ed0c <__multf3+0xab4>
1000ed24:	fff70793          	addi	a5,a4,-1
1000ed28:	fff00693          	li	a3,-1
1000ed2c:	02010613          	addi	a2,sp,32
1000ed30:	02d79c63          	bne	a5,a3,1000ed68 <__multf3+0xb10>
1000ed34:	ffffc4b7          	lui	s1,0xffffc
1000ed38:	01148493          	addi	s1,s1,17 # ffffc011 <_sp+0xeffe82f1>
1000ed3c:	40a484b3          	sub	s1,s1,a0
1000ed40:	e00ff06f          	j	1000e340 <__multf3+0xe8>
1000ed44:	0007a603          	lw	a2,0(a5)
1000ed48:	ffc7a303          	lw	t1,-4(a5)
1000ed4c:	01078e33          	add	t3,a5,a6
1000ed50:	00d61633          	sll	a2,a2,a3
1000ed54:	01135333          	srl	t1,t1,a7
1000ed58:	00666633          	or	a2,a2,t1
1000ed5c:	00ce2023          	sw	a2,0(t3) # 10000 <__heap_size+0xf000>
1000ed60:	ffc78793          	addi	a5,a5,-4
1000ed64:	f4dff06f          	j	1000ecb0 <__multf3+0xa58>
1000ed68:	00279713          	slli	a4,a5,0x2
1000ed6c:	00e60733          	add	a4,a2,a4
1000ed70:	00072023          	sw	zero,0(a4)
1000ed74:	fff78793          	addi	a5,a5,-1
1000ed78:	fb9ff06f          	j	1000ed30 <__multf3+0xad8>
1000ed7c:	00a7e7b3          	or	a5,a5,a0
1000ed80:	00d7e7b3          	or	a5,a5,a3
1000ed84:	00e7e7b3          	or	a5,a5,a4
1000ed88:	00200993          	li	s3,2
1000ed8c:	da078c63          	beqz	a5,1000e344 <__multf3+0xec>
1000ed90:	00300993          	li	s3,3
1000ed94:	db0ff06f          	j	1000e344 <__multf3+0xec>
1000ed98:	00000493          	li	s1,0
1000ed9c:	00100993          	li	s3,1
1000eda0:	da4ff06f          	j	1000e344 <__multf3+0xec>
1000eda4:	016ae7b3          	or	a5,s5,s6
1000eda8:	0177e7b3          	or	a5,a5,s7
1000edac:	00a7e7b3          	or	a5,a5,a0
1000edb0:	00100713          	li	a4,1
1000edb4:	e2078063          	beqz	a5,1000e3d4 <__multf3+0x17c>
1000edb8:	04050663          	beqz	a0,1000ee04 <__multf3+0xbac>
1000edbc:	3b9010ef          	jal	10010974 <__clzsi2>
1000edc0:	ff450693          	addi	a3,a0,-12
1000edc4:	4056d713          	srai	a4,a3,0x5
1000edc8:	01f6f693          	andi	a3,a3,31
1000edcc:	03c10793          	addi	a5,sp,60
1000edd0:	06068663          	beqz	a3,1000ee3c <__multf3+0xbe4>
1000edd4:	02000893          	li	a7,32
1000edd8:	00271813          	slli	a6,a4,0x2
1000eddc:	40d888b3          	sub	a7,a7,a3
1000ede0:	03010593          	addi	a1,sp,48
1000ede4:	410787b3          	sub	a5,a5,a6
1000ede8:	08f59c63          	bne	a1,a5,1000ee80 <__multf3+0xc28>
1000edec:	fff70793          	addi	a5,a4,-1
1000edf0:	03012703          	lw	a4,48(sp)
1000edf4:	010585b3          	add	a1,a1,a6
1000edf8:	00d71733          	sll	a4,a4,a3
1000edfc:	00e5a023          	sw	a4,0(a1)
1000ee00:	0640006f          	j	1000ee64 <__multf3+0xc0c>
1000ee04:	000b8a63          	beqz	s7,1000ee18 <__multf3+0xbc0>
1000ee08:	000b8513          	mv	a0,s7
1000ee0c:	369010ef          	jal	10010974 <__clzsi2>
1000ee10:	02050513          	addi	a0,a0,32
1000ee14:	fadff06f          	j	1000edc0 <__multf3+0xb68>
1000ee18:	000a8a63          	beqz	s5,1000ee2c <__multf3+0xbd4>
1000ee1c:	000a8513          	mv	a0,s5
1000ee20:	355010ef          	jal	10010974 <__clzsi2>
1000ee24:	04050513          	addi	a0,a0,64
1000ee28:	f99ff06f          	j	1000edc0 <__multf3+0xb68>
1000ee2c:	000b0513          	mv	a0,s6
1000ee30:	345010ef          	jal	10010974 <__clzsi2>
1000ee34:	06050513          	addi	a0,a0,96
1000ee38:	f89ff06f          	j	1000edc0 <__multf3+0xb68>
1000ee3c:	ffc00613          	li	a2,-4
1000ee40:	02c70633          	mul	a2,a4,a2
1000ee44:	00300693          	li	a3,3
1000ee48:	00c785b3          	add	a1,a5,a2
1000ee4c:	0005a583          	lw	a1,0(a1)
1000ee50:	fff68693          	addi	a3,a3,-1
1000ee54:	ffc78793          	addi	a5,a5,-4
1000ee58:	00b7a223          	sw	a1,4(a5)
1000ee5c:	fee6d6e3          	bge	a3,a4,1000ee48 <__multf3+0xbf0>
1000ee60:	fff70793          	addi	a5,a4,-1
1000ee64:	fff00693          	li	a3,-1
1000ee68:	03010613          	addi	a2,sp,48
1000ee6c:	02d79c63          	bne	a5,a3,1000eea4 <__multf3+0xc4c>
1000ee70:	ffffc7b7          	lui	a5,0xffffc
1000ee74:	01178793          	addi	a5,a5,17 # ffffc011 <_sp+0xeffe82f1>
1000ee78:	40a787b3          	sub	a5,a5,a0
1000ee7c:	d54ff06f          	j	1000e3d0 <__multf3+0x178>
1000ee80:	0007a603          	lw	a2,0(a5)
1000ee84:	ffc7a303          	lw	t1,-4(a5)
1000ee88:	01078e33          	add	t3,a5,a6
1000ee8c:	00d61633          	sll	a2,a2,a3
1000ee90:	01135333          	srl	t1,t1,a7
1000ee94:	00666633          	or	a2,a2,t1
1000ee98:	00ce2023          	sw	a2,0(t3)
1000ee9c:	ffc78793          	addi	a5,a5,-4
1000eea0:	f49ff06f          	j	1000ede8 <__multf3+0xb90>
1000eea4:	00279713          	slli	a4,a5,0x2
1000eea8:	00e60733          	add	a4,a2,a4
1000eeac:	00072023          	sw	zero,0(a4)
1000eeb0:	fff78793          	addi	a5,a5,-1
1000eeb4:	fb9ff06f          	j	1000ee6c <__multf3+0xc14>
1000eeb8:	016aeab3          	or	s5,s5,s6
1000eebc:	017aeab3          	or	s5,s5,s7
1000eec0:	00aaeab3          	or	s5,s5,a0
1000eec4:	00200713          	li	a4,2
1000eec8:	d00a8663          	beqz	s5,1000e3d4 <__multf3+0x17c>
1000eecc:	00300713          	li	a4,3
1000eed0:	d04ff06f          	j	1000e3d4 <__multf3+0x17c>
1000eed4:	00f697b3          	sll	a5,a3,a5
1000eed8:	5307f693          	andi	a3,a5,1328
1000eedc:	06069463          	bnez	a3,1000ef44 <__multf3+0xcec>
1000eee0:	0887f693          	andi	a3,a5,136
1000eee4:	02069e63          	bnez	a3,1000ef20 <__multf3+0xcc8>
1000eee8:	2407f793          	andi	a5,a5,576
1000eeec:	d2078063          	beqz	a5,1000e40c <__multf3+0x1b4>
1000eef0:	000087b7          	lui	a5,0x8
1000eef4:	04f12623          	sw	a5,76(sp)
1000eef8:	04012423          	sw	zero,72(sp)
1000eefc:	04012223          	sw	zero,68(sp)
1000ef00:	04012023          	sw	zero,64(sp)
1000ef04:	fff78793          	addi	a5,a5,-1 # 7fff <__heap_size+0x6fff>
1000ef08:	00000413          	li	s0,0
1000ef0c:	ce9ff06f          	j	1000ebf4 <__multf3+0x99c>
1000ef10:	00f00693          	li	a3,15
1000ef14:	fcd78ee3          	beq	a5,a3,1000eef0 <__multf3+0xc98>
1000ef18:	00b00693          	li	a3,11
1000ef1c:	02d79463          	bne	a5,a3,1000ef44 <__multf3+0xcec>
1000ef20:	00090413          	mv	s0,s2
1000ef24:	03012783          	lw	a5,48(sp)
1000ef28:	04f12023          	sw	a5,64(sp)
1000ef2c:	03412783          	lw	a5,52(sp)
1000ef30:	04f12223          	sw	a5,68(sp)
1000ef34:	03812783          	lw	a5,56(sp)
1000ef38:	04f12423          	sw	a5,72(sp)
1000ef3c:	03c12783          	lw	a5,60(sp)
1000ef40:	0240006f          	j	1000ef64 <__multf3+0xd0c>
1000ef44:	02012783          	lw	a5,32(sp)
1000ef48:	00098713          	mv	a4,s3
1000ef4c:	04f12023          	sw	a5,64(sp)
1000ef50:	02412783          	lw	a5,36(sp)
1000ef54:	04f12223          	sw	a5,68(sp)
1000ef58:	02812783          	lw	a5,40(sp)
1000ef5c:	04f12423          	sw	a5,72(sp)
1000ef60:	02c12783          	lw	a5,44(sp)
1000ef64:	04f12623          	sw	a5,76(sp)
1000ef68:	00200793          	li	a5,2
1000ef6c:	20f70863          	beq	a4,a5,1000f17c <__multf3+0xf24>
1000ef70:	00300793          	li	a5,3
1000ef74:	f6f70ee3          	beq	a4,a5,1000eef0 <__multf3+0xc98>
1000ef78:	00100793          	li	a5,1
1000ef7c:	baf716e3          	bne	a4,a5,1000eb28 <__multf3+0x8d0>
1000ef80:	04012623          	sw	zero,76(sp)
1000ef84:	04012423          	sw	zero,72(sp)
1000ef88:	04012223          	sw	zero,68(sp)
1000ef8c:	04012023          	sw	zero,64(sp)
1000ef90:	1c00006f          	j	1000f150 <__multf3+0xef8>
1000ef94:	01012783          	lw	a5,16(sp)
1000ef98:	00f12623          	sw	a5,12(sp)
1000ef9c:	b8dff06f          	j	1000eb28 <__multf3+0x8d0>
1000efa0:	06078463          	beqz	a5,1000f008 <__multf3+0xdb0>
1000efa4:	f8d00713          	li	a4,-115
1000efa8:	1ae7c863          	blt	a5,a4,1000f158 <__multf3+0xf00>
1000efac:	00100713          	li	a4,1
1000efb0:	40f70733          	sub	a4,a4,a5
1000efb4:	04010513          	addi	a0,sp,64
1000efb8:	40575693          	srai	a3,a4,0x5
1000efbc:	00050593          	mv	a1,a0
1000efc0:	01f77713          	andi	a4,a4,31
1000efc4:	00000793          	li	a5,0
1000efc8:	00000613          	li	a2,0
1000efcc:	04d61263          	bne	a2,a3,1000f010 <__multf3+0xdb8>
1000efd0:	00300613          	li	a2,3
1000efd4:	40d60633          	sub	a2,a2,a3
1000efd8:	00269e13          	slli	t3,a3,0x2
1000efdc:	04071463          	bnez	a4,1000f024 <__multf3+0xdcc>
1000efe0:	00050593          	mv	a1,a0
1000efe4:	01c58833          	add	a6,a1,t3
1000efe8:	00082803          	lw	a6,0(a6) # 10000 <__heap_size+0xf000>
1000efec:	00170713          	addi	a4,a4,1
1000eff0:	00458593          	addi	a1,a1,4
1000eff4:	ff05ae23          	sw	a6,-4(a1)
1000eff8:	fee656e3          	bge	a2,a4,1000efe4 <__multf3+0xd8c>
1000effc:	00400713          	li	a4,4
1000f000:	40d706b3          	sub	a3,a4,a3
1000f004:	05c0006f          	j	1000f060 <__multf3+0xe08>
1000f008:	00100713          	li	a4,1
1000f00c:	fa9ff06f          	j	1000efb4 <__multf3+0xd5c>
1000f010:	0005a803          	lw	a6,0(a1)
1000f014:	00160613          	addi	a2,a2,1 # 10001 <__heap_size+0xf001>
1000f018:	00458593          	addi	a1,a1,4
1000f01c:	0107e7b3          	or	a5,a5,a6
1000f020:	fadff06f          	j	1000efcc <__multf3+0xd74>
1000f024:	01c505b3          	add	a1,a0,t3
1000f028:	0005a803          	lw	a6,0(a1)
1000f02c:	02000893          	li	a7,32
1000f030:	40e888b3          	sub	a7,a7,a4
1000f034:	01181833          	sll	a6,a6,a7
1000f038:	0107e7b3          	or	a5,a5,a6
1000f03c:	00000313          	li	t1,0
1000f040:	02c34463          	blt	t1,a2,1000f068 <__multf3+0xe10>
1000f044:	00400593          	li	a1,4
1000f048:	40d586b3          	sub	a3,a1,a3
1000f04c:	04c12583          	lw	a1,76(sp)
1000f050:	00261613          	slli	a2,a2,0x2
1000f054:	00c50633          	add	a2,a0,a2
1000f058:	00e5d733          	srl	a4,a1,a4
1000f05c:	00e62023          	sw	a4,0(a2)
1000f060:	00400613          	li	a2,4
1000f064:	03c0006f          	j	1000f0a0 <__multf3+0xe48>
1000f068:	0005a803          	lw	a6,0(a1)
1000f06c:	0045ae83          	lw	t4,4(a1)
1000f070:	41c58f33          	sub	t5,a1,t3
1000f074:	00e85833          	srl	a6,a6,a4
1000f078:	011e9eb3          	sll	t4,t4,a7
1000f07c:	01d86833          	or	a6,a6,t4
1000f080:	010f2023          	sw	a6,0(t5) # 10000 <__heap_size+0xf000>
1000f084:	00130313          	addi	t1,t1,1 # 10001 <__heap_size+0xf001>
1000f088:	00458593          	addi	a1,a1,4
1000f08c:	fb5ff06f          	j	1000f040 <__multf3+0xde8>
1000f090:	00269713          	slli	a4,a3,0x2
1000f094:	00e50733          	add	a4,a0,a4
1000f098:	00072023          	sw	zero,0(a4)
1000f09c:	00168693          	addi	a3,a3,1
1000f0a0:	fec698e3          	bne	a3,a2,1000f090 <__multf3+0xe38>
1000f0a4:	04012703          	lw	a4,64(sp)
1000f0a8:	00f037b3          	snez	a5,a5
1000f0ac:	00e7e7b3          	or	a5,a5,a4
1000f0b0:	04f12023          	sw	a5,64(sp)
1000f0b4:	0077f713          	andi	a4,a5,7
1000f0b8:	04070463          	beqz	a4,1000f100 <__multf3+0xea8>
1000f0bc:	00f7f713          	andi	a4,a5,15
1000f0c0:	04d70063          	beq	a4,a3,1000f100 <__multf3+0xea8>
1000f0c4:	00478713          	addi	a4,a5,4
1000f0c8:	04e12023          	sw	a4,64(sp)
1000f0cc:	04412703          	lw	a4,68(sp)
1000f0d0:	ffc7b793          	sltiu	a5,a5,-4
1000f0d4:	0017b793          	seqz	a5,a5
1000f0d8:	00f707b3          	add	a5,a4,a5
1000f0dc:	04f12223          	sw	a5,68(sp)
1000f0e0:	00e7b7b3          	sltu	a5,a5,a4
1000f0e4:	04812703          	lw	a4,72(sp)
1000f0e8:	00f707b3          	add	a5,a4,a5
1000f0ec:	04f12423          	sw	a5,72(sp)
1000f0f0:	00e7b7b3          	sltu	a5,a5,a4
1000f0f4:	04c12703          	lw	a4,76(sp)
1000f0f8:	00e787b3          	add	a5,a5,a4
1000f0fc:	04f12623          	sw	a5,76(sp)
1000f100:	04c12703          	lw	a4,76(sp)
1000f104:	00c71793          	slli	a5,a4,0xc
1000f108:	0007de63          	bgez	a5,1000f124 <__multf3+0xecc>
1000f10c:	04012623          	sw	zero,76(sp)
1000f110:	04012423          	sw	zero,72(sp)
1000f114:	04012223          	sw	zero,68(sp)
1000f118:	04012023          	sw	zero,64(sp)
1000f11c:	00100793          	li	a5,1
1000f120:	ad5ff06f          	j	1000ebf4 <__multf3+0x99c>
1000f124:	00c50613          	addi	a2,a0,12
1000f128:	00052783          	lw	a5,0(a0)
1000f12c:	00452683          	lw	a3,4(a0)
1000f130:	00450513          	addi	a0,a0,4
1000f134:	0037d793          	srli	a5,a5,0x3
1000f138:	01d69693          	slli	a3,a3,0x1d
1000f13c:	00d7e7b3          	or	a5,a5,a3
1000f140:	fef52e23          	sw	a5,-4(a0)
1000f144:	fea612e3          	bne	a2,a0,1000f128 <__multf3+0xed0>
1000f148:	00375713          	srli	a4,a4,0x3
1000f14c:	04e12623          	sw	a4,76(sp)
1000f150:	00000793          	li	a5,0
1000f154:	aa1ff06f          	j	1000ebf4 <__multf3+0x99c>
1000f158:	04412703          	lw	a4,68(sp)
1000f15c:	04012783          	lw	a5,64(sp)
1000f160:	00e7e7b3          	or	a5,a5,a4
1000f164:	04812703          	lw	a4,72(sp)
1000f168:	00e7e7b3          	or	a5,a5,a4
1000f16c:	04c12703          	lw	a4,76(sp)
1000f170:	00e7e7b3          	or	a5,a5,a4
1000f174:	fc078ee3          	beqz	a5,1000f150 <__multf3+0xef8>
1000f178:	e09ff06f          	j	1000ef80 <__multf3+0xd28>
1000f17c:	000087b7          	lui	a5,0x8
1000f180:	04012623          	sw	zero,76(sp)
1000f184:	04012423          	sw	zero,72(sp)
1000f188:	04012223          	sw	zero,68(sp)
1000f18c:	04012023          	sw	zero,64(sp)
1000f190:	fff78793          	addi	a5,a5,-1 # 7fff <__heap_size+0x6fff>
1000f194:	a61ff06f          	j	1000ebf4 <__multf3+0x99c>

1000f198 <__subtf3>:
1000f198:	fa010113          	addi	sp,sp,-96
1000f19c:	0085a783          	lw	a5,8(a1)
1000f1a0:	04812c23          	sw	s0,88(sp)
1000f1a4:	00050413          	mv	s0,a0
1000f1a8:	00c5a503          	lw	a0,12(a1)
1000f1ac:	0045a803          	lw	a6,4(a1)
1000f1b0:	0005a683          	lw	a3,0(a1)
1000f1b4:	02f12c23          	sw	a5,56(sp)
1000f1b8:	00f12c23          	sw	a5,24(sp)
1000f1bc:	01051793          	slli	a5,a0,0x10
1000f1c0:	0107d793          	srli	a5,a5,0x10
1000f1c4:	00062703          	lw	a4,0(a2)
1000f1c8:	00462883          	lw	a7,4(a2)
1000f1cc:	00862583          	lw	a1,8(a2)
1000f1d0:	00c62f03          	lw	t5,12(a2)
1000f1d4:	02a12e23          	sw	a0,60(sp)
1000f1d8:	00f12e23          	sw	a5,28(sp)
1000f1dc:	00151793          	slli	a5,a0,0x1
1000f1e0:	01f55513          	srli	a0,a0,0x1f
1000f1e4:	04912a23          	sw	s1,84(sp)
1000f1e8:	05212823          	sw	s2,80(sp)
1000f1ec:	03012a23          	sw	a6,52(sp)
1000f1f0:	01012a23          	sw	a6,20(sp)
1000f1f4:	04112e23          	sw	ra,92(sp)
1000f1f8:	05312623          	sw	s3,76(sp)
1000f1fc:	05412423          	sw	s4,72(sp)
1000f200:	05512223          	sw	s5,68(sp)
1000f204:	02d12823          	sw	a3,48(sp)
1000f208:	00d12823          	sw	a3,16(sp)
1000f20c:	0117d913          	srli	s2,a5,0x11
1000f210:	00050493          	mv	s1,a0
1000f214:	01010293          	addi	t0,sp,16
1000f218:	01c10813          	addi	a6,sp,28
1000f21c:	00082783          	lw	a5,0(a6)
1000f220:	ffc82603          	lw	a2,-4(a6)
1000f224:	ffc80813          	addi	a6,a6,-4
1000f228:	00379793          	slli	a5,a5,0x3
1000f22c:	01d65613          	srli	a2,a2,0x1d
1000f230:	00c7e7b3          	or	a5,a5,a2
1000f234:	00f82223          	sw	a5,4(a6)
1000f238:	ff0292e3          	bne	t0,a6,1000f21c <__subtf3+0x84>
1000f23c:	010f1793          	slli	a5,t5,0x10
1000f240:	0107d793          	srli	a5,a5,0x10
1000f244:	00369693          	slli	a3,a3,0x3
1000f248:	02f12623          	sw	a5,44(sp)
1000f24c:	001f1793          	slli	a5,t5,0x1
1000f250:	03e12e23          	sw	t5,60(sp)
1000f254:	00d12823          	sw	a3,16(sp)
1000f258:	02e12823          	sw	a4,48(sp)
1000f25c:	03112a23          	sw	a7,52(sp)
1000f260:	02b12c23          	sw	a1,56(sp)
1000f264:	02e12023          	sw	a4,32(sp)
1000f268:	03112223          	sw	a7,36(sp)
1000f26c:	02b12423          	sw	a1,40(sp)
1000f270:	0117de13          	srli	t3,a5,0x11
1000f274:	01ff5f13          	srli	t5,t5,0x1f
1000f278:	02010f93          	addi	t6,sp,32
1000f27c:	02c10313          	addi	t1,sp,44
1000f280:	00032783          	lw	a5,0(t1)
1000f284:	ffc32603          	lw	a2,-4(t1)
1000f288:	ffc30313          	addi	t1,t1,-4
1000f28c:	00379793          	slli	a5,a5,0x3
1000f290:	01d65613          	srli	a2,a2,0x1d
1000f294:	00c7e7b3          	or	a5,a5,a2
1000f298:	00f32223          	sw	a5,4(t1)
1000f29c:	fe6f92e3          	bne	t6,t1,1000f280 <__subtf3+0xe8>
1000f2a0:	00371713          	slli	a4,a4,0x3
1000f2a4:	000087b7          	lui	a5,0x8
1000f2a8:	02e12023          	sw	a4,32(sp)
1000f2ac:	fff78793          	addi	a5,a5,-1 # 7fff <__heap_size+0x6fff>
1000f2b0:	02fe1063          	bne	t3,a5,1000f2d0 <__subtf3+0x138>
1000f2b4:	02812603          	lw	a2,40(sp)
1000f2b8:	02412783          	lw	a5,36(sp)
1000f2bc:	00c7e7b3          	or	a5,a5,a2
1000f2c0:	02c12603          	lw	a2,44(sp)
1000f2c4:	00c7e7b3          	or	a5,a5,a2
1000f2c8:	00e7e7b3          	or	a5,a5,a4
1000f2cc:	00079463          	bnez	a5,1000f2d4 <__subtf3+0x13c>
1000f2d0:	001f4f13          	xori	t5,t5,1
1000f2d4:	41c907b3          	sub	a5,s2,t3
1000f2d8:	02af18e3          	bne	t5,a0,1000fb08 <__subtf3+0x970>
1000f2dc:	38f05863          	blez	a5,1000f66c <__subtf3+0x4d4>
1000f2e0:	01412803          	lw	a6,20(sp)
1000f2e4:	01812e83          	lw	t4,24(sp)
1000f2e8:	01c12883          	lw	a7,28(sp)
1000f2ec:	0a0e1263          	bnez	t3,1000f390 <__subtf3+0x1f8>
1000f2f0:	02412503          	lw	a0,36(sp)
1000f2f4:	02812583          	lw	a1,40(sp)
1000f2f8:	02c12e03          	lw	t3,44(sp)
1000f2fc:	00b56633          	or	a2,a0,a1
1000f300:	01c66633          	or	a2,a2,t3
1000f304:	00e66633          	or	a2,a2,a4
1000f308:	00061c63          	bnez	a2,1000f320 <__subtf3+0x188>
1000f30c:	02d12823          	sw	a3,48(sp)
1000f310:	03012a23          	sw	a6,52(sp)
1000f314:	03d12c23          	sw	t4,56(sp)
1000f318:	03112e23          	sw	a7,60(sp)
1000f31c:	0940006f          	j	1000f3b0 <__subtf3+0x218>
1000f320:	fff78613          	addi	a2,a5,-1
1000f324:	04061863          	bnez	a2,1000f374 <__subtf3+0x1dc>
1000f328:	00e68633          	add	a2,a3,a4
1000f32c:	01050833          	add	a6,a0,a6
1000f330:	00d636b3          	sltu	a3,a2,a3
1000f334:	00d806b3          	add	a3,a6,a3
1000f338:	02d12a23          	sw	a3,52(sp)
1000f33c:	00a83533          	sltu	a0,a6,a0
1000f340:	0106b6b3          	sltu	a3,a3,a6
1000f344:	01d58eb3          	add	t4,a1,t4
1000f348:	00d56533          	or	a0,a0,a3
1000f34c:	00ae8533          	add	a0,t4,a0
1000f350:	02a12c23          	sw	a0,56(sp)
1000f354:	00beb733          	sltu	a4,t4,a1
1000f358:	01d53533          	sltu	a0,a0,t4
1000f35c:	00a76733          	or	a4,a4,a0
1000f360:	011e0e33          	add	t3,t3,a7
1000f364:	02c12823          	sw	a2,48(sp)
1000f368:	01c70733          	add	a4,a4,t3
1000f36c:	00100793          	li	a5,1
1000f370:	2ec0006f          	j	1000f65c <__subtf3+0x4c4>
1000f374:	00008737          	lui	a4,0x8
1000f378:	fff70713          	addi	a4,a4,-1 # 7fff <__heap_size+0x6fff>
1000f37c:	00e78463          	beq	a5,a4,1000f384 <__subtf3+0x1ec>
1000f380:	0dc0106f          	j	1001045c <__subtf3+0x12c4>
1000f384:	02d12823          	sw	a3,48(sp)
1000f388:	03012a23          	sw	a6,52(sp)
1000f38c:	3840006f          	j	1000f710 <__subtf3+0x578>
1000f390:	00008737          	lui	a4,0x8
1000f394:	fff70713          	addi	a4,a4,-1 # 7fff <__heap_size+0x6fff>
1000f398:	16e91263          	bne	s2,a4,1000f4fc <__subtf3+0x364>
1000f39c:	02d12823          	sw	a3,48(sp)
1000f3a0:	03012a23          	sw	a6,52(sp)
1000f3a4:	03d12c23          	sw	t4,56(sp)
1000f3a8:	03112e23          	sw	a7,60(sp)
1000f3ac:	00090793          	mv	a5,s2
1000f3b0:	03012703          	lw	a4,48(sp)
1000f3b4:	00777693          	andi	a3,a4,7
1000f3b8:	04068663          	beqz	a3,1000f404 <__subtf3+0x26c>
1000f3bc:	00f77693          	andi	a3,a4,15
1000f3c0:	00400613          	li	a2,4
1000f3c4:	04c68063          	beq	a3,a2,1000f404 <__subtf3+0x26c>
1000f3c8:	00c706b3          	add	a3,a4,a2
1000f3cc:	02d12823          	sw	a3,48(sp)
1000f3d0:	03412683          	lw	a3,52(sp)
1000f3d4:	ffc73713          	sltiu	a4,a4,-4
1000f3d8:	00173713          	seqz	a4,a4
1000f3dc:	00e68733          	add	a4,a3,a4
1000f3e0:	02e12a23          	sw	a4,52(sp)
1000f3e4:	00d73733          	sltu	a4,a4,a3
1000f3e8:	03812683          	lw	a3,56(sp)
1000f3ec:	00e68733          	add	a4,a3,a4
1000f3f0:	02e12c23          	sw	a4,56(sp)
1000f3f4:	00d73733          	sltu	a4,a4,a3
1000f3f8:	03c12683          	lw	a3,60(sp)
1000f3fc:	00d70733          	add	a4,a4,a3
1000f400:	02e12e23          	sw	a4,60(sp)
1000f404:	03c12703          	lw	a4,60(sp)
1000f408:	00c71693          	slli	a3,a4,0xc
1000f40c:	0206d463          	bgez	a3,1000f434 <__subtf3+0x29c>
1000f410:	000086b7          	lui	a3,0x8
1000f414:	00178793          	addi	a5,a5,1
1000f418:	fff68693          	addi	a3,a3,-1 # 7fff <__heap_size+0x6fff>
1000f41c:	00d79463          	bne	a5,a3,1000f424 <__subtf3+0x28c>
1000f420:	0240106f          	j	10010444 <__subtf3+0x12ac>
1000f424:	fff806b7          	lui	a3,0xfff80
1000f428:	fff68693          	addi	a3,a3,-1 # fff7ffff <_sp+0xeff6c2df>
1000f42c:	00d77733          	and	a4,a4,a3
1000f430:	02e12e23          	sw	a4,60(sp)
1000f434:	03010693          	addi	a3,sp,48
1000f438:	03c10513          	addi	a0,sp,60
1000f43c:	0006a603          	lw	a2,0(a3)
1000f440:	0046a583          	lw	a1,4(a3)
1000f444:	00468693          	addi	a3,a3,4
1000f448:	00365613          	srli	a2,a2,0x3
1000f44c:	01d59593          	slli	a1,a1,0x1d
1000f450:	00b66633          	or	a2,a2,a1
1000f454:	fec6ae23          	sw	a2,-4(a3)
1000f458:	fed512e3          	bne	a0,a3,1000f43c <__subtf3+0x2a4>
1000f45c:	00008637          	lui	a2,0x8
1000f460:	fff60693          	addi	a3,a2,-1 # 7fff <__heap_size+0x6fff>
1000f464:	00375713          	srli	a4,a4,0x3
1000f468:	02d79a63          	bne	a5,a3,1000f49c <__subtf3+0x304>
1000f46c:	03412583          	lw	a1,52(sp)
1000f470:	03012683          	lw	a3,48(sp)
1000f474:	00b6e6b3          	or	a3,a3,a1
1000f478:	03812583          	lw	a1,56(sp)
1000f47c:	00b6e6b3          	or	a3,a3,a1
1000f480:	00d76733          	or	a4,a4,a3
1000f484:	00070c63          	beqz	a4,1000f49c <__subtf3+0x304>
1000f488:	02012c23          	sw	zero,56(sp)
1000f48c:	02012a23          	sw	zero,52(sp)
1000f490:	02012823          	sw	zero,48(sp)
1000f494:	00060713          	mv	a4,a2
1000f498:	00000493          	li	s1,0
1000f49c:	01179793          	slli	a5,a5,0x11
1000f4a0:	0117d793          	srli	a5,a5,0x11
1000f4a4:	00f49493          	slli	s1,s1,0xf
1000f4a8:	00f4e4b3          	or	s1,s1,a5
1000f4ac:	03012783          	lw	a5,48(sp)
1000f4b0:	00911723          	sh	s1,14(sp)
1000f4b4:	00e11623          	sh	a4,12(sp)
1000f4b8:	00f42023          	sw	a5,0(s0)
1000f4bc:	03412783          	lw	a5,52(sp)
1000f4c0:	05c12083          	lw	ra,92(sp)
1000f4c4:	00040513          	mv	a0,s0
1000f4c8:	00f42223          	sw	a5,4(s0)
1000f4cc:	03812783          	lw	a5,56(sp)
1000f4d0:	05412483          	lw	s1,84(sp)
1000f4d4:	05012903          	lw	s2,80(sp)
1000f4d8:	00f42423          	sw	a5,8(s0)
1000f4dc:	00c12783          	lw	a5,12(sp)
1000f4e0:	04c12983          	lw	s3,76(sp)
1000f4e4:	04812a03          	lw	s4,72(sp)
1000f4e8:	00f42623          	sw	a5,12(s0)
1000f4ec:	05812403          	lw	s0,88(sp)
1000f4f0:	04412a83          	lw	s5,68(sp)
1000f4f4:	06010113          	addi	sp,sp,96
1000f4f8:	00008067          	ret
1000f4fc:	02c12703          	lw	a4,44(sp)
1000f500:	00080637          	lui	a2,0x80
1000f504:	00c76733          	or	a4,a4,a2
1000f508:	02e12623          	sw	a4,44(sp)
1000f50c:	07400713          	li	a4,116
1000f510:	74f74ae3          	blt	a4,a5,10010464 <__subtf3+0x12cc>
1000f514:	00078613          	mv	a2,a5
1000f518:	40565793          	srai	a5,a2,0x5
1000f51c:	01f67e13          	andi	t3,a2,31
1000f520:	00030593          	mv	a1,t1
1000f524:	00000613          	li	a2,0
1000f528:	00000713          	li	a4,0
1000f52c:	02f71c63          	bne	a4,a5,1000f564 <__subtf3+0x3cc>
1000f530:	00300713          	li	a4,3
1000f534:	40f70733          	sub	a4,a4,a5
1000f538:	00279393          	slli	t2,a5,0x2
1000f53c:	020e1e63          	bnez	t3,1000f578 <__subtf3+0x3e0>
1000f540:	007305b3          	add	a1,t1,t2
1000f544:	0005a583          	lw	a1,0(a1)
1000f548:	001e0e13          	addi	t3,t3,1
1000f54c:	00430313          	addi	t1,t1,4
1000f550:	feb32e23          	sw	a1,-4(t1)
1000f554:	ffc756e3          	bge	a4,t3,1000f540 <__subtf3+0x3a8>
1000f558:	00400713          	li	a4,4
1000f55c:	40f707b3          	sub	a5,a4,a5
1000f560:	0580006f          	j	1000f5b8 <__subtf3+0x420>
1000f564:	0005a503          	lw	a0,0(a1)
1000f568:	00170713          	addi	a4,a4,1
1000f56c:	00458593          	addi	a1,a1,4
1000f570:	00a66633          	or	a2,a2,a0
1000f574:	fb9ff06f          	j	1000f52c <__subtf3+0x394>
1000f578:	007f85b3          	add	a1,t6,t2
1000f57c:	0005a583          	lw	a1,0(a1)
1000f580:	02000513          	li	a0,32
1000f584:	41c50533          	sub	a0,a0,t3
1000f588:	00a595b3          	sll	a1,a1,a0
1000f58c:	00b66633          	or	a2,a2,a1
1000f590:	00730333          	add	t1,t1,t2
1000f594:	00000f13          	li	t5,0
1000f598:	02ef4463          	blt	t5,a4,1000f5c0 <__subtf3+0x428>
1000f59c:	00400593          	li	a1,4
1000f5a0:	40f587b3          	sub	a5,a1,a5
1000f5a4:	02c12583          	lw	a1,44(sp)
1000f5a8:	00271713          	slli	a4,a4,0x2
1000f5ac:	00ef8733          	add	a4,t6,a4
1000f5b0:	01c5d5b3          	srl	a1,a1,t3
1000f5b4:	00b72023          	sw	a1,0(a4)
1000f5b8:	00400593          	li	a1,4
1000f5bc:	03c0006f          	j	1000f5f8 <__subtf3+0x460>
1000f5c0:	00032583          	lw	a1,0(t1)
1000f5c4:	00432283          	lw	t0,4(t1)
1000f5c8:	407309b3          	sub	s3,t1,t2
1000f5cc:	01c5d5b3          	srl	a1,a1,t3
1000f5d0:	00a292b3          	sll	t0,t0,a0
1000f5d4:	0055e5b3          	or	a1,a1,t0
1000f5d8:	00b9a023          	sw	a1,0(s3)
1000f5dc:	001f0f13          	addi	t5,t5,1
1000f5e0:	00430313          	addi	t1,t1,4
1000f5e4:	fb5ff06f          	j	1000f598 <__subtf3+0x400>
1000f5e8:	00279713          	slli	a4,a5,0x2
1000f5ec:	00ef8733          	add	a4,t6,a4
1000f5f0:	00072023          	sw	zero,0(a4)
1000f5f4:	00178793          	addi	a5,a5,1
1000f5f8:	feb798e3          	bne	a5,a1,1000f5e8 <__subtf3+0x450>
1000f5fc:	02012783          	lw	a5,32(sp)
1000f600:	00c03633          	snez	a2,a2
1000f604:	00f66633          	or	a2,a2,a5
1000f608:	02412783          	lw	a5,36(sp)
1000f60c:	00c68633          	add	a2,a3,a2
1000f610:	02812703          	lw	a4,40(sp)
1000f614:	01078833          	add	a6,a5,a6
1000f618:	00d636b3          	sltu	a3,a2,a3
1000f61c:	00d806b3          	add	a3,a6,a3
1000f620:	02d12a23          	sw	a3,52(sp)
1000f624:	00f837b3          	sltu	a5,a6,a5
1000f628:	0106b6b3          	sltu	a3,a3,a6
1000f62c:	01d70eb3          	add	t4,a4,t4
1000f630:	00d7e7b3          	or	a5,a5,a3
1000f634:	00fe87b3          	add	a5,t4,a5
1000f638:	02f12c23          	sw	a5,56(sp)
1000f63c:	00eeb733          	sltu	a4,t4,a4
1000f640:	01d7b7b3          	sltu	a5,a5,t4
1000f644:	00f76733          	or	a4,a4,a5
1000f648:	02c12783          	lw	a5,44(sp)
1000f64c:	02c12823          	sw	a2,48(sp)
1000f650:	00f887b3          	add	a5,a7,a5
1000f654:	00f70733          	add	a4,a4,a5
1000f658:	00090793          	mv	a5,s2
1000f65c:	00c71693          	slli	a3,a4,0xc
1000f660:	4406c063          	bltz	a3,1000faa0 <__subtf3+0x908>
1000f664:	02e12e23          	sw	a4,60(sp)
1000f668:	d49ff06f          	j	1000f3b0 <__subtf3+0x218>
1000f66c:	02412583          	lw	a1,36(sp)
1000f670:	02812e83          	lw	t4,40(sp)
1000f674:	02c12883          	lw	a7,44(sp)
1000f678:	22078e63          	beqz	a5,1000f8b4 <__subtf3+0x71c>
1000f67c:	412e07b3          	sub	a5,t3,s2
1000f680:	0a091663          	bnez	s2,1000f72c <__subtf3+0x594>
1000f684:	01412303          	lw	t1,20(sp)
1000f688:	01812503          	lw	a0,24(sp)
1000f68c:	01c12f03          	lw	t5,28(sp)
1000f690:	00a36633          	or	a2,t1,a0
1000f694:	01e66633          	or	a2,a2,t5
1000f698:	00d66633          	or	a2,a2,a3
1000f69c:	00061863          	bnez	a2,1000f6ac <__subtf3+0x514>
1000f6a0:	02e12823          	sw	a4,48(sp)
1000f6a4:	02b12a23          	sw	a1,52(sp)
1000f6a8:	c6dff06f          	j	1000f314 <__subtf3+0x17c>
1000f6ac:	fff78913          	addi	s2,a5,-1
1000f6b0:	04091663          	bnez	s2,1000f6fc <__subtf3+0x564>
1000f6b4:	00e68633          	add	a2,a3,a4
1000f6b8:	00b305b3          	add	a1,t1,a1
1000f6bc:	00d636b3          	sltu	a3,a2,a3
1000f6c0:	00d586b3          	add	a3,a1,a3
1000f6c4:	02d12a23          	sw	a3,52(sp)
1000f6c8:	0065b333          	sltu	t1,a1,t1
1000f6cc:	00b6b6b3          	sltu	a3,a3,a1
1000f6d0:	01d50eb3          	add	t4,a0,t4
1000f6d4:	00d36333          	or	t1,t1,a3
1000f6d8:	006e8333          	add	t1,t4,t1
1000f6dc:	02612c23          	sw	t1,56(sp)
1000f6e0:	00aeb733          	sltu	a4,t4,a0
1000f6e4:	01d33333          	sltu	t1,t1,t4
1000f6e8:	00676733          	or	a4,a4,t1
1000f6ec:	011f07b3          	add	a5,t5,a7
1000f6f0:	02c12823          	sw	a2,48(sp)
1000f6f4:	00f70733          	add	a4,a4,a5
1000f6f8:	c75ff06f          	j	1000f36c <__subtf3+0x1d4>
1000f6fc:	000086b7          	lui	a3,0x8
1000f700:	fff68693          	addi	a3,a3,-1 # 7fff <__heap_size+0x6fff>
1000f704:	56d79ae3          	bne	a5,a3,10010478 <__subtf3+0x12e0>
1000f708:	02e12823          	sw	a4,48(sp)
1000f70c:	02b12a23          	sw	a1,52(sp)
1000f710:	03d12c23          	sw	t4,56(sp)
1000f714:	03112e23          	sw	a7,60(sp)
1000f718:	000087b7          	lui	a5,0x8
1000f71c:	fff78793          	addi	a5,a5,-1 # 7fff <__heap_size+0x6fff>
1000f720:	c91ff06f          	j	1000f3b0 <__subtf3+0x218>
1000f724:	00068713          	mv	a4,a3
1000f728:	fe1ff06f          	j	1000f708 <__subtf3+0x570>
1000f72c:	000086b7          	lui	a3,0x8
1000f730:	fff68693          	addi	a3,a3,-1 # 7fff <__heap_size+0x6fff>
1000f734:	fcde0ae3          	beq	t3,a3,1000f708 <__subtf3+0x570>
1000f738:	01c12683          	lw	a3,28(sp)
1000f73c:	00080637          	lui	a2,0x80
1000f740:	00c6e6b3          	or	a3,a3,a2
1000f744:	00d12e23          	sw	a3,28(sp)
1000f748:	07400693          	li	a3,116
1000f74c:	52f6cae3          	blt	a3,a5,10010480 <__subtf3+0x12e8>
1000f750:	00078913          	mv	s2,a5
1000f754:	02000793          	li	a5,32
1000f758:	02f947b3          	div	a5,s2,a5
1000f75c:	00080513          	mv	a0,a6
1000f760:	00000613          	li	a2,0
1000f764:	00000693          	li	a3,0
1000f768:	02f6ce63          	blt	a3,a5,1000f7a4 <__subtf3+0x60c>
1000f76c:	00300693          	li	a3,3
1000f770:	01f97f13          	andi	t5,s2,31
1000f774:	40f68333          	sub	t1,a3,a5
1000f778:	00279393          	slli	t2,a5,0x2
1000f77c:	020f1e63          	bnez	t5,1000f7b8 <__subtf3+0x620>
1000f780:	007806b3          	add	a3,a6,t2
1000f784:	0006a683          	lw	a3,0(a3)
1000f788:	001f0f13          	addi	t5,t5,1
1000f78c:	00480813          	addi	a6,a6,4
1000f790:	fed82e23          	sw	a3,-4(a6)
1000f794:	ffe356e3          	bge	t1,t5,1000f780 <__subtf3+0x5e8>
1000f798:	00400693          	li	a3,4
1000f79c:	40f687b3          	sub	a5,a3,a5
1000f7a0:	06c0006f          	j	1000f80c <__subtf3+0x674>
1000f7a4:	00052303          	lw	t1,0(a0)
1000f7a8:	00168693          	addi	a3,a3,1
1000f7ac:	00450513          	addi	a0,a0,4
1000f7b0:	00666633          	or	a2,a2,t1
1000f7b4:	fb5ff06f          	j	1000f768 <__subtf3+0x5d0>
1000f7b8:	02000f93          	li	t6,32
1000f7bc:	03f96933          	rem	s2,s2,t6
1000f7c0:	fff7c693          	not	a3,a5
1000f7c4:	41f6d693          	srai	a3,a3,0x1f
1000f7c8:	00d7f6b3          	and	a3,a5,a3
1000f7cc:	00269693          	slli	a3,a3,0x2
1000f7d0:	00d286b3          	add	a3,t0,a3
1000f7d4:	0006a683          	lw	a3,0(a3)
1000f7d8:	00780833          	add	a6,a6,t2
1000f7dc:	412f8fb3          	sub	t6,t6,s2
1000f7e0:	01f696b3          	sll	a3,a3,t6
1000f7e4:	00d66633          	or	a2,a2,a3
1000f7e8:	00000693          	li	a3,0
1000f7ec:	0266c463          	blt	a3,t1,1000f814 <__subtf3+0x67c>
1000f7f0:	01c12503          	lw	a0,28(sp)
1000f7f4:	00400693          	li	a3,4
1000f7f8:	40f687b3          	sub	a5,a3,a5
1000f7fc:	00231693          	slli	a3,t1,0x2
1000f800:	00d286b3          	add	a3,t0,a3
1000f804:	01e55533          	srl	a0,a0,t5
1000f808:	00a6a023          	sw	a0,0(a3)
1000f80c:	00300513          	li	a0,3
1000f810:	03c0006f          	j	1000f84c <__subtf3+0x6b4>
1000f814:	00082503          	lw	a0,0(a6)
1000f818:	00482903          	lw	s2,4(a6)
1000f81c:	407809b3          	sub	s3,a6,t2
1000f820:	01e55533          	srl	a0,a0,t5
1000f824:	01f91933          	sll	s2,s2,t6
1000f828:	01256533          	or	a0,a0,s2
1000f82c:	00a9a023          	sw	a0,0(s3)
1000f830:	00168693          	addi	a3,a3,1
1000f834:	00480813          	addi	a6,a6,4
1000f838:	fb5ff06f          	j	1000f7ec <__subtf3+0x654>
1000f83c:	00279693          	slli	a3,a5,0x2
1000f840:	00d286b3          	add	a3,t0,a3
1000f844:	0006a023          	sw	zero,0(a3)
1000f848:	00178793          	addi	a5,a5,1
1000f84c:	fef558e3          	bge	a0,a5,1000f83c <__subtf3+0x6a4>
1000f850:	01012783          	lw	a5,16(sp)
1000f854:	00c03633          	snez	a2,a2
1000f858:	00f66633          	or	a2,a2,a5
1000f85c:	01412683          	lw	a3,20(sp)
1000f860:	01812783          	lw	a5,24(sp)
1000f864:	00c70633          	add	a2,a4,a2
1000f868:	00b685b3          	add	a1,a3,a1
1000f86c:	00e63733          	sltu	a4,a2,a4
1000f870:	00e58733          	add	a4,a1,a4
1000f874:	01d78eb3          	add	t4,a5,t4
1000f878:	02e12a23          	sw	a4,52(sp)
1000f87c:	00d5b6b3          	sltu	a3,a1,a3
1000f880:	00b73733          	sltu	a4,a4,a1
1000f884:	00e6e6b3          	or	a3,a3,a4
1000f888:	00feb733          	sltu	a4,t4,a5
1000f88c:	01c12783          	lw	a5,28(sp)
1000f890:	00de86b3          	add	a3,t4,a3
1000f894:	02d12c23          	sw	a3,56(sp)
1000f898:	01d6b6b3          	sltu	a3,a3,t4
1000f89c:	00f887b3          	add	a5,a7,a5
1000f8a0:	00d76733          	or	a4,a4,a3
1000f8a4:	00f70733          	add	a4,a4,a5
1000f8a8:	02c12823          	sw	a2,48(sp)
1000f8ac:	000e0793          	mv	a5,t3
1000f8b0:	dadff06f          	j	1000f65c <__subtf3+0x4c4>
1000f8b4:	00190793          	addi	a5,s2,1
1000f8b8:	01179513          	slli	a0,a5,0x11
1000f8bc:	01255513          	srli	a0,a0,0x12
1000f8c0:	01412603          	lw	a2,20(sp)
1000f8c4:	01812303          	lw	t1,24(sp)
1000f8c8:	01c12803          	lw	a6,28(sp)
1000f8cc:	03010e13          	addi	t3,sp,48
1000f8d0:	03c10f13          	addi	t5,sp,60
1000f8d4:	12051e63          	bnez	a0,1000fa10 <__subtf3+0x878>
1000f8d8:	006667b3          	or	a5,a2,t1
1000f8dc:	0107e7b3          	or	a5,a5,a6
1000f8e0:	00d7e7b3          	or	a5,a5,a3
1000f8e4:	0a091463          	bnez	s2,1000f98c <__subtf3+0x7f4>
1000f8e8:	00079a63          	bnez	a5,1000f8fc <__subtf3+0x764>
1000f8ec:	02e12823          	sw	a4,48(sp)
1000f8f0:	02b12a23          	sw	a1,52(sp)
1000f8f4:	03d12c23          	sw	t4,56(sp)
1000f8f8:	0240006f          	j	1000f91c <__subtf3+0x784>
1000f8fc:	01d5e7b3          	or	a5,a1,t4
1000f900:	0117e7b3          	or	a5,a5,a7
1000f904:	00e7e7b3          	or	a5,a5,a4
1000f908:	02079063          	bnez	a5,1000f928 <__subtf3+0x790>
1000f90c:	02d12823          	sw	a3,48(sp)
1000f910:	02c12a23          	sw	a2,52(sp)
1000f914:	02612c23          	sw	t1,56(sp)
1000f918:	00080893          	mv	a7,a6
1000f91c:	03112e23          	sw	a7,60(sp)
1000f920:	00000793          	li	a5,0
1000f924:	a8dff06f          	j	1000f3b0 <__subtf3+0x218>
1000f928:	00e687b3          	add	a5,a3,a4
1000f92c:	00b605b3          	add	a1,a2,a1
1000f930:	02f12823          	sw	a5,48(sp)
1000f934:	00d7b7b3          	sltu	a5,a5,a3
1000f938:	00f587b3          	add	a5,a1,a5
1000f93c:	00c5b6b3          	sltu	a3,a1,a2
1000f940:	02f12a23          	sw	a5,52(sp)
1000f944:	00b7b7b3          	sltu	a5,a5,a1
1000f948:	01d30eb3          	add	t4,t1,t4
1000f94c:	00f6e6b3          	or	a3,a3,a5
1000f950:	00de86b3          	add	a3,t4,a3
1000f954:	02d12c23          	sw	a3,56(sp)
1000f958:	006eb733          	sltu	a4,t4,t1
1000f95c:	01d6b6b3          	sltu	a3,a3,t4
1000f960:	00d76733          	or	a4,a4,a3
1000f964:	01180633          	add	a2,a6,a7
1000f968:	00c708b3          	add	a7,a4,a2
1000f96c:	00c89793          	slli	a5,a7,0xc
1000f970:	fa07d6e3          	bgez	a5,1000f91c <__subtf3+0x784>
1000f974:	fff807b7          	lui	a5,0xfff80
1000f978:	fff78793          	addi	a5,a5,-1 # fff7ffff <_sp+0xeff6c2df>
1000f97c:	00f8f7b3          	and	a5,a7,a5
1000f980:	02f12e23          	sw	a5,60(sp)
1000f984:	00100793          	li	a5,1
1000f988:	a29ff06f          	j	1000f3b0 <__subtf3+0x218>
1000f98c:	02078463          	beqz	a5,1000f9b4 <__subtf3+0x81c>
1000f990:	01d5e5b3          	or	a1,a1,t4
1000f994:	0115e5b3          	or	a1,a1,a7
1000f998:	00e5e5b3          	or	a1,a1,a4
1000f99c:	02059663          	bnez	a1,1000f9c8 <__subtf3+0x830>
1000f9a0:	02d12823          	sw	a3,48(sp)
1000f9a4:	02c12a23          	sw	a2,52(sp)
1000f9a8:	02612c23          	sw	t1,56(sp)
1000f9ac:	03012e23          	sw	a6,60(sp)
1000f9b0:	d69ff06f          	j	1000f718 <__subtf3+0x580>
1000f9b4:	00070693          	mv	a3,a4
1000f9b8:	00058613          	mv	a2,a1
1000f9bc:	000e8313          	mv	t1,t4
1000f9c0:	00088813          	mv	a6,a7
1000f9c4:	fddff06f          	j	1000f9a0 <__subtf3+0x808>
1000f9c8:	000087b7          	lui	a5,0x8
1000f9cc:	02f12e23          	sw	a5,60(sp)
1000f9d0:	02012c23          	sw	zero,56(sp)
1000f9d4:	02012a23          	sw	zero,52(sp)
1000f9d8:	02012823          	sw	zero,48(sp)
1000f9dc:	000f0793          	mv	a5,t5
1000f9e0:	0007a703          	lw	a4,0(a5) # 8000 <__heap_size+0x7000>
1000f9e4:	ffc7a683          	lw	a3,-4(a5)
1000f9e8:	ffc78793          	addi	a5,a5,-4
1000f9ec:	00371713          	slli	a4,a4,0x3
1000f9f0:	01d6d693          	srli	a3,a3,0x1d
1000f9f4:	00d76733          	or	a4,a4,a3
1000f9f8:	00e7a223          	sw	a4,4(a5)
1000f9fc:	fefe12e3          	bne	t3,a5,1000f9e0 <__subtf3+0x848>
1000fa00:	000087b7          	lui	a5,0x8
1000fa04:	fff78793          	addi	a5,a5,-1 # 7fff <__heap_size+0x6fff>
1000fa08:	00000493          	li	s1,0
1000fa0c:	9a5ff06f          	j	1000f3b0 <__subtf3+0x218>
1000fa10:	00e68533          	add	a0,a3,a4
1000fa14:	00b605b3          	add	a1,a2,a1
1000fa18:	02a12823          	sw	a0,48(sp)
1000fa1c:	00d53533          	sltu	a0,a0,a3
1000fa20:	00a58533          	add	a0,a1,a0
1000fa24:	00c5b6b3          	sltu	a3,a1,a2
1000fa28:	02a12a23          	sw	a0,52(sp)
1000fa2c:	00b53533          	sltu	a0,a0,a1
1000fa30:	01d30eb3          	add	t4,t1,t4
1000fa34:	00a6e6b3          	or	a3,a3,a0
1000fa38:	00de86b3          	add	a3,t4,a3
1000fa3c:	02d12c23          	sw	a3,56(sp)
1000fa40:	006eb733          	sltu	a4,t4,t1
1000fa44:	01d6b6b3          	sltu	a3,a3,t4
1000fa48:	00d76733          	or	a4,a4,a3
1000fa4c:	01180633          	add	a2,a6,a7
1000fa50:	00c70733          	add	a4,a4,a2
1000fa54:	02e12e23          	sw	a4,60(sp)
1000fa58:	000e0693          	mv	a3,t3
1000fa5c:	0006a603          	lw	a2,0(a3)
1000fa60:	0046a583          	lw	a1,4(a3)
1000fa64:	00468693          	addi	a3,a3,4
1000fa68:	00165613          	srli	a2,a2,0x1
1000fa6c:	01f59593          	slli	a1,a1,0x1f
1000fa70:	00b66633          	or	a2,a2,a1
1000fa74:	fec6ae23          	sw	a2,-4(a3)
1000fa78:	fedf12e3          	bne	t5,a3,1000fa5c <__subtf3+0x8c4>
1000fa7c:	000086b7          	lui	a3,0x8
1000fa80:	fff68693          	addi	a3,a3,-1 # 7fff <__heap_size+0x6fff>
1000fa84:	00175713          	srli	a4,a4,0x1
1000fa88:	bcd79ee3          	bne	a5,a3,1000f664 <__subtf3+0x4cc>
1000fa8c:	02012e23          	sw	zero,60(sp)
1000fa90:	02012c23          	sw	zero,56(sp)
1000fa94:	02012a23          	sw	zero,52(sp)
1000fa98:	02012823          	sw	zero,48(sp)
1000fa9c:	915ff06f          	j	1000f3b0 <__subtf3+0x218>
1000faa0:	fff806b7          	lui	a3,0xfff80
1000faa4:	fff68693          	addi	a3,a3,-1 # fff7ffff <_sp+0xeff6c2df>
1000faa8:	00d77733          	and	a4,a4,a3
1000faac:	02e12e23          	sw	a4,60(sp)
1000fab0:	00178793          	addi	a5,a5,1
1000fab4:	01f61613          	slli	a2,a2,0x1f
1000fab8:	03010693          	addi	a3,sp,48
1000fabc:	03c10813          	addi	a6,sp,60
1000fac0:	0006a583          	lw	a1,0(a3)
1000fac4:	0046a503          	lw	a0,4(a3)
1000fac8:	00468693          	addi	a3,a3,4
1000facc:	0015d593          	srli	a1,a1,0x1
1000fad0:	01f51513          	slli	a0,a0,0x1f
1000fad4:	00a5e5b3          	or	a1,a1,a0
1000fad8:	feb6ae23          	sw	a1,-4(a3)
1000fadc:	fed812e3          	bne	a6,a3,1000fac0 <__subtf3+0x928>
1000fae0:	00175713          	srli	a4,a4,0x1
1000fae4:	02e12e23          	sw	a4,60(sp)
1000fae8:	03012703          	lw	a4,48(sp)
1000faec:	01f65613          	srli	a2,a2,0x1f
1000faf0:	00c76733          	or	a4,a4,a2
1000faf4:	02e12823          	sw	a4,48(sp)
1000faf8:	00008737          	lui	a4,0x8
1000fafc:	fff70713          	addi	a4,a4,-1 # 7fff <__heap_size+0x6fff>
1000fb00:	8ae798e3          	bne	a5,a4,1000f3b0 <__subtf3+0x218>
1000fb04:	f89ff06f          	j	1000fa8c <__subtf3+0x8f4>
1000fb08:	24f05c63          	blez	a5,1000fd60 <__subtf3+0xbc8>
1000fb0c:	01412583          	lw	a1,20(sp)
1000fb10:	01812e83          	lw	t4,24(sp)
1000fb14:	01c12883          	lw	a7,28(sp)
1000fb18:	0a0e1463          	bnez	t3,1000fbc0 <__subtf3+0xa28>
1000fb1c:	02412e03          	lw	t3,36(sp)
1000fb20:	02812f03          	lw	t5,40(sp)
1000fb24:	02c12503          	lw	a0,44(sp)
1000fb28:	01ee6633          	or	a2,t3,t5
1000fb2c:	00a66633          	or	a2,a2,a0
1000fb30:	00e66633          	or	a2,a2,a4
1000fb34:	00061663          	bnez	a2,1000fb40 <__subtf3+0x9a8>
1000fb38:	02d12823          	sw	a3,48(sp)
1000fb3c:	b69ff06f          	j	1000f6a4 <__subtf3+0x50c>
1000fb40:	fff78613          	addi	a2,a5,-1
1000fb44:	04061a63          	bnez	a2,1000fb98 <__subtf3+0xa00>
1000fb48:	41c587b3          	sub	a5,a1,t3
1000fb4c:	40e68633          	sub	a2,a3,a4
1000fb50:	40be0e33          	sub	t3,t3,a1
1000fb54:	00c6b6b3          	sltu	a3,a3,a2
1000fb58:	001e3e13          	seqz	t3,t3
1000fb5c:	40d78833          	sub	a6,a5,a3
1000fb60:	01c6f6b3          	and	a3,a3,t3
1000fb64:	00f5b7b3          	sltu	a5,a1,a5
1000fb68:	00d7e7b3          	or	a5,a5,a3
1000fb6c:	41df06b3          	sub	a3,t5,t4
1000fb70:	41ee85b3          	sub	a1,t4,t5
1000fb74:	0016b693          	seqz	a3,a3
1000fb78:	40f58733          	sub	a4,a1,a5
1000fb7c:	00d7f7b3          	and	a5,a5,a3
1000fb80:	00beb5b3          	sltu	a1,t4,a1
1000fb84:	40a88533          	sub	a0,a7,a0
1000fb88:	00f5e5b3          	or	a1,a1,a5
1000fb8c:	40b50533          	sub	a0,a0,a1
1000fb90:	00100793          	li	a5,1
1000fb94:	19c0006f          	j	1000fd30 <__subtf3+0xb98>
1000fb98:	00008737          	lui	a4,0x8
1000fb9c:	fff70713          	addi	a4,a4,-1 # 7fff <__heap_size+0x6fff>
1000fba0:	f8e78ce3          	beq	a5,a4,1000fb38 <__subtf3+0x9a0>
1000fba4:	07400793          	li	a5,116
1000fba8:	04c7d063          	bge	a5,a2,1000fbe8 <__subtf3+0xa50>
1000fbac:	02012623          	sw	zero,44(sp)
1000fbb0:	02012423          	sw	zero,40(sp)
1000fbb4:	02012223          	sw	zero,36(sp)
1000fbb8:	00100613          	li	a2,1
1000fbbc:	11c0006f          	j	1000fcd8 <__subtf3+0xb40>
1000fbc0:	00008737          	lui	a4,0x8
1000fbc4:	fff70713          	addi	a4,a4,-1 # 7fff <__heap_size+0x6fff>
1000fbc8:	b4e90ee3          	beq	s2,a4,1000f724 <__subtf3+0x58c>
1000fbcc:	02c12703          	lw	a4,44(sp)
1000fbd0:	00080637          	lui	a2,0x80
1000fbd4:	00c76733          	or	a4,a4,a2
1000fbd8:	02e12623          	sw	a4,44(sp)
1000fbdc:	07400713          	li	a4,116
1000fbe0:	fcf746e3          	blt	a4,a5,1000fbac <__subtf3+0xa14>
1000fbe4:	00078613          	mv	a2,a5
1000fbe8:	40565793          	srai	a5,a2,0x5
1000fbec:	01f67e13          	andi	t3,a2,31
1000fbf0:	00030513          	mv	a0,t1
1000fbf4:	00000613          	li	a2,0
1000fbf8:	00000713          	li	a4,0
1000fbfc:	02f71c63          	bne	a4,a5,1000fc34 <__subtf3+0xa9c>
1000fc00:	00300713          	li	a4,3
1000fc04:	40f70733          	sub	a4,a4,a5
1000fc08:	00279393          	slli	t2,a5,0x2
1000fc0c:	020e1e63          	bnez	t3,1000fc48 <__subtf3+0xab0>
1000fc10:	00730533          	add	a0,t1,t2
1000fc14:	00052503          	lw	a0,0(a0)
1000fc18:	001e0e13          	addi	t3,t3,1
1000fc1c:	00430313          	addi	t1,t1,4
1000fc20:	fea32e23          	sw	a0,-4(t1)
1000fc24:	ffc756e3          	bge	a4,t3,1000fc10 <__subtf3+0xa78>
1000fc28:	00400713          	li	a4,4
1000fc2c:	40f707b3          	sub	a5,a4,a5
1000fc30:	0580006f          	j	1000fc88 <__subtf3+0xaf0>
1000fc34:	00052803          	lw	a6,0(a0)
1000fc38:	00170713          	addi	a4,a4,1
1000fc3c:	00450513          	addi	a0,a0,4
1000fc40:	01066633          	or	a2,a2,a6
1000fc44:	fb9ff06f          	j	1000fbfc <__subtf3+0xa64>
1000fc48:	007f8533          	add	a0,t6,t2
1000fc4c:	00052503          	lw	a0,0(a0)
1000fc50:	02000813          	li	a6,32
1000fc54:	41c80833          	sub	a6,a6,t3
1000fc58:	01051533          	sll	a0,a0,a6
1000fc5c:	00a66633          	or	a2,a2,a0
1000fc60:	00730333          	add	t1,t1,t2
1000fc64:	00000f13          	li	t5,0
1000fc68:	02ef4463          	blt	t5,a4,1000fc90 <__subtf3+0xaf8>
1000fc6c:	00400513          	li	a0,4
1000fc70:	40f507b3          	sub	a5,a0,a5
1000fc74:	02c12503          	lw	a0,44(sp)
1000fc78:	00271713          	slli	a4,a4,0x2
1000fc7c:	00ef8733          	add	a4,t6,a4
1000fc80:	01c55533          	srl	a0,a0,t3
1000fc84:	00a72023          	sw	a0,0(a4)
1000fc88:	00400513          	li	a0,4
1000fc8c:	03c0006f          	j	1000fcc8 <__subtf3+0xb30>
1000fc90:	00032503          	lw	a0,0(t1)
1000fc94:	00432283          	lw	t0,4(t1)
1000fc98:	407309b3          	sub	s3,t1,t2
1000fc9c:	01c55533          	srl	a0,a0,t3
1000fca0:	010292b3          	sll	t0,t0,a6
1000fca4:	00556533          	or	a0,a0,t0
1000fca8:	00a9a023          	sw	a0,0(s3)
1000fcac:	001f0f13          	addi	t5,t5,1
1000fcb0:	00430313          	addi	t1,t1,4
1000fcb4:	fb5ff06f          	j	1000fc68 <__subtf3+0xad0>
1000fcb8:	00279713          	slli	a4,a5,0x2
1000fcbc:	00ef8733          	add	a4,t6,a4
1000fcc0:	00072023          	sw	zero,0(a4)
1000fcc4:	00178793          	addi	a5,a5,1
1000fcc8:	fea798e3          	bne	a5,a0,1000fcb8 <__subtf3+0xb20>
1000fccc:	02012783          	lw	a5,32(sp)
1000fcd0:	00c03633          	snez	a2,a2
1000fcd4:	00f66633          	or	a2,a2,a5
1000fcd8:	02412703          	lw	a4,36(sp)
1000fcdc:	40c68633          	sub	a2,a3,a2
1000fce0:	00c6b6b3          	sltu	a3,a3,a2
1000fce4:	40e587b3          	sub	a5,a1,a4
1000fce8:	40d78833          	sub	a6,a5,a3
1000fcec:	40b70733          	sub	a4,a4,a1
1000fcf0:	00f5b7b3          	sltu	a5,a1,a5
1000fcf4:	02812583          	lw	a1,40(sp)
1000fcf8:	00173713          	seqz	a4,a4
1000fcfc:	00e6f6b3          	and	a3,a3,a4
1000fd00:	00d7e7b3          	or	a5,a5,a3
1000fd04:	02c12503          	lw	a0,44(sp)
1000fd08:	40be86b3          	sub	a3,t4,a1
1000fd0c:	41d585b3          	sub	a1,a1,t4
1000fd10:	0015b593          	seqz	a1,a1
1000fd14:	40f68733          	sub	a4,a3,a5
1000fd18:	00b7f7b3          	and	a5,a5,a1
1000fd1c:	00deb6b3          	sltu	a3,t4,a3
1000fd20:	00f6e6b3          	or	a3,a3,a5
1000fd24:	40a88533          	sub	a0,a7,a0
1000fd28:	40d50533          	sub	a0,a0,a3
1000fd2c:	00090793          	mv	a5,s2
1000fd30:	02e12c23          	sw	a4,56(sp)
1000fd34:	02a12e23          	sw	a0,60(sp)
1000fd38:	03012a23          	sw	a6,52(sp)
1000fd3c:	02c12823          	sw	a2,48(sp)
1000fd40:	00c51713          	slli	a4,a0,0xc
1000fd44:	e6075663          	bgez	a4,1000f3b0 <__subtf3+0x218>
1000fd48:	00080737          	lui	a4,0x80
1000fd4c:	fff70713          	addi	a4,a4,-1 # 7ffff <__heap_size+0x7efff>
1000fd50:	00e57533          	and	a0,a0,a4
1000fd54:	02a12e23          	sw	a0,60(sp)
1000fd58:	00078913          	mv	s2,a5
1000fd5c:	4c40006f          	j	10010220 <__subtf3+0x1088>
1000fd60:	02412303          	lw	t1,36(sp)
1000fd64:	02812583          	lw	a1,40(sp)
1000fd68:	02c12f83          	lw	t6,44(sp)
1000fd6c:	24078663          	beqz	a5,1000ffb8 <__subtf3+0xe20>
1000fd70:	412e07b3          	sub	a5,t3,s2
1000fd74:	0a091a63          	bnez	s2,1000fe28 <__subtf3+0xc90>
1000fd78:	01412883          	lw	a7,20(sp)
1000fd7c:	01812e83          	lw	t4,24(sp)
1000fd80:	01c12503          	lw	a0,28(sp)
1000fd84:	01d8e633          	or	a2,a7,t4
1000fd88:	00a66633          	or	a2,a2,a0
1000fd8c:	00d66633          	or	a2,a2,a3
1000fd90:	00061e63          	bnez	a2,1000fdac <__subtf3+0xc14>
1000fd94:	02e12823          	sw	a4,48(sp)
1000fd98:	02612a23          	sw	t1,52(sp)
1000fd9c:	02b12c23          	sw	a1,56(sp)
1000fda0:	03f12e23          	sw	t6,60(sp)
1000fda4:	000f0493          	mv	s1,t5
1000fda8:	e08ff06f          	j	1000f3b0 <__subtf3+0x218>
1000fdac:	fff78913          	addi	s2,a5,-1
1000fdb0:	04091a63          	bnez	s2,1000fe04 <__subtf3+0xc6c>
1000fdb4:	411307b3          	sub	a5,t1,a7
1000fdb8:	40d70633          	sub	a2,a4,a3
1000fdbc:	406888b3          	sub	a7,a7,t1
1000fdc0:	00c73733          	sltu	a4,a4,a2
1000fdc4:	0018b893          	seqz	a7,a7
1000fdc8:	40e78833          	sub	a6,a5,a4
1000fdcc:	40be86b3          	sub	a3,t4,a1
1000fdd0:	01177733          	and	a4,a4,a7
1000fdd4:	00f337b3          	sltu	a5,t1,a5
1000fdd8:	00e7e7b3          	or	a5,a5,a4
1000fddc:	41d588b3          	sub	a7,a1,t4
1000fde0:	0016b693          	seqz	a3,a3
1000fde4:	40f88733          	sub	a4,a7,a5
1000fde8:	00d7f7b3          	and	a5,a5,a3
1000fdec:	0115b8b3          	sltu	a7,a1,a7
1000fdf0:	40af8533          	sub	a0,t6,a0
1000fdf4:	00f8e8b3          	or	a7,a7,a5
1000fdf8:	41150533          	sub	a0,a0,a7
1000fdfc:	000f0493          	mv	s1,t5
1000fe00:	d91ff06f          	j	1000fb90 <__subtf3+0x9f8>
1000fe04:	000086b7          	lui	a3,0x8
1000fe08:	fff68693          	addi	a3,a3,-1 # 7fff <__heap_size+0x6fff>
1000fe0c:	68d79463          	bne	a5,a3,10010494 <__subtf3+0x12fc>
1000fe10:	02e12823          	sw	a4,48(sp)
1000fe14:	02612a23          	sw	t1,52(sp)
1000fe18:	02b12c23          	sw	a1,56(sp)
1000fe1c:	03f12e23          	sw	t6,60(sp)
1000fe20:	000f0493          	mv	s1,t5
1000fe24:	8f5ff06f          	j	1000f718 <__subtf3+0x580>
1000fe28:	000086b7          	lui	a3,0x8
1000fe2c:	fff68693          	addi	a3,a3,-1 # 7fff <__heap_size+0x6fff>
1000fe30:	fede00e3          	beq	t3,a3,1000fe10 <__subtf3+0xc78>
1000fe34:	01c12683          	lw	a3,28(sp)
1000fe38:	00080637          	lui	a2,0x80
1000fe3c:	00c6e6b3          	or	a3,a3,a2
1000fe40:	00d12e23          	sw	a3,28(sp)
1000fe44:	07400693          	li	a3,116
1000fe48:	64f6ca63          	blt	a3,a5,1001049c <__subtf3+0x1304>
1000fe4c:	00078913          	mv	s2,a5
1000fe50:	02000793          	li	a5,32
1000fe54:	02f947b3          	div	a5,s2,a5
1000fe58:	00080513          	mv	a0,a6
1000fe5c:	00000613          	li	a2,0
1000fe60:	00000693          	li	a3,0
1000fe64:	02f6ce63          	blt	a3,a5,1000fea0 <__subtf3+0xd08>
1000fe68:	00300693          	li	a3,3
1000fe6c:	01f97e93          	andi	t4,s2,31
1000fe70:	40f688b3          	sub	a7,a3,a5
1000fe74:	00279493          	slli	s1,a5,0x2
1000fe78:	020e9e63          	bnez	t4,1000feb4 <__subtf3+0xd1c>
1000fe7c:	009806b3          	add	a3,a6,s1
1000fe80:	0006a683          	lw	a3,0(a3)
1000fe84:	001e8e93          	addi	t4,t4,1
1000fe88:	00480813          	addi	a6,a6,4
1000fe8c:	fed82e23          	sw	a3,-4(a6)
1000fe90:	ffd8d6e3          	bge	a7,t4,1000fe7c <__subtf3+0xce4>
1000fe94:	00400693          	li	a3,4
1000fe98:	40f687b3          	sub	a5,a3,a5
1000fe9c:	06c0006f          	j	1000ff08 <__subtf3+0xd70>
1000fea0:	00052883          	lw	a7,0(a0)
1000fea4:	00168693          	addi	a3,a3,1
1000fea8:	00450513          	addi	a0,a0,4
1000feac:	01166633          	or	a2,a2,a7
1000feb0:	fb5ff06f          	j	1000fe64 <__subtf3+0xccc>
1000feb4:	02000393          	li	t2,32
1000feb8:	02796933          	rem	s2,s2,t2
1000febc:	fff7c693          	not	a3,a5
1000fec0:	41f6d693          	srai	a3,a3,0x1f
1000fec4:	00d7f6b3          	and	a3,a5,a3
1000fec8:	00269693          	slli	a3,a3,0x2
1000fecc:	00d286b3          	add	a3,t0,a3
1000fed0:	0006a683          	lw	a3,0(a3)
1000fed4:	00980833          	add	a6,a6,s1
1000fed8:	412383b3          	sub	t2,t2,s2
1000fedc:	007696b3          	sll	a3,a3,t2
1000fee0:	00d66633          	or	a2,a2,a3
1000fee4:	00000693          	li	a3,0
1000fee8:	0316c463          	blt	a3,a7,1000ff10 <__subtf3+0xd78>
1000feec:	01c12503          	lw	a0,28(sp)
1000fef0:	00400693          	li	a3,4
1000fef4:	40f687b3          	sub	a5,a3,a5
1000fef8:	00289693          	slli	a3,a7,0x2
1000fefc:	00d286b3          	add	a3,t0,a3
1000ff00:	01d55533          	srl	a0,a0,t4
1000ff04:	00a6a023          	sw	a0,0(a3)
1000ff08:	00300513          	li	a0,3
1000ff0c:	03c0006f          	j	1000ff48 <__subtf3+0xdb0>
1000ff10:	00082503          	lw	a0,0(a6)
1000ff14:	00482903          	lw	s2,4(a6)
1000ff18:	409809b3          	sub	s3,a6,s1
1000ff1c:	01d55533          	srl	a0,a0,t4
1000ff20:	00791933          	sll	s2,s2,t2
1000ff24:	01256533          	or	a0,a0,s2
1000ff28:	00a9a023          	sw	a0,0(s3)
1000ff2c:	00168693          	addi	a3,a3,1
1000ff30:	00480813          	addi	a6,a6,4
1000ff34:	fb5ff06f          	j	1000fee8 <__subtf3+0xd50>
1000ff38:	00279693          	slli	a3,a5,0x2
1000ff3c:	00d286b3          	add	a3,t0,a3
1000ff40:	0006a023          	sw	zero,0(a3)
1000ff44:	00178793          	addi	a5,a5,1
1000ff48:	fef558e3          	bge	a0,a5,1000ff38 <__subtf3+0xda0>
1000ff4c:	01012783          	lw	a5,16(sp)
1000ff50:	00c03633          	snez	a2,a2
1000ff54:	00f66633          	or	a2,a2,a5
1000ff58:	01412683          	lw	a3,20(sp)
1000ff5c:	01812883          	lw	a7,24(sp)
1000ff60:	40c70633          	sub	a2,a4,a2
1000ff64:	40d307b3          	sub	a5,t1,a3
1000ff68:	406686b3          	sub	a3,a3,t1
1000ff6c:	00c73733          	sltu	a4,a4,a2
1000ff70:	0016b693          	seqz	a3,a3
1000ff74:	40e78833          	sub	a6,a5,a4
1000ff78:	01c12503          	lw	a0,28(sp)
1000ff7c:	00d77733          	and	a4,a4,a3
1000ff80:	00f337b3          	sltu	a5,t1,a5
1000ff84:	411586b3          	sub	a3,a1,a7
1000ff88:	40b888b3          	sub	a7,a7,a1
1000ff8c:	00e7e7b3          	or	a5,a5,a4
1000ff90:	0018b893          	seqz	a7,a7
1000ff94:	40f68733          	sub	a4,a3,a5
1000ff98:	0117f7b3          	and	a5,a5,a7
1000ff9c:	00d5b6b3          	sltu	a3,a1,a3
1000ffa0:	00f6e6b3          	or	a3,a3,a5
1000ffa4:	40af8533          	sub	a0,t6,a0
1000ffa8:	40d50533          	sub	a0,a0,a3
1000ffac:	000e0793          	mv	a5,t3
1000ffb0:	000f0493          	mv	s1,t5
1000ffb4:	d7dff06f          	j	1000fd30 <__subtf3+0xb98>
1000ffb8:	00190613          	addi	a2,s2,1
1000ffbc:	01161e13          	slli	t3,a2,0x11
1000ffc0:	012e5e13          	srli	t3,t3,0x12
1000ffc4:	01412803          	lw	a6,20(sp)
1000ffc8:	01812e83          	lw	t4,24(sp)
1000ffcc:	01c12883          	lw	a7,28(sp)
1000ffd0:	000082b7          	lui	t0,0x8
1000ffd4:	1a0e1463          	bnez	t3,1001017c <__subtf3+0xfe4>
1000ffd8:	00b36633          	or	a2,t1,a1
1000ffdc:	01d86e33          	or	t3,a6,t4
1000ffe0:	01f66633          	or	a2,a2,t6
1000ffe4:	011e6e33          	or	t3,t3,a7
1000ffe8:	00e66633          	or	a2,a2,a4
1000ffec:	00de6e33          	or	t3,t3,a3
1000fff0:	0e091863          	bnez	s2,100100e0 <__subtf3+0xf48>
1000fff4:	020e1063          	bnez	t3,10010014 <__subtf3+0xe7c>
1000fff8:	00c03633          	snez	a2,a2
1000fffc:	02e12823          	sw	a4,48(sp)
10010000:	02612a23          	sw	t1,52(sp)
10010004:	02b12c23          	sw	a1,56(sp)
10010008:	03f12e23          	sw	t6,60(sp)
1001000c:	01e674b3          	and	s1,a2,t5
10010010:	ba0ff06f          	j	1000f3b0 <__subtf3+0x218>
10010014:	00061863          	bnez	a2,10010024 <__subtf3+0xe8c>
10010018:	02d12823          	sw	a3,48(sp)
1001001c:	03012a23          	sw	a6,52(sp)
10010020:	8d5ff06f          	j	1000f8f4 <__subtf3+0x75c>
10010024:	40680633          	sub	a2,a6,t1
10010028:	40e684b3          	sub	s1,a3,a4
1001002c:	0096be33          	sltu	t3,a3,s1
10010030:	00163913          	seqz	s2,a2
10010034:	41c609b3          	sub	s3,a2,t3
10010038:	40be82b3          	sub	t0,t4,a1
1001003c:	012e7e33          	and	t3,t3,s2
10010040:	00c83633          	sltu	a2,a6,a2
10010044:	01c66633          	or	a2,a2,t3
10010048:	0012b393          	seqz	t2,t0
1001004c:	40c28a33          	sub	s4,t0,a2
10010050:	00c3f633          	and	a2,t2,a2
10010054:	005eb2b3          	sltu	t0,t4,t0
10010058:	00c2e2b3          	or	t0,t0,a2
1001005c:	41f88633          	sub	a2,a7,t6
10010060:	40560633          	sub	a2,a2,t0
10010064:	02c12e23          	sw	a2,60(sp)
10010068:	03412c23          	sw	s4,56(sp)
1001006c:	03312a23          	sw	s3,52(sp)
10010070:	02912823          	sw	s1,48(sp)
10010074:	00c61e13          	slli	t3,a2,0xc
10010078:	040e5863          	bgez	t3,100100c8 <__subtf3+0xf30>
1001007c:	40d706b3          	sub	a3,a4,a3
10010080:	00d73733          	sltu	a4,a4,a3
10010084:	41030833          	sub	a6,t1,a6
10010088:	40e80633          	sub	a2,a6,a4
1001008c:	01033833          	sltu	a6,t1,a6
10010090:	01277733          	and	a4,a4,s2
10010094:	00e86833          	or	a6,a6,a4
10010098:	41d58eb3          	sub	t4,a1,t4
1001009c:	01d5b5b3          	sltu	a1,a1,t4
100100a0:	0103f3b3          	and	t2,t2,a6
100100a4:	411f8fb3          	sub	t6,t6,a7
100100a8:	0075e5b3          	or	a1,a1,t2
100100ac:	40bf8fb3          	sub	t6,t6,a1
100100b0:	410e8eb3          	sub	t4,t4,a6
100100b4:	03f12e23          	sw	t6,60(sp)
100100b8:	03d12c23          	sw	t4,56(sp)
100100bc:	02c12a23          	sw	a2,52(sp)
100100c0:	02d12823          	sw	a3,48(sp)
100100c4:	ce1ff06f          	j	1000fda4 <__subtf3+0xc0c>
100100c8:	0134e4b3          	or	s1,s1,s3
100100cc:	0144e4b3          	or	s1,s1,s4
100100d0:	00c4e4b3          	or	s1,s1,a2
100100d4:	009034b3          	snez	s1,s1
100100d8:	009574b3          	and	s1,a0,s1
100100dc:	ad4ff06f          	j	1000f3b0 <__subtf3+0x218>
100100e0:	03010513          	addi	a0,sp,48
100100e4:	040e1e63          	bnez	t3,10010140 <__subtf3+0xfa8>
100100e8:	02061e63          	bnez	a2,10010124 <__subtf3+0xf8c>
100100ec:	02512e23          	sw	t0,60(sp)
100100f0:	02012c23          	sw	zero,56(sp)
100100f4:	02012a23          	sw	zero,52(sp)
100100f8:	02012823          	sw	zero,48(sp)
100100fc:	03c10793          	addi	a5,sp,60
10010100:	0007a703          	lw	a4,0(a5)
10010104:	ffc7a683          	lw	a3,-4(a5)
10010108:	ffc78793          	addi	a5,a5,-4
1001010c:	00371713          	slli	a4,a4,0x3
10010110:	01d6d693          	srli	a3,a3,0x1d
10010114:	00d76733          	or	a4,a4,a3
10010118:	00e7a223          	sw	a4,4(a5)
1001011c:	fef512e3          	bne	a0,a5,10010100 <__subtf3+0xf68>
10010120:	8e1ff06f          	j	1000fa00 <__subtf3+0x868>
10010124:	02e12823          	sw	a4,48(sp)
10010128:	02612a23          	sw	t1,52(sp)
1001012c:	02b12c23          	sw	a1,56(sp)
10010130:	03f12e23          	sw	t6,60(sp)
10010134:	000f0493          	mv	s1,t5
10010138:	fff28793          	addi	a5,t0,-1 # 7fff <__heap_size+0x6fff>
1001013c:	a74ff06f          	j	1000f3b0 <__subtf3+0x218>
10010140:	a4060263          	beqz	a2,1000f384 <__subtf3+0x1ec>
10010144:	02512e23          	sw	t0,60(sp)
10010148:	02012c23          	sw	zero,56(sp)
1001014c:	02012a23          	sw	zero,52(sp)
10010150:	02012823          	sw	zero,48(sp)
10010154:	03c10793          	addi	a5,sp,60
10010158:	0007a703          	lw	a4,0(a5)
1001015c:	ffc7a683          	lw	a3,-4(a5)
10010160:	ffc78793          	addi	a5,a5,-4
10010164:	00371713          	slli	a4,a4,0x3
10010168:	01d6d693          	srli	a3,a3,0x1d
1001016c:	00d76733          	or	a4,a4,a3
10010170:	00e7a223          	sw	a4,4(a5)
10010174:	fef512e3          	bne	a0,a5,10010158 <__subtf3+0xfc0>
10010178:	889ff06f          	j	1000fa00 <__subtf3+0x868>
1001017c:	40680633          	sub	a2,a6,t1
10010180:	40e682b3          	sub	t0,a3,a4
10010184:	0056b533          	sltu	a0,a3,t0
10010188:	00163993          	seqz	s3,a2
1001018c:	40a60a33          	sub	s4,a2,a0
10010190:	40be8e33          	sub	t3,t4,a1
10010194:	01357533          	and	a0,a0,s3
10010198:	00c83633          	sltu	a2,a6,a2
1001019c:	00a66633          	or	a2,a2,a0
100101a0:	001e3393          	seqz	t2,t3
100101a4:	40ce0ab3          	sub	s5,t3,a2
100101a8:	00c3f633          	and	a2,t2,a2
100101ac:	01cebe33          	sltu	t3,t4,t3
100101b0:	00ce6e33          	or	t3,t3,a2
100101b4:	41f88533          	sub	a0,a7,t6
100101b8:	41c50533          	sub	a0,a0,t3
100101bc:	02a12e23          	sw	a0,60(sp)
100101c0:	03512c23          	sw	s5,56(sp)
100101c4:	03412a23          	sw	s4,52(sp)
100101c8:	02512823          	sw	t0,48(sp)
100101cc:	00c51613          	slli	a2,a0,0xc
100101d0:	0a065463          	bgez	a2,10010278 <__subtf3+0x10e0>
100101d4:	40d706b3          	sub	a3,a4,a3
100101d8:	00d73733          	sltu	a4,a4,a3
100101dc:	41030833          	sub	a6,t1,a6
100101e0:	40e807b3          	sub	a5,a6,a4
100101e4:	01377733          	and	a4,a4,s3
100101e8:	01033833          	sltu	a6,t1,a6
100101ec:	00e86833          	or	a6,a6,a4
100101f0:	41d58eb3          	sub	t4,a1,t4
100101f4:	01d5b5b3          	sltu	a1,a1,t4
100101f8:	007873b3          	and	t2,a6,t2
100101fc:	411f8533          	sub	a0,t6,a7
10010200:	0075e5b3          	or	a1,a1,t2
10010204:	40b50533          	sub	a0,a0,a1
10010208:	410e8eb3          	sub	t4,t4,a6
1001020c:	02a12e23          	sw	a0,60(sp)
10010210:	03d12c23          	sw	t4,56(sp)
10010214:	02f12a23          	sw	a5,52(sp)
10010218:	02d12823          	sw	a3,48(sp)
1001021c:	000f0493          	mv	s1,t5
10010220:	06050663          	beqz	a0,1001028c <__subtf3+0x10f4>
10010224:	750000ef          	jal	10010974 <__clzsi2>
10010228:	ff450793          	addi	a5,a0,-12
1001022c:	02000613          	li	a2,32
10010230:	01f7f813          	andi	a6,a5,31
10010234:	02c7c6b3          	div	a3,a5,a2
10010238:	03c10713          	addi	a4,sp,60
1001023c:	08080463          	beqz	a6,100102c4 <__subtf3+0x112c>
10010240:	00269893          	slli	a7,a3,0x2
10010244:	03010513          	addi	a0,sp,48
10010248:	41170733          	sub	a4,a4,a7
1001024c:	02c7e5b3          	rem	a1,a5,a2
10010250:	40b60633          	sub	a2,a2,a1
10010254:	08e51e63          	bne	a0,a4,100102f0 <__subtf3+0x1158>
10010258:	fff68713          	addi	a4,a3,-1
1001025c:	03012683          	lw	a3,48(sp)
10010260:	01150533          	add	a0,a0,a7
10010264:	010696b3          	sll	a3,a3,a6
10010268:	00d52023          	sw	a3,0(a0)
1001026c:	fff00613          	li	a2,-1
10010270:	03010893          	addi	a7,sp,48
10010274:	0b00006f          	j	10010324 <__subtf3+0x118c>
10010278:	0142e733          	or	a4,t0,s4
1001027c:	01576733          	or	a4,a4,s5
10010280:	00a76733          	or	a4,a4,a0
10010284:	f8070263          	beqz	a4,1000fa08 <__subtf3+0x870>
10010288:	f99ff06f          	j	10010220 <__subtf3+0x1088>
1001028c:	03812503          	lw	a0,56(sp)
10010290:	00050863          	beqz	a0,100102a0 <__subtf3+0x1108>
10010294:	6e0000ef          	jal	10010974 <__clzsi2>
10010298:	02050513          	addi	a0,a0,32
1001029c:	f8dff06f          	j	10010228 <__subtf3+0x1090>
100102a0:	03412503          	lw	a0,52(sp)
100102a4:	00050863          	beqz	a0,100102b4 <__subtf3+0x111c>
100102a8:	6cc000ef          	jal	10010974 <__clzsi2>
100102ac:	04050513          	addi	a0,a0,64
100102b0:	f79ff06f          	j	10010228 <__subtf3+0x1090>
100102b4:	03012503          	lw	a0,48(sp)
100102b8:	6bc000ef          	jal	10010974 <__clzsi2>
100102bc:	06050513          	addi	a0,a0,96
100102c0:	f69ff06f          	j	10010228 <__subtf3+0x1090>
100102c4:	ffc00593          	li	a1,-4
100102c8:	02b685b3          	mul	a1,a3,a1
100102cc:	00300613          	li	a2,3
100102d0:	00b70533          	add	a0,a4,a1
100102d4:	00052503          	lw	a0,0(a0)
100102d8:	fff60613          	addi	a2,a2,-1 # 7ffff <__heap_size+0x7efff>
100102dc:	ffc70713          	addi	a4,a4,-4
100102e0:	00a72223          	sw	a0,4(a4)
100102e4:	fed656e3          	bge	a2,a3,100102d0 <__subtf3+0x1138>
100102e8:	fff68713          	addi	a4,a3,-1
100102ec:	f81ff06f          	j	1001026c <__subtf3+0x10d4>
100102f0:	00072583          	lw	a1,0(a4)
100102f4:	ffc72303          	lw	t1,-4(a4)
100102f8:	01170e33          	add	t3,a4,a7
100102fc:	010595b3          	sll	a1,a1,a6
10010300:	00c35333          	srl	t1,t1,a2
10010304:	0065e5b3          	or	a1,a1,t1
10010308:	00be2023          	sw	a1,0(t3)
1001030c:	ffc70713          	addi	a4,a4,-4
10010310:	f45ff06f          	j	10010254 <__subtf3+0x10bc>
10010314:	00271693          	slli	a3,a4,0x2
10010318:	00d886b3          	add	a3,a7,a3
1001031c:	0006a023          	sw	zero,0(a3)
10010320:	fff70713          	addi	a4,a4,-1
10010324:	fec718e3          	bne	a4,a2,10010314 <__subtf3+0x117c>
10010328:	1127c263          	blt	a5,s2,1001042c <__subtf3+0x1294>
1001032c:	412787b3          	sub	a5,a5,s2
10010330:	00178793          	addi	a5,a5,1
10010334:	4057d713          	srai	a4,a5,0x5
10010338:	00088613          	mv	a2,a7
1001033c:	01f7f793          	andi	a5,a5,31
10010340:	00088593          	mv	a1,a7
10010344:	00000813          	li	a6,0
10010348:	00000693          	li	a3,0
1001034c:	02e69c63          	bne	a3,a4,10010384 <__subtf3+0x11ec>
10010350:	00300693          	li	a3,3
10010354:	40e686b3          	sub	a3,a3,a4
10010358:	00271e13          	slli	t3,a4,0x2
1001035c:	02079e63          	bnez	a5,10010398 <__subtf3+0x1200>
10010360:	01c605b3          	add	a1,a2,t3
10010364:	0005a583          	lw	a1,0(a1)
10010368:	00178793          	addi	a5,a5,1
1001036c:	00460613          	addi	a2,a2,4
10010370:	feb62e23          	sw	a1,-4(a2)
10010374:	fef6d6e3          	bge	a3,a5,10010360 <__subtf3+0x11c8>
10010378:	00400793          	li	a5,4
1001037c:	40e78733          	sub	a4,a5,a4
10010380:	0540006f          	j	100103d4 <__subtf3+0x123c>
10010384:	0005a503          	lw	a0,0(a1)
10010388:	00168693          	addi	a3,a3,1
1001038c:	00458593          	addi	a1,a1,4
10010390:	00a86833          	or	a6,a6,a0
10010394:	fb9ff06f          	j	1001034c <__subtf3+0x11b4>
10010398:	01c88633          	add	a2,a7,t3
1001039c:	00062583          	lw	a1,0(a2)
100103a0:	02000513          	li	a0,32
100103a4:	40f50533          	sub	a0,a0,a5
100103a8:	00a595b3          	sll	a1,a1,a0
100103ac:	00b86833          	or	a6,a6,a1
100103b0:	00000313          	li	t1,0
100103b4:	02d34463          	blt	t1,a3,100103dc <__subtf3+0x1244>
100103b8:	00400613          	li	a2,4
100103bc:	40e60733          	sub	a4,a2,a4
100103c0:	03c12603          	lw	a2,60(sp)
100103c4:	00269693          	slli	a3,a3,0x2
100103c8:	00d886b3          	add	a3,a7,a3
100103cc:	00f657b3          	srl	a5,a2,a5
100103d0:	00f6a023          	sw	a5,0(a3)
100103d4:	00400693          	li	a3,4
100103d8:	03c0006f          	j	10010414 <__subtf3+0x127c>
100103dc:	00062583          	lw	a1,0(a2)
100103e0:	00462e83          	lw	t4,4(a2)
100103e4:	41c60f33          	sub	t5,a2,t3
100103e8:	00f5d5b3          	srl	a1,a1,a5
100103ec:	00ae9eb3          	sll	t4,t4,a0
100103f0:	01d5e5b3          	or	a1,a1,t4
100103f4:	00bf2023          	sw	a1,0(t5)
100103f8:	00130313          	addi	t1,t1,1
100103fc:	00460613          	addi	a2,a2,4
10010400:	fb5ff06f          	j	100103b4 <__subtf3+0x121c>
10010404:	00271793          	slli	a5,a4,0x2
10010408:	00f887b3          	add	a5,a7,a5
1001040c:	0007a023          	sw	zero,0(a5)
10010410:	00170713          	addi	a4,a4,1
10010414:	fed718e3          	bne	a4,a3,10010404 <__subtf3+0x126c>
10010418:	03012703          	lw	a4,48(sp)
1001041c:	010037b3          	snez	a5,a6
10010420:	00f767b3          	or	a5,a4,a5
10010424:	02f12823          	sw	a5,48(sp)
10010428:	cf8ff06f          	j	1000f920 <__subtf3+0x788>
1001042c:	03c12703          	lw	a4,60(sp)
10010430:	fff806b7          	lui	a3,0xfff80
10010434:	fff68693          	addi	a3,a3,-1 # fff7ffff <_sp+0xeff6c2df>
10010438:	40f907b3          	sub	a5,s2,a5
1001043c:	00d77733          	and	a4,a4,a3
10010440:	a24ff06f          	j	1000f664 <__subtf3+0x4cc>
10010444:	02012e23          	sw	zero,60(sp)
10010448:	02012c23          	sw	zero,56(sp)
1001044c:	02012a23          	sw	zero,52(sp)
10010450:	02012823          	sw	zero,48(sp)
10010454:	00000713          	li	a4,0
10010458:	fddfe06f          	j	1000f434 <__subtf3+0x29c>
1001045c:	07400793          	li	a5,116
10010460:	8ac7dc63          	bge	a5,a2,1000f518 <__subtf3+0x380>
10010464:	02012623          	sw	zero,44(sp)
10010468:	02012423          	sw	zero,40(sp)
1001046c:	02012223          	sw	zero,36(sp)
10010470:	00100613          	li	a2,1
10010474:	994ff06f          	j	1000f608 <__subtf3+0x470>
10010478:	07400793          	li	a5,116
1001047c:	ad27dc63          	bge	a5,s2,1000f754 <__subtf3+0x5bc>
10010480:	00012e23          	sw	zero,28(sp)
10010484:	00012c23          	sw	zero,24(sp)
10010488:	00012a23          	sw	zero,20(sp)
1001048c:	00100613          	li	a2,1
10010490:	bccff06f          	j	1000f85c <__subtf3+0x6c4>
10010494:	07400793          	li	a5,116
10010498:	9b27dce3          	bge	a5,s2,1000fe50 <__subtf3+0xcb8>
1001049c:	00012e23          	sw	zero,28(sp)
100104a0:	00012c23          	sw	zero,24(sp)
100104a4:	00012a23          	sw	zero,20(sp)
100104a8:	00100613          	li	a2,1
100104ac:	aadff06f          	j	1000ff58 <__subtf3+0xdc0>

100104b0 <__unordtf2>:
100104b0:	00052703          	lw	a4,0(a0)
100104b4:	00452e83          	lw	t4,4(a0)
100104b8:	00852e03          	lw	t3,8(a0)
100104bc:	00c52503          	lw	a0,12(a0)
100104c0:	00c5a603          	lw	a2,12(a1)
100104c4:	000086b7          	lui	a3,0x8
100104c8:	fff68693          	addi	a3,a3,-1 # 7fff <__heap_size+0x6fff>
100104cc:	01055813          	srli	a6,a0,0x10
100104d0:	0005a783          	lw	a5,0(a1)
100104d4:	0045a303          	lw	t1,4(a1)
100104d8:	0085a883          	lw	a7,8(a1)
100104dc:	00d87833          	and	a6,a6,a3
100104e0:	01065593          	srli	a1,a2,0x10
100104e4:	ff010113          	addi	sp,sp,-16
100104e8:	00d5f5b3          	and	a1,a1,a3
100104ec:	02d81063          	bne	a6,a3,1001050c <__unordtf2+0x5c>
100104f0:	01d76733          	or	a4,a4,t4
100104f4:	01051513          	slli	a0,a0,0x10
100104f8:	01055513          	srli	a0,a0,0x10
100104fc:	01c76733          	or	a4,a4,t3
10010500:	00a76733          	or	a4,a4,a0
10010504:	00100513          	li	a0,1
10010508:	02071663          	bnez	a4,10010534 <__unordtf2+0x84>
1001050c:	00008737          	lui	a4,0x8
10010510:	fff70713          	addi	a4,a4,-1 # 7fff <__heap_size+0x6fff>
10010514:	00000513          	li	a0,0
10010518:	00e59e63          	bne	a1,a4,10010534 <__unordtf2+0x84>
1001051c:	0067e533          	or	a0,a5,t1
10010520:	01061613          	slli	a2,a2,0x10
10010524:	01156533          	or	a0,a0,a7
10010528:	01065613          	srli	a2,a2,0x10
1001052c:	00c56533          	or	a0,a0,a2
10010530:	00a03533          	snez	a0,a0
10010534:	01010113          	addi	sp,sp,16
10010538:	00008067          	ret

1001053c <__fixtfsi>:
1001053c:	00052703          	lw	a4,0(a0)
10010540:	00c52783          	lw	a5,12(a0)
10010544:	00452683          	lw	a3,4(a0)
10010548:	fe010113          	addi	sp,sp,-32
1001054c:	00852583          	lw	a1,8(a0)
10010550:	00e12023          	sw	a4,0(sp)
10010554:	00e12823          	sw	a4,16(sp)
10010558:	00179713          	slli	a4,a5,0x1
1001055c:	00d12223          	sw	a3,4(sp)
10010560:	01175693          	srli	a3,a4,0x11
10010564:	00004737          	lui	a4,0x4
10010568:	00b12423          	sw	a1,8(sp)
1001056c:	00f12623          	sw	a5,12(sp)
10010570:	00b12c23          	sw	a1,24(sp)
10010574:	ffe70713          	addi	a4,a4,-2 # 3ffe <__heap_size+0x2ffe>
10010578:	00000513          	li	a0,0
1001057c:	02d75063          	bge	a4,a3,1001059c <__fixtfsi+0x60>
10010580:	00004737          	lui	a4,0x4
10010584:	01d70713          	addi	a4,a4,29 # 401d <__heap_size+0x301d>
10010588:	01f7d813          	srli	a6,a5,0x1f
1001058c:	00d75c63          	bge	a4,a3,100105a4 <__fixtfsi+0x68>
10010590:	80000537          	lui	a0,0x80000
10010594:	fff50513          	addi	a0,a0,-1 # 7fffffff <_sp+0x6ffec2df>
10010598:	00a80533          	add	a0,a6,a0
1001059c:	02010113          	addi	sp,sp,32
100105a0:	00008067          	ret
100105a4:	01079793          	slli	a5,a5,0x10
100105a8:	00010737          	lui	a4,0x10
100105ac:	0107d793          	srli	a5,a5,0x10
100105b0:	00e7e7b3          	or	a5,a5,a4
100105b4:	00004737          	lui	a4,0x4
100105b8:	06f70713          	addi	a4,a4,111 # 406f <__heap_size+0x306f>
100105bc:	40d70733          	sub	a4,a4,a3
100105c0:	40575513          	srai	a0,a4,0x5
100105c4:	00f12e23          	sw	a5,28(sp)
100105c8:	01f77713          	andi	a4,a4,31
100105cc:	01010613          	addi	a2,sp,16
100105d0:	02071263          	bnez	a4,100105f4 <__fixtfsi+0xb8>
100105d4:	00251513          	slli	a0,a0,0x2
100105d8:	00a60633          	add	a2,a2,a0
100105dc:	00062783          	lw	a5,0(a2)
100105e0:	00f12823          	sw	a5,16(sp)
100105e4:	01012503          	lw	a0,16(sp)
100105e8:	fa080ae3          	beqz	a6,1001059c <__fixtfsi+0x60>
100105ec:	40a00533          	neg	a0,a0
100105f0:	fadff06f          	j	1001059c <__fixtfsi+0x60>
100105f4:	00200893          	li	a7,2
100105f8:	00000693          	li	a3,0
100105fc:	03151063          	bne	a0,a7,1001061c <__fixtfsi+0xe0>
10010600:	02000693          	li	a3,32
10010604:	40e686b3          	sub	a3,a3,a4
10010608:	00d796b3          	sll	a3,a5,a3
1001060c:	00e5d5b3          	srl	a1,a1,a4
10010610:	00b6e6b3          	or	a3,a3,a1
10010614:	00d12823          	sw	a3,16(sp)
10010618:	00100693          	li	a3,1
1001061c:	00269693          	slli	a3,a3,0x2
10010620:	00d60633          	add	a2,a2,a3
10010624:	00e7d7b3          	srl	a5,a5,a4
10010628:	00f62023          	sw	a5,0(a2)
1001062c:	fb9ff06f          	j	100105e4 <__fixtfsi+0xa8>

10010630 <__floatsitf>:
10010630:	fd010113          	addi	sp,sp,-48
10010634:	02912223          	sw	s1,36(sp)
10010638:	02112623          	sw	ra,44(sp)
1001063c:	02812423          	sw	s0,40(sp)
10010640:	03212023          	sw	s2,32(sp)
10010644:	00050493          	mv	s1,a0
10010648:	10058e63          	beqz	a1,10010764 <__floatsitf+0x134>
1001064c:	41f5d793          	srai	a5,a1,0x1f
10010650:	00b7c433          	xor	s0,a5,a1
10010654:	40f40433          	sub	s0,s0,a5
10010658:	00040513          	mv	a0,s0
1001065c:	01f5d913          	srli	s2,a1,0x1f
10010660:	314000ef          	jal	10010974 <__clzsi2>
10010664:	000045b7          	lui	a1,0x4
10010668:	01e58593          	addi	a1,a1,30 # 401e <__heap_size+0x301e>
1001066c:	40a585b3          	sub	a1,a1,a0
10010670:	05150513          	addi	a0,a0,81
10010674:	40555793          	srai	a5,a0,0x5
10010678:	00812823          	sw	s0,16(sp)
1001067c:	00012a23          	sw	zero,20(sp)
10010680:	00012c23          	sw	zero,24(sp)
10010684:	00012e23          	sw	zero,28(sp)
10010688:	01f57513          	andi	a0,a0,31
1001068c:	01010693          	addi	a3,sp,16
10010690:	02050a63          	beqz	a0,100106c4 <__floatsitf+0x94>
10010694:	00200713          	li	a4,2
10010698:	0ce79263          	bne	a5,a4,1001075c <__floatsitf+0x12c>
1001069c:	02000713          	li	a4,32
100106a0:	40a70733          	sub	a4,a4,a0
100106a4:	00e45733          	srl	a4,s0,a4
100106a8:	00e12e23          	sw	a4,28(sp)
100106ac:	fff78713          	addi	a4,a5,-1
100106b0:	00279793          	slli	a5,a5,0x2
100106b4:	00f687b3          	add	a5,a3,a5
100106b8:	00a41433          	sll	s0,s0,a0
100106bc:	0087a023          	sw	s0,0(a5)
100106c0:	0300006f          	j	100106f0 <__floatsitf+0xc0>
100106c4:	00300713          	li	a4,3
100106c8:	40f70733          	sub	a4,a4,a5
100106cc:	00271713          	slli	a4,a4,0x2
100106d0:	00e68733          	add	a4,a3,a4
100106d4:	00072703          	lw	a4,0(a4)
100106d8:	00200613          	li	a2,2
100106dc:	00e12e23          	sw	a4,28(sp)
100106e0:	00060713          	mv	a4,a2
100106e4:	00c79663          	bne	a5,a2,100106f0 <__floatsitf+0xc0>
100106e8:	00812c23          	sw	s0,24(sp)
100106ec:	00100713          	li	a4,1
100106f0:	00271713          	slli	a4,a4,0x2
100106f4:	00012823          	sw	zero,16(sp)
100106f8:	0006a223          	sw	zero,4(a3)
100106fc:	ffc70713          	addi	a4,a4,-4
10010700:	00400793          	li	a5,4
10010704:	00f76463          	bltu	a4,a5,1001070c <__floatsitf+0xdc>
10010708:	00012c23          	sw	zero,24(sp)
1001070c:	01c12783          	lw	a5,28(sp)
10010710:	02c12083          	lw	ra,44(sp)
10010714:	02812403          	lw	s0,40(sp)
10010718:	00f11623          	sh	a5,12(sp)
1001071c:	00f91793          	slli	a5,s2,0xf
10010720:	00b7e7b3          	or	a5,a5,a1
10010724:	00f11723          	sh	a5,14(sp)
10010728:	01012783          	lw	a5,16(sp)
1001072c:	02012903          	lw	s2,32(sp)
10010730:	00048513          	mv	a0,s1
10010734:	00f4a023          	sw	a5,0(s1)
10010738:	01412783          	lw	a5,20(sp)
1001073c:	00f4a223          	sw	a5,4(s1)
10010740:	01812783          	lw	a5,24(sp)
10010744:	00f4a423          	sw	a5,8(s1)
10010748:	00c12783          	lw	a5,12(sp)
1001074c:	00f4a623          	sw	a5,12(s1)
10010750:	02412483          	lw	s1,36(sp)
10010754:	03010113          	addi	sp,sp,48
10010758:	00008067          	ret
1001075c:	00300793          	li	a5,3
10010760:	f4dff06f          	j	100106ac <__floatsitf+0x7c>
10010764:	00012e23          	sw	zero,28(sp)
10010768:	00012c23          	sw	zero,24(sp)
1001076c:	00012a23          	sw	zero,20(sp)
10010770:	00012823          	sw	zero,16(sp)
10010774:	00000913          	li	s2,0
10010778:	f95ff06f          	j	1001070c <__floatsitf+0xdc>

1001077c <__extenddftf2>:
1001077c:	01465713          	srli	a4,a2,0x14
10010780:	00c61793          	slli	a5,a2,0xc
10010784:	7ff77713          	andi	a4,a4,2047
10010788:	fd010113          	addi	sp,sp,-48
1001078c:	00c7d793          	srli	a5,a5,0xc
10010790:	00170693          	addi	a3,a4,1
10010794:	02812423          	sw	s0,40(sp)
10010798:	02912223          	sw	s1,36(sp)
1001079c:	03212023          	sw	s2,32(sp)
100107a0:	02112623          	sw	ra,44(sp)
100107a4:	00b12823          	sw	a1,16(sp)
100107a8:	00f12a23          	sw	a5,20(sp)
100107ac:	00012e23          	sw	zero,28(sp)
100107b0:	00012c23          	sw	zero,24(sp)
100107b4:	7fe6f693          	andi	a3,a3,2046
100107b8:	00050913          	mv	s2,a0
100107bc:	00058493          	mv	s1,a1
100107c0:	01f65413          	srli	s0,a2,0x1f
100107c4:	08068263          	beqz	a3,10010848 <__extenddftf2+0xcc>
100107c8:	000046b7          	lui	a3,0x4
100107cc:	c0068693          	addi	a3,a3,-1024 # 3c00 <__heap_size+0x2c00>
100107d0:	00d70733          	add	a4,a4,a3
100107d4:	0047d693          	srli	a3,a5,0x4
100107d8:	00d12e23          	sw	a3,28(sp)
100107dc:	01c79793          	slli	a5,a5,0x1c
100107e0:	0045d693          	srli	a3,a1,0x4
100107e4:	00d7e7b3          	or	a5,a5,a3
100107e8:	01c59493          	slli	s1,a1,0x1c
100107ec:	00f12c23          	sw	a5,24(sp)
100107f0:	00912a23          	sw	s1,20(sp)
100107f4:	00012823          	sw	zero,16(sp)
100107f8:	01c12783          	lw	a5,28(sp)
100107fc:	00f41413          	slli	s0,s0,0xf
10010800:	00e46433          	or	s0,s0,a4
10010804:	00f11623          	sh	a5,12(sp)
10010808:	01012783          	lw	a5,16(sp)
1001080c:	00811723          	sh	s0,14(sp)
10010810:	02c12083          	lw	ra,44(sp)
10010814:	00f92023          	sw	a5,0(s2)
10010818:	01412783          	lw	a5,20(sp)
1001081c:	02812403          	lw	s0,40(sp)
10010820:	02412483          	lw	s1,36(sp)
10010824:	00f92223          	sw	a5,4(s2)
10010828:	01812783          	lw	a5,24(sp)
1001082c:	00090513          	mv	a0,s2
10010830:	00f92423          	sw	a5,8(s2)
10010834:	00c12783          	lw	a5,12(sp)
10010838:	00f92623          	sw	a5,12(s2)
1001083c:	02012903          	lw	s2,32(sp)
10010840:	03010113          	addi	sp,sp,48
10010844:	00008067          	ret
10010848:	00b7e533          	or	a0,a5,a1
1001084c:	0e071663          	bnez	a4,10010938 <__extenddftf2+0x1bc>
10010850:	fa0504e3          	beqz	a0,100107f8 <__extenddftf2+0x7c>
10010854:	04078663          	beqz	a5,100108a0 <__extenddftf2+0x124>
10010858:	00078513          	mv	a0,a5
1001085c:	118000ef          	jal	10010974 <__clzsi2>
10010860:	03150693          	addi	a3,a0,49
10010864:	4056d713          	srai	a4,a3,0x5
10010868:	01f6f693          	andi	a3,a3,31
1001086c:	01c10793          	addi	a5,sp,28
10010870:	02068e63          	beqz	a3,100108ac <__extenddftf2+0x130>
10010874:	02000813          	li	a6,32
10010878:	00271593          	slli	a1,a4,0x2
1001087c:	40d80833          	sub	a6,a6,a3
10010880:	01010313          	addi	t1,sp,16
10010884:	40b787b3          	sub	a5,a5,a1
10010888:	08679663          	bne	a5,t1,10010914 <__extenddftf2+0x198>
1001088c:	00b787b3          	add	a5,a5,a1
10010890:	00d496b3          	sll	a3,s1,a3
10010894:	fff70713          	addi	a4,a4,-1
10010898:	00d7a023          	sw	a3,0(a5)
1001089c:	0380006f          	j	100108d4 <__extenddftf2+0x158>
100108a0:	0d4000ef          	jal	10010974 <__clzsi2>
100108a4:	02050513          	addi	a0,a0,32
100108a8:	fb9ff06f          	j	10010860 <__extenddftf2+0xe4>
100108ac:	ffc00613          	li	a2,-4
100108b0:	02c70633          	mul	a2,a4,a2
100108b4:	00300693          	li	a3,3
100108b8:	00c785b3          	add	a1,a5,a2
100108bc:	0005a583          	lw	a1,0(a1)
100108c0:	fff68693          	addi	a3,a3,-1
100108c4:	ffc78793          	addi	a5,a5,-4
100108c8:	00b7a223          	sw	a1,4(a5)
100108cc:	fee6d6e3          	bge	a3,a4,100108b8 <__extenddftf2+0x13c>
100108d0:	fff70713          	addi	a4,a4,-1
100108d4:	00170713          	addi	a4,a4,1
100108d8:	00271713          	slli	a4,a4,0x2
100108dc:	00800693          	li	a3,8
100108e0:	01010793          	addi	a5,sp,16
100108e4:	00d76a63          	bltu	a4,a3,100108f8 <__extenddftf2+0x17c>
100108e8:	00012823          	sw	zero,16(sp)
100108ec:	0007a223          	sw	zero,4(a5)
100108f0:	ff870713          	addi	a4,a4,-8
100108f4:	01810793          	addi	a5,sp,24
100108f8:	00400693          	li	a3,4
100108fc:	00d76463          	bltu	a4,a3,10010904 <__extenddftf2+0x188>
10010900:	0007a023          	sw	zero,0(a5)
10010904:	00004737          	lui	a4,0x4
10010908:	c0c70713          	addi	a4,a4,-1012 # 3c0c <__heap_size+0x2c0c>
1001090c:	40a70733          	sub	a4,a4,a0
10010910:	ee9ff06f          	j	100107f8 <__extenddftf2+0x7c>
10010914:	0007a603          	lw	a2,0(a5)
10010918:	ffc7a883          	lw	a7,-4(a5)
1001091c:	00b78e33          	add	t3,a5,a1
10010920:	00d61633          	sll	a2,a2,a3
10010924:	0108d8b3          	srl	a7,a7,a6
10010928:	01166633          	or	a2,a2,a7
1001092c:	00ce2023          	sw	a2,0(t3)
10010930:	ffc78793          	addi	a5,a5,-4
10010934:	f55ff06f          	j	10010888 <__extenddftf2+0x10c>
10010938:	02050863          	beqz	a0,10010968 <__extenddftf2+0x1ec>
1001093c:	01c79713          	slli	a4,a5,0x1c
10010940:	0045d693          	srli	a3,a1,0x4
10010944:	00d76733          	or	a4,a4,a3
10010948:	00e12c23          	sw	a4,24(sp)
1001094c:	0047d793          	srli	a5,a5,0x4
10010950:	00008737          	lui	a4,0x8
10010954:	01c59493          	slli	s1,a1,0x1c
10010958:	00e7e7b3          	or	a5,a5,a4
1001095c:	00912a23          	sw	s1,20(sp)
10010960:	00012823          	sw	zero,16(sp)
10010964:	00f12e23          	sw	a5,28(sp)
10010968:	00008737          	lui	a4,0x8
1001096c:	fff70713          	addi	a4,a4,-1 # 7fff <__heap_size+0x6fff>
10010970:	e89ff06f          	j	100107f8 <__extenddftf2+0x7c>

10010974 <__clzsi2>:
10010974:	000107b7          	lui	a5,0x10
10010978:	02f57a63          	bgeu	a0,a5,100109ac <__clzsi2+0x38>
1001097c:	10053793          	sltiu	a5,a0,256
10010980:	0017b793          	seqz	a5,a5
10010984:	00379793          	slli	a5,a5,0x3
10010988:	10011737          	lui	a4,0x10011
1001098c:	00f55533          	srl	a0,a0,a5
10010990:	1d470713          	addi	a4,a4,468 # 100111d4 <__clz_tab>
10010994:	00a70733          	add	a4,a4,a0
10010998:	00074503          	lbu	a0,0(a4)
1001099c:	02000693          	li	a3,32
100109a0:	40f686b3          	sub	a3,a3,a5
100109a4:	40a68533          	sub	a0,a3,a0
100109a8:	00008067          	ret
100109ac:	01000737          	lui	a4,0x1000
100109b0:	01800793          	li	a5,24
100109b4:	fce57ae3          	bgeu	a0,a4,10010988 <__clzsi2+0x14>
100109b8:	01000793          	li	a5,16
100109bc:	fcdff06f          	j	10010988 <__clzsi2+0x14>
