
build/RTOSDemo.axf: formát súboru elf32-littleriscv


Rozloženie sekcie .init:

10000000 <_start>:
10000000:	00013197          	auipc	gp,0x13
10000004:	84018193          	addi	gp,gp,-1984 # 10012840 <__global_pointer$>
10000008:	0001d117          	auipc	sp,0x1d
1000000c:	6d410113          	addi	sp,sp,1748 # 1001d6dc <_sp>
10000010:	00000517          	auipc	a0,0x0
10000014:	05050513          	addi	a0,a0,80 # 10000060 <__vector_start>
10000018:	00156513          	ori	a0,a0,1
1000001c:	30551073          	csrw	mtvec,a0
10000020:	88818513          	addi	a0,gp,-1912 # 100120c8 <xQueue>
10000024:	0001c617          	auipc	a2,0x1c
10000028:	58c60613          	addi	a2,a2,1420 # 1001c5b0 <__BSS_END__>
1000002c:	8e09                	sub	a2,a2,a0
1000002e:	4581                	li	a1,0
10000030:	059020ef          	jal	10002888 <memset>
10000034:	00002517          	auipc	a0,0x2
10000038:	7f850513          	addi	a0,a0,2040 # 1000282c <__libc_fini_array>
1000003c:	6f5010ef          	jal	10001f30 <atexit>
10000040:	750020ef          	jal	10002790 <__libc_init_array>
10000044:	450d                	li	a0,3
10000046:	0536                	slli	a0,a0,0xd
10000048:	30452073          	csrs	mie,a0
1000004c:	30046073          	csrsi	mstatus,8
10000050:	4501                	li	a0,0
10000052:	4581                	li	a1,0
10000054:	4601                	li	a2,0
10000056:	1de000ef          	jal	10000234 <main>
1000005a:	a27d                	j	10000208 <exit>

1000005c <_fini>:
1000005c:	8082                	ret

Rozloženie sekcie .vectors:

10000060 <__vector_start>:
10000060:	4a10106f          	j	10001d00 <freertos_risc_v_trap_handler>
10000064:	0540006f          	j	100000b8 <_no_irq_handler>
10000068:	0500006f          	j	100000b8 <_no_irq_handler>
1000006c:	04c0006f          	j	100000b8 <_no_irq_handler>
10000070:	0480006f          	j	100000b8 <_no_irq_handler>
10000074:	0440006f          	j	100000b8 <_no_irq_handler>
10000078:	0400006f          	j	100000b8 <_no_irq_handler>
1000007c:	3350106f          	j	10001bb0 <freertos_risc_v_mtimer_interrupt_handler>
10000080:	0380006f          	j	100000b8 <_no_irq_handler>
10000084:	0340006f          	j	100000b8 <_no_irq_handler>
10000088:	0300006f          	j	100000b8 <_no_irq_handler>
1000008c:	02c0006f          	j	100000b8 <_no_irq_handler>
10000090:	0280006f          	j	100000b8 <_no_irq_handler>
10000094:	0240006f          	j	100000b8 <_no_irq_handler>
10000098:	0200006f          	j	100000b8 <_no_irq_handler>
1000009c:	01c0006f          	j	100000b8 <_no_irq_handler>
100000a0:	0180006f          	j	100000b8 <_no_irq_handler>
100000a4:	01c0006f          	j	100000c0 <_fcer_irq_handler>
100000a8:	0300006f          	j	100000d8 <_lcer_irq_handler>
100000ac:	00c0006f          	j	100000b8 <_no_irq_handler>
100000b0:	0080006f          	j	100000b8 <_no_irq_handler>
100000b4:	0040006f          	j	100000b8 <_no_irq_handler>

100000b8 <_no_irq_handler>:
100000b8:	6610106f          	j	10001f18 <abort>

100000bc <_exc_handler>:
100000bc:	65d0106f          	j	10001f18 <abort>

100000c0 <_fcer_irq_handler>:
100000c0:	34051073          	csrw	mscratch,a0
100000c4:	34259073          	csrw	mcause,a1
100000c8:	fc002573          	csrr	a0,0xfc0
100000cc:	00452583          	lw	a1,4(a0)
100000d0:	00b52223          	sw	a1,4(a0)
100000d4:	0100006f          	j	100000e4 <_cer_irq_finish>

100000d8 <_lcer_irq_handler>:
100000d8:	34051073          	csrw	mscratch,a0
100000dc:	34259073          	csrw	mcause,a1
100000e0:	fc002573          	csrr	a0,0xfc0

100000e4 <_cer_irq_finish>:
100000e4:	00052583          	lw	a1,0(a0)
100000e8:	00b52023          	sw	a1,0(a0)
100000ec:	00300513          	li	a0,3
100000f0:	00d51513          	slli	a0,a0,0xd
100000f4:	34453073          	csrc	mip,a0
100000f8:	34002573          	csrr	a0,mscratch
100000fc:	342025f3          	csrr	a1,mcause
10000100:	30200073          	mret
	...

Rozloženie sekcie .text:

10000200 <_exit>:
10000200:	800007b7          	lui	a5,0x80000
10000204:	c3c8                	sw	a0,4(a5)
	...

10000208 <exit>:
10000208:	ff010113          	addi	sp,sp,-16
1000020c:	00000593          	li	a1,0
10000210:	00812423          	sw	s0,8(sp)
10000214:	00112623          	sw	ra,12(sp)
10000218:	00050413          	mv	s0,a0
1000021c:	215020ef          	jal	10002c30 <__call_exitprocs>
10000220:	9081a783          	lw	a5,-1784(gp) # 10012148 <__stdio_exit_handler>
10000224:	00078463          	beqz	a5,1000022c <exit+0x24>
10000228:	000780e7          	jalr	a5 # 80000000 <_sp+0x6ffe2924>
1000022c:	00040513          	mv	a0,s0
10000230:	fd1ff0ef          	jal	10000200 <_exit>

10000234 <main>:
10000234:	a0fd                	j	10000322 <main_blinky>
	...

10000238 <register_fini>:
10000238:	00000793          	li	a5,0
1000023c:	00078863          	beqz	a5,1000024c <register_fini+0x14>
10000240:	10003537          	lui	a0,0x10003
10000244:	82c50513          	addi	a0,a0,-2004 # 1000282c <__libc_fini_array>
10000248:	4e90106f          	j	10001f30 <atexit>
1000024c:	00008067          	ret

10000250 <vApplicationMallocFailedHook>:
10000250:	30047073          	csrci	mstatus,8
10000254:	a001                	j	10000254 <vApplicationMallocFailedHook+0x4>

10000256 <vApplicationStackOverflowHook>:
10000256:	30047073          	csrci	mstatus,8
1000025a:	a001                	j	1000025a <vApplicationStackOverflowHook+0x4>

1000025c <vApplicationTickHook>:
1000025c:	8082                	ret

1000025e <prvQueueReceiveTask>:
1000025e:	7139                	addi	sp,sp,-64
10000260:	dc22                	sw	s0,56(sp)
10000262:	da26                	sw	s1,52(sp)
10000264:	d84a                	sw	s2,48(sp)
10000266:	de06                	sw	ra,60(sp)
10000268:	88818913          	addi	s2,gp,-1912 # 100120c8 <xQueue>
1000026c:	87418413          	addi	s0,gp,-1932 # 100120b4 <xCriticalNesting>
10000270:	00011497          	auipc	s1,0x11
10000274:	ec848493          	addi	s1,s1,-312 # 10011138 <__extenddftf2+0x20c>
10000278:	00092503          	lw	a0,0(s2)
1000027c:	004c                	addi	a1,sp,4
1000027e:	567d                	li	a2,-1
10000280:	2d11                	jal	10000894 <xQueueReceive>
10000282:	20e010ef          	jal	10001490 <xTaskGetCurrentTaskHandle>
10000286:	777000ef          	jal	100011fc <pcTaskGetName>
1000028a:	4692                	lw	a3,4(sp)
1000028c:	862a                	mv	a2,a0
1000028e:	85a6                	mv	a1,s1
10000290:	0028                	addi	a0,sp,8
10000292:	066020ef          	jal	100022f8 <sprintf>
10000296:	30047073          	csrci	mstatus,8
1000029a:	401c                	lw	a5,0(s0)
1000029c:	0028                	addi	a0,sp,8
1000029e:	0785                	addi	a5,a5,1
100002a0:	c01c                	sw	a5,0(s0)
100002a2:	04a020ef          	jal	100022ec <puts>
100002a6:	401c                	lw	a5,0(s0)
100002a8:	17fd                	addi	a5,a5,-1
100002aa:	c01c                	sw	a5,0(s0)
100002ac:	f7f1                	bnez	a5,10000278 <prvQueueReceiveTask+0x1a>
100002ae:	30046073          	csrsi	mstatus,8
100002b2:	b7d9                	j	10000278 <prvQueueReceiveTask+0x1a>

100002b4 <prvQueueSendTask>:
100002b4:	7139                	addi	sp,sp,-64
100002b6:	dc22                	sw	s0,56(sp)
100002b8:	da26                	sw	s1,52(sp)
100002ba:	d84a                	sw	s2,48(sp)
100002bc:	de06                	sw	ra,60(sp)
100002be:	c202                	sw	zero,4(sp)
100002c0:	737000ef          	jal	100011f6 <xTaskGetTickCount>
100002c4:	c02a                	sw	a0,0(sp)
100002c6:	87418413          	addi	s0,gp,-1932 # 100120b4 <xCriticalNesting>
100002ca:	88818913          	addi	s2,gp,-1912 # 100120c8 <xQueue>
100002ce:	00011497          	auipc	s1,0x11
100002d2:	e7e48493          	addi	s1,s1,-386 # 1001114c <__extenddftf2+0x220>
100002d6:	4595                	li	a1,5
100002d8:	850a                	mv	a0,sp
100002da:	6cd000ef          	jal	100011a6 <xTaskDelayUntil>
100002de:	4792                	lw	a5,4(sp)
100002e0:	0785                	addi	a5,a5,1
100002e2:	c23e                	sw	a5,4(sp)
100002e4:	1ac010ef          	jal	10001490 <xTaskGetCurrentTaskHandle>
100002e8:	715000ef          	jal	100011fc <pcTaskGetName>
100002ec:	4692                	lw	a3,4(sp)
100002ee:	862a                	mv	a2,a0
100002f0:	85a6                	mv	a1,s1
100002f2:	0028                	addi	a0,sp,8
100002f4:	004020ef          	jal	100022f8 <sprintf>
100002f8:	30047073          	csrci	mstatus,8
100002fc:	401c                	lw	a5,0(s0)
100002fe:	0028                	addi	a0,sp,8
10000300:	0785                	addi	a5,a5,1
10000302:	c01c                	sw	a5,0(s0)
10000304:	7e9010ef          	jal	100022ec <puts>
10000308:	401c                	lw	a5,0(s0)
1000030a:	17fd                	addi	a5,a5,-1
1000030c:	c01c                	sw	a5,0(s0)
1000030e:	e399                	bnez	a5,10000314 <prvQueueSendTask+0x60>
10000310:	30046073          	csrsi	mstatus,8
10000314:	00092503          	lw	a0,0(s2)
10000318:	4681                	li	a3,0
1000031a:	4601                	li	a2,0
1000031c:	004c                	addi	a1,sp,4
1000031e:	2929                	jal	10000738 <xQueueGenericSend>
10000320:	bf5d                	j	100002d6 <prvQueueSendTask+0x22>

10000322 <main_blinky>:
10000322:	1141                	addi	sp,sp,-16
10000324:	c606                	sw	ra,12(sp)
10000326:	c422                	sw	s0,8(sp)
10000328:	30047073          	csrci	mstatus,8
1000032c:	87418413          	addi	s0,gp,-1932 # 100120b4 <xCriticalNesting>
10000330:	401c                	lw	a5,0(s0)
10000332:	00011517          	auipc	a0,0x11
10000336:	e2a50513          	addi	a0,a0,-470 # 1001115c <__extenddftf2+0x230>
1000033a:	0785                	addi	a5,a5,1
1000033c:	c01c                	sw	a5,0(s0)
1000033e:	7af010ef          	jal	100022ec <puts>
10000342:	401c                	lw	a5,0(s0)
10000344:	17fd                	addi	a5,a5,-1
10000346:	c01c                	sw	a5,0(s0)
10000348:	e399                	bnez	a5,1000034e <main_blinky+0x2c>
1000034a:	30046073          	csrsi	mstatus,8
1000034e:	4601                	li	a2,0
10000350:	4591                	li	a1,4
10000352:	4505                	li	a0,1
10000354:	2eb5                	jal	100006d0 <xQueueGenericCreate>
10000356:	88a1a423          	sw	a0,-1912(gp) # 100120c8 <xQueue>
1000035a:	cd1d                	beqz	a0,10000398 <main_blinky+0x76>
1000035c:	4781                	li	a5,0
1000035e:	4709                	li	a4,2
10000360:	4681                	li	a3,0
10000362:	40000613          	li	a2,1024
10000366:	00011597          	auipc	a1,0x11
1000036a:	e0e58593          	addi	a1,a1,-498 # 10011174 <__extenddftf2+0x248>
1000036e:	00000517          	auipc	a0,0x0
10000372:	ef050513          	addi	a0,a0,-272 # 1000025e <prvQueueReceiveTask>
10000376:	219000ef          	jal	10000d8e <xTaskCreate>
1000037a:	4781                	li	a5,0
1000037c:	4705                	li	a4,1
1000037e:	4681                	li	a3,0
10000380:	40000613          	li	a2,1024
10000384:	00011597          	auipc	a1,0x11
10000388:	df458593          	addi	a1,a1,-524 # 10011178 <__extenddftf2+0x24c>
1000038c:	00000517          	auipc	a0,0x0
10000390:	f2850513          	addi	a0,a0,-216 # 100002b4 <prvQueueSendTask>
10000394:	1fb000ef          	jal	10000d8e <xTaskCreate>
10000398:	413000ef          	jal	10000faa <vTaskStartScheduler>
1000039c:	40b2                	lw	ra,12(sp)
1000039e:	4422                	lw	s0,8(sp)
100003a0:	4501                	li	a0,0
100003a2:	0141                	addi	sp,sp,16
100003a4:	8082                	ret

100003a6 <_close>:
100003a6:	557d                	li	a0,-1
100003a8:	8082                	ret

100003aa <_fstat>:
100003aa:	6789                	lui	a5,0x2
100003ac:	c1dc                	sw	a5,4(a1)
100003ae:	4501                	li	a0,0
100003b0:	8082                	ret

100003b2 <_getpid>:
100003b2:	4505                	li	a0,1
100003b4:	8082                	ret

100003b6 <_isatty>:
100003b6:	157d                	addi	a0,a0,-1
100003b8:	00153513          	seqz	a0,a0
100003bc:	8082                	ret

100003be <_kill>:
100003be:	47d9                	li	a5,22
100003c0:	90f1a623          	sw	a5,-1780(gp) # 1001214c <errno>
100003c4:	557d                	li	a0,-1
100003c6:	8082                	ret

100003c8 <_lseek>:
100003c8:	4501                	li	a0,0
100003ca:	8082                	ret

100003cc <_read>:
100003cc:	4501                	li	a0,0
100003ce:	8082                	ret

100003d0 <_write>:
100003d0:	4785                	li	a5,1
100003d2:	02f51063          	bne	a0,a5,100003f2 <_write+0x22>
100003d6:	00c58733          	add	a4,a1,a2
100003da:	00e58a63          	beq	a1,a4,100003ee <_write+0x1e>
100003de:	800006b7          	lui	a3,0x80000
100003e2:	0005c783          	lbu	a5,0(a1)
100003e6:	0585                	addi	a1,a1,1
100003e8:	c29c                	sw	a5,0(a3)
100003ea:	feb71ce3          	bne	a4,a1,100003e2 <_write+0x12>
100003ee:	8532                	mv	a0,a2
100003f0:	8082                	ret
100003f2:	05800793          	li	a5,88
100003f6:	90f1a623          	sw	a5,-1780(gp) # 1001214c <errno>
100003fa:	557d                	li	a0,-1
100003fc:	8082                	ret

100003fe <_sbrk>:
100003fe:	86c18613          	addi	a2,gp,-1940 # 100120ac <brk>
10000402:	0001c697          	auipc	a3,0x1c
10000406:	1ae68693          	addi	a3,a3,430 # 1001c5b0 <__BSS_END__>
1000040a:	0001d717          	auipc	a4,0x1d
1000040e:	1a670713          	addi	a4,a4,422 # 1001d5b0 <__heap_end>
10000412:	87aa                	mv	a5,a0
10000414:	4208                	lw	a0,0(a2)
10000416:	00e68b63          	beq	a3,a4,1000042c <_sbrk+0x2e>
1000041a:	00f506b3          	add	a3,a0,a5
1000041e:	00e6f563          	bgeu	a3,a4,10000428 <_sbrk+0x2a>
10000422:	96be                	add	a3,a3,a5
10000424:	c214                	sw	a3,0(a2)
10000426:	8082                	ret
10000428:	c218                	sw	a4,0(a2)
1000042a:	8082                	ret
1000042c:	4501                	li	a0,0
1000042e:	8082                	ret

10000430 <vListInitialise>:
10000430:	00850793          	addi	a5,a0,8
10000434:	577d                	li	a4,-1
10000436:	c15c                	sw	a5,4(a0)
10000438:	c518                	sw	a4,8(a0)
1000043a:	c55c                	sw	a5,12(a0)
1000043c:	c91c                	sw	a5,16(a0)
1000043e:	00052023          	sw	zero,0(a0)
10000442:	8082                	ret

10000444 <vListInitialiseItem>:
10000444:	00052823          	sw	zero,16(a0)
10000448:	8082                	ret

1000044a <vListInsert>:
1000044a:	4190                	lw	a2,0(a1)
1000044c:	577d                	li	a4,-1
1000044e:	00850793          	addi	a5,a0,8
10000452:	02e60063          	beq	a2,a4,10000472 <vListInsert+0x28>
10000456:	86be                	mv	a3,a5
10000458:	43dc                	lw	a5,4(a5)
1000045a:	4398                	lw	a4,0(a5)
1000045c:	fee67de3          	bgeu	a2,a4,10000456 <vListInsert+0xc>
10000460:	c1dc                	sw	a5,4(a1)
10000462:	c78c                	sw	a1,8(a5)
10000464:	411c                	lw	a5,0(a0)
10000466:	c594                	sw	a3,8(a1)
10000468:	c2cc                	sw	a1,4(a3)
1000046a:	c988                	sw	a0,16(a1)
1000046c:	0785                	addi	a5,a5,1 # 2001 <__heap_size+0x1001>
1000046e:	c11c                	sw	a5,0(a0)
10000470:	8082                	ret
10000472:	4914                	lw	a3,16(a0)
10000474:	42dc                	lw	a5,4(a3)
10000476:	b7ed                	j	10000460 <vListInsert+0x16>

10000478 <uxListRemove>:
10000478:	4918                	lw	a4,16(a0)
1000047a:	4154                	lw	a3,4(a0)
1000047c:	451c                	lw	a5,8(a0)
1000047e:	4350                	lw	a2,4(a4)
10000480:	c69c                	sw	a5,8(a3)
10000482:	c3d4                	sw	a3,4(a5)
10000484:	00a60963          	beq	a2,a0,10000496 <uxListRemove+0x1e>
10000488:	431c                	lw	a5,0(a4)
1000048a:	00052823          	sw	zero,16(a0)
1000048e:	fff78513          	addi	a0,a5,-1
10000492:	c308                	sw	a0,0(a4)
10000494:	8082                	ret
10000496:	c35c                	sw	a5,4(a4)
10000498:	431c                	lw	a5,0(a4)
1000049a:	00052823          	sw	zero,16(a0)
1000049e:	fff78513          	addi	a0,a5,-1
100004a2:	c308                	sw	a0,0(a4)
100004a4:	8082                	ret

100004a6 <prvCopyDataToQueue>:
100004a6:	1141                	addi	sp,sp,-16
100004a8:	413c                	lw	a5,64(a0)
100004aa:	c226                	sw	s1,4(sp)
100004ac:	5d04                	lw	s1,56(a0)
100004ae:	c422                	sw	s0,8(sp)
100004b0:	c606                	sw	ra,12(sp)
100004b2:	842a                	mv	s0,a0
100004b4:	eb99                	bnez	a5,100004ca <prvCopyDataToQueue+0x24>
100004b6:	411c                	lw	a5,0(a0)
100004b8:	0485                	addi	s1,s1,1
100004ba:	4501                	li	a0,0
100004bc:	cfa5                	beqz	a5,10000534 <prvCopyDataToQueue+0x8e>
100004be:	dc04                	sw	s1,56(s0)
100004c0:	40b2                	lw	ra,12(sp)
100004c2:	4422                	lw	s0,8(sp)
100004c4:	4492                	lw	s1,4(sp)
100004c6:	0141                	addi	sp,sp,16
100004c8:	8082                	ret
100004ca:	c04a                	sw	s2,0(sp)
100004cc:	8932                	mv	s2,a2
100004ce:	e61d                	bnez	a2,100004fc <prvCopyDataToQueue+0x56>
100004d0:	4148                	lw	a0,4(a0)
100004d2:	863e                	mv	a2,a5
100004d4:	0485                	addi	s1,s1,1
100004d6:	48e020ef          	jal	10002964 <memcpy>
100004da:	405c                	lw	a5,4(s0)
100004dc:	4034                	lw	a3,64(s0)
100004de:	4418                	lw	a4,8(s0)
100004e0:	97b6                	add	a5,a5,a3
100004e2:	c05c                	sw	a5,4(s0)
100004e4:	00e7e463          	bltu	a5,a4,100004ec <prvCopyDataToQueue+0x46>
100004e8:	401c                	lw	a5,0(s0)
100004ea:	c05c                	sw	a5,4(s0)
100004ec:	4902                	lw	s2,0(sp)
100004ee:	40b2                	lw	ra,12(sp)
100004f0:	dc04                	sw	s1,56(s0)
100004f2:	4422                	lw	s0,8(sp)
100004f4:	4492                	lw	s1,4(sp)
100004f6:	4501                	li	a0,0
100004f8:	0141                	addi	sp,sp,16
100004fa:	8082                	ret
100004fc:	4548                	lw	a0,12(a0)
100004fe:	863e                	mv	a2,a5
10000500:	464020ef          	jal	10002964 <memcpy>
10000504:	4038                	lw	a4,64(s0)
10000506:	445c                	lw	a5,12(s0)
10000508:	4014                	lw	a3,0(s0)
1000050a:	40e00633          	neg	a2,a4
1000050e:	8f99                	sub	a5,a5,a4
10000510:	c45c                	sw	a5,12(s0)
10000512:	00d7f563          	bgeu	a5,a3,1000051c <prvCopyDataToQueue+0x76>
10000516:	441c                	lw	a5,8(s0)
10000518:	97b2                	add	a5,a5,a2
1000051a:	c45c                	sw	a5,12(s0)
1000051c:	4789                	li	a5,2
1000051e:	02f90163          	beq	s2,a5,10000540 <prvCopyDataToQueue+0x9a>
10000522:	0485                	addi	s1,s1,1
10000524:	4902                	lw	s2,0(sp)
10000526:	40b2                	lw	ra,12(sp)
10000528:	dc04                	sw	s1,56(s0)
1000052a:	4422                	lw	s0,8(sp)
1000052c:	4492                	lw	s1,4(sp)
1000052e:	4501                	li	a0,0
10000530:	0141                	addi	sp,sp,16
10000532:	8082                	ret
10000534:	4408                	lw	a0,8(s0)
10000536:	761000ef          	jal	10001496 <xTaskPriorityDisinherit>
1000053a:	00042423          	sw	zero,8(s0)
1000053e:	b741                	j	100004be <prvCopyDataToQueue+0x18>
10000540:	f4d5                	bnez	s1,100004ec <prvCopyDataToQueue+0x46>
10000542:	4485                	li	s1,1
10000544:	b765                	j	100004ec <prvCopyDataToQueue+0x46>

10000546 <prvUnlockQueue>:
10000546:	1101                	addi	sp,sp,-32
10000548:	ca26                	sw	s1,20(sp)
1000054a:	ce06                	sw	ra,28(sp)
1000054c:	cc22                	sw	s0,24(sp)
1000054e:	c84a                	sw	s2,16(sp)
10000550:	c64e                	sw	s3,12(sp)
10000552:	84aa                	mv	s1,a0
10000554:	30047073          	csrci	mstatus,8
10000558:	87418913          	addi	s2,gp,-1932 # 100120b4 <xCriticalNesting>
1000055c:	00092703          	lw	a4,0(s2)
10000560:	04554783          	lbu	a5,69(a0)
10000564:	00170693          	addi	a3,a4,1
10000568:	01879413          	slli	s0,a5,0x18
1000056c:	00d92023          	sw	a3,0(s2)
10000570:	8461                	srai	s0,s0,0x18
10000572:	04805063          	blez	s0,100005b2 <prvUnlockQueue+0x6c>
10000576:	02450993          	addi	s3,a0,36
1000057a:	a809                	j	1000058c <prvUnlockQueue+0x46>
1000057c:	fff40793          	addi	a5,s0,-1
10000580:	01879413          	slli	s0,a5,0x18
10000584:	0ff7f713          	zext.b	a4,a5
10000588:	8461                	srai	s0,s0,0x18
1000058a:	c30d                	beqz	a4,100005ac <prvUnlockQueue+0x66>
1000058c:	50dc                	lw	a5,36(s1)
1000058e:	854e                	mv	a0,s3
10000590:	cf91                	beqz	a5,100005ac <prvUnlockQueue+0x66>
10000592:	59f000ef          	jal	10001330 <xTaskRemoveFromEventList>
10000596:	d17d                	beqz	a0,1000057c <prvUnlockQueue+0x36>
10000598:	6f1000ef          	jal	10001488 <vTaskMissedYield>
1000059c:	fff40793          	addi	a5,s0,-1
100005a0:	01879413          	slli	s0,a5,0x18
100005a4:	0ff7f713          	zext.b	a4,a5
100005a8:	8461                	srai	s0,s0,0x18
100005aa:	f36d                	bnez	a4,1000058c <prvUnlockQueue+0x46>
100005ac:	00092703          	lw	a4,0(s2)
100005b0:	177d                	addi	a4,a4,-1
100005b2:	57fd                	li	a5,-1
100005b4:	04f482a3          	sb	a5,69(s1)
100005b8:	00e92023          	sw	a4,0(s2)
100005bc:	e319                	bnez	a4,100005c2 <prvUnlockQueue+0x7c>
100005be:	30046073          	csrsi	mstatus,8
100005c2:	30047073          	csrci	mstatus,8
100005c6:	00092703          	lw	a4,0(s2)
100005ca:	0444c783          	lbu	a5,68(s1)
100005ce:	00170693          	addi	a3,a4,1
100005d2:	01879413          	slli	s0,a5,0x18
100005d6:	00d92023          	sw	a3,0(s2)
100005da:	8461                	srai	s0,s0,0x18
100005dc:	04805063          	blez	s0,1000061c <prvUnlockQueue+0xd6>
100005e0:	01048993          	addi	s3,s1,16
100005e4:	a809                	j	100005f6 <prvUnlockQueue+0xb0>
100005e6:	fff40793          	addi	a5,s0,-1
100005ea:	01879413          	slli	s0,a5,0x18
100005ee:	0ff7f713          	zext.b	a4,a5
100005f2:	8461                	srai	s0,s0,0x18
100005f4:	c30d                	beqz	a4,10000616 <prvUnlockQueue+0xd0>
100005f6:	489c                	lw	a5,16(s1)
100005f8:	854e                	mv	a0,s3
100005fa:	cf91                	beqz	a5,10000616 <prvUnlockQueue+0xd0>
100005fc:	535000ef          	jal	10001330 <xTaskRemoveFromEventList>
10000600:	d17d                	beqz	a0,100005e6 <prvUnlockQueue+0xa0>
10000602:	687000ef          	jal	10001488 <vTaskMissedYield>
10000606:	fff40793          	addi	a5,s0,-1
1000060a:	01879413          	slli	s0,a5,0x18
1000060e:	0ff7f713          	zext.b	a4,a5
10000612:	8461                	srai	s0,s0,0x18
10000614:	f36d                	bnez	a4,100005f6 <prvUnlockQueue+0xb0>
10000616:	00092703          	lw	a4,0(s2)
1000061a:	177d                	addi	a4,a4,-1
1000061c:	57fd                	li	a5,-1
1000061e:	04f48223          	sb	a5,68(s1)
10000622:	00e92023          	sw	a4,0(s2)
10000626:	e319                	bnez	a4,1000062c <prvUnlockQueue+0xe6>
10000628:	30046073          	csrsi	mstatus,8
1000062c:	40f2                	lw	ra,28(sp)
1000062e:	4462                	lw	s0,24(sp)
10000630:	44d2                	lw	s1,20(sp)
10000632:	4942                	lw	s2,16(sp)
10000634:	49b2                	lw	s3,12(sp)
10000636:	6105                	addi	sp,sp,32
10000638:	8082                	ret

1000063a <xQueueGenericReset>:
1000063a:	c535                	beqz	a0,100006a6 <xQueueGenericReset+0x6c>
1000063c:	5d5c                	lw	a5,60(a0)
1000063e:	1141                	addi	sp,sp,-16
10000640:	c422                	sw	s0,8(sp)
10000642:	c606                	sw	ra,12(sp)
10000644:	842a                	mv	s0,a0
10000646:	4501                	li	a0,0
10000648:	cbb9                	beqz	a5,1000069e <xQueueGenericReset+0x64>
1000064a:	4038                	lw	a4,64(s0)
1000064c:	02e7b7b3          	mulhu	a5,a5,a4
10000650:	e7b9                	bnez	a5,1000069e <xQueueGenericReset+0x64>
10000652:	c226                	sw	s1,4(sp)
10000654:	30047073          	csrci	mstatus,8
10000658:	4030                	lw	a2,64(s0)
1000065a:	5c5c                	lw	a5,60(s0)
1000065c:	87418493          	addi	s1,gp,-1932 # 100120b4 <xCriticalNesting>
10000660:	4018                	lw	a4,0(s0)
10000662:	02f607b3          	mul	a5,a2,a5
10000666:	4094                	lw	a3,0(s1)
10000668:	02042c23          	sw	zero,56(s0)
1000066c:	557d                	li	a0,-1
1000066e:	00168813          	addi	a6,a3,1
10000672:	04a40223          	sb	a0,68(s0)
10000676:	c058                	sw	a4,4(s0)
10000678:	0104a023          	sw	a6,0(s1)
1000067c:	04a402a3          	sb	a0,69(s0)
10000680:	40c78633          	sub	a2,a5,a2
10000684:	97ba                	add	a5,a5,a4
10000686:	9732                	add	a4,a4,a2
10000688:	c41c                	sw	a5,8(s0)
1000068a:	c458                	sw	a4,12(s0)
1000068c:	ed99                	bnez	a1,100006aa <xQueueGenericReset+0x70>
1000068e:	481c                	lw	a5,16(s0)
10000690:	e795                	bnez	a5,100006bc <xQueueGenericReset+0x82>
10000692:	c094                	sw	a3,0(s1)
10000694:	e299                	bnez	a3,1000069a <xQueueGenericReset+0x60>
10000696:	30046073          	csrsi	mstatus,8
1000069a:	4492                	lw	s1,4(sp)
1000069c:	4505                	li	a0,1
1000069e:	40b2                	lw	ra,12(sp)
100006a0:	4422                	lw	s0,8(sp)
100006a2:	0141                	addi	sp,sp,16
100006a4:	8082                	ret
100006a6:	4501                	li	a0,0
100006a8:	8082                	ret
100006aa:	01040513          	addi	a0,s0,16
100006ae:	3349                	jal	10000430 <vListInitialise>
100006b0:	02440513          	addi	a0,s0,36
100006b4:	3bb5                	jal	10000430 <vListInitialise>
100006b6:	4094                	lw	a3,0(s1)
100006b8:	16fd                	addi	a3,a3,-1
100006ba:	bfe1                	j	10000692 <xQueueGenericReset+0x58>
100006bc:	01040513          	addi	a0,s0,16
100006c0:	471000ef          	jal	10001330 <xTaskRemoveFromEventList>
100006c4:	d96d                	beqz	a0,100006b6 <xQueueGenericReset+0x7c>
100006c6:	00000073          	ecall
100006ca:	4094                	lw	a3,0(s1)
100006cc:	16fd                	addi	a3,a3,-1
100006ce:	b7d1                	j	10000692 <xQueueGenericReset+0x58>

100006d0 <xQueueGenericCreate>:
100006d0:	1141                	addi	sp,sp,-16
100006d2:	c606                	sw	ra,12(sp)
100006d4:	c04a                	sw	s2,0(sp)
100006d6:	c921                	beqz	a0,10000726 <xQueueGenericCreate+0x56>
100006d8:	02b537b3          	mulhu	a5,a0,a1
100006dc:	c422                	sw	s0,8(sp)
100006de:	c226                	sw	s1,4(sp)
100006e0:	842a                	mv	s0,a0
100006e2:	84ae                	mv	s1,a1
100006e4:	ef9d                	bnez	a5,10000722 <xQueueGenericCreate+0x52>
100006e6:	02b50533          	mul	a0,a0,a1
100006ea:	fb700793          	li	a5,-73
100006ee:	02a7ea63          	bltu	a5,a0,10000722 <xQueueGenericCreate+0x52>
100006f2:	04850513          	addi	a0,a0,72
100006f6:	19e010ef          	jal	10001894 <pvPortMalloc>
100006fa:	892a                	mv	s2,a0
100006fc:	c11d                	beqz	a0,10000722 <xQueueGenericCreate+0x52>
100006fe:	87aa                	mv	a5,a0
10000700:	e88d                	bnez	s1,10000732 <xQueueGenericCreate+0x62>
10000702:	02892e23          	sw	s0,60(s2)
10000706:	04992023          	sw	s1,64(s2)
1000070a:	00f92023          	sw	a5,0(s2)
1000070e:	854a                	mv	a0,s2
10000710:	4585                	li	a1,1
10000712:	3725                	jal	1000063a <xQueueGenericReset>
10000714:	40b2                	lw	ra,12(sp)
10000716:	4422                	lw	s0,8(sp)
10000718:	4492                	lw	s1,4(sp)
1000071a:	854a                	mv	a0,s2
1000071c:	4902                	lw	s2,0(sp)
1000071e:	0141                	addi	sp,sp,16
10000720:	8082                	ret
10000722:	4422                	lw	s0,8(sp)
10000724:	4492                	lw	s1,4(sp)
10000726:	40b2                	lw	ra,12(sp)
10000728:	4901                	li	s2,0
1000072a:	854a                	mv	a0,s2
1000072c:	4902                	lw	s2,0(sp)
1000072e:	0141                	addi	sp,sp,16
10000730:	8082                	ret
10000732:	04850793          	addi	a5,a0,72
10000736:	b7f1                	j	10000702 <xQueueGenericCreate+0x32>

10000738 <xQueueGenericSend>:
10000738:	7139                	addi	sp,sp,-64
1000073a:	dc22                	sw	s0,56(sp)
1000073c:	d452                	sw	s4,40(sp)
1000073e:	d256                	sw	s5,36(sp)
10000740:	de06                	sw	ra,60(sp)
10000742:	da26                	sw	s1,52(sp)
10000744:	842a                	mv	s0,a0
10000746:	8aae                	mv	s5,a1
10000748:	c632                	sw	a2,12(sp)
1000074a:	8a36                	mv	s4,a3
1000074c:	30047073          	csrci	mstatus,8
10000750:	87418493          	addi	s1,gp,-1932 # 100120b4 <xCriticalNesting>
10000754:	409c                	lw	a5,0(s1)
10000756:	5d14                	lw	a3,56(a0)
10000758:	5d58                	lw	a4,60(a0)
1000075a:	00178613          	addi	a2,a5,1
1000075e:	c090                	sw	a2,0(s1)
10000760:	0ee6e563          	bltu	a3,a4,1000084a <xQueueGenericSend+0x112>
10000764:	4709                	li	a4,2
10000766:	0eea0263          	beq	s4,a4,1000084a <xQueueGenericSend+0x112>
1000076a:	4732                	lw	a4,12(sp)
1000076c:	d84a                	sw	s2,48(sp)
1000076e:	d64e                	sw	s3,44(sp)
10000770:	c351                	beqz	a4,100007f4 <xQueueGenericSend+0xbc>
10000772:	0828                	addi	a0,sp,24
10000774:	485000ef          	jal	100013f8 <vTaskInternalSetTimeOutState>
10000778:	597d                	li	s2,-1
1000077a:	01040993          	addi	s3,s0,16
1000077e:	409c                	lw	a5,0(s1)
10000780:	17fd                	addi	a5,a5,-1
10000782:	c09c                	sw	a5,0(s1)
10000784:	e399                	bnez	a5,1000078a <xQueueGenericSend+0x52>
10000786:	30046073          	csrsi	mstatus,8
1000078a:	085000ef          	jal	1000100e <vTaskSuspendAll>
1000078e:	30047073          	csrci	mstatus,8
10000792:	04444783          	lbu	a5,68(s0)
10000796:	4098                	lw	a4,0(s1)
10000798:	07e2                	slli	a5,a5,0x18
1000079a:	87e1                	srai	a5,a5,0x18
1000079c:	01279463          	bne	a5,s2,100007a4 <xQueueGenericSend+0x6c>
100007a0:	04040223          	sb	zero,68(s0)
100007a4:	04544783          	lbu	a5,69(s0)
100007a8:	07e2                	slli	a5,a5,0x18
100007aa:	87e1                	srai	a5,a5,0x18
100007ac:	07278263          	beq	a5,s2,10000810 <xQueueGenericSend+0xd8>
100007b0:	e319                	bnez	a4,100007b6 <xQueueGenericSend+0x7e>
100007b2:	30046073          	csrsi	mstatus,8
100007b6:	006c                	addi	a1,sp,12
100007b8:	0828                	addi	a0,sp,24
100007ba:	44d000ef          	jal	10001406 <xTaskCheckForTimeOut>
100007be:	e179                	bnez	a0,10000884 <xQueueGenericSend+0x14c>
100007c0:	30047073          	csrci	mstatus,8
100007c4:	5c14                	lw	a3,56(s0)
100007c6:	5c58                	lw	a4,60(s0)
100007c8:	409c                	lw	a5,0(s1)
100007ca:	04e68663          	beq	a3,a4,10000816 <xQueueGenericSend+0xde>
100007ce:	e399                	bnez	a5,100007d4 <xQueueGenericSend+0x9c>
100007d0:	30046073          	csrsi	mstatus,8
100007d4:	8522                	mv	a0,s0
100007d6:	3b85                	jal	10000546 <prvUnlockQueue>
100007d8:	043000ef          	jal	1000101a <xTaskResumeAll>
100007dc:	30047073          	csrci	mstatus,8
100007e0:	409c                	lw	a5,0(s1)
100007e2:	5c14                	lw	a3,56(s0)
100007e4:	5c58                	lw	a4,60(s0)
100007e6:	00178613          	addi	a2,a5,1
100007ea:	c090                	sw	a2,0(s1)
100007ec:	04e6ed63          	bltu	a3,a4,10000846 <xQueueGenericSend+0x10e>
100007f0:	4732                	lw	a4,12(sp)
100007f2:	f751                	bnez	a4,1000077e <xQueueGenericSend+0x46>
100007f4:	c09c                	sw	a5,0(s1)
100007f6:	e399                	bnez	a5,100007fc <xQueueGenericSend+0xc4>
100007f8:	30046073          	csrsi	mstatus,8
100007fc:	5942                	lw	s2,48(sp)
100007fe:	59b2                	lw	s3,44(sp)
10000800:	4501                	li	a0,0
10000802:	50f2                	lw	ra,60(sp)
10000804:	5462                	lw	s0,56(sp)
10000806:	54d2                	lw	s1,52(sp)
10000808:	5a22                	lw	s4,40(sp)
1000080a:	5a92                	lw	s5,36(sp)
1000080c:	6121                	addi	sp,sp,64
1000080e:	8082                	ret
10000810:	040402a3          	sb	zero,69(s0)
10000814:	bf71                	j	100007b0 <xQueueGenericSend+0x78>
10000816:	e399                	bnez	a5,1000081c <xQueueGenericSend+0xe4>
10000818:	30046073          	csrsi	mstatus,8
1000081c:	45b2                	lw	a1,12(sp)
1000081e:	854e                	mv	a0,s3
10000820:	2ab000ef          	jal	100012ca <vTaskPlaceOnEventList>
10000824:	8522                	mv	a0,s0
10000826:	3305                	jal	10000546 <prvUnlockQueue>
10000828:	7f2000ef          	jal	1000101a <xTaskResumeAll>
1000082c:	f945                	bnez	a0,100007dc <xQueueGenericSend+0xa4>
1000082e:	00000073          	ecall
10000832:	30047073          	csrci	mstatus,8
10000836:	409c                	lw	a5,0(s1)
10000838:	5c14                	lw	a3,56(s0)
1000083a:	5c58                	lw	a4,60(s0)
1000083c:	00178613          	addi	a2,a5,1
10000840:	c090                	sw	a2,0(s1)
10000842:	fae6f7e3          	bgeu	a3,a4,100007f0 <xQueueGenericSend+0xb8>
10000846:	5942                	lw	s2,48(sp)
10000848:	59b2                	lw	s3,44(sp)
1000084a:	8652                	mv	a2,s4
1000084c:	85d6                	mv	a1,s5
1000084e:	8522                	mv	a0,s0
10000850:	3999                	jal	100004a6 <prvCopyDataToQueue>
10000852:	505c                	lw	a5,36(s0)
10000854:	e385                	bnez	a5,10000874 <xQueueGenericSend+0x13c>
10000856:	e505                	bnez	a0,1000087e <xQueueGenericSend+0x146>
10000858:	409c                	lw	a5,0(s1)
1000085a:	17fd                	addi	a5,a5,-1
1000085c:	c09c                	sw	a5,0(s1)
1000085e:	e399                	bnez	a5,10000864 <xQueueGenericSend+0x12c>
10000860:	30046073          	csrsi	mstatus,8
10000864:	50f2                	lw	ra,60(sp)
10000866:	5462                	lw	s0,56(sp)
10000868:	54d2                	lw	s1,52(sp)
1000086a:	5a22                	lw	s4,40(sp)
1000086c:	5a92                	lw	s5,36(sp)
1000086e:	4505                	li	a0,1
10000870:	6121                	addi	sp,sp,64
10000872:	8082                	ret
10000874:	02440513          	addi	a0,s0,36
10000878:	2b9000ef          	jal	10001330 <xTaskRemoveFromEventList>
1000087c:	dd71                	beqz	a0,10000858 <xQueueGenericSend+0x120>
1000087e:	00000073          	ecall
10000882:	bfd9                	j	10000858 <xQueueGenericSend+0x120>
10000884:	8522                	mv	a0,s0
10000886:	31c1                	jal	10000546 <prvUnlockQueue>
10000888:	792000ef          	jal	1000101a <xTaskResumeAll>
1000088c:	4501                	li	a0,0
1000088e:	5942                	lw	s2,48(sp)
10000890:	59b2                	lw	s3,44(sp)
10000892:	bf85                	j	10000802 <xQueueGenericSend+0xca>

10000894 <xQueueReceive>:
10000894:	7139                	addi	sp,sp,-64
10000896:	dc22                	sw	s0,56(sp)
10000898:	d452                	sw	s4,40(sp)
1000089a:	de06                	sw	ra,60(sp)
1000089c:	da26                	sw	s1,52(sp)
1000089e:	d64e                	sw	s3,44(sp)
100008a0:	842a                	mv	s0,a0
100008a2:	8a2e                	mv	s4,a1
100008a4:	c632                	sw	a2,12(sp)
100008a6:	30047073          	csrci	mstatus,8
100008aa:	87418493          	addi	s1,gp,-1932 # 100120b4 <xCriticalNesting>
100008ae:	409c                	lw	a5,0(s1)
100008b0:	03852983          	lw	s3,56(a0)
100008b4:	00178713          	addi	a4,a5,1
100008b8:	c098                	sw	a4,0(s1)
100008ba:	0c099463          	bnez	s3,10000982 <xQueueReceive+0xee>
100008be:	4732                	lw	a4,12(sp)
100008c0:	d84a                	sw	s2,48(sp)
100008c2:	c751                	beqz	a4,1000094e <xQueueReceive+0xba>
100008c4:	0828                	addi	a0,sp,24
100008c6:	333000ef          	jal	100013f8 <vTaskInternalSetTimeOutState>
100008ca:	597d                	li	s2,-1
100008cc:	409c                	lw	a5,0(s1)
100008ce:	17fd                	addi	a5,a5,-1
100008d0:	c09c                	sw	a5,0(s1)
100008d2:	e399                	bnez	a5,100008d8 <xQueueReceive+0x44>
100008d4:	30046073          	csrsi	mstatus,8
100008d8:	736000ef          	jal	1000100e <vTaskSuspendAll>
100008dc:	30047073          	csrci	mstatus,8
100008e0:	04444783          	lbu	a5,68(s0)
100008e4:	4098                	lw	a4,0(s1)
100008e6:	07e2                	slli	a5,a5,0x18
100008e8:	87e1                	srai	a5,a5,0x18
100008ea:	01279463          	bne	a5,s2,100008f2 <xQueueReceive+0x5e>
100008ee:	04040223          	sb	zero,68(s0)
100008f2:	04544783          	lbu	a5,69(s0)
100008f6:	07e2                	slli	a5,a5,0x18
100008f8:	87e1                	srai	a5,a5,0x18
100008fa:	05278f63          	beq	a5,s2,10000958 <xQueueReceive+0xc4>
100008fe:	e319                	bnez	a4,10000904 <xQueueReceive+0x70>
10000900:	30046073          	csrsi	mstatus,8
10000904:	006c                	addi	a1,sp,12
10000906:	0828                	addi	a0,sp,24
10000908:	2ff000ef          	jal	10001406 <xTaskCheckForTimeOut>
1000090c:	e94d                	bnez	a0,100009be <xQueueReceive+0x12a>
1000090e:	30047073          	csrci	mstatus,8
10000912:	5c1c                	lw	a5,56(s0)
10000914:	4098                	lw	a4,0(s1)
10000916:	e7a1                	bnez	a5,1000095e <xQueueReceive+0xca>
10000918:	e319                	bnez	a4,1000091e <xQueueReceive+0x8a>
1000091a:	30046073          	csrsi	mstatus,8
1000091e:	45b2                	lw	a1,12(sp)
10000920:	02440513          	addi	a0,s0,36
10000924:	1a7000ef          	jal	100012ca <vTaskPlaceOnEventList>
10000928:	8522                	mv	a0,s0
1000092a:	3931                	jal	10000546 <prvUnlockQueue>
1000092c:	6ee000ef          	jal	1000101a <xTaskResumeAll>
10000930:	e119                	bnez	a0,10000936 <xQueueReceive+0xa2>
10000932:	00000073          	ecall
10000936:	30047073          	csrci	mstatus,8
1000093a:	409c                	lw	a5,0(s1)
1000093c:	03842983          	lw	s3,56(s0)
10000940:	00178713          	addi	a4,a5,1
10000944:	c098                	sw	a4,0(s1)
10000946:	02099d63          	bnez	s3,10000980 <xQueueReceive+0xec>
1000094a:	4732                	lw	a4,12(sp)
1000094c:	f341                	bnez	a4,100008cc <xQueueReceive+0x38>
1000094e:	c09c                	sw	a5,0(s1)
10000950:	e7c9                	bnez	a5,100009da <xQueueReceive+0x146>
10000952:	30046073          	csrsi	mstatus,8
10000956:	a051                	j	100009da <xQueueReceive+0x146>
10000958:	040402a3          	sb	zero,69(s0)
1000095c:	b74d                	j	100008fe <xQueueReceive+0x6a>
1000095e:	e319                	bnez	a4,10000964 <xQueueReceive+0xd0>
10000960:	30046073          	csrsi	mstatus,8
10000964:	8522                	mv	a0,s0
10000966:	36c5                	jal	10000546 <prvUnlockQueue>
10000968:	6b2000ef          	jal	1000101a <xTaskResumeAll>
1000096c:	30047073          	csrci	mstatus,8
10000970:	409c                	lw	a5,0(s1)
10000972:	03842983          	lw	s3,56(s0)
10000976:	00178713          	addi	a4,a5,1
1000097a:	c098                	sw	a4,0(s1)
1000097c:	fc0987e3          	beqz	s3,1000094a <xQueueReceive+0xb6>
10000980:	5942                	lw	s2,48(sp)
10000982:	4030                	lw	a2,64(s0)
10000984:	ca11                	beqz	a2,10000998 <xQueueReceive+0x104>
10000986:	444c                	lw	a1,12(s0)
10000988:	441c                	lw	a5,8(s0)
1000098a:	95b2                	add	a1,a1,a2
1000098c:	c44c                	sw	a1,12(s0)
1000098e:	04f5ff63          	bgeu	a1,a5,100009ec <xQueueReceive+0x158>
10000992:	8552                	mv	a0,s4
10000994:	7d1010ef          	jal	10002964 <memcpy>
10000998:	481c                	lw	a5,16(s0)
1000099a:	19fd                	addi	s3,s3,-1
1000099c:	03342c23          	sw	s3,56(s0)
100009a0:	eba9                	bnez	a5,100009f2 <xQueueReceive+0x15e>
100009a2:	409c                	lw	a5,0(s1)
100009a4:	17fd                	addi	a5,a5,-1
100009a6:	c09c                	sw	a5,0(s1)
100009a8:	e399                	bnez	a5,100009ae <xQueueReceive+0x11a>
100009aa:	30046073          	csrsi	mstatus,8
100009ae:	50f2                	lw	ra,60(sp)
100009b0:	5462                	lw	s0,56(sp)
100009b2:	54d2                	lw	s1,52(sp)
100009b4:	59b2                	lw	s3,44(sp)
100009b6:	5a22                	lw	s4,40(sp)
100009b8:	4505                	li	a0,1
100009ba:	6121                	addi	sp,sp,64
100009bc:	8082                	ret
100009be:	8522                	mv	a0,s0
100009c0:	3659                	jal	10000546 <prvUnlockQueue>
100009c2:	658000ef          	jal	1000101a <xTaskResumeAll>
100009c6:	30047073          	csrci	mstatus,8
100009ca:	5c18                	lw	a4,56(s0)
100009cc:	409c                	lw	a5,0(s1)
100009ce:	c709                	beqz	a4,100009d8 <xQueueReceive+0x144>
100009d0:	f3bd                	bnez	a5,10000936 <xQueueReceive+0xa2>
100009d2:	30046073          	csrsi	mstatus,8
100009d6:	b785                	j	10000936 <xQueueReceive+0xa2>
100009d8:	dfad                	beqz	a5,10000952 <xQueueReceive+0xbe>
100009da:	50f2                	lw	ra,60(sp)
100009dc:	5462                	lw	s0,56(sp)
100009de:	5942                	lw	s2,48(sp)
100009e0:	54d2                	lw	s1,52(sp)
100009e2:	59b2                	lw	s3,44(sp)
100009e4:	5a22                	lw	s4,40(sp)
100009e6:	4501                	li	a0,0
100009e8:	6121                	addi	sp,sp,64
100009ea:	8082                	ret
100009ec:	400c                	lw	a1,0(s0)
100009ee:	c44c                	sw	a1,12(s0)
100009f0:	b74d                	j	10000992 <xQueueReceive+0xfe>
100009f2:	01040513          	addi	a0,s0,16
100009f6:	13b000ef          	jal	10001330 <xTaskRemoveFromEventList>
100009fa:	d545                	beqz	a0,100009a2 <xQueueReceive+0x10e>
100009fc:	00000073          	ecall
10000a00:	b74d                	j	100009a2 <xQueueReceive+0x10e>

10000a02 <vQueueAddToRegistry>:
10000a02:	c98d                	beqz	a1,10000a34 <vQueueAddToRegistry+0x32>
10000a04:	92018893          	addi	a7,gp,-1760 # 10012160 <xQueueRegistry>
10000a08:	87c6                	mv	a5,a7
10000a0a:	4601                	li	a2,0
10000a0c:	4701                	li	a4,0
10000a0e:	4821                	li	a6,8
10000a10:	a021                	j	10000a18 <vQueueAddToRegistry+0x16>
10000a12:	07a1                	addi	a5,a5,8
10000a14:	01070d63          	beq	a4,a6,10000a2e <vQueueAddToRegistry+0x2c>
10000a18:	43d4                	lw	a3,4(a5)
10000a1a:	00a68e63          	beq	a3,a0,10000a36 <vQueueAddToRegistry+0x34>
10000a1e:	0705                	addi	a4,a4,1
10000a20:	fa6d                	bnez	a2,10000a12 <vQueueAddToRegistry+0x10>
10000a22:	4394                	lw	a3,0(a5)
10000a24:	f6fd                	bnez	a3,10000a12 <vQueueAddToRegistry+0x10>
10000a26:	863e                	mv	a2,a5
10000a28:	07a1                	addi	a5,a5,8
10000a2a:	ff0717e3          	bne	a4,a6,10000a18 <vQueueAddToRegistry+0x16>
10000a2e:	c219                	beqz	a2,10000a34 <vQueueAddToRegistry+0x32>
10000a30:	c20c                	sw	a1,0(a2)
10000a32:	c248                	sw	a0,4(a2)
10000a34:	8082                	ret
10000a36:	070e                	slli	a4,a4,0x3
10000a38:	00e88633          	add	a2,a7,a4
10000a3c:	bfd5                	j	10000a30 <vQueueAddToRegistry+0x2e>

10000a3e <vQueueWaitForMessageRestricted>:
10000a3e:	1141                	addi	sp,sp,-16
10000a40:	c422                	sw	s0,8(sp)
10000a42:	c606                	sw	ra,12(sp)
10000a44:	842a                	mv	s0,a0
10000a46:	30047073          	csrci	mstatus,8
10000a4a:	04454783          	lbu	a5,68(a0)
10000a4e:	56fd                	li	a3,-1
10000a50:	8741a703          	lw	a4,-1932(gp) # 100120b4 <xCriticalNesting>
10000a54:	07e2                	slli	a5,a5,0x18
10000a56:	87e1                	srai	a5,a5,0x18
10000a58:	00d79463          	bne	a5,a3,10000a60 <vQueueWaitForMessageRestricted+0x22>
10000a5c:	04050223          	sb	zero,68(a0)
10000a60:	04544783          	lbu	a5,69(s0)
10000a64:	56fd                	li	a3,-1
10000a66:	07e2                	slli	a5,a5,0x18
10000a68:	87e1                	srai	a5,a5,0x18
10000a6a:	00d78c63          	beq	a5,a3,10000a82 <vQueueWaitForMessageRestricted+0x44>
10000a6e:	e319                	bnez	a4,10000a74 <vQueueWaitForMessageRestricted+0x36>
10000a70:	30046073          	csrsi	mstatus,8
10000a74:	5c1c                	lw	a5,56(s0)
10000a76:	cb89                	beqz	a5,10000a88 <vQueueWaitForMessageRestricted+0x4a>
10000a78:	8522                	mv	a0,s0
10000a7a:	4422                	lw	s0,8(sp)
10000a7c:	40b2                	lw	ra,12(sp)
10000a7e:	0141                	addi	sp,sp,16
10000a80:	b4d9                	j	10000546 <prvUnlockQueue>
10000a82:	040402a3          	sb	zero,69(s0)
10000a86:	b7e5                	j	10000a6e <vQueueWaitForMessageRestricted+0x30>
10000a88:	02440513          	addi	a0,s0,36
10000a8c:	061000ef          	jal	100012ec <vTaskPlaceOnEventListRestricted>
10000a90:	8522                	mv	a0,s0
10000a92:	4422                	lw	s0,8(sp)
10000a94:	40b2                	lw	ra,12(sp)
10000a96:	0141                	addi	sp,sp,16
10000a98:	b47d                	j	10000546 <prvUnlockQueue>

10000a9a <prvAddCurrentTaskToDelayedList>:
10000a9a:	1101                	addi	sp,sp,-32
10000a9c:	ca26                	sw	s1,20(sp)
10000a9e:	8c418493          	addi	s1,gp,-1852 # 10012104 <pxCurrentTCB>
10000aa2:	c84a                	sw	s2,16(sp)
10000aa4:	c64e                	sw	s3,12(sp)
10000aa6:	8b01a903          	lw	s2,-1872(gp) # 100120f0 <xTickCount>
10000aaa:	c452                	sw	s4,8(sp)
10000aac:	8c01a983          	lw	s3,-1856(gp) # 10012100 <pxDelayedTaskList>
10000ab0:	8bc1aa03          	lw	s4,-1860(gp) # 100120fc <pxOverflowDelayedTaskList>
10000ab4:	4098                	lw	a4,0(s1)
10000ab6:	409c                	lw	a5,0(s1)
10000ab8:	cc22                	sw	s0,24(sp)
10000aba:	c256                	sw	s5,4(sp)
10000abc:	ce06                	sw	ra,28(sp)
10000abe:	842a                	mv	s0,a0
10000ac0:	040708a3          	sb	zero,81(a4)
10000ac4:	00478513          	addi	a0,a5,4
10000ac8:	8aae                	mv	s5,a1
10000aca:	9afff0ef          	jal	10000478 <uxListRemove>
10000ace:	ed09                	bnez	a0,10000ae8 <prvAddCurrentTaskToDelayedList+0x4e>
10000ad0:	409c                	lw	a5,0(s1)
10000ad2:	8ac18713          	addi	a4,gp,-1876 # 100120ec <uxTopReadyPriority>
10000ad6:	4314                	lw	a3,0(a4)
10000ad8:	57d0                	lw	a2,44(a5)
10000ada:	4785                	li	a5,1
10000adc:	00c797b3          	sll	a5,a5,a2
10000ae0:	fff7c793          	not	a5,a5
10000ae4:	8ff5                	and	a5,a5,a3
10000ae6:	c31c                	sw	a5,0(a4)
10000ae8:	57fd                	li	a5,-1
10000aea:	04f40863          	beq	s0,a5,10000b3a <prvAddCurrentTaskToDelayedList+0xa0>
10000aee:	409c                	lw	a5,0(s1)
10000af0:	944a                	add	s0,s0,s2
10000af2:	c3c0                	sw	s0,4(a5)
10000af4:	03246663          	bltu	s0,s2,10000b20 <prvAddCurrentTaskToDelayedList+0x86>
10000af8:	408c                	lw	a1,0(s1)
10000afa:	854e                	mv	a0,s3
10000afc:	0591                	addi	a1,a1,4
10000afe:	94dff0ef          	jal	1000044a <vListInsert>
10000b02:	89418793          	addi	a5,gp,-1900 # 100120d4 <xNextTaskUnblockTime>
10000b06:	4398                	lw	a4,0(a5)
10000b08:	00e47363          	bgeu	s0,a4,10000b0e <prvAddCurrentTaskToDelayedList+0x74>
10000b0c:	c380                	sw	s0,0(a5)
10000b0e:	40f2                	lw	ra,28(sp)
10000b10:	4462                	lw	s0,24(sp)
10000b12:	44d2                	lw	s1,20(sp)
10000b14:	4942                	lw	s2,16(sp)
10000b16:	49b2                	lw	s3,12(sp)
10000b18:	4a22                	lw	s4,8(sp)
10000b1a:	4a92                	lw	s5,4(sp)
10000b1c:	6105                	addi	sp,sp,32
10000b1e:	8082                	ret
10000b20:	408c                	lw	a1,0(s1)
10000b22:	4462                	lw	s0,24(sp)
10000b24:	40f2                	lw	ra,28(sp)
10000b26:	44d2                	lw	s1,20(sp)
10000b28:	4942                	lw	s2,16(sp)
10000b2a:	49b2                	lw	s3,12(sp)
10000b2c:	4a92                	lw	s5,4(sp)
10000b2e:	8552                	mv	a0,s4
10000b30:	4a22                	lw	s4,8(sp)
10000b32:	0591                	addi	a1,a1,4
10000b34:	6105                	addi	sp,sp,32
10000b36:	915ff06f          	j	1000044a <vListInsert>
10000b3a:	020a9063          	bnez	s5,10000b5a <prvAddCurrentTaskToDelayedList+0xc0>
10000b3e:	409c                	lw	a5,0(s1)
10000b40:	fff90713          	addi	a4,s2,-1
10000b44:	c3d8                	sw	a4,4(a5)
10000b46:	fc091de3          	bnez	s2,10000b20 <prvAddCurrentTaskToDelayedList+0x86>
10000b4a:	408c                	lw	a1,0(s1)
10000b4c:	854e                	mv	a0,s3
10000b4e:	0591                	addi	a1,a1,4
10000b50:	8fbff0ef          	jal	1000044a <vListInsert>
10000b54:	8941a783          	lw	a5,-1900(gp) # 100120d4 <xNextTaskUnblockTime>
10000b58:	bf5d                	j	10000b0e <prvAddCurrentTaskToDelayedList+0x74>
10000b5a:	96018793          	addi	a5,gp,-1696 # 100121a0 <xSuspendedTaskList>
10000b5e:	43d4                	lw	a3,4(a5)
10000b60:	4098                	lw	a4,0(s1)
10000b62:	0004a803          	lw	a6,0(s1)
10000b66:	4688                	lw	a0,8(a3)
10000b68:	408c                	lw	a1,0(s1)
10000b6a:	4090                	lw	a2,0(s1)
10000b6c:	c714                	sw	a3,8(a4)
10000b6e:	4398                	lw	a4,0(a5)
10000b70:	00a82623          	sw	a0,12(a6)
10000b74:	0591                	addi	a1,a1,4
10000b76:	0004a803          	lw	a6,0(s1)
10000b7a:	c14c                	sw	a1,4(a0)
10000b7c:	0611                	addi	a2,a2,4
10000b7e:	c690                	sw	a2,8(a3)
10000b80:	0705                	addi	a4,a4,1
10000b82:	00f82a23          	sw	a5,20(a6)
10000b86:	c398                	sw	a4,0(a5)
10000b88:	b759                	j	10000b0e <prvAddCurrentTaskToDelayedList+0x74>

10000b8a <prvCheckTasksWaitingTermination>:
10000b8a:	1101                	addi	sp,sp,-32
10000b8c:	c84a                	sw	s2,16(sp)
10000b8e:	8b818913          	addi	s2,gp,-1864 # 100120f8 <uxDeletedTasksWaitingCleanUp>
10000b92:	00092783          	lw	a5,0(s2)
10000b96:	ce06                	sw	ra,28(sp)
10000b98:	c7a5                	beqz	a5,10000c00 <prvCheckTasksWaitingTermination+0x76>
10000b9a:	cc22                	sw	s0,24(sp)
10000b9c:	c64e                	sw	s3,12(sp)
10000b9e:	c452                	sw	s4,8(sp)
10000ba0:	ca26                	sw	s1,20(sp)
10000ba2:	87418413          	addi	s0,gp,-1932 # 100120b4 <xCriticalNesting>
10000ba6:	97418a13          	addi	s4,gp,-1676 # 100121b4 <xTasksWaitingTermination>
10000baa:	8b418993          	addi	s3,gp,-1868 # 100120f4 <uxCurrentNumberOfTasks>
10000bae:	30047073          	csrci	mstatus,8
10000bb2:	00ca2703          	lw	a4,12(s4)
10000bb6:	401c                	lw	a5,0(s0)
10000bb8:	4744                	lw	s1,12(a4)
10000bba:	0785                	addi	a5,a5,1
10000bbc:	c01c                	sw	a5,0(s0)
10000bbe:	00448513          	addi	a0,s1,4
10000bc2:	8b7ff0ef          	jal	10000478 <uxListRemove>
10000bc6:	0009a703          	lw	a4,0(s3)
10000bca:	401c                	lw	a5,0(s0)
10000bcc:	177d                	addi	a4,a4,-1
10000bce:	00e9a023          	sw	a4,0(s3)
10000bd2:	00092703          	lw	a4,0(s2)
10000bd6:	17fd                	addi	a5,a5,-1
10000bd8:	c01c                	sw	a5,0(s0)
10000bda:	177d                	addi	a4,a4,-1
10000bdc:	00e92023          	sw	a4,0(s2)
10000be0:	e399                	bnez	a5,10000be6 <prvCheckTasksWaitingTermination+0x5c>
10000be2:	30046073          	csrsi	mstatus,8
10000be6:	5888                	lw	a0,48(s1)
10000be8:	5f3000ef          	jal	100019da <vPortFree>
10000bec:	8526                	mv	a0,s1
10000bee:	5ed000ef          	jal	100019da <vPortFree>
10000bf2:	00092783          	lw	a5,0(s2)
10000bf6:	ffc5                	bnez	a5,10000bae <prvCheckTasksWaitingTermination+0x24>
10000bf8:	4462                	lw	s0,24(sp)
10000bfa:	44d2                	lw	s1,20(sp)
10000bfc:	49b2                	lw	s3,12(sp)
10000bfe:	4a22                	lw	s4,8(sp)
10000c00:	40f2                	lw	ra,28(sp)
10000c02:	4942                	lw	s2,16(sp)
10000c04:	6105                	addi	sp,sp,32
10000c06:	8082                	ret

10000c08 <prvIdleTask>:
10000c08:	1141                	addi	sp,sp,-16
10000c0a:	c606                	sw	ra,12(sp)
10000c0c:	3fbd                	jal	10000b8a <prvCheckTasksWaitingTermination>
10000c0e:	bffd                	j	10000c0c <prvIdleTask+0x4>

10000c10 <xTaskIncrementTick.part.0>:
10000c10:	8b018793          	addi	a5,gp,-1872 # 100120f0 <xTickCount>
10000c14:	0007a303          	lw	t1,0(a5)
10000c18:	1101                	addi	sp,sp,-32
10000c1a:	ce06                	sw	ra,28(sp)
10000c1c:	0305                	addi	t1,t1,1
10000c1e:	0067a023          	sw	t1,0(a5)
10000c22:	89418393          	addi	t2,gp,-1900 # 100120d4 <xNextTaskUnblockTime>
10000c26:	10030663          	beqz	t1,10000d32 <xTaskIncrementTick.part.0+0x122>
10000c2a:	0003a783          	lw	a5,0(t2)
10000c2e:	0cf36363          	bltu	t1,a5,10000cf4 <xTaskIncrementTick.part.0+0xe4>
10000c32:	8c018e13          	addi	t3,gp,-1856 # 10012100 <pxDelayedTaskList>
10000c36:	000e2783          	lw	a5,0(t3)
10000c3a:	439c                	lw	a5,0(a5)
10000c3c:	14078363          	beqz	a5,10000d82 <xTaskIncrementTick.part.0+0x172>
10000c40:	cc22                	sw	s0,24(sp)
10000c42:	4501                	li	a0,0
10000c44:	9c418f13          	addi	t5,gp,-1596 # 10012204 <pxReadyTasksLists>
10000c48:	8c418f93          	addi	t6,gp,-1852 # 10012104 <pxCurrentTCB>
10000c4c:	8ac18e93          	addi	t4,gp,-1876 # 100120ec <uxTopReadyPriority>
10000c50:	4285                	li	t0,1
10000c52:	a8b5                	j	10000cce <xTaskIncrementTick.part.0+0xbe>
10000c54:	4290                	lw	a2,0(a3)
10000c56:	5798                	lw	a4,40(a5)
10000c58:	0007aa23          	sw	zero,20(a5)
10000c5c:	167d                	addi	a2,a2,-1
10000c5e:	c290                	sw	a2,0(a3)
10000c60:	c305                	beqz	a4,10000c80 <xTaskIncrementTick.part.0+0x70>
10000c62:	4fcc                	lw	a1,28(a5)
10000c64:	5390                	lw	a2,32(a5)
10000c66:	00472883          	lw	a7,4(a4)
10000c6a:	01878693          	addi	a3,a5,24
10000c6e:	c590                	sw	a2,8(a1)
10000c70:	c24c                	sw	a1,4(a2)
10000c72:	0ad88e63          	beq	a7,a3,10000d2e <xTaskIncrementTick.part.0+0x11e>
10000c76:	4314                	lw	a3,0(a4)
10000c78:	0207a423          	sw	zero,40(a5)
10000c7c:	16fd                	addi	a3,a3,-1
10000c7e:	c314                	sw	a3,0(a4)
10000c80:	57d4                	lw	a3,44(a5)
10000c82:	000ea883          	lw	a7,0(t4)
10000c86:	00269713          	slli	a4,a3,0x2
10000c8a:	9736                	add	a4,a4,a3
10000c8c:	070a                	slli	a4,a4,0x2
10000c8e:	977a                	add	a4,a4,t5
10000c90:	434c                	lw	a1,4(a4)
10000c92:	00d29633          	sll	a2,t0,a3
10000c96:	01166633          	or	a2,a2,a7
10000c9a:	0085a883          	lw	a7,8(a1)
10000c9e:	00cea023          	sw	a2,0(t4)
10000ca2:	000fa403          	lw	s0,0(t6)
10000ca6:	4310                	lw	a2,0(a4)
10000ca8:	c78c                	sw	a1,8(a5)
10000caa:	0117a623          	sw	a7,12(a5)
10000cae:	0108a223          	sw	a6,4(a7)
10000cb2:	0105a423          	sw	a6,8(a1)
10000cb6:	544c                	lw	a1,44(s0)
10000cb8:	cbd8                	sw	a4,20(a5)
10000cba:	00160793          	addi	a5,a2,1
10000cbe:	c31c                	sw	a5,0(a4)
10000cc0:	00d5f363          	bgeu	a1,a3,10000cc6 <xTaskIncrementTick.part.0+0xb6>
10000cc4:	4505                	li	a0,1
10000cc6:	000e2783          	lw	a5,0(t3)
10000cca:	439c                	lw	a5,0(a5)
10000ccc:	c3c5                	beqz	a5,10000d6c <xTaskIncrementTick.part.0+0x15c>
10000cce:	000e2783          	lw	a5,0(t3)
10000cd2:	47dc                	lw	a5,12(a5)
10000cd4:	47dc                	lw	a5,12(a5)
10000cd6:	43d8                	lw	a4,4(a5)
10000cd8:	08e36663          	bltu	t1,a4,10000d64 <xTaskIncrementTick.part.0+0x154>
10000cdc:	4bd4                	lw	a3,20(a5)
10000cde:	4790                	lw	a2,8(a5)
10000ce0:	47d8                	lw	a4,12(a5)
10000ce2:	42cc                	lw	a1,4(a3)
10000ce4:	00478813          	addi	a6,a5,4
10000ce8:	c618                	sw	a4,8(a2)
10000cea:	c350                	sw	a2,4(a4)
10000cec:	f70594e3          	bne	a1,a6,10000c54 <xTaskIncrementTick.part.0+0x44>
10000cf0:	c2d8                	sw	a4,4(a3)
10000cf2:	b78d                	j	10000c54 <xTaskIncrementTick.part.0+0x44>
10000cf4:	4501                	li	a0,0
10000cf6:	9c418f13          	addi	t5,gp,-1596 # 10012204 <pxReadyTasksLists>
10000cfa:	8c418f93          	addi	t6,gp,-1852 # 10012104 <pxCurrentTCB>
10000cfe:	000fa783          	lw	a5,0(t6)
10000d02:	4685                	li	a3,1
10000d04:	57d8                	lw	a4,44(a5)
10000d06:	00271793          	slli	a5,a4,0x2
10000d0a:	97ba                	add	a5,a5,a4
10000d0c:	078a                	slli	a5,a5,0x2
10000d0e:	9f3e                	add	t5,t5,a5
10000d10:	000f2783          	lw	a5,0(t5)
10000d14:	00f6f363          	bgeu	a3,a5,10000d1a <xTaskIncrementTick.part.0+0x10a>
10000d18:	4505                	li	a0,1
10000d1a:	8a41a783          	lw	a5,-1884(gp) # 100120e4 <xPendedTicks>
10000d1e:	cf95                	beqz	a5,10000d5a <xTaskIncrementTick.part.0+0x14a>
10000d20:	8a01a783          	lw	a5,-1888(gp) # 100120e0 <xYieldPendings>
10000d24:	c391                	beqz	a5,10000d28 <xTaskIncrementTick.part.0+0x118>
10000d26:	4505                	li	a0,1
10000d28:	40f2                	lw	ra,28(sp)
10000d2a:	6105                	addi	sp,sp,32
10000d2c:	8082                	ret
10000d2e:	c350                	sw	a2,4(a4)
10000d30:	b799                	j	10000c76 <xTaskIncrementTick.part.0+0x66>
10000d32:	8c018793          	addi	a5,gp,-1856 # 10012100 <pxDelayedTaskList>
10000d36:	8bc18713          	addi	a4,gp,-1860 # 100120fc <pxOverflowDelayedTaskList>
10000d3a:	4390                	lw	a2,0(a5)
10000d3c:	430c                	lw	a1,0(a4)
10000d3e:	89c18693          	addi	a3,gp,-1892 # 100120dc <xNumOfOverflows>
10000d42:	c38c                	sw	a1,0(a5)
10000d44:	c310                	sw	a2,0(a4)
10000d46:	4298                	lw	a4,0(a3)
10000d48:	0705                	addi	a4,a4,1
10000d4a:	c298                	sw	a4,0(a3)
10000d4c:	4398                	lw	a4,0(a5)
10000d4e:	4318                	lw	a4,0(a4)
10000d50:	e31d                	bnez	a4,10000d76 <xTaskIncrementTick.part.0+0x166>
10000d52:	57fd                	li	a5,-1
10000d54:	00f3a023          	sw	a5,0(t2)
10000d58:	bdc9                	j	10000c2a <xTaskIncrementTick.part.0+0x1a>
10000d5a:	c62a                	sw	a0,12(sp)
10000d5c:	d00ff0ef          	jal	1000025c <vApplicationTickHook>
10000d60:	4532                	lw	a0,12(sp)
10000d62:	bf7d                	j	10000d20 <xTaskIncrementTick.part.0+0x110>
10000d64:	4462                	lw	s0,24(sp)
10000d66:	00e3a023          	sw	a4,0(t2)
10000d6a:	bf51                	j	10000cfe <xTaskIncrementTick.part.0+0xee>
10000d6c:	4462                	lw	s0,24(sp)
10000d6e:	57fd                	li	a5,-1
10000d70:	00f3a023          	sw	a5,0(t2)
10000d74:	b769                	j	10000cfe <xTaskIncrementTick.part.0+0xee>
10000d76:	439c                	lw	a5,0(a5)
10000d78:	47dc                	lw	a5,12(a5)
10000d7a:	439c                	lw	a5,0(a5)
10000d7c:	00f3a023          	sw	a5,0(t2)
10000d80:	b56d                	j	10000c2a <xTaskIncrementTick.part.0+0x1a>
10000d82:	4501                	li	a0,0
10000d84:	9c418f13          	addi	t5,gp,-1596 # 10012204 <pxReadyTasksLists>
10000d88:	8c418f93          	addi	t6,gp,-1852 # 10012104 <pxCurrentTCB>
10000d8c:	b7cd                	j	10000d6e <xTaskIncrementTick.part.0+0x15e>

10000d8e <xTaskCreate>:
10000d8e:	7179                	addi	sp,sp,-48
10000d90:	d04a                	sw	s2,32(sp)
10000d92:	00261913          	slli	s2,a2,0x2
10000d96:	ca56                	sw	s5,20(sp)
10000d98:	8aaa                	mv	s5,a0
10000d9a:	854a                	mv	a0,s2
10000d9c:	d422                	sw	s0,40(sp)
10000d9e:	cc52                	sw	s4,24(sp)
10000da0:	c85a                	sw	s6,16(sp)
10000da2:	c65e                	sw	s7,12(sp)
10000da4:	d606                	sw	ra,44(sp)
10000da6:	842e                	mv	s0,a1
10000da8:	8b36                	mv	s6,a3
10000daa:	8bba                	mv	s7,a4
10000dac:	8a3e                	mv	s4,a5
10000dae:	2e7000ef          	jal	10001894 <pvPortMalloc>
10000db2:	16050663          	beqz	a0,10000f1e <xTaskCreate+0x190>
10000db6:	ce4e                	sw	s3,28(sp)
10000db8:	89aa                	mv	s3,a0
10000dba:	05400513          	li	a0,84
10000dbe:	d226                	sw	s1,36(sp)
10000dc0:	2d5000ef          	jal	10001894 <pvPortMalloc>
10000dc4:	84aa                	mv	s1,a0
10000dc6:	14050763          	beqz	a0,10000f14 <xTaskCreate+0x186>
10000dca:	05400613          	li	a2,84
10000dce:	4581                	li	a1,0
10000dd0:	2b9010ef          	jal	10002888 <memset>
10000dd4:	864a                	mv	a2,s2
10000dd6:	0334a823          	sw	s3,48(s1)
10000dda:	0a500593          	li	a1,165
10000dde:	854e                	mv	a0,s3
10000de0:	2a9010ef          	jal	10002888 <memset>
10000de4:	589c                	lw	a5,48(s1)
10000de6:	1971                	addi	s2,s2,-4
10000de8:	993e                	add	s2,s2,a5
10000dea:	ff097913          	andi	s2,s2,-16
10000dee:	c015                	beqz	s0,10000e12 <xTaskCreate+0x84>
10000df0:	85a2                	mv	a1,s0
10000df2:	03448813          	addi	a6,s1,52
10000df6:	01040793          	addi	a5,s0,16
10000dfa:	0005c883          	lbu	a7,0(a1)
10000dfe:	0805                	addi	a6,a6,1
10000e00:	0585                	addi	a1,a1,1
10000e02:	ff180fa3          	sb	a7,-1(a6)
10000e06:	00088463          	beqz	a7,10000e0e <xTaskCreate+0x80>
10000e0a:	fef598e3          	bne	a1,a5,10000dfa <xTaskCreate+0x6c>
10000e0e:	040481a3          	sb	zero,67(s1)
10000e12:	4799                	li	a5,6
10000e14:	0f77e563          	bltu	a5,s7,10000efe <xTaskCreate+0x170>
10000e18:	00448993          	addi	s3,s1,4
10000e1c:	854e                	mv	a0,s3
10000e1e:	0374a623          	sw	s7,44(s1)
10000e22:	0574a223          	sw	s7,68(s1)
10000e26:	e1eff0ef          	jal	10000444 <vListInitialiseItem>
10000e2a:	01848513          	addi	a0,s1,24
10000e2e:	e16ff0ef          	jal	10000444 <vListInitialiseItem>
10000e32:	479d                	li	a5,7
10000e34:	417787b3          	sub	a5,a5,s7
10000e38:	c884                	sw	s1,16(s1)
10000e3a:	cc9c                	sw	a5,24(s1)
10000e3c:	d0c4                	sw	s1,36(s1)
10000e3e:	865a                	mv	a2,s6
10000e40:	85d6                	mv	a1,s5
10000e42:	854a                	mv	a0,s2
10000e44:	4b7000ef          	jal	10001afa <pxPortInitialiseStack>
10000e48:	c088                	sw	a0,0(s1)
10000e4a:	000a0463          	beqz	s4,10000e52 <xTaskCreate+0xc4>
10000e4e:	009a2023          	sw	s1,0(s4)
10000e52:	30047073          	csrci	mstatus,8
10000e56:	8b418713          	addi	a4,gp,-1868 # 100120f4 <uxCurrentNumberOfTasks>
10000e5a:	431c                	lw	a5,0(a4)
10000e5c:	87418913          	addi	s2,gp,-1932 # 100120b4 <xCriticalNesting>
10000e60:	00092603          	lw	a2,0(s2)
10000e64:	0785                	addi	a5,a5,1
10000e66:	c31c                	sw	a5,0(a4)
10000e68:	8c418a13          	addi	s4,gp,-1852 # 10012104 <pxCurrentTCB>
10000e6c:	000a2783          	lw	a5,0(s4)
10000e70:	00160693          	addi	a3,a2,1
10000e74:	00d92023          	sw	a3,0(s2)
10000e78:	cfdd                	beqz	a5,10000f36 <xTaskCreate+0x1a8>
10000e7a:	8a818e13          	addi	t3,gp,-1880 # 100120e8 <xSchedulerRunning>
10000e7e:	000e2783          	lw	a5,0(t3)
10000e82:	54d4                	lw	a3,44(s1)
10000e84:	9c418413          	addi	s0,gp,-1596 # 10012204 <pxReadyTasksLists>
10000e88:	cfc9                	beqz	a5,10000f22 <xTaskCreate+0x194>
10000e8a:	00269793          	slli	a5,a3,0x2
10000e8e:	97b6                	add	a5,a5,a3
10000e90:	078a                	slli	a5,a5,0x2
10000e92:	97a2                	add	a5,a5,s0
10000e94:	43d8                	lw	a4,4(a5)
10000e96:	89818893          	addi	a7,gp,-1896 # 100120d8 <uxTaskNumber>
10000e9a:	8ac18813          	addi	a6,gp,-1876 # 100120ec <uxTopReadyPriority>
10000e9e:	00872303          	lw	t1,8(a4)
10000ea2:	c498                	sw	a4,8(s1)
10000ea4:	438c                	lw	a1,0(a5)
10000ea6:	0064a623          	sw	t1,12(s1)
10000eaa:	01332223          	sw	s3,4(t1)
10000eae:	0008a503          	lw	a0,0(a7)
10000eb2:	00082e83          	lw	t4,0(a6)
10000eb6:	01372423          	sw	s3,8(a4)
10000eba:	4705                	li	a4,1
10000ebc:	00d71733          	sll	a4,a4,a3
10000ec0:	0505                	addi	a0,a0,1
10000ec2:	01d76733          	or	a4,a4,t4
10000ec6:	c8dc                	sw	a5,20(s1)
10000ec8:	00158693          	addi	a3,a1,1
10000ecc:	00a8a023          	sw	a0,0(a7)
10000ed0:	00e82023          	sw	a4,0(a6)
10000ed4:	c394                	sw	a3,0(a5)
10000ed6:	00c92023          	sw	a2,0(s2)
10000eda:	e219                	bnez	a2,10000ee0 <xTaskCreate+0x152>
10000edc:	30046073          	csrsi	mstatus,8
10000ee0:	000e2783          	lw	a5,0(t3)
10000ee4:	ef99                	bnez	a5,10000f02 <xTaskCreate+0x174>
10000ee6:	5492                	lw	s1,36(sp)
10000ee8:	49f2                	lw	s3,28(sp)
10000eea:	4505                	li	a0,1
10000eec:	50b2                	lw	ra,44(sp)
10000eee:	5422                	lw	s0,40(sp)
10000ef0:	5902                	lw	s2,32(sp)
10000ef2:	4a62                	lw	s4,24(sp)
10000ef4:	4ad2                	lw	s5,20(sp)
10000ef6:	4b42                	lw	s6,16(sp)
10000ef8:	4bb2                	lw	s7,12(sp)
10000efa:	6145                	addi	sp,sp,48
10000efc:	8082                	ret
10000efe:	4b99                	li	s7,6
10000f00:	bf21                	j	10000e18 <xTaskCreate+0x8a>
10000f02:	000a2703          	lw	a4,0(s4)
10000f06:	54dc                	lw	a5,44(s1)
10000f08:	5758                	lw	a4,44(a4)
10000f0a:	fcf77ee3          	bgeu	a4,a5,10000ee6 <xTaskCreate+0x158>
10000f0e:	00000073          	ecall
10000f12:	bfd1                	j	10000ee6 <xTaskCreate+0x158>
10000f14:	854e                	mv	a0,s3
10000f16:	2c5000ef          	jal	100019da <vPortFree>
10000f1a:	5492                	lw	s1,36(sp)
10000f1c:	49f2                	lw	s3,28(sp)
10000f1e:	557d                	li	a0,-1
10000f20:	b7f1                	j	10000eec <xTaskCreate+0x15e>
10000f22:	000a2783          	lw	a5,0(s4)
10000f26:	9c418413          	addi	s0,gp,-1596 # 10012204 <pxReadyTasksLists>
10000f2a:	57dc                	lw	a5,44(a5)
10000f2c:	f4f6efe3          	bltu	a3,a5,10000e8a <xTaskCreate+0xfc>
10000f30:	009a2023          	sw	s1,0(s4)
10000f34:	bf99                	j	10000e8a <xTaskCreate+0xfc>
10000f36:	009a2023          	sw	s1,0(s4)
10000f3a:	4318                	lw	a4,0(a4)
10000f3c:	4785                	li	a5,1
10000f3e:	00f70863          	beq	a4,a5,10000f4e <xTaskCreate+0x1c0>
10000f42:	54d4                	lw	a3,44(s1)
10000f44:	9c418413          	addi	s0,gp,-1596 # 10012204 <pxReadyTasksLists>
10000f48:	8a818e13          	addi	t3,gp,-1880 # 100120e8 <xSchedulerRunning>
10000f4c:	bf3d                	j	10000e8a <xTaskCreate+0xfc>
10000f4e:	9c418413          	addi	s0,gp,-1596 # 10012204 <pxReadyTasksLists>
10000f52:	8aa2                	mv	s5,s0
10000f54:	a5018b13          	addi	s6,gp,-1456 # 10012290 <xActiveTimerList2>
10000f58:	8556                	mv	a0,s5
10000f5a:	0ad1                	addi	s5,s5,20
10000f5c:	cd4ff0ef          	jal	10000430 <vListInitialise>
10000f60:	ff5b1ce3          	bne	s6,s5,10000f58 <xTaskCreate+0x1ca>
10000f64:	9b018513          	addi	a0,gp,-1616 # 100121f0 <xDelayedTaskList1>
10000f68:	cc8ff0ef          	jal	10000430 <vListInitialise>
10000f6c:	99c18513          	addi	a0,gp,-1636 # 100121dc <xDelayedTaskList2>
10000f70:	cc0ff0ef          	jal	10000430 <vListInitialise>
10000f74:	98818513          	addi	a0,gp,-1656 # 100121c8 <xPendingReadyList>
10000f78:	cb8ff0ef          	jal	10000430 <vListInitialise>
10000f7c:	97418513          	addi	a0,gp,-1676 # 100121b4 <xTasksWaitingTermination>
10000f80:	cb0ff0ef          	jal	10000430 <vListInitialise>
10000f84:	96018513          	addi	a0,gp,-1696 # 100121a0 <xSuspendedTaskList>
10000f88:	ca8ff0ef          	jal	10000430 <vListInitialise>
10000f8c:	00092603          	lw	a2,0(s2)
10000f90:	9b018793          	addi	a5,gp,-1616 # 100121f0 <xDelayedTaskList1>
10000f94:	8cf1a023          	sw	a5,-1856(gp) # 10012100 <pxDelayedTaskList>
10000f98:	99c18793          	addi	a5,gp,-1636 # 100121dc <xDelayedTaskList2>
10000f9c:	54d4                	lw	a3,44(s1)
10000f9e:	8af1ae23          	sw	a5,-1860(gp) # 100120fc <pxOverflowDelayedTaskList>
10000fa2:	167d                	addi	a2,a2,-1
10000fa4:	8a818e13          	addi	t3,gp,-1880 # 100120e8 <xSchedulerRunning>
10000fa8:	b5cd                	j	10000e8a <xTaskCreate+0xfc>

10000faa <vTaskStartScheduler>:
10000faa:	1101                	addi	sp,sp,-32
10000fac:	454c4837          	lui	a6,0x454c4
10000fb0:	44980813          	addi	a6,a6,1097 # 454c4449 <_sp+0x354a6d6d>
10000fb4:	89018793          	addi	a5,gp,-1904 # 100120d0 <xIdleTaskHandles>
10000fb8:	4701                	li	a4,0
10000fba:	4681                	li	a3,0
10000fbc:	20000613          	li	a2,512
10000fc0:	858a                	mv	a1,sp
10000fc2:	00000517          	auipc	a0,0x0
10000fc6:	c4650513          	addi	a0,a0,-954 # 10000c08 <prvIdleTask>
10000fca:	ce06                	sw	ra,28(sp)
10000fcc:	c042                	sw	a6,0(sp)
10000fce:	00010223          	sb	zero,4(sp)
10000fd2:	3b75                	jal	10000d8e <xTaskCreate>
10000fd4:	c519                	beqz	a0,10000fe2 <vTaskStartScheduler+0x38>
10000fd6:	cc22                	sw	s0,24(sp)
10000fd8:	4785                	li	a5,1
10000fda:	842a                	mv	s0,a0
10000fdc:	00f50863          	beq	a0,a5,10000fec <vTaskStartScheduler+0x42>
10000fe0:	4462                	lw	s0,24(sp)
10000fe2:	40f2                	lw	ra,28(sp)
10000fe4:	8601a783          	lw	a5,-1952(gp) # 100120a0 <uxTopUsedPriority>
10000fe8:	6105                	addi	sp,sp,32
10000fea:	8082                	ret
10000fec:	06f000ef          	jal	1000185a <xTimerCreateTimerTask>
10000ff0:	fe8518e3          	bne	a0,s0,10000fe0 <vTaskStartScheduler+0x36>
10000ff4:	30047073          	csrci	mstatus,8
10000ff8:	57fd                	li	a5,-1
10000ffa:	88f1aa23          	sw	a5,-1900(gp) # 100120d4 <xNextTaskUnblockTime>
10000ffe:	8aa1a423          	sw	a0,-1880(gp) # 100120e8 <xSchedulerRunning>
10001002:	8a01a823          	sw	zero,-1872(gp) # 100120f0 <xTickCount>
10001006:	2db000ef          	jal	10001ae0 <xPortStartScheduler>
1000100a:	4462                	lw	s0,24(sp)
1000100c:	bfd9                	j	10000fe2 <vTaskStartScheduler+0x38>

1000100e <vTaskSuspendAll>:
1000100e:	88c18713          	addi	a4,gp,-1908 # 100120cc <uxSchedulerSuspended>
10001012:	431c                	lw	a5,0(a4)
10001014:	0785                	addi	a5,a5,1
10001016:	c31c                	sw	a5,0(a4)
10001018:	8082                	ret

1000101a <xTaskResumeAll>:
1000101a:	1101                	addi	sp,sp,-32
1000101c:	ce06                	sw	ra,28(sp)
1000101e:	ca26                	sw	s1,20(sp)
10001020:	c84a                	sw	s2,16(sp)
10001022:	30047073          	csrci	mstatus,8
10001026:	88c18493          	addi	s1,gp,-1908 # 100120cc <uxSchedulerSuspended>
1000102a:	4098                	lw	a4,0(s1)
1000102c:	87418913          	addi	s2,gp,-1932 # 100120b4 <xCriticalNesting>
10001030:	00092783          	lw	a5,0(s2)
10001034:	177d                	addi	a4,a4,-1
10001036:	c098                	sw	a4,0(s1)
10001038:	4098                	lw	a4,0(s1)
1000103a:	00178693          	addi	a3,a5,1
1000103e:	00d92023          	sw	a3,0(s2)
10001042:	4501                	li	a0,0
10001044:	0e071563          	bnez	a4,1000112e <xTaskResumeAll+0x114>
10001048:	8b41a703          	lw	a4,-1868(gp) # 100120f4 <uxCurrentNumberOfTasks>
1000104c:	0e070163          	beqz	a4,1000112e <xTaskResumeAll+0x114>
10001050:	98818313          	addi	t1,gp,-1656 # 100121c8 <xPendingReadyList>
10001054:	00032783          	lw	a5,0(t1)
10001058:	cc22                	sw	s0,24(sp)
1000105a:	c64e                	sw	s3,12(sp)
1000105c:	c452                	sw	s4,8(sp)
1000105e:	8a018413          	addi	s0,gp,-1888 # 100120e0 <xYieldPendings>
10001062:	0e078c63          	beqz	a5,1000115a <xTaskResumeAll+0x140>
10001066:	8ac18e13          	addi	t3,gp,-1876 # 100120ec <uxTopReadyPriority>
1000106a:	9c418f93          	addi	t6,gp,-1596 # 10012204 <pxReadyTasksLists>
1000106e:	8c418f13          	addi	t5,gp,-1852 # 10012104 <pxCurrentTCB>
10001072:	8a018413          	addi	s0,gp,-1888 # 100120e0 <xYieldPendings>
10001076:	4e85                	li	t4,1
10001078:	a8a5                	j	100010f0 <xTaskResumeAll+0xd6>
1000107a:	4314                	lw	a3,0(a4)
1000107c:	0207a423          	sw	zero,40(a5)
10001080:	16fd                	addi	a3,a3,-1
10001082:	c314                	sw	a3,0(a4)
10001084:	4bd0                	lw	a2,20(a5)
10001086:	4794                	lw	a3,8(a5)
10001088:	47d8                	lw	a4,12(a5)
1000108a:	424c                	lw	a1,4(a2)
1000108c:	000e2283          	lw	t0,0(t3)
10001090:	c698                	sw	a4,8(a3)
10001092:	00478513          	addi	a0,a5,4
10001096:	c354                	sw	a3,4(a4)
10001098:	0aa58563          	beq	a1,a0,10001142 <xTaskResumeAll+0x128>
1000109c:	57d4                	lw	a3,44(a5)
1000109e:	00062803          	lw	a6,0(a2)
100010a2:	00269713          	slli	a4,a3,0x2
100010a6:	9736                	add	a4,a4,a3
100010a8:	070a                	slli	a4,a4,0x2
100010aa:	977e                	add	a4,a4,t6
100010ac:	434c                	lw	a1,4(a4)
100010ae:	00de98b3          	sll	a7,t4,a3
100010b2:	0058e8b3          	or	a7,a7,t0
100010b6:	0085a283          	lw	t0,8(a1)
100010ba:	187d                	addi	a6,a6,-1
100010bc:	011e2023          	sw	a7,0(t3)
100010c0:	01062023          	sw	a6,0(a2)
100010c4:	000f2803          	lw	a6,0(t5)
100010c8:	4310                	lw	a2,0(a4)
100010ca:	c78c                	sw	a1,8(a5)
100010cc:	0057a623          	sw	t0,12(a5)
100010d0:	00a2a223          	sw	a0,4(t0)
100010d4:	c588                	sw	a0,8(a1)
100010d6:	02c82583          	lw	a1,44(a6)
100010da:	cbd8                	sw	a4,20(a5)
100010dc:	00160793          	addi	a5,a2,1
100010e0:	c31c                	sw	a5,0(a4)
100010e2:	00d5f463          	bgeu	a1,a3,100010ea <xTaskResumeAll+0xd0>
100010e6:	01d42023          	sw	t4,0(s0)
100010ea:	00032783          	lw	a5,0(t1)
100010ee:	cfa1                	beqz	a5,10001146 <xTaskResumeAll+0x12c>
100010f0:	00c32783          	lw	a5,12(t1)
100010f4:	47dc                	lw	a5,12(a5)
100010f6:	5798                	lw	a4,40(a5)
100010f8:	4fd0                	lw	a2,28(a5)
100010fa:	5394                	lw	a3,32(a5)
100010fc:	4348                	lw	a0,4(a4)
100010fe:	01878593          	addi	a1,a5,24
10001102:	c614                	sw	a3,8(a2)
10001104:	c2d0                	sw	a2,4(a3)
10001106:	f6b51ae3          	bne	a0,a1,1000107a <xTaskResumeAll+0x60>
1000110a:	c354                	sw	a3,4(a4)
1000110c:	b7bd                	j	1000107a <xTaskResumeAll+0x60>
1000110e:	4a92                	lw	s5,4(sp)
10001110:	8a01a223          	sw	zero,-1884(gp) # 100120e4 <xPendedTicks>
10001114:	4008                	lw	a0,0(s0)
10001116:	cd2d                	beqz	a0,10001190 <xTaskResumeAll+0x176>
10001118:	8c41a783          	lw	a5,-1852(gp) # 10012104 <pxCurrentTCB>
1000111c:	00000073          	ecall
10001120:	00092783          	lw	a5,0(s2)
10001124:	4462                	lw	s0,24(sp)
10001126:	49b2                	lw	s3,12(sp)
10001128:	4a22                	lw	s4,8(sp)
1000112a:	4505                	li	a0,1
1000112c:	17fd                	addi	a5,a5,-1
1000112e:	00f92023          	sw	a5,0(s2)
10001132:	e399                	bnez	a5,10001138 <xTaskResumeAll+0x11e>
10001134:	30046073          	csrsi	mstatus,8
10001138:	40f2                	lw	ra,28(sp)
1000113a:	44d2                	lw	s1,20(sp)
1000113c:	4942                	lw	s2,16(sp)
1000113e:	6105                	addi	sp,sp,32
10001140:	8082                	ret
10001142:	c258                	sw	a4,4(a2)
10001144:	bfa1                	j	1000109c <xTaskResumeAll+0x82>
10001146:	8c018793          	addi	a5,gp,-1856 # 10012100 <pxDelayedTaskList>
1000114a:	4398                	lw	a4,0(a5)
1000114c:	4318                	lw	a4,0(a4)
1000114e:	cb21                	beqz	a4,1000119e <xTaskResumeAll+0x184>
10001150:	439c                	lw	a5,0(a5)
10001152:	47dc                	lw	a5,12(a5)
10001154:	439c                	lw	a5,0(a5)
10001156:	88f1aa23          	sw	a5,-1900(gp) # 100120d4 <xNextTaskUnblockTime>
1000115a:	8a418a13          	addi	s4,gp,-1884 # 100120e4 <xPendedTicks>
1000115e:	000a2983          	lw	s3,0(s4)
10001162:	fa0989e3          	beqz	s3,10001114 <xTaskResumeAll+0xfa>
10001166:	c256                	sw	s5,4(sp)
10001168:	4a85                	li	s5,1
1000116a:	a809                	j	1000117c <xTaskResumeAll+0x162>
1000116c:	aa5ff0ef          	jal	10000c10 <xTaskIncrementTick.part.0>
10001170:	c119                	beqz	a0,10001176 <xTaskResumeAll+0x15c>
10001172:	01542023          	sw	s5,0(s0)
10001176:	19fd                	addi	s3,s3,-1
10001178:	f8098be3          	beqz	s3,1000110e <xTaskResumeAll+0xf4>
1000117c:	409c                	lw	a5,0(s1)
1000117e:	d7fd                	beqz	a5,1000116c <xTaskResumeAll+0x152>
10001180:	000a2783          	lw	a5,0(s4)
10001184:	0785                	addi	a5,a5,1
10001186:	00fa2023          	sw	a5,0(s4)
1000118a:	8d2ff0ef          	jal	1000025c <vApplicationTickHook>
1000118e:	b7e5                	j	10001176 <xTaskResumeAll+0x15c>
10001190:	00092783          	lw	a5,0(s2)
10001194:	4462                	lw	s0,24(sp)
10001196:	49b2                	lw	s3,12(sp)
10001198:	4a22                	lw	s4,8(sp)
1000119a:	17fd                	addi	a5,a5,-1
1000119c:	bf49                	j	1000112e <xTaskResumeAll+0x114>
1000119e:	57fd                	li	a5,-1
100011a0:	88f1aa23          	sw	a5,-1900(gp) # 100120d4 <xNextTaskUnblockTime>
100011a4:	bf5d                	j	1000115a <xTaskResumeAll+0x140>

100011a6 <xTaskDelayUntil>:
100011a6:	88c18713          	addi	a4,gp,-1908 # 100120cc <uxSchedulerSuspended>
100011aa:	431c                	lw	a5,0(a4)
100011ac:	1141                	addi	sp,sp,-16
100011ae:	c606                	sw	ra,12(sp)
100011b0:	c422                	sw	s0,8(sp)
100011b2:	0785                	addi	a5,a5,1
100011b4:	c31c                	sw	a5,0(a4)
100011b6:	4118                	lw	a4,0(a0)
100011b8:	8b01a683          	lw	a3,-1872(gp) # 100120f0 <xTickCount>
100011bc:	00b707b3          	add	a5,a4,a1
100011c0:	00e7b633          	sltu	a2,a5,a4
100011c4:	00e6fe63          	bgeu	a3,a4,100011e0 <xTaskDelayUntil+0x3a>
100011c8:	ee09                	bnez	a2,100011e2 <xTaskDelayUntil+0x3c>
100011ca:	c11c                	sw	a5,0(a0)
100011cc:	4401                	li	s0,0
100011ce:	35b1                	jal	1000101a <xTaskResumeAll>
100011d0:	e119                	bnez	a0,100011d6 <xTaskDelayUntil+0x30>
100011d2:	00000073          	ecall
100011d6:	40b2                	lw	ra,12(sp)
100011d8:	8522                	mv	a0,s0
100011da:	4422                	lw	s0,8(sp)
100011dc:	0141                	addi	sp,sp,16
100011de:	8082                	ret
100011e0:	e219                	bnez	a2,100011e6 <xTaskDelayUntil+0x40>
100011e2:	fef6f4e3          	bgeu	a3,a5,100011ca <xTaskDelayUntil+0x24>
100011e6:	c11c                	sw	a5,0(a0)
100011e8:	4581                	li	a1,0
100011ea:	40d78533          	sub	a0,a5,a3
100011ee:	8adff0ef          	jal	10000a9a <prvAddCurrentTaskToDelayedList>
100011f2:	4405                	li	s0,1
100011f4:	bfe9                	j	100011ce <xTaskDelayUntil+0x28>

100011f6 <xTaskGetTickCount>:
100011f6:	8b01a503          	lw	a0,-1872(gp) # 100120f0 <xTickCount>
100011fa:	8082                	ret

100011fc <pcTaskGetName>:
100011fc:	c501                	beqz	a0,10001204 <pcTaskGetName+0x8>
100011fe:	03450513          	addi	a0,a0,52
10001202:	8082                	ret
10001204:	8c41a503          	lw	a0,-1852(gp) # 10012104 <pxCurrentTCB>
10001208:	03450513          	addi	a0,a0,52
1000120c:	8082                	ret

1000120e <xTaskIncrementTick>:
1000120e:	88c1a783          	lw	a5,-1908(gp) # 100120cc <uxSchedulerSuspended>
10001212:	e399                	bnez	a5,10001218 <xTaskIncrementTick+0xa>
10001214:	9fdff06f          	j	10000c10 <xTaskIncrementTick.part.0>
10001218:	8a418713          	addi	a4,gp,-1884 # 100120e4 <xPendedTicks>
1000121c:	431c                	lw	a5,0(a4)
1000121e:	1141                	addi	sp,sp,-16
10001220:	c606                	sw	ra,12(sp)
10001222:	0785                	addi	a5,a5,1
10001224:	c31c                	sw	a5,0(a4)
10001226:	836ff0ef          	jal	1000025c <vApplicationTickHook>
1000122a:	40b2                	lw	ra,12(sp)
1000122c:	4501                	li	a0,0
1000122e:	0141                	addi	sp,sp,16
10001230:	8082                	ret

10001232 <vTaskSwitchContext>:
10001232:	88c1a783          	lw	a5,-1908(gp) # 100120cc <uxSchedulerSuspended>
10001236:	c789                	beqz	a5,10001240 <vTaskSwitchContext+0xe>
10001238:	4785                	li	a5,1
1000123a:	8af1a023          	sw	a5,-1888(gp) # 100120e0 <xYieldPendings>
1000123e:	8082                	ret
10001240:	1141                	addi	sp,sp,-16
10001242:	8a01a023          	sw	zero,-1888(gp) # 100120e0 <xYieldPendings>
10001246:	c422                	sw	s0,8(sp)
10001248:	8c418413          	addi	s0,gp,-1852 # 10012104 <pxCurrentTCB>
1000124c:	4018                	lw	a4,0(s0)
1000124e:	a5a5a7b7          	lui	a5,0xa5a5a
10001252:	c606                	sw	ra,12(sp)
10001254:	5b18                	lw	a4,48(a4)
10001256:	5a578793          	addi	a5,a5,1445 # a5a5a5a5 <_sp+0x95a3cec9>
1000125a:	4314                	lw	a3,0(a4)
1000125c:	00f69563          	bne	a3,a5,10001266 <vTaskSwitchContext+0x34>
10001260:	435c                	lw	a5,4(a4)
10001262:	04d78463          	beq	a5,a3,100012aa <vTaskSwitchContext+0x78>
10001266:	400c                	lw	a1,0(s0)
10001268:	4008                	lw	a0,0(s0)
1000126a:	03458593          	addi	a1,a1,52
1000126e:	fe9fe0ef          	jal	10000256 <vApplicationStackOverflowHook>
10001272:	8ac1a503          	lw	a0,-1876(gp) # 100120ec <uxTopReadyPriority>
10001276:	457000ef          	jal	10001ecc <__clzsi2>
1000127a:	47fd                	li	a5,31
1000127c:	8f89                	sub	a5,a5,a0
1000127e:	00279513          	slli	a0,a5,0x2
10001282:	953e                	add	a0,a0,a5
10001284:	050a                	slli	a0,a0,0x2
10001286:	9c418793          	addi	a5,gp,-1596 # 10012204 <pxReadyTasksLists>
1000128a:	00a78733          	add	a4,a5,a0
1000128e:	4354                	lw	a3,4(a4)
10001290:	0521                	addi	a0,a0,8
10001292:	953e                	add	a0,a0,a5
10001294:	42dc                	lw	a5,4(a3)
10001296:	c35c                	sw	a5,4(a4)
10001298:	02a78063          	beq	a5,a0,100012b8 <vTaskSwitchContext+0x86>
1000129c:	47dc                	lw	a5,12(a5)
1000129e:	40b2                	lw	ra,12(sp)
100012a0:	c01c                	sw	a5,0(s0)
100012a2:	401c                	lw	a5,0(s0)
100012a4:	4422                	lw	s0,8(sp)
100012a6:	0141                	addi	sp,sp,16
100012a8:	8082                	ret
100012aa:	4714                	lw	a3,8(a4)
100012ac:	faf69de3          	bne	a3,a5,10001266 <vTaskSwitchContext+0x34>
100012b0:	475c                	lw	a5,12(a4)
100012b2:	fad79ae3          	bne	a5,a3,10001266 <vTaskSwitchContext+0x34>
100012b6:	bf75                	j	10001272 <vTaskSwitchContext+0x40>
100012b8:	475c                	lw	a5,12(a4)
100012ba:	40b2                	lw	ra,12(sp)
100012bc:	c35c                	sw	a5,4(a4)
100012be:	47dc                	lw	a5,12(a5)
100012c0:	c01c                	sw	a5,0(s0)
100012c2:	401c                	lw	a5,0(s0)
100012c4:	4422                	lw	s0,8(sp)
100012c6:	0141                	addi	sp,sp,16
100012c8:	8082                	ret

100012ca <vTaskPlaceOnEventList>:
100012ca:	1141                	addi	sp,sp,-16
100012cc:	8c41a783          	lw	a5,-1852(gp) # 10012104 <pxCurrentTCB>
100012d0:	c422                	sw	s0,8(sp)
100012d2:	842e                	mv	s0,a1
100012d4:	01878593          	addi	a1,a5,24
100012d8:	c606                	sw	ra,12(sp)
100012da:	970ff0ef          	jal	1000044a <vListInsert>
100012de:	8522                	mv	a0,s0
100012e0:	4422                	lw	s0,8(sp)
100012e2:	40b2                	lw	ra,12(sp)
100012e4:	4585                	li	a1,1
100012e6:	0141                	addi	sp,sp,16
100012e8:	fb2ff06f          	j	10000a9a <prvAddCurrentTaskToDelayedList>

100012ec <vTaskPlaceOnEventListRestricted>:
100012ec:	4158                	lw	a4,4(a0)
100012ee:	8c418793          	addi	a5,gp,-1852 # 10012104 <pxCurrentTCB>
100012f2:	0007ae03          	lw	t3,0(a5)
100012f6:	00872883          	lw	a7,8(a4)
100012fa:	0007a303          	lw	t1,0(a5)
100012fe:	0007a803          	lw	a6,0(a5)
10001302:	4394                	lw	a3,0(a5)
10001304:	00ee2e23          	sw	a4,28(t3)
10001308:	03132023          	sw	a7,32(t1)
1000130c:	0861                	addi	a6,a6,24
1000130e:	0007a303          	lw	t1,0(a5)
10001312:	411c                	lw	a5,0(a0)
10001314:	06e1                	addi	a3,a3,24
10001316:	0108a223          	sw	a6,4(a7)
1000131a:	c714                	sw	a3,8(a4)
1000131c:	02a32423          	sw	a0,40(t1)
10001320:	0785                	addi	a5,a5,1
10001322:	c11c                	sw	a5,0(a0)
10001324:	852e                	mv	a0,a1
10001326:	c211                	beqz	a2,1000132a <vTaskPlaceOnEventListRestricted+0x3e>
10001328:	557d                	li	a0,-1
1000132a:	85b2                	mv	a1,a2
1000132c:	f6eff06f          	j	10000a9a <prvAddCurrentTaskToDelayedList>

10001330 <xTaskRemoveFromEventList>:
10001330:	455c                	lw	a5,12(a0)
10001332:	47dc                	lw	a5,12(a5)
10001334:	5798                	lw	a4,40(a5)
10001336:	4fcc                	lw	a1,28(a5)
10001338:	5394                	lw	a3,32(a5)
1000133a:	4348                	lw	a0,4(a4)
1000133c:	01878613          	addi	a2,a5,24
10001340:	c594                	sw	a3,8(a1)
10001342:	c2cc                	sw	a1,4(a3)
10001344:	0ac50663          	beq	a0,a2,100013f0 <xTaskRemoveFromEventList+0xc0>
10001348:	4314                	lw	a3,0(a4)
1000134a:	0207a423          	sw	zero,40(a5)
1000134e:	88c1a583          	lw	a1,-1908(gp) # 100120cc <uxSchedulerSuspended>
10001352:	16fd                	addi	a3,a3,-1
10001354:	c314                	sw	a3,0(a4)
10001356:	57d8                	lw	a4,44(a5)
10001358:	eda5                	bnez	a1,100013d0 <xTaskRemoveFromEventList+0xa0>
1000135a:	4bcc                	lw	a1,20(a5)
1000135c:	4790                	lw	a2,8(a5)
1000135e:	47d4                	lw	a3,12(a5)
10001360:	0045a803          	lw	a6,4(a1)
10001364:	00478513          	addi	a0,a5,4
10001368:	c614                	sw	a3,8(a2)
1000136a:	c2d0                	sw	a2,4(a3)
1000136c:	08a80463          	beq	a6,a0,100013f4 <xTaskRemoveFromEventList+0xc4>
10001370:	00271613          	slli	a2,a4,0x2
10001374:	963a                	add	a2,a2,a4
10001376:	060a                	slli	a2,a2,0x2
10001378:	9c418693          	addi	a3,gp,-1596 # 10012204 <pxReadyTasksLists>
1000137c:	96b2                	add	a3,a3,a2
1000137e:	42d0                	lw	a2,4(a3)
10001380:	0005a803          	lw	a6,0(a1)
10001384:	8ac18893          	addi	a7,gp,-1876 # 100120ec <uxTopReadyPriority>
10001388:	00862303          	lw	t1,8(a2)
1000138c:	187d                	addi	a6,a6,-1
1000138e:	0105a023          	sw	a6,0(a1)
10001392:	c790                	sw	a2,8(a5)
10001394:	0067a623          	sw	t1,12(a5)
10001398:	428c                	lw	a1,0(a3)
1000139a:	0008a803          	lw	a6,0(a7)
1000139e:	00a32223          	sw	a0,4(t1)
100013a2:	c608                	sw	a0,8(a2)
100013a4:	4605                	li	a2,1
100013a6:	00e61633          	sll	a2,a2,a4
100013aa:	cbd4                	sw	a3,20(a5)
100013ac:	01066633          	or	a2,a2,a6
100013b0:	00158793          	addi	a5,a1,1
100013b4:	00c8a023          	sw	a2,0(a7)
100013b8:	c29c                	sw	a5,0(a3)
100013ba:	8c41a783          	lw	a5,-1852(gp) # 10012104 <pxCurrentTCB>
100013be:	57dc                	lw	a5,44(a5)
100013c0:	4501                	li	a0,0
100013c2:	00e7f663          	bgeu	a5,a4,100013ce <xTaskRemoveFromEventList+0x9e>
100013c6:	4785                	li	a5,1
100013c8:	8af1a023          	sw	a5,-1888(gp) # 100120e0 <xYieldPendings>
100013cc:	4505                	li	a0,1
100013ce:	8082                	ret
100013d0:	98818693          	addi	a3,gp,-1656 # 100121c8 <xPendingReadyList>
100013d4:	42c8                	lw	a0,4(a3)
100013d6:	428c                	lw	a1,0(a3)
100013d8:	00852803          	lw	a6,8(a0)
100013dc:	cfc8                	sw	a0,28(a5)
100013de:	0585                	addi	a1,a1,1
100013e0:	0307a023          	sw	a6,32(a5)
100013e4:	00c82223          	sw	a2,4(a6)
100013e8:	c510                	sw	a2,8(a0)
100013ea:	d794                	sw	a3,40(a5)
100013ec:	c28c                	sw	a1,0(a3)
100013ee:	b7f1                	j	100013ba <xTaskRemoveFromEventList+0x8a>
100013f0:	c354                	sw	a3,4(a4)
100013f2:	bf99                	j	10001348 <xTaskRemoveFromEventList+0x18>
100013f4:	c1d4                	sw	a3,4(a1)
100013f6:	bfad                	j	10001370 <xTaskRemoveFromEventList+0x40>

100013f8 <vTaskInternalSetTimeOutState>:
100013f8:	89c1a703          	lw	a4,-1892(gp) # 100120dc <xNumOfOverflows>
100013fc:	8b01a783          	lw	a5,-1872(gp) # 100120f0 <xTickCount>
10001400:	c118                	sw	a4,0(a0)
10001402:	c15c                	sw	a5,4(a0)
10001404:	8082                	ret

10001406 <xTaskCheckForTimeOut>:
10001406:	30047073          	csrci	mstatus,8
1000140a:	8b018613          	addi	a2,gp,-1872 # 100120f0 <xTickCount>
1000140e:	8c418693          	addi	a3,gp,-1852 # 10012104 <pxCurrentTCB>
10001412:	87418713          	addi	a4,gp,-1932 # 100120b4 <xCriticalNesting>
10001416:	00062e03          	lw	t3,0(a2)
1000141a:	0006a803          	lw	a6,0(a3)
1000141e:	431c                	lw	a5,0(a4)
10001420:	00452303          	lw	t1,4(a0)
10001424:	05184803          	lbu	a6,81(a6)
10001428:	00178893          	addi	a7,a5,1
1000142c:	01172023          	sw	a7,0(a4)
10001430:	00080b63          	beqz	a6,10001446 <xTaskCheckForTimeOut+0x40>
10001434:	4294                	lw	a3,0(a3)
10001436:	040688a3          	sb	zero,81(a3)
1000143a:	4505                	li	a0,1
1000143c:	c31c                	sw	a5,0(a4)
1000143e:	e399                	bnez	a5,10001444 <xTaskCheckForTimeOut+0x3e>
10001440:	30046073          	csrsi	mstatus,8
10001444:	8082                	ret
10001446:	4194                	lw	a3,0(a1)
10001448:	587d                	li	a6,-1
1000144a:	03068d63          	beq	a3,a6,10001484 <xTaskCheckForTimeOut+0x7e>
1000144e:	89c18813          	addi	a6,gp,-1892 # 100120dc <xNumOfOverflows>
10001452:	00082883          	lw	a7,0(a6)
10001456:	00052e83          	lw	t4,0(a0)
1000145a:	011e8763          	beq	t4,a7,10001468 <xTaskCheckForTimeOut+0x62>
1000145e:	006e6563          	bltu	t3,t1,10001468 <xTaskCheckForTimeOut+0x62>
10001462:	0005a023          	sw	zero,0(a1)
10001466:	bfd1                	j	1000143a <xTaskCheckForTimeOut+0x34>
10001468:	406e08b3          	sub	a7,t3,t1
1000146c:	fed8fbe3          	bgeu	a7,a3,10001462 <xTaskCheckForTimeOut+0x5c>
10001470:	00082803          	lw	a6,0(a6)
10001474:	41c686b3          	sub	a3,a3,t3
10001478:	4210                	lw	a2,0(a2)
1000147a:	969a                	add	a3,a3,t1
1000147c:	c194                	sw	a3,0(a1)
1000147e:	01052023          	sw	a6,0(a0)
10001482:	c150                	sw	a2,4(a0)
10001484:	4501                	li	a0,0
10001486:	bf5d                	j	1000143c <xTaskCheckForTimeOut+0x36>

10001488 <vTaskMissedYield>:
10001488:	4785                	li	a5,1
1000148a:	8af1a023          	sw	a5,-1888(gp) # 100120e0 <xYieldPendings>
1000148e:	8082                	ret

10001490 <xTaskGetCurrentTaskHandle>:
10001490:	8c41a503          	lw	a0,-1852(gp) # 10012104 <pxCurrentTCB>
10001494:	8082                	ret

10001496 <xTaskPriorityDisinherit>:
10001496:	c115                	beqz	a0,100014ba <xTaskPriorityDisinherit+0x24>
10001498:	453c                	lw	a5,72(a0)
1000149a:	1141                	addi	sp,sp,-16
1000149c:	5554                	lw	a3,44(a0)
1000149e:	4178                	lw	a4,68(a0)
100014a0:	c422                	sw	s0,8(sp)
100014a2:	c606                	sw	ra,12(sp)
100014a4:	17fd                	addi	a5,a5,-1
100014a6:	c53c                	sw	a5,72(a0)
100014a8:	842a                	mv	s0,a0
100014aa:	00e68363          	beq	a3,a4,100014b0 <xTaskPriorityDisinherit+0x1a>
100014ae:	cb81                	beqz	a5,100014be <xTaskPriorityDisinherit+0x28>
100014b0:	40b2                	lw	ra,12(sp)
100014b2:	4422                	lw	s0,8(sp)
100014b4:	4501                	li	a0,0
100014b6:	0141                	addi	sp,sp,16
100014b8:	8082                	ret
100014ba:	4501                	li	a0,0
100014bc:	8082                	ret
100014be:	c226                	sw	s1,4(sp)
100014c0:	00450493          	addi	s1,a0,4
100014c4:	8526                	mv	a0,s1
100014c6:	fb3fe0ef          	jal	10000478 <uxListRemove>
100014ca:	8ac18593          	addi	a1,gp,-1876 # 100120ec <uxTopReadyPriority>
100014ce:	e911                	bnez	a0,100014e2 <xTaskPriorityDisinherit+0x4c>
100014d0:	5454                	lw	a3,44(s0)
100014d2:	4198                	lw	a4,0(a1)
100014d4:	4785                	li	a5,1
100014d6:	00d797b3          	sll	a5,a5,a3
100014da:	fff7c793          	not	a5,a5
100014de:	8ff9                	and	a5,a5,a4
100014e0:	c19c                	sw	a5,0(a1)
100014e2:	4074                	lw	a3,68(s0)
100014e4:	9c418793          	addi	a5,gp,-1596 # 10012204 <pxReadyTasksLists>
100014e8:	461d                	li	a2,7
100014ea:	00269713          	slli	a4,a3,0x2
100014ee:	9736                	add	a4,a4,a3
100014f0:	070a                	slli	a4,a4,0x2
100014f2:	97ba                	add	a5,a5,a4
100014f4:	43d8                	lw	a4,4(a5)
100014f6:	8e15                	sub	a2,a2,a3
100014f8:	d454                	sw	a3,44(s0)
100014fa:	4708                	lw	a0,8(a4)
100014fc:	cc10                	sw	a2,24(s0)
100014fe:	c418                	sw	a4,8(s0)
10001500:	c448                	sw	a0,12(s0)
10001502:	4390                	lw	a2,0(a5)
10001504:	0005a803          	lw	a6,0(a1)
10001508:	c144                	sw	s1,4(a0)
1000150a:	c704                	sw	s1,8(a4)
1000150c:	4705                	li	a4,1
1000150e:	c85c                	sw	a5,20(s0)
10001510:	40b2                	lw	ra,12(sp)
10001512:	4422                	lw	s0,8(sp)
10001514:	00d71733          	sll	a4,a4,a3
10001518:	01076733          	or	a4,a4,a6
1000151c:	00160693          	addi	a3,a2,1
10001520:	c198                	sw	a4,0(a1)
10001522:	c394                	sw	a3,0(a5)
10001524:	4492                	lw	s1,4(sp)
10001526:	4505                	li	a0,1
10001528:	0141                	addi	sp,sp,16
1000152a:	8082                	ret

1000152c <prvCheckForValidListAndQueue>:
1000152c:	1141                	addi	sp,sp,-16
1000152e:	c606                	sw	ra,12(sp)
10001530:	c422                	sw	s0,8(sp)
10001532:	c226                	sw	s1,4(sp)
10001534:	30047073          	csrci	mstatus,8
10001538:	87418413          	addi	s0,gp,-1932 # 100120b4 <xCriticalNesting>
1000153c:	401c                	lw	a5,0(s0)
1000153e:	8d018493          	addi	s1,gp,-1840 # 10012110 <xTimerQueue>
10001542:	4098                	lw	a4,0(s1)
10001544:	00178693          	addi	a3,a5,1
10001548:	c014                	sw	a3,0(s0)
1000154a:	cb11                	beqz	a4,1000155e <prvCheckForValidListAndQueue+0x32>
1000154c:	c01c                	sw	a5,0(s0)
1000154e:	e399                	bnez	a5,10001554 <prvCheckForValidListAndQueue+0x28>
10001550:	30046073          	csrsi	mstatus,8
10001554:	40b2                	lw	ra,12(sp)
10001556:	4422                	lw	s0,8(sp)
10001558:	4492                	lw	s1,4(sp)
1000155a:	0141                	addi	sp,sp,16
1000155c:	8082                	ret
1000155e:	a6418513          	addi	a0,gp,-1436 # 100122a4 <xActiveTimerList1>
10001562:	ecffe0ef          	jal	10000430 <vListInitialise>
10001566:	a5018513          	addi	a0,gp,-1456 # 10012290 <xActiveTimerList2>
1000156a:	ec7fe0ef          	jal	10000430 <vListInitialise>
1000156e:	a6418793          	addi	a5,gp,-1436 # 100122a4 <xActiveTimerList1>
10001572:	8cf1ac23          	sw	a5,-1832(gp) # 10012118 <pxCurrentTimerList>
10001576:	4601                	li	a2,0
10001578:	a5018793          	addi	a5,gp,-1456 # 10012290 <xActiveTimerList2>
1000157c:	45c1                	li	a1,16
1000157e:	4519                	li	a0,6
10001580:	8cf1aa23          	sw	a5,-1836(gp) # 10012114 <pxOverflowTimerList>
10001584:	94cff0ef          	jal	100006d0 <xQueueGenericCreate>
10001588:	c088                	sw	a0,0(s1)
1000158a:	c519                	beqz	a0,10001598 <prvCheckForValidListAndQueue+0x6c>
1000158c:	00010597          	auipc	a1,0x10
10001590:	bf058593          	addi	a1,a1,-1040 # 1001117c <__extenddftf2+0x250>
10001594:	c6eff0ef          	jal	10000a02 <vQueueAddToRegistry>
10001598:	401c                	lw	a5,0(s0)
1000159a:	17fd                	addi	a5,a5,-1
1000159c:	bf45                	j	1000154c <prvCheckForValidListAndQueue+0x20>

1000159e <prvProcessExpiredTimer>:
1000159e:	1101                	addi	sp,sp,-32
100015a0:	c452                	sw	s4,8(sp)
100015a2:	8d818a13          	addi	s4,gp,-1832 # 10012118 <pxCurrentTimerList>
100015a6:	000a2783          	lw	a5,0(s4)
100015aa:	cc22                	sw	s0,24(sp)
100015ac:	c256                	sw	s5,4(sp)
100015ae:	47dc                	lw	a5,12(a5)
100015b0:	ca26                	sw	s1,20(sp)
100015b2:	84aa                	mv	s1,a0
100015b4:	47c0                	lw	s0,12(a5)
100015b6:	c64e                	sw	s3,12(sp)
100015b8:	ce06                	sw	ra,28(sp)
100015ba:	00440a93          	addi	s5,s0,4
100015be:	8556                	mv	a0,s5
100015c0:	89ae                	mv	s3,a1
100015c2:	eb7fe0ef          	jal	10000478 <uxListRemove>
100015c6:	02444783          	lbu	a5,36(s0)
100015ca:	0047f713          	andi	a4,a5,4
100015ce:	ef11                	bnez	a4,100015ea <prvProcessExpiredTimer+0x4c>
100015d0:	9bf9                	andi	a5,a5,-2
100015d2:	02f40223          	sb	a5,36(s0)
100015d6:	501c                	lw	a5,32(s0)
100015d8:	8522                	mv	a0,s0
100015da:	4462                	lw	s0,24(sp)
100015dc:	40f2                	lw	ra,28(sp)
100015de:	44d2                	lw	s1,20(sp)
100015e0:	49b2                	lw	s3,12(sp)
100015e2:	4a22                	lw	s4,8(sp)
100015e4:	4a92                	lw	s5,4(sp)
100015e6:	6105                	addi	sp,sp,32
100015e8:	8782                	jr	a5
100015ea:	c84a                	sw	s2,16(sp)
100015ec:	a031                	j	100015f8 <prvProcessExpiredTimer+0x5a>
100015ee:	02f76c63          	bltu	a4,a5,10001626 <prvProcessExpiredTimer+0x88>
100015f2:	501c                	lw	a5,32(s0)
100015f4:	84ca                	mv	s1,s2
100015f6:	9782                	jalr	a5
100015f8:	4c1c                	lw	a5,24(s0)
100015fa:	c800                	sw	s0,16(s0)
100015fc:	8522                	mv	a0,s0
100015fe:	00f48933          	add	s2,s1,a5
10001602:	01242223          	sw	s2,4(s0)
10001606:	40998733          	sub	a4,s3,s1
1000160a:	009936b3          	sltu	a3,s2,s1
1000160e:	ff29f0e3          	bgeu	s3,s2,100015ee <prvProcessExpiredTimer+0x50>
10001612:	0099f363          	bgeu	s3,s1,10001618 <prvProcessExpiredTimer+0x7a>
10001616:	def1                	beqz	a3,100015f2 <prvProcessExpiredTimer+0x54>
10001618:	000a2503          	lw	a0,0(s4)
1000161c:	85d6                	mv	a1,s5
1000161e:	e2dfe0ef          	jal	1000044a <vListInsert>
10001622:	4942                	lw	s2,16(sp)
10001624:	bf4d                	j	100015d6 <prvProcessExpiredTimer+0x38>
10001626:	85d6                	mv	a1,s5
10001628:	8d41a503          	lw	a0,-1836(gp) # 10012114 <pxOverflowTimerList>
1000162c:	e1ffe0ef          	jal	1000044a <vListInsert>
10001630:	4942                	lw	s2,16(sp)
10001632:	b755                	j	100015d6 <prvProcessExpiredTimer+0x38>

10001634 <prvTimerTask>:
10001634:	7139                	addi	sp,sp,-64
10001636:	da26                	sw	s1,52(sp)
10001638:	d84a                	sw	s2,48(sp)
1000163a:	d64e                	sw	s3,44(sp)
1000163c:	d452                	sw	s4,40(sp)
1000163e:	d256                	sw	s5,36(sp)
10001640:	d05a                	sw	s6,32(sp)
10001642:	de06                	sw	ra,60(sp)
10001644:	dc22                	sw	s0,56(sp)
10001646:	ce5e                	sw	s7,28(sp)
10001648:	cc62                	sw	s8,24(sp)
1000164a:	8d818913          	addi	s2,gp,-1832 # 10012118 <pxCurrentTimerList>
1000164e:	8c818993          	addi	s3,gp,-1848 # 10012108 <xLastTime.0>
10001652:	8d418a93          	addi	s5,gp,-1836 # 10012114 <pxOverflowTimerList>
10001656:	8d018493          	addi	s1,gp,-1840 # 10012110 <xTimerQueue>
1000165a:	00010a17          	auipc	s4,0x10
1000165e:	c3aa0a13          	addi	s4,s4,-966 # 10011294 <__extenddftf2+0x368>
10001662:	4b25                	li	s6,9
10001664:	00092783          	lw	a5,0(s2)
10001668:	0007ab83          	lw	s7,0(a5)
1000166c:	180b8c63          	beqz	s7,10001804 <prvTimerTask+0x1d0>
10001670:	47dc                	lw	a5,12(a5)
10001672:	0007ab83          	lw	s7,0(a5)
10001676:	999ff0ef          	jal	1000100e <vTaskSuspendAll>
1000167a:	b7dff0ef          	jal	100011f6 <xTaskGetTickCount>
1000167e:	0009a783          	lw	a5,0(s3)
10001682:	842a                	mv	s0,a0
10001684:	06f56b63          	bltu	a0,a5,100016fa <prvTimerTask+0xc6>
10001688:	00a9a023          	sw	a0,0(s3)
1000168c:	4601                	li	a2,0
1000168e:	1b757663          	bgeu	a0,s7,1000183a <prvTimerTask+0x206>
10001692:	4088                	lw	a0,0(s1)
10001694:	408b85b3          	sub	a1,s7,s0
10001698:	ba6ff0ef          	jal	10000a3e <vQueueWaitForMessageRestricted>
1000169c:	97fff0ef          	jal	1000101a <xTaskResumeAll>
100016a0:	e119                	bnez	a0,100016a6 <prvTimerTask+0x72>
100016a2:	00000073          	ecall
100016a6:	c002                	sw	zero,0(sp)
100016a8:	c202                	sw	zero,4(sp)
100016aa:	c402                	sw	zero,8(sp)
100016ac:	c602                	sw	zero,12(sp)
100016ae:	4088                	lw	a0,0(s1)
100016b0:	4601                	li	a2,0
100016b2:	858a                	mv	a1,sp
100016b4:	9e0ff0ef          	jal	10000894 <xQueueReceive>
100016b8:	d555                	beqz	a0,10001664 <prvTimerTask+0x30>
100016ba:	4782                	lw	a5,0(sp)
100016bc:	4522                	lw	a0,8(sp)
100016be:	1207cc63          	bltz	a5,100017f6 <prvTimerTask+0x1c2>
100016c2:	4422                	lw	s0,8(sp)
100016c4:	485c                	lw	a5,20(s0)
100016c6:	c789                	beqz	a5,100016d0 <prvTimerTask+0x9c>
100016c8:	00440513          	addi	a0,s0,4
100016cc:	dadfe0ef          	jal	10000478 <uxListRemove>
100016d0:	b27ff0ef          	jal	100011f6 <xTaskGetTickCount>
100016d4:	0009a783          	lw	a5,0(s3)
100016d8:	8baa                	mv	s7,a0
100016da:	04f56363          	bltu	a0,a5,10001720 <prvTimerTask+0xec>
100016de:	4782                	lw	a5,0(sp)
100016e0:	0179a023          	sw	s7,0(s3)
100016e4:	fcfb65e3          	bltu	s6,a5,100016ae <prvTimerTask+0x7a>
100016e8:	078a                	slli	a5,a5,0x2
100016ea:	97d2                	add	a5,a5,s4
100016ec:	439c                	lw	a5,0(a5)
100016ee:	97d2                	add	a5,a5,s4
100016f0:	8782                	jr	a5
100016f2:	47dc                	lw	a5,12(a5)
100016f4:	55fd                	li	a1,-1
100016f6:	4388                	lw	a0,0(a5)
100016f8:	355d                	jal	1000159e <prvProcessExpiredTimer>
100016fa:	00092783          	lw	a5,0(s2)
100016fe:	4398                	lw	a4,0(a5)
10001700:	fb6d                	bnez	a4,100016f2 <prvTimerTask+0xbe>
10001702:	000aa703          	lw	a4,0(s5)
10001706:	0089a023          	sw	s0,0(s3)
1000170a:	00faa023          	sw	a5,0(s5)
1000170e:	00e92023          	sw	a4,0(s2)
10001712:	909ff0ef          	jal	1000101a <xTaskResumeAll>
10001716:	bf41                	j	100016a6 <prvTimerTask+0x72>
10001718:	47dc                	lw	a5,12(a5)
1000171a:	55fd                	li	a1,-1
1000171c:	4388                	lw	a0,0(a5)
1000171e:	3541                	jal	1000159e <prvProcessExpiredTimer>
10001720:	00092783          	lw	a5,0(s2)
10001724:	4398                	lw	a4,0(a5)
10001726:	fb6d                	bnez	a4,10001718 <prvTimerTask+0xe4>
10001728:	000aa703          	lw	a4,0(s5)
1000172c:	00faa023          	sw	a5,0(s5)
10001730:	00e92023          	sw	a4,0(s2)
10001734:	b76d                	j	100016de <prvTimerTask+0xaa>
10001736:	4692                	lw	a3,4(sp)
10001738:	02444603          	lbu	a2,36(s0)
1000173c:	4c18                	lw	a4,24(s0)
1000173e:	c800                	sw	s0,16(s0)
10001740:	00166593          	ori	a1,a2,1
10001744:	00e687b3          	add	a5,a3,a4
10001748:	02b40223          	sb	a1,36(s0)
1000174c:	c05c                	sw	a5,4(s0)
1000174e:	00d7b5b3          	sltu	a1,a5,a3
10001752:	0cfbea63          	bltu	s7,a5,10001826 <prvTimerTask+0x1f2>
10001756:	40db86b3          	sub	a3,s7,a3
1000175a:	06e6e863          	bltu	a3,a4,100017ca <prvTimerTask+0x196>
1000175e:	00467693          	andi	a3,a2,4
10001762:	e28d                	bnez	a3,10001784 <prvTimerTask+0x150>
10001764:	9a79                	andi	a2,a2,-2
10001766:	02c40223          	sb	a2,36(s0)
1000176a:	501c                	lw	a5,32(s0)
1000176c:	8522                	mv	a0,s0
1000176e:	9782                	jalr	a5
10001770:	bf3d                	j	100016ae <prvTimerTask+0x7a>
10001772:	40fb87b3          	sub	a5,s7,a5
10001776:	0ce7eb63          	bltu	a5,a4,1000184c <prvTimerTask+0x218>
1000177a:	501c                	lw	a5,32(s0)
1000177c:	8522                	mv	a0,s0
1000177e:	9782                	jalr	a5
10001780:	4c18                	lw	a4,24(s0)
10001782:	87e2                	mv	a5,s8
10001784:	00e78c33          	add	s8,a5,a4
10001788:	01842223          	sw	s8,4(s0)
1000178c:	c800                	sw	s0,16(s0)
1000178e:	00fc36b3          	sltu	a3,s8,a5
10001792:	ff8bf0e3          	bgeu	s7,s8,10001772 <prvTimerTask+0x13e>
10001796:	00fbf363          	bgeu	s7,a5,1000179c <prvTimerTask+0x168>
1000179a:	d2e5                	beqz	a3,1000177a <prvTimerTask+0x146>
1000179c:	00092503          	lw	a0,0(s2)
100017a0:	00440593          	addi	a1,s0,4
100017a4:	ca7fe0ef          	jal	1000044a <vListInsert>
100017a8:	b7c9                	j	1000176a <prvTimerTask+0x136>
100017aa:	4712                	lw	a4,4(sp)
100017ac:	02444783          	lbu	a5,36(s0)
100017b0:	c800                	sw	s0,16(s0)
100017b2:	017706b3          	add	a3,a4,s7
100017b6:	0017e793          	ori	a5,a5,1
100017ba:	02f40223          	sb	a5,36(s0)
100017be:	cc18                	sw	a4,24(s0)
100017c0:	c054                	sw	a3,4(s0)
100017c2:	06dbe563          	bltu	s7,a3,1000182c <prvTimerTask+0x1f8>
100017c6:	ee0704e3          	beqz	a4,100016ae <prvTimerTask+0x7a>
100017ca:	000aa503          	lw	a0,0(s5)
100017ce:	00440593          	addi	a1,s0,4
100017d2:	c79fe0ef          	jal	1000044a <vListInsert>
100017d6:	bde1                	j	100016ae <prvTimerTask+0x7a>
100017d8:	02444783          	lbu	a5,36(s0)
100017dc:	9bf9                	andi	a5,a5,-2
100017de:	02f40223          	sb	a5,36(s0)
100017e2:	b5f1                	j	100016ae <prvTimerTask+0x7a>
100017e4:	02444783          	lbu	a5,36(s0)
100017e8:	0027f713          	andi	a4,a5,2
100017ec:	cf29                	beqz	a4,10001846 <prvTimerTask+0x212>
100017ee:	9bf9                	andi	a5,a5,-2
100017f0:	02f40223          	sb	a5,36(s0)
100017f4:	bd6d                	j	100016ae <prvTimerTask+0x7a>
100017f6:	4792                	lw	a5,4(sp)
100017f8:	45b2                	lw	a1,12(sp)
100017fa:	9782                	jalr	a5
100017fc:	4782                	lw	a5,0(sp)
100017fe:	ea07c8e3          	bltz	a5,100016ae <prvTimerTask+0x7a>
10001802:	b5c1                	j	100016c2 <prvTimerTask+0x8e>
10001804:	80bff0ef          	jal	1000100e <vTaskSuspendAll>
10001808:	9efff0ef          	jal	100011f6 <xTaskGetTickCount>
1000180c:	0009a783          	lw	a5,0(s3)
10001810:	842a                	mv	s0,a0
10001812:	eef564e3          	bltu	a0,a5,100016fa <prvTimerTask+0xc6>
10001816:	000aa783          	lw	a5,0(s5)
1000181a:	0089a023          	sw	s0,0(s3)
1000181e:	4390                	lw	a2,0(a5)
10001820:	00163613          	seqz	a2,a2
10001824:	b5bd                	j	10001692 <prvTimerTask+0x5e>
10001826:	00dbf363          	bgeu	s7,a3,1000182c <prvTimerTask+0x1f8>
1000182a:	d995                	beqz	a1,1000175e <prvTimerTask+0x12a>
1000182c:	00092503          	lw	a0,0(s2)
10001830:	00440593          	addi	a1,s0,4
10001834:	c17fe0ef          	jal	1000044a <vListInsert>
10001838:	bd9d                	j	100016ae <prvTimerTask+0x7a>
1000183a:	fe0ff0ef          	jal	1000101a <xTaskResumeAll>
1000183e:	85a2                	mv	a1,s0
10001840:	855e                	mv	a0,s7
10001842:	3bb1                	jal	1000159e <prvProcessExpiredTimer>
10001844:	b58d                	j	100016a6 <prvTimerTask+0x72>
10001846:	8522                	mv	a0,s0
10001848:	2a49                	jal	100019da <vPortFree>
1000184a:	b595                	j	100016ae <prvTimerTask+0x7a>
1000184c:	000aa503          	lw	a0,0(s5)
10001850:	00440593          	addi	a1,s0,4
10001854:	bf7fe0ef          	jal	1000044a <vListInsert>
10001858:	bf09                	j	1000176a <prvTimerTask+0x136>

1000185a <xTimerCreateTimerTask>:
1000185a:	1141                	addi	sp,sp,-16
1000185c:	c606                	sw	ra,12(sp)
1000185e:	ccfff0ef          	jal	1000152c <prvCheckForValidListAndQueue>
10001862:	8d01a783          	lw	a5,-1840(gp) # 10012110 <xTimerQueue>
10001866:	c39d                	beqz	a5,1000188c <xTimerCreateTimerTask+0x32>
10001868:	40b2                	lw	ra,12(sp)
1000186a:	8cc18793          	addi	a5,gp,-1844 # 1001210c <xTimerTaskHandle>
1000186e:	4719                	li	a4,6
10001870:	4681                	li	a3,0
10001872:	06e00613          	li	a2,110
10001876:	00010597          	auipc	a1,0x10
1000187a:	90e58593          	addi	a1,a1,-1778 # 10011184 <__extenddftf2+0x258>
1000187e:	00000517          	auipc	a0,0x0
10001882:	db650513          	addi	a0,a0,-586 # 10001634 <prvTimerTask>
10001886:	0141                	addi	sp,sp,16
10001888:	d06ff06f          	j	10000d8e <xTaskCreate>
1000188c:	40b2                	lw	ra,12(sp)
1000188e:	4501                	li	a0,0
10001890:	0141                	addi	sp,sp,16
10001892:	8082                	ret

10001894 <pvPortMalloc>:
10001894:	1141                	addi	sp,sp,-16
10001896:	c606                	sw	ra,12(sp)
10001898:	c422                	sw	s0,8(sp)
1000189a:	c226                	sw	s1,4(sp)
1000189c:	fff50713          	addi	a4,a0,-1
100018a0:	57b9                	li	a5,-18
100018a2:	0ae7e163          	bltu	a5,a4,10001944 <pvPortMalloc+0xb0>
100018a6:	00f57793          	andi	a5,a0,15
100018aa:	01050413          	addi	s0,a0,16
100018ae:	efc5                	bnez	a5,10001966 <pvPortMalloc+0xd2>
100018b0:	f5eff0ef          	jal	1000100e <vTaskSuspendAll>
100018b4:	8ec18513          	addi	a0,gp,-1812 # 1001212c <pxEnd>
100018b8:	411c                	lw	a5,0(a0)
100018ba:	8622                	mv	a2,s0
100018bc:	0c078a63          	beqz	a5,10001990 <pvPortMalloc+0xfc>
100018c0:	08044863          	bltz	s0,10001950 <pvPortMalloc+0xbc>
100018c4:	8e818813          	addi	a6,gp,-1816 # 10012128 <xFreeBytesRemaining>
100018c8:	00082583          	lw	a1,0(a6)
100018cc:	0885e263          	bltu	a1,s0,10001950 <pvPortMalloc+0xbc>
100018d0:	8f018613          	addi	a2,gp,-1808 # 10012130 <xStart>
100018d4:	421c                	lw	a5,0(a2)
100018d6:	a029                	j	100018e0 <pvPortMalloc+0x4c>
100018d8:	4398                	lw	a4,0(a5)
100018da:	c711                	beqz	a4,100018e6 <pvPortMalloc+0x52>
100018dc:	863e                	mv	a2,a5
100018de:	87ba                	mv	a5,a4
100018e0:	43d4                	lw	a3,4(a5)
100018e2:	fe86ebe3          	bltu	a3,s0,100018d8 <pvPortMalloc+0x44>
100018e6:	4118                	lw	a4,0(a0)
100018e8:	06f70463          	beq	a4,a5,10001950 <pvPortMalloc+0xbc>
100018ec:	4398                	lw	a4,0(a5)
100018ee:	4204                	lw	s1,0(a2)
100018f0:	40868533          	sub	a0,a3,s0
100018f4:	c218                	sw	a4,0(a2)
100018f6:	02000893          	li	a7,32
100018fa:	04c1                	addi	s1,s1,16
100018fc:	00a8f863          	bgeu	a7,a0,1000190c <pvPortMalloc+0x78>
10001900:	008786b3          	add	a3,a5,s0
10001904:	c2c8                	sw	a0,4(a3)
10001906:	c298                	sw	a4,0(a3)
10001908:	c214                	sw	a3,0(a2)
1000190a:	86a2                	mv	a3,s0
1000190c:	8e418713          	addi	a4,gp,-1820 # 10012124 <xMinimumEverFreeBytesRemaining>
10001910:	4310                	lw	a2,0(a4)
10001912:	8d95                	sub	a1,a1,a3
10001914:	00b82023          	sw	a1,0(a6)
10001918:	00c5f363          	bgeu	a1,a2,1000191e <pvPortMalloc+0x8a>
1000191c:	c30c                	sw	a1,0(a4)
1000191e:	8e018613          	addi	a2,gp,-1824 # 10012120 <xNumberOfSuccessfulAllocations>
10001922:	4218                	lw	a4,0(a2)
10001924:	800005b7          	lui	a1,0x80000
10001928:	8ecd                	or	a3,a3,a1
1000192a:	0705                	addi	a4,a4,1
1000192c:	c3d4                	sw	a3,4(a5)
1000192e:	0007a023          	sw	zero,0(a5)
10001932:	c218                	sw	a4,0(a2)
10001934:	ee6ff0ef          	jal	1000101a <xTaskResumeAll>
10001938:	40b2                	lw	ra,12(sp)
1000193a:	4422                	lw	s0,8(sp)
1000193c:	8526                	mv	a0,s1
1000193e:	4492                	lw	s1,4(sp)
10001940:	0141                	addi	sp,sp,16
10001942:	8082                	ret
10001944:	ecaff0ef          	jal	1000100e <vTaskSuspendAll>
10001948:	8ec18513          	addi	a0,gp,-1812 # 1001212c <pxEnd>
1000194c:	411c                	lw	a5,0(a0)
1000194e:	cf9d                	beqz	a5,1000198c <pvPortMalloc+0xf8>
10001950:	ecaff0ef          	jal	1000101a <xTaskResumeAll>
10001954:	8fdfe0ef          	jal	10000250 <vApplicationMallocFailedHook>
10001958:	40b2                	lw	ra,12(sp)
1000195a:	4422                	lw	s0,8(sp)
1000195c:	4481                	li	s1,0
1000195e:	8526                	mv	a0,s1
10001960:	4492                	lw	s1,4(sp)
10001962:	0141                	addi	sp,sp,16
10001964:	8082                	ret
10001966:	fef78713          	addi	a4,a5,-17
1000196a:	fc876de3          	bltu	a4,s0,10001944 <pvPortMalloc+0xb0>
1000196e:	02050513          	addi	a0,a0,32
10001972:	40f50433          	sub	s0,a0,a5
10001976:	e98ff0ef          	jal	1000100e <vTaskSuspendAll>
1000197a:	8ec18513          	addi	a0,gp,-1812 # 1001212c <pxEnd>
1000197e:	411c                	lw	a5,0(a0)
10001980:	8622                	mv	a2,s0
10001982:	c799                	beqz	a5,10001990 <pvPortMalloc+0xfc>
10001984:	fc0646e3          	bltz	a2,10001950 <pvPortMalloc+0xbc>
10001988:	fc15                	bnez	s0,100018c4 <pvPortMalloc+0x30>
1000198a:	b7d9                	j	10001950 <pvPortMalloc+0xbc>
1000198c:	4601                	li	a2,0
1000198e:	4401                	li	s0,0
10001990:	00011797          	auipc	a5,0x11
10001994:	92878793          	addi	a5,a5,-1752 # 100122b8 <ucHeap>
10001998:	00f7f713          	andi	a4,a5,15
1000199c:	86be                	mv	a3,a5
1000199e:	c719                	beqz	a4,100019ac <pvPortMalloc+0x118>
100019a0:	00011797          	auipc	a5,0x11
100019a4:	92778793          	addi	a5,a5,-1753 # 100122c7 <ucHeap+0xf>
100019a8:	9bc1                	andi	a5,a5,-16
100019aa:	86be                	mv	a3,a5
100019ac:	00019717          	auipc	a4,0x19
100019b0:	8fc70713          	addi	a4,a4,-1796 # 1001a2a8 <__global_pointer$+0x7a68>
100019b4:	9b41                	andi	a4,a4,-16
100019b6:	00072023          	sw	zero,0(a4)
100019ba:	00072223          	sw	zero,4(a4)
100019be:	40f707b3          	sub	a5,a4,a5
100019c2:	8e01aa23          	sw	zero,-1804(gp) # 10012134 <xStart+0x4>
100019c6:	8ed1a823          	sw	a3,-1808(gp) # 10012130 <xStart>
100019ca:	c118                	sw	a4,0(a0)
100019cc:	c298                	sw	a4,0(a3)
100019ce:	c2dc                	sw	a5,4(a3)
100019d0:	8ef1a223          	sw	a5,-1820(gp) # 10012124 <xMinimumEverFreeBytesRemaining>
100019d4:	8ef1a423          	sw	a5,-1816(gp) # 10012128 <xFreeBytesRemaining>
100019d8:	b775                	j	10001984 <pvPortMalloc+0xf0>

100019da <vPortFree>:
100019da:	c509                	beqz	a0,100019e4 <vPortFree+0xa>
100019dc:	ff452783          	lw	a5,-12(a0)
100019e0:	0007c363          	bltz	a5,100019e6 <vPortFree+0xc>
100019e4:	8082                	ret
100019e6:	ff052703          	lw	a4,-16(a0)
100019ea:	ff6d                	bnez	a4,100019e4 <vPortFree+0xa>
100019ec:	1101                	addi	sp,sp,-32
100019ee:	0786                	slli	a5,a5,0x1
100019f0:	cc22                	sw	s0,24(sp)
100019f2:	8385                	srli	a5,a5,0x1
100019f4:	ce06                	sw	ra,28(sp)
100019f6:	fef52a23          	sw	a5,-12(a0)
100019fa:	ff050413          	addi	s0,a0,-16
100019fe:	c62a                	sw	a0,12(sp)
10001a00:	e0eff0ef          	jal	1000100e <vTaskSuspendAll>
10001a04:	4532                	lw	a0,12(sp)
10001a06:	8e818613          	addi	a2,gp,-1816 # 10012128 <xFreeBytesRemaining>
10001a0a:	4218                	lw	a4,0(a2)
10001a0c:	ff452683          	lw	a3,-12(a0)
10001a10:	8f018793          	addi	a5,gp,-1808 # 10012130 <xStart>
10001a14:	9736                	add	a4,a4,a3
10001a16:	c218                	sw	a4,0(a2)
10001a18:	873e                	mv	a4,a5
10001a1a:	439c                	lw	a5,0(a5)
10001a1c:	fe87eee3          	bltu	a5,s0,10001a18 <vPortFree+0x3e>
10001a20:	4350                	lw	a2,4(a4)
10001a22:	00c705b3          	add	a1,a4,a2
10001a26:	02b40563          	beq	s0,a1,10001a50 <vPortFree+0x76>
10001a2a:	00d40633          	add	a2,s0,a3
10001a2e:	04c78363          	beq	a5,a2,10001a74 <vPortFree+0x9a>
10001a32:	fef52823          	sw	a5,-16(a0)
10001a36:	00870363          	beq	a4,s0,10001a3c <vPortFree+0x62>
10001a3a:	c300                	sw	s0,0(a4)
10001a3c:	8dc18713          	addi	a4,gp,-1828 # 1001211c <xNumberOfSuccessfulFrees>
10001a40:	431c                	lw	a5,0(a4)
10001a42:	4462                	lw	s0,24(sp)
10001a44:	40f2                	lw	ra,28(sp)
10001a46:	0785                	addi	a5,a5,1
10001a48:	c31c                	sw	a5,0(a4)
10001a4a:	6105                	addi	sp,sp,32
10001a4c:	dceff06f          	j	1000101a <xTaskResumeAll>
10001a50:	96b2                	add	a3,a3,a2
10001a52:	c354                	sw	a3,4(a4)
10001a54:	00d70633          	add	a2,a4,a3
10001a58:	fec792e3          	bne	a5,a2,10001a3c <vPortFree+0x62>
10001a5c:	8ec1a603          	lw	a2,-1812(gp) # 1001212c <pxEnd>
10001a60:	843a                	mv	s0,a4
10001a62:	fcc78de3          	beq	a5,a2,10001a3c <vPortFree+0x62>
10001a66:	43d0                	lw	a2,4(a5)
10001a68:	438c                	lw	a1,0(a5)
10001a6a:	00d607b3          	add	a5,a2,a3
10001a6e:	c05c                	sw	a5,4(s0)
10001a70:	c00c                	sw	a1,0(s0)
10001a72:	b7d1                	j	10001a36 <vPortFree+0x5c>
10001a74:	8ec1a603          	lw	a2,-1812(gp) # 1001212c <pxEnd>
10001a78:	fec797e3          	bne	a5,a2,10001a66 <vPortFree+0x8c>
10001a7c:	fef52823          	sw	a5,-16(a0)
10001a80:	bf5d                	j	10001a36 <vPortFree+0x5c>

10001a82 <vPortSetupTimerInterrupt>:
10001a82:	1141                	addi	sp,sp,-16
10001a84:	f14027f3          	csrr	a5,mhartid
10001a88:	c63e                	sw	a5,12(sp)
10001a8a:	4532                	lw	a0,12(sp)
10001a8c:	100007b7          	lui	a5,0x10000
10001a90:	20178793          	addi	a5,a5,513 # 10000201 <_exit+0x1>
10001a94:	953e                	add	a0,a0,a5
10001a96:	050e                	slli	a0,a0,0x3
10001a98:	800017b7          	lui	a5,0x80001
10001a9c:	8ea1ae23          	sw	a0,-1796(gp) # 1001213c <pullMachineTimerCompareRegister>
10001aa0:	800015b7          	lui	a1,0x80001
10001aa4:	0791                	addi	a5,a5,4 # 80001004 <_sp+0x6ffe3928>
10001aa6:	4394                	lw	a3,0(a5)
10001aa8:	4190                	lw	a2,0(a1)
10001aaa:	4398                	lw	a4,0(a5)
10001aac:	fed71de3          	bne	a4,a3,10001aa6 <vPortSetupTimerInterrupt+0x24>
10001ab0:	6689                	lui	a3,0x2
10001ab2:	71068693          	addi	a3,a3,1808 # 2710 <__heap_size+0x1710>
10001ab6:	6795                	lui	a5,0x5
10001ab8:	96b2                	add	a3,a3,a2
10001aba:	e2078793          	addi	a5,a5,-480 # 4e20 <__heap_size+0x3e20>
10001abe:	00c6b5b3          	sltu	a1,a3,a2
10001ac2:	97b2                	add	a5,a5,a2
10001ac4:	c114                	sw	a3,0(a0)
10001ac6:	00e588b3          	add	a7,a1,a4
10001aca:	00c7b633          	sltu	a2,a5,a2
10001ace:	01152223          	sw	a7,4(a0)
10001ad2:	90018693          	addi	a3,gp,-1792 # 10012140 <ullNextTime>
10001ad6:	963a                	add	a2,a2,a4
10001ad8:	c29c                	sw	a5,0(a3)
10001ada:	c2d0                	sw	a2,4(a3)
10001adc:	0141                	addi	sp,sp,16
10001ade:	8082                	ret

10001ae0 <xPortStartScheduler>:
10001ae0:	1141                	addi	sp,sp,-16
10001ae2:	c606                	sw	ra,12(sp)
10001ae4:	3f79                	jal	10001a82 <vPortSetupTimerInterrupt>
10001ae6:	6785                	lui	a5,0x1
10001ae8:	88078793          	addi	a5,a5,-1920 # 880 <__stack_size+0x754>
10001aec:	3047a073          	csrs	mie,a5
10001af0:	20b9                	jal	10001b3e <xPortStartFirstTask>
10001af2:	40b2                	lw	ra,12(sp)
10001af4:	4501                	li	a0,0
10001af6:	0141                	addi	sp,sp,16
10001af8:	8082                	ret

10001afa <pxPortInitialiseStack>:
10001afa:	300022f3          	csrr	t0,mstatus
10001afe:	ff72f293          	andi	t0,t0,-9
10001b02:	18800313          	li	t1,392
10001b06:	0312                	slli	t1,t1,0x4
10001b08:	0062e2b3          	or	t0,t0,t1
10001b0c:	1571                	addi	a0,a0,-4
10001b0e:	00552023          	sw	t0,0(a0)
10001b12:	1571                	addi	a0,a0,-4
10001b14:	00052023          	sw	zero,0(a0)
10001b18:	fa850513          	addi	a0,a0,-88
10001b1c:	c110                	sw	a2,0(a0)
10001b1e:	1521                	addi	a0,a0,-24
10001b20:	8f81a283          	lw	t0,-1800(gp) # 10012138 <xTaskReturnAddress>
10001b24:	00552023          	sw	t0,0(a0)
10001b28:	4281                	li	t0,0

10001b2a <chip_specific_stack_frame>:
10001b2a:	00028763          	beqz	t0,10001b38 <chip_specific_stack_frame+0xe>
10001b2e:	1571                	addi	a0,a0,-4
10001b30:	00052023          	sw	zero,0(a0)
10001b34:	12fd                	addi	t0,t0,-1
10001b36:	bfd5                	j	10001b2a <chip_specific_stack_frame>
10001b38:	1571                	addi	a0,a0,-4
10001b3a:	c10c                	sw	a1,0(a0)
10001b3c:	8082                	ret

10001b3e <xPortStartFirstTask>:
10001b3e:	8c41a103          	lw	sp,-1852(gp) # 10012104 <pxCurrentTCB>
10001b42:	4102                	lw	sp,0(sp)
10001b44:	4082                	lw	ra,0(sp)
10001b46:	43c2                	lw	t2,16(sp)
10001b48:	4452                	lw	s0,20(sp)
10001b4a:	44e2                	lw	s1,24(sp)
10001b4c:	4572                	lw	a0,28(sp)
10001b4e:	5582                	lw	a1,32(sp)
10001b50:	5612                	lw	a2,36(sp)
10001b52:	56a2                	lw	a3,40(sp)
10001b54:	5732                	lw	a4,44(sp)
10001b56:	57c2                	lw	a5,48(sp)
10001b58:	5852                	lw	a6,52(sp)
10001b5a:	58e2                	lw	a7,56(sp)
10001b5c:	5972                	lw	s2,60(sp)
10001b5e:	4986                	lw	s3,64(sp)
10001b60:	4a16                	lw	s4,68(sp)
10001b62:	4aa6                	lw	s5,72(sp)
10001b64:	4b36                	lw	s6,76(sp)
10001b66:	4bc6                	lw	s7,80(sp)
10001b68:	4c56                	lw	s8,84(sp)
10001b6a:	4ce6                	lw	s9,88(sp)
10001b6c:	4d76                	lw	s10,92(sp)
10001b6e:	5d86                	lw	s11,96(sp)
10001b70:	5e16                	lw	t3,100(sp)
10001b72:	5ea6                	lw	t4,104(sp)
10001b74:	5f36                	lw	t5,108(sp)
10001b76:	5fc6                	lw	t6,112(sp)
10001b78:	52d6                	lw	t0,116(sp)
10001b7a:	8701a303          	lw	t1,-1936(gp) # 100120b0 <pxCriticalNesting>
10001b7e:	00532023          	sw	t0,0(t1)
10001b82:	52e6                	lw	t0,120(sp)
10001b84:	02a1                	addi	t0,t0,8
10001b86:	30029073          	csrw	mstatus,t0
10001b8a:	42a2                	lw	t0,8(sp)
10001b8c:	4332                	lw	t1,12(sp)
10001b8e:	07c10113          	addi	sp,sp,124
10001b92:	8082                	ret

10001b94 <freertos_risc_v_application_exception_handler>:
10001b94:	342022f3          	csrr	t0,mcause
10001b98:	34102373          	csrr	t1,mepc
10001b9c:	300023f3          	csrr	t2,mstatus
10001ba0:	a001                	j	10001ba0 <freertos_risc_v_application_exception_handler+0xc>

10001ba2 <freertos_risc_v_application_interrupt_handler>:
10001ba2:	342022f3          	csrr	t0,mcause
10001ba6:	34102373          	csrr	t1,mepc
10001baa:	300023f3          	csrr	t2,mstatus
10001bae:	a001                	j	10001bae <freertos_risc_v_application_interrupt_handler+0xc>

10001bb0 <freertos_risc_v_mtimer_interrupt_handler>:
10001bb0:	f8410113          	addi	sp,sp,-124
10001bb4:	c206                	sw	ra,4(sp)
10001bb6:	c416                	sw	t0,8(sp)
10001bb8:	c61a                	sw	t1,12(sp)
10001bba:	c81e                	sw	t2,16(sp)
10001bbc:	ca22                	sw	s0,20(sp)
10001bbe:	cc26                	sw	s1,24(sp)
10001bc0:	ce2a                	sw	a0,28(sp)
10001bc2:	d02e                	sw	a1,32(sp)
10001bc4:	d232                	sw	a2,36(sp)
10001bc6:	d436                	sw	a3,40(sp)
10001bc8:	d63a                	sw	a4,44(sp)
10001bca:	d83e                	sw	a5,48(sp)
10001bcc:	da42                	sw	a6,52(sp)
10001bce:	dc46                	sw	a7,56(sp)
10001bd0:	de4a                	sw	s2,60(sp)
10001bd2:	c0ce                	sw	s3,64(sp)
10001bd4:	c2d2                	sw	s4,68(sp)
10001bd6:	c4d6                	sw	s5,72(sp)
10001bd8:	c6da                	sw	s6,76(sp)
10001bda:	c8de                	sw	s7,80(sp)
10001bdc:	cae2                	sw	s8,84(sp)
10001bde:	cce6                	sw	s9,88(sp)
10001be0:	ceea                	sw	s10,92(sp)
10001be2:	d0ee                	sw	s11,96(sp)
10001be4:	d2f2                	sw	t3,100(sp)
10001be6:	d4f6                	sw	t4,104(sp)
10001be8:	d6fa                	sw	t5,108(sp)
10001bea:	d8fe                	sw	t6,112(sp)
10001bec:	8741a283          	lw	t0,-1932(gp) # 100120b4 <xCriticalNesting>
10001bf0:	da96                	sw	t0,116(sp)
10001bf2:	300022f3          	csrr	t0,mstatus
10001bf6:	dc96                	sw	t0,120(sp)
10001bf8:	8c41a283          	lw	t0,-1852(gp) # 10012104 <pxCurrentTCB>
10001bfc:	0022a023          	sw	sp,0(t0)
10001c00:	34202573          	csrr	a0,mcause
10001c04:	341025f3          	csrr	a1,mepc
10001c08:	c02e                	sw	a1,0(sp)
10001c0a:	8681a103          	lw	sp,-1944(gp) # 100120a8 <xISRStackTop>
10001c0e:	8fc1a503          	lw	a0,-1796(gp) # 1001213c <pullMachineTimerCompareRegister>
10001c12:	8781a583          	lw	a1,-1928(gp) # 100120b8 <pullNextTime>
10001c16:	577d                	li	a4,-1
10001c18:	4190                	lw	a2,0(a1)
10001c1a:	41d4                	lw	a3,4(a1)
10001c1c:	c118                	sw	a4,0(a0)
10001c1e:	c154                	sw	a3,4(a0)
10001c20:	c110                	sw	a2,0(a0)
10001c22:	8641a283          	lw	t0,-1948(gp) # 100120a4 <uxTimerIncrementsForOneTick>
10001c26:	00c28733          	add	a4,t0,a2
10001c2a:	00c73333          	sltu	t1,a4,a2
10001c2e:	006683b3          	add	t2,a3,t1
10001c32:	c198                	sw	a4,0(a1)
10001c34:	0075a223          	sw	t2,4(a1) # 80001004 <_sp+0x6ffe3928>
10001c38:	dd6ff0ef          	jal	1000120e <xTaskIncrementTick>
10001c3c:	c119                	beqz	a0,10001c42 <exit_without_context_switch>
10001c3e:	df4ff0ef          	jal	10001232 <vTaskSwitchContext>

10001c42 <exit_without_context_switch>:
10001c42:	8c41a303          	lw	t1,-1852(gp) # 10012104 <pxCurrentTCB>
10001c46:	00032103          	lw	sp,0(t1)
10001c4a:	4282                	lw	t0,0(sp)
10001c4c:	34129073          	csrw	mepc,t0
10001c50:	52e6                	lw	t0,120(sp)
10001c52:	30029073          	csrw	mstatus,t0
10001c56:	52d6                	lw	t0,116(sp)
10001c58:	8701a303          	lw	t1,-1936(gp) # 100120b0 <pxCriticalNesting>
10001c5c:	00532023          	sw	t0,0(t1)
10001c60:	4092                	lw	ra,4(sp)
10001c62:	42a2                	lw	t0,8(sp)
10001c64:	4332                	lw	t1,12(sp)
10001c66:	43c2                	lw	t2,16(sp)
10001c68:	4452                	lw	s0,20(sp)
10001c6a:	44e2                	lw	s1,24(sp)
10001c6c:	4572                	lw	a0,28(sp)
10001c6e:	5582                	lw	a1,32(sp)
10001c70:	5612                	lw	a2,36(sp)
10001c72:	56a2                	lw	a3,40(sp)
10001c74:	5732                	lw	a4,44(sp)
10001c76:	57c2                	lw	a5,48(sp)
10001c78:	5852                	lw	a6,52(sp)
10001c7a:	58e2                	lw	a7,56(sp)
10001c7c:	5972                	lw	s2,60(sp)
10001c7e:	4986                	lw	s3,64(sp)
10001c80:	4a16                	lw	s4,68(sp)
10001c82:	4aa6                	lw	s5,72(sp)
10001c84:	4b36                	lw	s6,76(sp)
10001c86:	4bc6                	lw	s7,80(sp)
10001c88:	4c56                	lw	s8,84(sp)
10001c8a:	4ce6                	lw	s9,88(sp)
10001c8c:	4d76                	lw	s10,92(sp)
10001c8e:	5d86                	lw	s11,96(sp)
10001c90:	5e16                	lw	t3,100(sp)
10001c92:	5ea6                	lw	t4,104(sp)
10001c94:	5f36                	lw	t5,108(sp)
10001c96:	5fc6                	lw	t6,112(sp)
10001c98:	07c10113          	addi	sp,sp,124
10001c9c:	30200073          	mret
	...

10001d00 <freertos_risc_v_trap_handler>:
10001d00:	f8410113          	addi	sp,sp,-124
10001d04:	c206                	sw	ra,4(sp)
10001d06:	c416                	sw	t0,8(sp)
10001d08:	c61a                	sw	t1,12(sp)
10001d0a:	c81e                	sw	t2,16(sp)
10001d0c:	ca22                	sw	s0,20(sp)
10001d0e:	cc26                	sw	s1,24(sp)
10001d10:	ce2a                	sw	a0,28(sp)
10001d12:	d02e                	sw	a1,32(sp)
10001d14:	d232                	sw	a2,36(sp)
10001d16:	d436                	sw	a3,40(sp)
10001d18:	d63a                	sw	a4,44(sp)
10001d1a:	d83e                	sw	a5,48(sp)
10001d1c:	da42                	sw	a6,52(sp)
10001d1e:	dc46                	sw	a7,56(sp)
10001d20:	de4a                	sw	s2,60(sp)
10001d22:	c0ce                	sw	s3,64(sp)
10001d24:	c2d2                	sw	s4,68(sp)
10001d26:	c4d6                	sw	s5,72(sp)
10001d28:	c6da                	sw	s6,76(sp)
10001d2a:	c8de                	sw	s7,80(sp)
10001d2c:	cae2                	sw	s8,84(sp)
10001d2e:	cce6                	sw	s9,88(sp)
10001d30:	ceea                	sw	s10,92(sp)
10001d32:	d0ee                	sw	s11,96(sp)
10001d34:	d2f2                	sw	t3,100(sp)
10001d36:	d4f6                	sw	t4,104(sp)
10001d38:	d6fa                	sw	t5,108(sp)
10001d3a:	d8fe                	sw	t6,112(sp)
10001d3c:	8741a283          	lw	t0,-1932(gp) # 100120b4 <xCriticalNesting>
10001d40:	da96                	sw	t0,116(sp)
10001d42:	300022f3          	csrr	t0,mstatus
10001d46:	dc96                	sw	t0,120(sp)
10001d48:	8c41a283          	lw	t0,-1852(gp) # 10012104 <pxCurrentTCB>
10001d4c:	0022a023          	sw	sp,0(t0)
10001d50:	34202573          	csrr	a0,mcause
10001d54:	341025f3          	csrr	a1,mepc
10001d58:	00055663          	bgez	a0,10001d64 <synchronous_exception>

10001d5c <asynchronous_interrupt>:
10001d5c:	c02e                	sw	a1,0(sp)
10001d5e:	8681a103          	lw	sp,-1944(gp) # 100120a8 <xISRStackTop>
10001d62:	a031                	j	10001d6e <handle_interrupt>

10001d64 <synchronous_exception>:
10001d64:	0591                	addi	a1,a1,4
10001d66:	c02e                	sw	a1,0(sp)
10001d68:	8681a103          	lw	sp,-1944(gp) # 100120a8 <xISRStackTop>
10001d6c:	a0a9                	j	10001db6 <handle_exception>

10001d6e <handle_interrupt>:
10001d6e:	4285                	li	t0,1
10001d70:	02fe                	slli	t0,t0,0x1f
10001d72:	00728313          	addi	t1,t0,7
10001d76:	02651d63          	bne	a0,t1,10001db0 <application_interrupt_handler>
10001d7a:	8fc1a503          	lw	a0,-1796(gp) # 1001213c <pullMachineTimerCompareRegister>
10001d7e:	8781a583          	lw	a1,-1928(gp) # 100120b8 <pullNextTime>
10001d82:	577d                	li	a4,-1
10001d84:	4190                	lw	a2,0(a1)
10001d86:	41d4                	lw	a3,4(a1)
10001d88:	c118                	sw	a4,0(a0)
10001d8a:	c154                	sw	a3,4(a0)
10001d8c:	c110                	sw	a2,0(a0)
10001d8e:	8641a283          	lw	t0,-1948(gp) # 100120a4 <uxTimerIncrementsForOneTick>
10001d92:	00c28733          	add	a4,t0,a2
10001d96:	00c73333          	sltu	t1,a4,a2
10001d9a:	006683b3          	add	t2,a3,t1
10001d9e:	c198                	sw	a4,0(a1)
10001da0:	0075a223          	sw	t2,4(a1)
10001da4:	c6aff0ef          	jal	1000120e <xTaskIncrementTick>
10001da8:	c105                	beqz	a0,10001dc8 <processed_source>
10001daa:	c88ff0ef          	jal	10001232 <vTaskSwitchContext>
10001dae:	a829                	j	10001dc8 <processed_source>

10001db0 <application_interrupt_handler>:
10001db0:	df3ff0ef          	jal	10001ba2 <freertos_risc_v_application_interrupt_handler>
10001db4:	a811                	j	10001dc8 <processed_source>

10001db6 <handle_exception>:
10001db6:	42ad                	li	t0,11
10001db8:	00551563          	bne	a0,t0,10001dc2 <application_exception_handler>
10001dbc:	c76ff0ef          	jal	10001232 <vTaskSwitchContext>
10001dc0:	a021                	j	10001dc8 <processed_source>

10001dc2 <application_exception_handler>:
10001dc2:	dd3ff0ef          	jal	10001b94 <freertos_risc_v_application_exception_handler>
10001dc6:	a009                	j	10001dc8 <processed_source>

10001dc8 <processed_source>:
10001dc8:	8c41a303          	lw	t1,-1852(gp) # 10012104 <pxCurrentTCB>
10001dcc:	00032103          	lw	sp,0(t1)
10001dd0:	4282                	lw	t0,0(sp)
10001dd2:	34129073          	csrw	mepc,t0
10001dd6:	52e6                	lw	t0,120(sp)
10001dd8:	30029073          	csrw	mstatus,t0
10001ddc:	52d6                	lw	t0,116(sp)
10001dde:	8701a303          	lw	t1,-1936(gp) # 100120b0 <pxCriticalNesting>
10001de2:	00532023          	sw	t0,0(t1)
10001de6:	4092                	lw	ra,4(sp)
10001de8:	42a2                	lw	t0,8(sp)
10001dea:	4332                	lw	t1,12(sp)
10001dec:	43c2                	lw	t2,16(sp)
10001dee:	4452                	lw	s0,20(sp)
10001df0:	44e2                	lw	s1,24(sp)
10001df2:	4572                	lw	a0,28(sp)
10001df4:	5582                	lw	a1,32(sp)
10001df6:	5612                	lw	a2,36(sp)
10001df8:	56a2                	lw	a3,40(sp)
10001dfa:	5732                	lw	a4,44(sp)
10001dfc:	57c2                	lw	a5,48(sp)
10001dfe:	5852                	lw	a6,52(sp)
10001e00:	58e2                	lw	a7,56(sp)
10001e02:	5972                	lw	s2,60(sp)
10001e04:	4986                	lw	s3,64(sp)
10001e06:	4a16                	lw	s4,68(sp)
10001e08:	4aa6                	lw	s5,72(sp)
10001e0a:	4b36                	lw	s6,76(sp)
10001e0c:	4bc6                	lw	s7,80(sp)
10001e0e:	4c56                	lw	s8,84(sp)
10001e10:	4ce6                	lw	s9,88(sp)
10001e12:	4d76                	lw	s10,92(sp)
10001e14:	5d86                	lw	s11,96(sp)
10001e16:	5e16                	lw	t3,100(sp)
10001e18:	5ea6                	lw	t4,104(sp)
10001e1a:	5f36                	lw	t5,108(sp)
10001e1c:	5fc6                	lw	t6,112(sp)
10001e1e:	07c10113          	addi	sp,sp,124
10001e22:	30200073          	mret
	...

10001ecc <__clzsi2>:
10001ecc:	000107b7          	lui	a5,0x10
10001ed0:	02f57a63          	bgeu	a0,a5,10001f04 <__clzsi2+0x38>
10001ed4:	10053793          	sltiu	a5,a0,256
10001ed8:	0017b793          	seqz	a5,a5
10001edc:	00379793          	slli	a5,a5,0x3
10001ee0:	10011737          	lui	a4,0x10011
10001ee4:	02000693          	li	a3,32
10001ee8:	40f686b3          	sub	a3,a3,a5
10001eec:	00f55533          	srl	a0,a0,a5
10001ef0:	2bc70793          	addi	a5,a4,700 # 100112bc <__clz_tab>
10001ef4:	00a787b3          	add	a5,a5,a0
10001ef8:	0007c503          	lbu	a0,0(a5) # 10000 <__heap_size+0xf000>
10001efc:	40a68533          	sub	a0,a3,a0
10001f00:	00008067          	ret
10001f04:	01000737          	lui	a4,0x1000
10001f08:	01800793          	li	a5,24
10001f0c:	fce57ae3          	bgeu	a0,a4,10001ee0 <__clzsi2+0x14>
10001f10:	01000793          	li	a5,16
10001f14:	fcdff06f          	j	10001ee0 <__clzsi2+0x14>

10001f18 <abort>:
10001f18:	ff010113          	addi	sp,sp,-16
10001f1c:	00600513          	li	a0,6
10001f20:	00112623          	sw	ra,12(sp)
10001f24:	5b0000ef          	jal	100024d4 <raise>
10001f28:	00100513          	li	a0,1
10001f2c:	ad4fe0ef          	jal	10000200 <_exit>

10001f30 <atexit>:
10001f30:	00050593          	mv	a1,a0
10001f34:	00000693          	li	a3,0
10001f38:	00000613          	li	a2,0
10001f3c:	00000513          	li	a0,0
10001f40:	4550006f          	j	10002b94 <__register_exitproc>

10001f44 <stdio_exit_handler>:
10001f44:	10012637          	lui	a2,0x10012
10001f48:	100065b7          	lui	a1,0x10006
10001f4c:	10012537          	lui	a0,0x10012
10001f50:	99860613          	addi	a2,a2,-1640 # 10011998 <__sglue>
10001f54:	1d858593          	addi	a1,a1,472 # 100061d8 <_fclose_r>
10001f58:	9a850513          	addi	a0,a0,-1624 # 100119a8 <_impure_data>
10001f5c:	20c0006f          	j	10002168 <_fwalk_sglue>

10001f60 <cleanup_stdio>:
10001f60:	00452583          	lw	a1,4(a0)
10001f64:	ff010113          	addi	sp,sp,-16
10001f68:	1001c7b7          	lui	a5,0x1001c
10001f6c:	00812423          	sw	s0,8(sp)
10001f70:	00112623          	sw	ra,12(sp)
10001f74:	2c078793          	addi	a5,a5,704 # 1001c2c0 <__sf>
10001f78:	00050413          	mv	s0,a0
10001f7c:	00f58463          	beq	a1,a5,10001f84 <cleanup_stdio+0x24>
10001f80:	258040ef          	jal	100061d8 <_fclose_r>
10001f84:	00842583          	lw	a1,8(s0)
10001f88:	1001c7b7          	lui	a5,0x1001c
10001f8c:	32878793          	addi	a5,a5,808 # 1001c328 <__sf+0x68>
10001f90:	00f58663          	beq	a1,a5,10001f9c <cleanup_stdio+0x3c>
10001f94:	00040513          	mv	a0,s0
10001f98:	240040ef          	jal	100061d8 <_fclose_r>
10001f9c:	00c42583          	lw	a1,12(s0)
10001fa0:	1001c7b7          	lui	a5,0x1001c
10001fa4:	39078793          	addi	a5,a5,912 # 1001c390 <__sf+0xd0>
10001fa8:	00f58c63          	beq	a1,a5,10001fc0 <cleanup_stdio+0x60>
10001fac:	00040513          	mv	a0,s0
10001fb0:	00812403          	lw	s0,8(sp)
10001fb4:	00c12083          	lw	ra,12(sp)
10001fb8:	01010113          	addi	sp,sp,16
10001fbc:	21c0406f          	j	100061d8 <_fclose_r>
10001fc0:	00c12083          	lw	ra,12(sp)
10001fc4:	00812403          	lw	s0,8(sp)
10001fc8:	01010113          	addi	sp,sp,16
10001fcc:	00008067          	ret

10001fd0 <global_stdio_init.part.0>:
10001fd0:	fe010113          	addi	sp,sp,-32
10001fd4:	100027b7          	lui	a5,0x10002
10001fd8:	00812c23          	sw	s0,24(sp)
10001fdc:	f4478793          	addi	a5,a5,-188 # 10001f44 <stdio_exit_handler>
10001fe0:	1001c437          	lui	s0,0x1001c
10001fe4:	1001c537          	lui	a0,0x1001c
10001fe8:	2c040413          	addi	s0,s0,704 # 1001c2c0 <__sf>
10001fec:	00112e23          	sw	ra,28(sp)
10001ff0:	00912a23          	sw	s1,20(sp)
10001ff4:	01212823          	sw	s2,16(sp)
10001ff8:	01312623          	sw	s3,12(sp)
10001ffc:	01412423          	sw	s4,8(sp)
10002000:	90f1a423          	sw	a5,-1784(gp) # 10012148 <__stdio_exit_handler>
10002004:	00800613          	li	a2,8
10002008:	00400793          	li	a5,4
1000200c:	00000593          	li	a1,0
10002010:	31c50513          	addi	a0,a0,796 # 1001c31c <__sf+0x5c>
10002014:	00f42623          	sw	a5,12(s0)
10002018:	00042023          	sw	zero,0(s0)
1000201c:	00042223          	sw	zero,4(s0)
10002020:	00042423          	sw	zero,8(s0)
10002024:	06042223          	sw	zero,100(s0)
10002028:	00042823          	sw	zero,16(s0)
1000202c:	00042a23          	sw	zero,20(s0)
10002030:	00042c23          	sw	zero,24(s0)
10002034:	055000ef          	jal	10002888 <memset>
10002038:	000107b7          	lui	a5,0x10
1000203c:	10002a37          	lui	s4,0x10002
10002040:	100029b7          	lui	s3,0x10002
10002044:	10002937          	lui	s2,0x10002
10002048:	100024b7          	lui	s1,0x10002
1000204c:	1001c537          	lui	a0,0x1001c
10002050:	370a0a13          	addi	s4,s4,880 # 10002370 <__sread>
10002054:	3cc98993          	addi	s3,s3,972 # 100023cc <__swrite>
10002058:	45490913          	addi	s2,s2,1108 # 10002454 <__sseek>
1000205c:	4cc48493          	addi	s1,s1,1228 # 100024cc <__sclose>
10002060:	00978793          	addi	a5,a5,9 # 10009 <__heap_size+0xf009>
10002064:	00800613          	li	a2,8
10002068:	00000593          	li	a1,0
1000206c:	38450513          	addi	a0,a0,900 # 1001c384 <__sf+0xc4>
10002070:	03442023          	sw	s4,32(s0)
10002074:	03342223          	sw	s3,36(s0)
10002078:	03242423          	sw	s2,40(s0)
1000207c:	02942623          	sw	s1,44(s0)
10002080:	06f42a23          	sw	a5,116(s0)
10002084:	00842e23          	sw	s0,28(s0)
10002088:	06042423          	sw	zero,104(s0)
1000208c:	06042623          	sw	zero,108(s0)
10002090:	06042823          	sw	zero,112(s0)
10002094:	0c042623          	sw	zero,204(s0)
10002098:	06042c23          	sw	zero,120(s0)
1000209c:	06042e23          	sw	zero,124(s0)
100020a0:	08042023          	sw	zero,128(s0)
100020a4:	7e4000ef          	jal	10002888 <memset>
100020a8:	000207b7          	lui	a5,0x20
100020ac:	1001c537          	lui	a0,0x1001c
100020b0:	1001c737          	lui	a4,0x1001c
100020b4:	01278793          	addi	a5,a5,18 # 20012 <__heap_size+0x1f012>
100020b8:	32870713          	addi	a4,a4,808 # 1001c328 <__sf+0x68>
100020bc:	00800613          	li	a2,8
100020c0:	00000593          	li	a1,0
100020c4:	3ec50513          	addi	a0,a0,1004 # 1001c3ec <__sf+0x12c>
100020c8:	09442423          	sw	s4,136(s0)
100020cc:	09342623          	sw	s3,140(s0)
100020d0:	09242823          	sw	s2,144(s0)
100020d4:	08942a23          	sw	s1,148(s0)
100020d8:	0cf42e23          	sw	a5,220(s0)
100020dc:	08e42223          	sw	a4,132(s0)
100020e0:	0c042823          	sw	zero,208(s0)
100020e4:	0c042a23          	sw	zero,212(s0)
100020e8:	0c042c23          	sw	zero,216(s0)
100020ec:	12042a23          	sw	zero,308(s0)
100020f0:	0e042023          	sw	zero,224(s0)
100020f4:	0e042223          	sw	zero,228(s0)
100020f8:	0e042423          	sw	zero,232(s0)
100020fc:	78c000ef          	jal	10002888 <memset>
10002100:	1001c7b7          	lui	a5,0x1001c
10002104:	39078793          	addi	a5,a5,912 # 1001c390 <__sf+0xd0>
10002108:	0f442823          	sw	s4,240(s0)
1000210c:	0f342a23          	sw	s3,244(s0)
10002110:	0f242c23          	sw	s2,248(s0)
10002114:	0e942e23          	sw	s1,252(s0)
10002118:	01c12083          	lw	ra,28(sp)
1000211c:	0ef42623          	sw	a5,236(s0)
10002120:	01812403          	lw	s0,24(sp)
10002124:	01412483          	lw	s1,20(sp)
10002128:	01012903          	lw	s2,16(sp)
1000212c:	00c12983          	lw	s3,12(sp)
10002130:	00812a03          	lw	s4,8(sp)
10002134:	02010113          	addi	sp,sp,32
10002138:	00008067          	ret

1000213c <__sinit>:
1000213c:	03452783          	lw	a5,52(a0)
10002140:	00078463          	beqz	a5,10002148 <__sinit+0xc>
10002144:	00008067          	ret
10002148:	9081a703          	lw	a4,-1784(gp) # 10012148 <__stdio_exit_handler>
1000214c:	100027b7          	lui	a5,0x10002
10002150:	f6078793          	addi	a5,a5,-160 # 10001f60 <cleanup_stdio>
10002154:	02f52a23          	sw	a5,52(a0)
10002158:	fe0716e3          	bnez	a4,10002144 <__sinit+0x8>
1000215c:	e75ff06f          	j	10001fd0 <global_stdio_init.part.0>

10002160 <__sfp_lock_acquire>:
10002160:	00008067          	ret

10002164 <__sfp_lock_release>:
10002164:	00008067          	ret

10002168 <_fwalk_sglue>:
10002168:	fd010113          	addi	sp,sp,-48
1000216c:	03212023          	sw	s2,32(sp)
10002170:	01312e23          	sw	s3,28(sp)
10002174:	01412c23          	sw	s4,24(sp)
10002178:	01512a23          	sw	s5,20(sp)
1000217c:	01612823          	sw	s6,16(sp)
10002180:	01712623          	sw	s7,12(sp)
10002184:	02112623          	sw	ra,44(sp)
10002188:	02812423          	sw	s0,40(sp)
1000218c:	02912223          	sw	s1,36(sp)
10002190:	00050b13          	mv	s6,a0
10002194:	00058b93          	mv	s7,a1
10002198:	00060a93          	mv	s5,a2
1000219c:	00000a13          	li	s4,0
100021a0:	00100993          	li	s3,1
100021a4:	fff00913          	li	s2,-1
100021a8:	004aa483          	lw	s1,4(s5)
100021ac:	008aa403          	lw	s0,8(s5)
100021b0:	fff48493          	addi	s1,s1,-1
100021b4:	0204c863          	bltz	s1,100021e4 <_fwalk_sglue+0x7c>
100021b8:	00c45783          	lhu	a5,12(s0)
100021bc:	00f9fe63          	bgeu	s3,a5,100021d8 <_fwalk_sglue+0x70>
100021c0:	00e41783          	lh	a5,14(s0)
100021c4:	00040593          	mv	a1,s0
100021c8:	000b0513          	mv	a0,s6
100021cc:	01278663          	beq	a5,s2,100021d8 <_fwalk_sglue+0x70>
100021d0:	000b80e7          	jalr	s7
100021d4:	00aa6a33          	or	s4,s4,a0
100021d8:	fff48493          	addi	s1,s1,-1
100021dc:	06840413          	addi	s0,s0,104
100021e0:	fd249ce3          	bne	s1,s2,100021b8 <_fwalk_sglue+0x50>
100021e4:	000aaa83          	lw	s5,0(s5)
100021e8:	fc0a90e3          	bnez	s5,100021a8 <_fwalk_sglue+0x40>
100021ec:	02c12083          	lw	ra,44(sp)
100021f0:	02812403          	lw	s0,40(sp)
100021f4:	02412483          	lw	s1,36(sp)
100021f8:	02012903          	lw	s2,32(sp)
100021fc:	01c12983          	lw	s3,28(sp)
10002200:	01412a83          	lw	s5,20(sp)
10002204:	01012b03          	lw	s6,16(sp)
10002208:	00c12b83          	lw	s7,12(sp)
1000220c:	000a0513          	mv	a0,s4
10002210:	01812a03          	lw	s4,24(sp)
10002214:	03010113          	addi	sp,sp,48
10002218:	00008067          	ret

1000221c <_puts_r>:
1000221c:	fc010113          	addi	sp,sp,-64
10002220:	02812c23          	sw	s0,56(sp)
10002224:	00050413          	mv	s0,a0
10002228:	00058513          	mv	a0,a1
1000222c:	02912a23          	sw	s1,52(sp)
10002230:	02112e23          	sw	ra,60(sp)
10002234:	00058493          	mv	s1,a1
10002238:	0d1000ef          	jal	10002b08 <strlen>
1000223c:	100117b7          	lui	a5,0x10011
10002240:	18c78793          	addi	a5,a5,396 # 1001118c <__extenddftf2+0x260>
10002244:	02f12423          	sw	a5,40(sp)
10002248:	00100793          	li	a5,1
1000224c:	02f12623          	sw	a5,44(sp)
10002250:	03442703          	lw	a4,52(s0)
10002254:	02010793          	addi	a5,sp,32
10002258:	00150693          	addi	a3,a0,1
1000225c:	00f12a23          	sw	a5,20(sp)
10002260:	00200793          	li	a5,2
10002264:	02912023          	sw	s1,32(sp)
10002268:	02a12223          	sw	a0,36(sp)
1000226c:	00d12e23          	sw	a3,28(sp)
10002270:	00f12c23          	sw	a5,24(sp)
10002274:	00842583          	lw	a1,8(s0)
10002278:	06070063          	beqz	a4,100022d8 <_puts_r+0xbc>
1000227c:	00c59783          	lh	a5,12(a1)
10002280:	01279713          	slli	a4,a5,0x12
10002284:	02074263          	bltz	a4,100022a8 <_puts_r+0x8c>
10002288:	0645a703          	lw	a4,100(a1)
1000228c:	ffffe6b7          	lui	a3,0xffffe
10002290:	fff68693          	addi	a3,a3,-1 # ffffdfff <_sp+0xeffe0923>
10002294:	00002637          	lui	a2,0x2
10002298:	00c7e7b3          	or	a5,a5,a2
1000229c:	00d77733          	and	a4,a4,a3
100022a0:	00f59623          	sh	a5,12(a1)
100022a4:	06e5a223          	sw	a4,100(a1)
100022a8:	01410613          	addi	a2,sp,20
100022ac:	00040513          	mv	a0,s0
100022b0:	2d8040ef          	jal	10006588 <__sfvwrite_r>
100022b4:	03c12083          	lw	ra,60(sp)
100022b8:	03812403          	lw	s0,56(sp)
100022bc:	00153513          	seqz	a0,a0
100022c0:	40a00533          	neg	a0,a0
100022c4:	00b57513          	andi	a0,a0,11
100022c8:	03412483          	lw	s1,52(sp)
100022cc:	fff50513          	addi	a0,a0,-1
100022d0:	04010113          	addi	sp,sp,64
100022d4:	00008067          	ret
100022d8:	00040513          	mv	a0,s0
100022dc:	00b12623          	sw	a1,12(sp)
100022e0:	e5dff0ef          	jal	1000213c <__sinit>
100022e4:	00c12583          	lw	a1,12(sp)
100022e8:	f95ff06f          	j	1000227c <_puts_r+0x60>

100022ec <puts>:
100022ec:	00050593          	mv	a1,a0
100022f0:	87c1a503          	lw	a0,-1924(gp) # 100120bc <_impure_ptr>
100022f4:	f29ff06f          	j	1000221c <_puts_r>

100022f8 <sprintf>:
100022f8:	00050e13          	mv	t3,a0
100022fc:	f6010113          	addi	sp,sp,-160
10002300:	87c1a503          	lw	a0,-1924(gp) # 100120bc <_impure_ptr>
10002304:	08810f13          	addi	t5,sp,136
10002308:	ffff0eb7          	lui	t4,0xffff0
1000230c:	80000337          	lui	t1,0x80000
10002310:	fff30313          	addi	t1,t1,-1 # 7fffffff <_sp+0x6ffe2923>
10002314:	08c12423          	sw	a2,136(sp)
10002318:	08d12623          	sw	a3,140(sp)
1000231c:	208e8e93          	addi	t4,t4,520 # ffff0208 <_sp+0xeffd2b2c>
10002320:	00058613          	mv	a2,a1
10002324:	000f0693          	mv	a3,t5
10002328:	00810593          	addi	a1,sp,8
1000232c:	06112e23          	sw	ra,124(sp)
10002330:	08f12a23          	sw	a5,148(sp)
10002334:	08e12823          	sw	a4,144(sp)
10002338:	09012c23          	sw	a6,152(sp)
1000233c:	09112e23          	sw	a7,156(sp)
10002340:	01c12423          	sw	t3,8(sp)
10002344:	01c12c23          	sw	t3,24(sp)
10002348:	00612823          	sw	t1,16(sp)
1000234c:	00612e23          	sw	t1,28(sp)
10002350:	01d12a23          	sw	t4,20(sp)
10002354:	01e12223          	sw	t5,4(sp)
10002358:	61c010ef          	jal	10003974 <_svfprintf_r>
1000235c:	00812783          	lw	a5,8(sp)
10002360:	00078023          	sb	zero,0(a5)
10002364:	07c12083          	lw	ra,124(sp)
10002368:	0a010113          	addi	sp,sp,160
1000236c:	00008067          	ret

10002370 <__sread>:
10002370:	ff010113          	addi	sp,sp,-16
10002374:	00812423          	sw	s0,8(sp)
10002378:	00058413          	mv	s0,a1
1000237c:	00e59583          	lh	a1,14(a1)
10002380:	00112623          	sw	ra,12(sp)
10002384:	2d4000ef          	jal	10002658 <_read_r>
10002388:	02054063          	bltz	a0,100023a8 <__sread+0x38>
1000238c:	05042783          	lw	a5,80(s0)
10002390:	00c12083          	lw	ra,12(sp)
10002394:	00a787b3          	add	a5,a5,a0
10002398:	04f42823          	sw	a5,80(s0)
1000239c:	00812403          	lw	s0,8(sp)
100023a0:	01010113          	addi	sp,sp,16
100023a4:	00008067          	ret
100023a8:	00c45783          	lhu	a5,12(s0)
100023ac:	fffff737          	lui	a4,0xfffff
100023b0:	fff70713          	addi	a4,a4,-1 # ffffefff <_sp+0xeffe1923>
100023b4:	00e7f7b3          	and	a5,a5,a4
100023b8:	00c12083          	lw	ra,12(sp)
100023bc:	00f41623          	sh	a5,12(s0)
100023c0:	00812403          	lw	s0,8(sp)
100023c4:	01010113          	addi	sp,sp,16
100023c8:	00008067          	ret

100023cc <__swrite>:
100023cc:	00c59783          	lh	a5,12(a1)
100023d0:	fe010113          	addi	sp,sp,-32
100023d4:	00812c23          	sw	s0,24(sp)
100023d8:	00912a23          	sw	s1,20(sp)
100023dc:	01212823          	sw	s2,16(sp)
100023e0:	01312623          	sw	s3,12(sp)
100023e4:	00112e23          	sw	ra,28(sp)
100023e8:	1007f713          	andi	a4,a5,256
100023ec:	00058413          	mv	s0,a1
100023f0:	00050493          	mv	s1,a0
100023f4:	00060913          	mv	s2,a2
100023f8:	00068993          	mv	s3,a3
100023fc:	04071063          	bnez	a4,1000243c <__swrite+0x70>
10002400:	fffff737          	lui	a4,0xfffff
10002404:	fff70713          	addi	a4,a4,-1 # ffffefff <_sp+0xeffe1923>
10002408:	00e7f7b3          	and	a5,a5,a4
1000240c:	00e41583          	lh	a1,14(s0)
10002410:	00f41623          	sh	a5,12(s0)
10002414:	01812403          	lw	s0,24(sp)
10002418:	01c12083          	lw	ra,28(sp)
1000241c:	00098693          	mv	a3,s3
10002420:	00090613          	mv	a2,s2
10002424:	00c12983          	lw	s3,12(sp)
10002428:	01012903          	lw	s2,16(sp)
1000242c:	00048513          	mv	a0,s1
10002430:	01412483          	lw	s1,20(sp)
10002434:	02010113          	addi	sp,sp,32
10002438:	2f00006f          	j	10002728 <_write_r>
1000243c:	00e59583          	lh	a1,14(a1)
10002440:	00200693          	li	a3,2
10002444:	00000613          	li	a2,0
10002448:	1a8000ef          	jal	100025f0 <_lseek_r>
1000244c:	00c41783          	lh	a5,12(s0)
10002450:	fb1ff06f          	j	10002400 <__swrite+0x34>

10002454 <__sseek>:
10002454:	ff010113          	addi	sp,sp,-16
10002458:	00812423          	sw	s0,8(sp)
1000245c:	00058413          	mv	s0,a1
10002460:	00e59583          	lh	a1,14(a1)
10002464:	00112623          	sw	ra,12(sp)
10002468:	188000ef          	jal	100025f0 <_lseek_r>
1000246c:	fff00793          	li	a5,-1
10002470:	02f50863          	beq	a0,a5,100024a0 <__sseek+0x4c>
10002474:	00c45783          	lhu	a5,12(s0)
10002478:	00001737          	lui	a4,0x1
1000247c:	00c12083          	lw	ra,12(sp)
10002480:	00e7e7b3          	or	a5,a5,a4
10002484:	01079793          	slli	a5,a5,0x10
10002488:	4107d793          	srai	a5,a5,0x10
1000248c:	04a42823          	sw	a0,80(s0)
10002490:	00f41623          	sh	a5,12(s0)
10002494:	00812403          	lw	s0,8(sp)
10002498:	01010113          	addi	sp,sp,16
1000249c:	00008067          	ret
100024a0:	00c45783          	lhu	a5,12(s0)
100024a4:	fffff737          	lui	a4,0xfffff
100024a8:	fff70713          	addi	a4,a4,-1 # ffffefff <_sp+0xeffe1923>
100024ac:	00e7f7b3          	and	a5,a5,a4
100024b0:	01079793          	slli	a5,a5,0x10
100024b4:	4107d793          	srai	a5,a5,0x10
100024b8:	00c12083          	lw	ra,12(sp)
100024bc:	00f41623          	sh	a5,12(s0)
100024c0:	00812403          	lw	s0,8(sp)
100024c4:	01010113          	addi	sp,sp,16
100024c8:	00008067          	ret

100024cc <__sclose>:
100024cc:	00e59583          	lh	a1,14(a1)
100024d0:	0c40006f          	j	10002594 <_close_r>

100024d4 <raise>:
100024d4:	ff010113          	addi	sp,sp,-16
100024d8:	00912223          	sw	s1,4(sp)
100024dc:	00112623          	sw	ra,12(sp)
100024e0:	01f00793          	li	a5,31
100024e4:	87c1a483          	lw	s1,-1924(gp) # 100120bc <_impure_ptr>
100024e8:	08a7ee63          	bltu	a5,a0,10002584 <raise+0xb0>
100024ec:	1184a783          	lw	a5,280(s1)
100024f0:	00812423          	sw	s0,8(sp)
100024f4:	00050413          	mv	s0,a0
100024f8:	04078263          	beqz	a5,1000253c <raise+0x68>
100024fc:	00251713          	slli	a4,a0,0x2
10002500:	00e787b3          	add	a5,a5,a4
10002504:	0007a703          	lw	a4,0(a5)
10002508:	02070a63          	beqz	a4,1000253c <raise+0x68>
1000250c:	00100693          	li	a3,1
10002510:	00d70a63          	beq	a4,a3,10002524 <raise+0x50>
10002514:	fff00693          	li	a3,-1
10002518:	04d70663          	beq	a4,a3,10002564 <raise+0x90>
1000251c:	0007a023          	sw	zero,0(a5)
10002520:	000700e7          	jalr	a4
10002524:	00812403          	lw	s0,8(sp)
10002528:	00000513          	li	a0,0
1000252c:	00c12083          	lw	ra,12(sp)
10002530:	00412483          	lw	s1,4(sp)
10002534:	01010113          	addi	sp,sp,16
10002538:	00008067          	ret
1000253c:	00048513          	mv	a0,s1
10002540:	1e4000ef          	jal	10002724 <_getpid_r>
10002544:	00040613          	mv	a2,s0
10002548:	00812403          	lw	s0,8(sp)
1000254c:	00c12083          	lw	ra,12(sp)
10002550:	00050593          	mv	a1,a0
10002554:	00048513          	mv	a0,s1
10002558:	00412483          	lw	s1,4(sp)
1000255c:	01010113          	addi	sp,sp,16
10002560:	1600006f          	j	100026c0 <_kill_r>
10002564:	00812403          	lw	s0,8(sp)
10002568:	00c12083          	lw	ra,12(sp)
1000256c:	01600793          	li	a5,22
10002570:	00f4a023          	sw	a5,0(s1)
10002574:	00100513          	li	a0,1
10002578:	00412483          	lw	s1,4(sp)
1000257c:	01010113          	addi	sp,sp,16
10002580:	00008067          	ret
10002584:	01600793          	li	a5,22
10002588:	00f4a023          	sw	a5,0(s1)
1000258c:	fff00513          	li	a0,-1
10002590:	f9dff06f          	j	1000252c <raise+0x58>

10002594 <_close_r>:
10002594:	ff010113          	addi	sp,sp,-16
10002598:	00812423          	sw	s0,8(sp)
1000259c:	00912223          	sw	s1,4(sp)
100025a0:	00050413          	mv	s0,a0
100025a4:	00058513          	mv	a0,a1
100025a8:	00112623          	sw	ra,12(sp)
100025ac:	9001a623          	sw	zero,-1780(gp) # 1001214c <errno>
100025b0:	df7fd0ef          	jal	100003a6 <_close>
100025b4:	fff00793          	li	a5,-1
100025b8:	00f50c63          	beq	a0,a5,100025d0 <_close_r+0x3c>
100025bc:	00c12083          	lw	ra,12(sp)
100025c0:	00812403          	lw	s0,8(sp)
100025c4:	00412483          	lw	s1,4(sp)
100025c8:	01010113          	addi	sp,sp,16
100025cc:	00008067          	ret
100025d0:	90c1a783          	lw	a5,-1780(gp) # 1001214c <errno>
100025d4:	fe0784e3          	beqz	a5,100025bc <_close_r+0x28>
100025d8:	00c12083          	lw	ra,12(sp)
100025dc:	00f42023          	sw	a5,0(s0)
100025e0:	00812403          	lw	s0,8(sp)
100025e4:	00412483          	lw	s1,4(sp)
100025e8:	01010113          	addi	sp,sp,16
100025ec:	00008067          	ret

100025f0 <_lseek_r>:
100025f0:	ff010113          	addi	sp,sp,-16
100025f4:	00058713          	mv	a4,a1
100025f8:	00812423          	sw	s0,8(sp)
100025fc:	00912223          	sw	s1,4(sp)
10002600:	00060593          	mv	a1,a2
10002604:	00050413          	mv	s0,a0
10002608:	00068613          	mv	a2,a3
1000260c:	00070513          	mv	a0,a4
10002610:	00112623          	sw	ra,12(sp)
10002614:	9001a623          	sw	zero,-1780(gp) # 1001214c <errno>
10002618:	db1fd0ef          	jal	100003c8 <_lseek>
1000261c:	fff00793          	li	a5,-1
10002620:	00f50c63          	beq	a0,a5,10002638 <_lseek_r+0x48>
10002624:	00c12083          	lw	ra,12(sp)
10002628:	00812403          	lw	s0,8(sp)
1000262c:	00412483          	lw	s1,4(sp)
10002630:	01010113          	addi	sp,sp,16
10002634:	00008067          	ret
10002638:	90c1a783          	lw	a5,-1780(gp) # 1001214c <errno>
1000263c:	fe0784e3          	beqz	a5,10002624 <_lseek_r+0x34>
10002640:	00c12083          	lw	ra,12(sp)
10002644:	00f42023          	sw	a5,0(s0)
10002648:	00812403          	lw	s0,8(sp)
1000264c:	00412483          	lw	s1,4(sp)
10002650:	01010113          	addi	sp,sp,16
10002654:	00008067          	ret

10002658 <_read_r>:
10002658:	ff010113          	addi	sp,sp,-16
1000265c:	00058713          	mv	a4,a1
10002660:	00812423          	sw	s0,8(sp)
10002664:	00912223          	sw	s1,4(sp)
10002668:	00060593          	mv	a1,a2
1000266c:	00050413          	mv	s0,a0
10002670:	00068613          	mv	a2,a3
10002674:	00070513          	mv	a0,a4
10002678:	00112623          	sw	ra,12(sp)
1000267c:	9001a623          	sw	zero,-1780(gp) # 1001214c <errno>
10002680:	d4dfd0ef          	jal	100003cc <_read>
10002684:	fff00793          	li	a5,-1
10002688:	00f50c63          	beq	a0,a5,100026a0 <_read_r+0x48>
1000268c:	00c12083          	lw	ra,12(sp)
10002690:	00812403          	lw	s0,8(sp)
10002694:	00412483          	lw	s1,4(sp)
10002698:	01010113          	addi	sp,sp,16
1000269c:	00008067          	ret
100026a0:	90c1a783          	lw	a5,-1780(gp) # 1001214c <errno>
100026a4:	fe0784e3          	beqz	a5,1000268c <_read_r+0x34>
100026a8:	00c12083          	lw	ra,12(sp)
100026ac:	00f42023          	sw	a5,0(s0)
100026b0:	00812403          	lw	s0,8(sp)
100026b4:	00412483          	lw	s1,4(sp)
100026b8:	01010113          	addi	sp,sp,16
100026bc:	00008067          	ret

100026c0 <_kill_r>:
100026c0:	ff010113          	addi	sp,sp,-16
100026c4:	00058713          	mv	a4,a1
100026c8:	00812423          	sw	s0,8(sp)
100026cc:	00912223          	sw	s1,4(sp)
100026d0:	00050413          	mv	s0,a0
100026d4:	00060593          	mv	a1,a2
100026d8:	00070513          	mv	a0,a4
100026dc:	00112623          	sw	ra,12(sp)
100026e0:	9001a623          	sw	zero,-1780(gp) # 1001214c <errno>
100026e4:	cdbfd0ef          	jal	100003be <_kill>
100026e8:	fff00793          	li	a5,-1
100026ec:	00f50c63          	beq	a0,a5,10002704 <_kill_r+0x44>
100026f0:	00c12083          	lw	ra,12(sp)
100026f4:	00812403          	lw	s0,8(sp)
100026f8:	00412483          	lw	s1,4(sp)
100026fc:	01010113          	addi	sp,sp,16
10002700:	00008067          	ret
10002704:	90c1a783          	lw	a5,-1780(gp) # 1001214c <errno>
10002708:	fe0784e3          	beqz	a5,100026f0 <_kill_r+0x30>
1000270c:	00c12083          	lw	ra,12(sp)
10002710:	00f42023          	sw	a5,0(s0)
10002714:	00812403          	lw	s0,8(sp)
10002718:	00412483          	lw	s1,4(sp)
1000271c:	01010113          	addi	sp,sp,16
10002720:	00008067          	ret

10002724 <_getpid_r>:
10002724:	c8ffd06f          	j	100003b2 <_getpid>

10002728 <_write_r>:
10002728:	ff010113          	addi	sp,sp,-16
1000272c:	00058713          	mv	a4,a1
10002730:	00812423          	sw	s0,8(sp)
10002734:	00912223          	sw	s1,4(sp)
10002738:	00060593          	mv	a1,a2
1000273c:	00050413          	mv	s0,a0
10002740:	00068613          	mv	a2,a3
10002744:	00070513          	mv	a0,a4
10002748:	00112623          	sw	ra,12(sp)
1000274c:	9001a623          	sw	zero,-1780(gp) # 1001214c <errno>
10002750:	c81fd0ef          	jal	100003d0 <_write>
10002754:	fff00793          	li	a5,-1
10002758:	00f50c63          	beq	a0,a5,10002770 <_write_r+0x48>
1000275c:	00c12083          	lw	ra,12(sp)
10002760:	00812403          	lw	s0,8(sp)
10002764:	00412483          	lw	s1,4(sp)
10002768:	01010113          	addi	sp,sp,16
1000276c:	00008067          	ret
10002770:	90c1a783          	lw	a5,-1780(gp) # 1001214c <errno>
10002774:	fe0784e3          	beqz	a5,1000275c <_write_r+0x34>
10002778:	00c12083          	lw	ra,12(sp)
1000277c:	00f42023          	sw	a5,0(s0)
10002780:	00812403          	lw	s0,8(sp)
10002784:	00412483          	lw	s1,4(sp)
10002788:	01010113          	addi	sp,sp,16
1000278c:	00008067          	ret

10002790 <__libc_init_array>:
10002790:	ff010113          	addi	sp,sp,-16
10002794:	00812423          	sw	s0,8(sp)
10002798:	100127b7          	lui	a5,0x10012
1000279c:	10012437          	lui	s0,0x10012
100027a0:	01212023          	sw	s2,0(sp)
100027a4:	99478793          	addi	a5,a5,-1644 # 10011994 <__init_array_start>
100027a8:	99440713          	addi	a4,s0,-1644 # 10011994 <__init_array_start>
100027ac:	00112623          	sw	ra,12(sp)
100027b0:	00912223          	sw	s1,4(sp)
100027b4:	40e78933          	sub	s2,a5,a4
100027b8:	02e78263          	beq	a5,a4,100027dc <__libc_init_array+0x4c>
100027bc:	40295913          	srai	s2,s2,0x2
100027c0:	99440413          	addi	s0,s0,-1644
100027c4:	00000493          	li	s1,0
100027c8:	00042783          	lw	a5,0(s0)
100027cc:	00148493          	addi	s1,s1,1
100027d0:	00440413          	addi	s0,s0,4
100027d4:	000780e7          	jalr	a5
100027d8:	ff24e8e3          	bltu	s1,s2,100027c8 <__libc_init_array+0x38>
100027dc:	10012437          	lui	s0,0x10012
100027e0:	100127b7          	lui	a5,0x10012
100027e4:	99878793          	addi	a5,a5,-1640 # 10011998 <__sglue>
100027e8:	99440713          	addi	a4,s0,-1644 # 10011994 <__init_array_start>
100027ec:	40e78933          	sub	s2,a5,a4
100027f0:	40295913          	srai	s2,s2,0x2
100027f4:	02e78063          	beq	a5,a4,10002814 <__libc_init_array+0x84>
100027f8:	99440413          	addi	s0,s0,-1644
100027fc:	00000493          	li	s1,0
10002800:	00042783          	lw	a5,0(s0)
10002804:	00148493          	addi	s1,s1,1
10002808:	00440413          	addi	s0,s0,4
1000280c:	000780e7          	jalr	a5
10002810:	ff24e8e3          	bltu	s1,s2,10002800 <__libc_init_array+0x70>
10002814:	00c12083          	lw	ra,12(sp)
10002818:	00812403          	lw	s0,8(sp)
1000281c:	00412483          	lw	s1,4(sp)
10002820:	00012903          	lw	s2,0(sp)
10002824:	01010113          	addi	sp,sp,16
10002828:	00008067          	ret

1000282c <__libc_fini_array>:
1000282c:	ff010113          	addi	sp,sp,-16
10002830:	00812423          	sw	s0,8(sp)
10002834:	100127b7          	lui	a5,0x10012
10002838:	10012437          	lui	s0,0x10012
1000283c:	99878793          	addi	a5,a5,-1640 # 10011998 <__sglue>
10002840:	99840413          	addi	s0,s0,-1640 # 10011998 <__sglue>
10002844:	40f40433          	sub	s0,s0,a5
10002848:	00912223          	sw	s1,4(sp)
1000284c:	00112623          	sw	ra,12(sp)
10002850:	40245493          	srai	s1,s0,0x2
10002854:	02048063          	beqz	s1,10002874 <__libc_fini_array+0x48>
10002858:	ffc40413          	addi	s0,s0,-4
1000285c:	00f40433          	add	s0,s0,a5
10002860:	00042783          	lw	a5,0(s0)
10002864:	fff48493          	addi	s1,s1,-1
10002868:	ffc40413          	addi	s0,s0,-4
1000286c:	000780e7          	jalr	a5
10002870:	fe0498e3          	bnez	s1,10002860 <__libc_fini_array+0x34>
10002874:	00c12083          	lw	ra,12(sp)
10002878:	00812403          	lw	s0,8(sp)
1000287c:	00412483          	lw	s1,4(sp)
10002880:	01010113          	addi	sp,sp,16
10002884:	00008067          	ret

10002888 <memset>:
10002888:	00f00313          	li	t1,15
1000288c:	00050713          	mv	a4,a0
10002890:	02c37e63          	bgeu	t1,a2,100028cc <memset+0x44>
10002894:	00f77793          	andi	a5,a4,15
10002898:	0a079063          	bnez	a5,10002938 <memset+0xb0>
1000289c:	08059263          	bnez	a1,10002920 <memset+0x98>
100028a0:	ff067693          	andi	a3,a2,-16
100028a4:	00f67613          	andi	a2,a2,15
100028a8:	00e686b3          	add	a3,a3,a4
100028ac:	00b72023          	sw	a1,0(a4)
100028b0:	00b72223          	sw	a1,4(a4)
100028b4:	00b72423          	sw	a1,8(a4)
100028b8:	00b72623          	sw	a1,12(a4)
100028bc:	01070713          	addi	a4,a4,16
100028c0:	fed766e3          	bltu	a4,a3,100028ac <memset+0x24>
100028c4:	00061463          	bnez	a2,100028cc <memset+0x44>
100028c8:	00008067          	ret
100028cc:	40c306b3          	sub	a3,t1,a2
100028d0:	00269693          	slli	a3,a3,0x2
100028d4:	00000297          	auipc	t0,0x0
100028d8:	005686b3          	add	a3,a3,t0
100028dc:	00c68067          	jr	12(a3)
100028e0:	00b70723          	sb	a1,14(a4)
100028e4:	00b706a3          	sb	a1,13(a4)
100028e8:	00b70623          	sb	a1,12(a4)
100028ec:	00b705a3          	sb	a1,11(a4)
100028f0:	00b70523          	sb	a1,10(a4)
100028f4:	00b704a3          	sb	a1,9(a4)
100028f8:	00b70423          	sb	a1,8(a4)
100028fc:	00b703a3          	sb	a1,7(a4)
10002900:	00b70323          	sb	a1,6(a4)
10002904:	00b702a3          	sb	a1,5(a4)
10002908:	00b70223          	sb	a1,4(a4)
1000290c:	00b701a3          	sb	a1,3(a4)
10002910:	00b70123          	sb	a1,2(a4)
10002914:	00b700a3          	sb	a1,1(a4)
10002918:	00b70023          	sb	a1,0(a4)
1000291c:	00008067          	ret
10002920:	0ff5f593          	zext.b	a1,a1
10002924:	00859693          	slli	a3,a1,0x8
10002928:	00d5e5b3          	or	a1,a1,a3
1000292c:	01059693          	slli	a3,a1,0x10
10002930:	00d5e5b3          	or	a1,a1,a3
10002934:	f6dff06f          	j	100028a0 <memset+0x18>
10002938:	00279693          	slli	a3,a5,0x2
1000293c:	00000297          	auipc	t0,0x0
10002940:	005686b3          	add	a3,a3,t0
10002944:	00008293          	mv	t0,ra
10002948:	fa0680e7          	jalr	-96(a3)
1000294c:	00028093          	mv	ra,t0
10002950:	ff078793          	addi	a5,a5,-16
10002954:	40f70733          	sub	a4,a4,a5
10002958:	00f60633          	add	a2,a2,a5
1000295c:	f6c378e3          	bgeu	t1,a2,100028cc <memset+0x44>
10002960:	f3dff06f          	j	1000289c <memset+0x14>

10002964 <memcpy>:
10002964:	00a5c7b3          	xor	a5,a1,a0
10002968:	0037f793          	andi	a5,a5,3
1000296c:	00c508b3          	add	a7,a0,a2
10002970:	06079463          	bnez	a5,100029d8 <memcpy+0x74>
10002974:	00300793          	li	a5,3
10002978:	06c7f063          	bgeu	a5,a2,100029d8 <memcpy+0x74>
1000297c:	00357793          	andi	a5,a0,3
10002980:	00050713          	mv	a4,a0
10002984:	06079a63          	bnez	a5,100029f8 <memcpy+0x94>
10002988:	ffc8f613          	andi	a2,a7,-4
1000298c:	40e606b3          	sub	a3,a2,a4
10002990:	02000793          	li	a5,32
10002994:	08d7ce63          	blt	a5,a3,10002a30 <memcpy+0xcc>
10002998:	00058693          	mv	a3,a1
1000299c:	00070793          	mv	a5,a4
100029a0:	02c77863          	bgeu	a4,a2,100029d0 <memcpy+0x6c>
100029a4:	0006a803          	lw	a6,0(a3)
100029a8:	00478793          	addi	a5,a5,4
100029ac:	00468693          	addi	a3,a3,4
100029b0:	ff07ae23          	sw	a6,-4(a5)
100029b4:	fec7e8e3          	bltu	a5,a2,100029a4 <memcpy+0x40>
100029b8:	fff60793          	addi	a5,a2,-1 # 1fff <__heap_size+0xfff>
100029bc:	40e787b3          	sub	a5,a5,a4
100029c0:	ffc7f793          	andi	a5,a5,-4
100029c4:	00478793          	addi	a5,a5,4
100029c8:	00f70733          	add	a4,a4,a5
100029cc:	00f585b3          	add	a1,a1,a5
100029d0:	01176863          	bltu	a4,a7,100029e0 <memcpy+0x7c>
100029d4:	00008067          	ret
100029d8:	00050713          	mv	a4,a0
100029dc:	05157863          	bgeu	a0,a7,10002a2c <memcpy+0xc8>
100029e0:	0005c783          	lbu	a5,0(a1)
100029e4:	00170713          	addi	a4,a4,1
100029e8:	00158593          	addi	a1,a1,1
100029ec:	fef70fa3          	sb	a5,-1(a4)
100029f0:	fee898e3          	bne	a7,a4,100029e0 <memcpy+0x7c>
100029f4:	00008067          	ret
100029f8:	0005c683          	lbu	a3,0(a1)
100029fc:	00170713          	addi	a4,a4,1
10002a00:	00377793          	andi	a5,a4,3
10002a04:	fed70fa3          	sb	a3,-1(a4)
10002a08:	00158593          	addi	a1,a1,1
10002a0c:	f6078ee3          	beqz	a5,10002988 <memcpy+0x24>
10002a10:	0005c683          	lbu	a3,0(a1)
10002a14:	00170713          	addi	a4,a4,1
10002a18:	00377793          	andi	a5,a4,3
10002a1c:	fed70fa3          	sb	a3,-1(a4)
10002a20:	00158593          	addi	a1,a1,1
10002a24:	fc079ae3          	bnez	a5,100029f8 <memcpy+0x94>
10002a28:	f61ff06f          	j	10002988 <memcpy+0x24>
10002a2c:	00008067          	ret
10002a30:	ff010113          	addi	sp,sp,-16
10002a34:	00812623          	sw	s0,12(sp)
10002a38:	02000413          	li	s0,32
10002a3c:	0005a383          	lw	t2,0(a1)
10002a40:	0045a283          	lw	t0,4(a1)
10002a44:	0085af83          	lw	t6,8(a1)
10002a48:	00c5af03          	lw	t5,12(a1)
10002a4c:	0105ae83          	lw	t4,16(a1)
10002a50:	0145ae03          	lw	t3,20(a1)
10002a54:	0185a303          	lw	t1,24(a1)
10002a58:	01c5a803          	lw	a6,28(a1)
10002a5c:	0205a683          	lw	a3,32(a1)
10002a60:	02470713          	addi	a4,a4,36
10002a64:	40e607b3          	sub	a5,a2,a4
10002a68:	fc772e23          	sw	t2,-36(a4)
10002a6c:	fe572023          	sw	t0,-32(a4)
10002a70:	fff72223          	sw	t6,-28(a4)
10002a74:	ffe72423          	sw	t5,-24(a4)
10002a78:	ffd72623          	sw	t4,-20(a4)
10002a7c:	ffc72823          	sw	t3,-16(a4)
10002a80:	fe672a23          	sw	t1,-12(a4)
10002a84:	ff072c23          	sw	a6,-8(a4)
10002a88:	fed72e23          	sw	a3,-4(a4)
10002a8c:	02458593          	addi	a1,a1,36
10002a90:	faf446e3          	blt	s0,a5,10002a3c <memcpy+0xd8>
10002a94:	00058693          	mv	a3,a1
10002a98:	00070793          	mv	a5,a4
10002a9c:	02c77863          	bgeu	a4,a2,10002acc <memcpy+0x168>
10002aa0:	0006a803          	lw	a6,0(a3)
10002aa4:	00478793          	addi	a5,a5,4
10002aa8:	00468693          	addi	a3,a3,4
10002aac:	ff07ae23          	sw	a6,-4(a5)
10002ab0:	fec7e8e3          	bltu	a5,a2,10002aa0 <memcpy+0x13c>
10002ab4:	fff60793          	addi	a5,a2,-1
10002ab8:	40e787b3          	sub	a5,a5,a4
10002abc:	ffc7f793          	andi	a5,a5,-4
10002ac0:	00478793          	addi	a5,a5,4
10002ac4:	00f70733          	add	a4,a4,a5
10002ac8:	00f585b3          	add	a1,a1,a5
10002acc:	01176863          	bltu	a4,a7,10002adc <memcpy+0x178>
10002ad0:	00c12403          	lw	s0,12(sp)
10002ad4:	01010113          	addi	sp,sp,16
10002ad8:	00008067          	ret
10002adc:	0005c783          	lbu	a5,0(a1)
10002ae0:	00170713          	addi	a4,a4,1
10002ae4:	00158593          	addi	a1,a1,1
10002ae8:	fef70fa3          	sb	a5,-1(a4)
10002aec:	fee882e3          	beq	a7,a4,10002ad0 <memcpy+0x16c>
10002af0:	0005c783          	lbu	a5,0(a1)
10002af4:	00170713          	addi	a4,a4,1
10002af8:	00158593          	addi	a1,a1,1
10002afc:	fef70fa3          	sb	a5,-1(a4)
10002b00:	fce89ee3          	bne	a7,a4,10002adc <memcpy+0x178>
10002b04:	fcdff06f          	j	10002ad0 <memcpy+0x16c>

10002b08 <strlen>:
10002b08:	00357793          	andi	a5,a0,3
10002b0c:	00050713          	mv	a4,a0
10002b10:	04079c63          	bnez	a5,10002b68 <strlen+0x60>
10002b14:	7f7f86b7          	lui	a3,0x7f7f8
10002b18:	f7f68693          	addi	a3,a3,-129 # 7f7f7f7f <_sp+0x6f7da8a3>
10002b1c:	fff00593          	li	a1,-1
10002b20:	00072603          	lw	a2,0(a4)
10002b24:	00470713          	addi	a4,a4,4
10002b28:	00d677b3          	and	a5,a2,a3
10002b2c:	00d787b3          	add	a5,a5,a3
10002b30:	00c7e7b3          	or	a5,a5,a2
10002b34:	00d7e7b3          	or	a5,a5,a3
10002b38:	feb784e3          	beq	a5,a1,10002b20 <strlen+0x18>
10002b3c:	ffc74683          	lbu	a3,-4(a4)
10002b40:	40a707b3          	sub	a5,a4,a0
10002b44:	04068463          	beqz	a3,10002b8c <strlen+0x84>
10002b48:	ffd74683          	lbu	a3,-3(a4)
10002b4c:	02068c63          	beqz	a3,10002b84 <strlen+0x7c>
10002b50:	ffe74503          	lbu	a0,-2(a4)
10002b54:	00a03533          	snez	a0,a0
10002b58:	00f50533          	add	a0,a0,a5
10002b5c:	ffe50513          	addi	a0,a0,-2
10002b60:	00008067          	ret
10002b64:	fa0688e3          	beqz	a3,10002b14 <strlen+0xc>
10002b68:	00074783          	lbu	a5,0(a4)
10002b6c:	00170713          	addi	a4,a4,1
10002b70:	00377693          	andi	a3,a4,3
10002b74:	fe0798e3          	bnez	a5,10002b64 <strlen+0x5c>
10002b78:	40a70733          	sub	a4,a4,a0
10002b7c:	fff70513          	addi	a0,a4,-1
10002b80:	00008067          	ret
10002b84:	ffd78513          	addi	a0,a5,-3
10002b88:	00008067          	ret
10002b8c:	ffc78513          	addi	a0,a5,-4
10002b90:	00008067          	ret

10002b94 <__register_exitproc>:
10002b94:	9101a783          	lw	a5,-1776(gp) # 10012150 <__atexit>
10002b98:	04078c63          	beqz	a5,10002bf0 <__register_exitproc+0x5c>
10002b9c:	0047a703          	lw	a4,4(a5)
10002ba0:	01f00813          	li	a6,31
10002ba4:	08e84263          	blt	a6,a4,10002c28 <__register_exitproc+0x94>
10002ba8:	00271813          	slli	a6,a4,0x2
10002bac:	02050663          	beqz	a0,10002bd8 <__register_exitproc+0x44>
10002bb0:	01078333          	add	t1,a5,a6
10002bb4:	08c32423          	sw	a2,136(t1)
10002bb8:	1887a883          	lw	a7,392(a5)
10002bbc:	00100613          	li	a2,1
10002bc0:	00e61633          	sll	a2,a2,a4
10002bc4:	00c8e8b3          	or	a7,a7,a2
10002bc8:	1917a423          	sw	a7,392(a5)
10002bcc:	10d32423          	sw	a3,264(t1)
10002bd0:	00200693          	li	a3,2
10002bd4:	02d50863          	beq	a0,a3,10002c04 <__register_exitproc+0x70>
10002bd8:	00170713          	addi	a4,a4,1
10002bdc:	00e7a223          	sw	a4,4(a5)
10002be0:	010787b3          	add	a5,a5,a6
10002be4:	00b7a423          	sw	a1,8(a5)
10002be8:	00000513          	li	a0,0
10002bec:	00008067          	ret
10002bf0:	1001c7b7          	lui	a5,0x1001c
10002bf4:	3f878813          	addi	a6,a5,1016 # 1001c3f8 <__atexit0>
10002bf8:	9101a823          	sw	a6,-1776(gp) # 10012150 <__atexit>
10002bfc:	3f878793          	addi	a5,a5,1016
10002c00:	f9dff06f          	j	10002b9c <__register_exitproc+0x8>
10002c04:	18c7a683          	lw	a3,396(a5)
10002c08:	00170713          	addi	a4,a4,1
10002c0c:	00e7a223          	sw	a4,4(a5)
10002c10:	00c6e6b3          	or	a3,a3,a2
10002c14:	18d7a623          	sw	a3,396(a5)
10002c18:	010787b3          	add	a5,a5,a6
10002c1c:	00b7a423          	sw	a1,8(a5)
10002c20:	00000513          	li	a0,0
10002c24:	00008067          	ret
10002c28:	fff00513          	li	a0,-1
10002c2c:	00008067          	ret

10002c30 <__call_exitprocs>:
10002c30:	fd010113          	addi	sp,sp,-48
10002c34:	01412c23          	sw	s4,24(sp)
10002c38:	03212023          	sw	s2,32(sp)
10002c3c:	9101a903          	lw	s2,-1776(gp) # 10012150 <__atexit>
10002c40:	02112623          	sw	ra,44(sp)
10002c44:	0a090863          	beqz	s2,10002cf4 <__call_exitprocs+0xc4>
10002c48:	01312e23          	sw	s3,28(sp)
10002c4c:	01512a23          	sw	s5,20(sp)
10002c50:	01612823          	sw	s6,16(sp)
10002c54:	01712623          	sw	s7,12(sp)
10002c58:	02812423          	sw	s0,40(sp)
10002c5c:	02912223          	sw	s1,36(sp)
10002c60:	01812423          	sw	s8,8(sp)
10002c64:	00050b13          	mv	s6,a0
10002c68:	00058b93          	mv	s7,a1
10002c6c:	fff00993          	li	s3,-1
10002c70:	00100a93          	li	s5,1
10002c74:	00492483          	lw	s1,4(s2)
10002c78:	fff48413          	addi	s0,s1,-1
10002c7c:	04044e63          	bltz	s0,10002cd8 <__call_exitprocs+0xa8>
10002c80:	00249493          	slli	s1,s1,0x2
10002c84:	009904b3          	add	s1,s2,s1
10002c88:	080b9063          	bnez	s7,10002d08 <__call_exitprocs+0xd8>
10002c8c:	00492783          	lw	a5,4(s2)
10002c90:	0044a683          	lw	a3,4(s1)
10002c94:	fff78793          	addi	a5,a5,-1
10002c98:	0a878c63          	beq	a5,s0,10002d50 <__call_exitprocs+0x120>
10002c9c:	0004a223          	sw	zero,4(s1)
10002ca0:	02068663          	beqz	a3,10002ccc <__call_exitprocs+0x9c>
10002ca4:	18892783          	lw	a5,392(s2)
10002ca8:	008a9733          	sll	a4,s5,s0
10002cac:	00492c03          	lw	s8,4(s2)
10002cb0:	00f777b3          	and	a5,a4,a5
10002cb4:	06079663          	bnez	a5,10002d20 <__call_exitprocs+0xf0>
10002cb8:	000680e7          	jalr	a3
10002cbc:	00492703          	lw	a4,4(s2)
10002cc0:	9101a783          	lw	a5,-1776(gp) # 10012150 <__atexit>
10002cc4:	09871063          	bne	a4,s8,10002d44 <__call_exitprocs+0x114>
10002cc8:	07279e63          	bne	a5,s2,10002d44 <__call_exitprocs+0x114>
10002ccc:	fff40413          	addi	s0,s0,-1
10002cd0:	ffc48493          	addi	s1,s1,-4
10002cd4:	fb341ae3          	bne	s0,s3,10002c88 <__call_exitprocs+0x58>
10002cd8:	02812403          	lw	s0,40(sp)
10002cdc:	02412483          	lw	s1,36(sp)
10002ce0:	01c12983          	lw	s3,28(sp)
10002ce4:	01412a83          	lw	s5,20(sp)
10002ce8:	01012b03          	lw	s6,16(sp)
10002cec:	00c12b83          	lw	s7,12(sp)
10002cf0:	00812c03          	lw	s8,8(sp)
10002cf4:	02c12083          	lw	ra,44(sp)
10002cf8:	02012903          	lw	s2,32(sp)
10002cfc:	01812a03          	lw	s4,24(sp)
10002d00:	03010113          	addi	sp,sp,48
10002d04:	00008067          	ret
10002d08:	1044a783          	lw	a5,260(s1)
10002d0c:	f97780e3          	beq	a5,s7,10002c8c <__call_exitprocs+0x5c>
10002d10:	fff40413          	addi	s0,s0,-1
10002d14:	ffc48493          	addi	s1,s1,-4
10002d18:	ff3418e3          	bne	s0,s3,10002d08 <__call_exitprocs+0xd8>
10002d1c:	fbdff06f          	j	10002cd8 <__call_exitprocs+0xa8>
10002d20:	18c92783          	lw	a5,396(s2)
10002d24:	0844a583          	lw	a1,132(s1)
10002d28:	00f77733          	and	a4,a4,a5
10002d2c:	02071663          	bnez	a4,10002d58 <__call_exitprocs+0x128>
10002d30:	000b0513          	mv	a0,s6
10002d34:	000680e7          	jalr	a3
10002d38:	00492703          	lw	a4,4(s2)
10002d3c:	9101a783          	lw	a5,-1776(gp) # 10012150 <__atexit>
10002d40:	f98704e3          	beq	a4,s8,10002cc8 <__call_exitprocs+0x98>
10002d44:	f8078ae3          	beqz	a5,10002cd8 <__call_exitprocs+0xa8>
10002d48:	00078913          	mv	s2,a5
10002d4c:	f29ff06f          	j	10002c74 <__call_exitprocs+0x44>
10002d50:	00892223          	sw	s0,4(s2)
10002d54:	f4dff06f          	j	10002ca0 <__call_exitprocs+0x70>
10002d58:	00058513          	mv	a0,a1
10002d5c:	000680e7          	jalr	a3
10002d60:	f5dff06f          	j	10002cbc <__call_exitprocs+0x8c>

10002d64 <_malloc_trim_r>:
10002d64:	fe010113          	addi	sp,sp,-32
10002d68:	01312623          	sw	s3,12(sp)
10002d6c:	100129b7          	lui	s3,0x10012
10002d70:	00812c23          	sw	s0,24(sp)
10002d74:	00912a23          	sw	s1,20(sp)
10002d78:	01212823          	sw	s2,16(sp)
10002d7c:	01412423          	sw	s4,8(sp)
10002d80:	00112e23          	sw	ra,28(sp)
10002d84:	00058a13          	mv	s4,a1
10002d88:	00050913          	mv	s2,a0
10002d8c:	ac898993          	addi	s3,s3,-1336 # 10011ac8 <__malloc_av_>
10002d90:	3dd000ef          	jal	1000396c <__malloc_lock>
10002d94:	0089a703          	lw	a4,8(s3)
10002d98:	000017b7          	lui	a5,0x1
10002d9c:	fef78793          	addi	a5,a5,-17 # fef <__stack_size+0xec3>
10002da0:	00472483          	lw	s1,4(a4)
10002da4:	00001737          	lui	a4,0x1
10002da8:	ffc4f493          	andi	s1,s1,-4
10002dac:	00f48433          	add	s0,s1,a5
10002db0:	41440433          	sub	s0,s0,s4
10002db4:	00c45413          	srli	s0,s0,0xc
10002db8:	fff40413          	addi	s0,s0,-1
10002dbc:	00c41413          	slli	s0,s0,0xc
10002dc0:	00e44e63          	blt	s0,a4,10002ddc <_malloc_trim_r+0x78>
10002dc4:	00000593          	li	a1,0
10002dc8:	00090513          	mv	a0,s2
10002dcc:	789030ef          	jal	10006d54 <_sbrk_r>
10002dd0:	0089a783          	lw	a5,8(s3)
10002dd4:	009787b3          	add	a5,a5,s1
10002dd8:	02f50863          	beq	a0,a5,10002e08 <_malloc_trim_r+0xa4>
10002ddc:	00090513          	mv	a0,s2
10002de0:	391000ef          	jal	10003970 <__malloc_unlock>
10002de4:	01c12083          	lw	ra,28(sp)
10002de8:	01812403          	lw	s0,24(sp)
10002dec:	01412483          	lw	s1,20(sp)
10002df0:	01012903          	lw	s2,16(sp)
10002df4:	00c12983          	lw	s3,12(sp)
10002df8:	00812a03          	lw	s4,8(sp)
10002dfc:	00000513          	li	a0,0
10002e00:	02010113          	addi	sp,sp,32
10002e04:	00008067          	ret
10002e08:	408005b3          	neg	a1,s0
10002e0c:	00090513          	mv	a0,s2
10002e10:	745030ef          	jal	10006d54 <_sbrk_r>
10002e14:	fff00793          	li	a5,-1
10002e18:	04f50a63          	beq	a0,a5,10002e6c <_malloc_trim_r+0x108>
10002e1c:	1001c7b7          	lui	a5,0x1001c
10002e20:	58878793          	addi	a5,a5,1416 # 1001c588 <__malloc_current_mallinfo>
10002e24:	0007a703          	lw	a4,0(a5)
10002e28:	0089a683          	lw	a3,8(s3)
10002e2c:	408484b3          	sub	s1,s1,s0
10002e30:	0014e493          	ori	s1,s1,1
10002e34:	40870733          	sub	a4,a4,s0
10002e38:	00090513          	mv	a0,s2
10002e3c:	0096a223          	sw	s1,4(a3)
10002e40:	00e7a023          	sw	a4,0(a5)
10002e44:	32d000ef          	jal	10003970 <__malloc_unlock>
10002e48:	01c12083          	lw	ra,28(sp)
10002e4c:	01812403          	lw	s0,24(sp)
10002e50:	01412483          	lw	s1,20(sp)
10002e54:	01012903          	lw	s2,16(sp)
10002e58:	00c12983          	lw	s3,12(sp)
10002e5c:	00812a03          	lw	s4,8(sp)
10002e60:	00100513          	li	a0,1
10002e64:	02010113          	addi	sp,sp,32
10002e68:	00008067          	ret
10002e6c:	00000593          	li	a1,0
10002e70:	00090513          	mv	a0,s2
10002e74:	6e1030ef          	jal	10006d54 <_sbrk_r>
10002e78:	0089a703          	lw	a4,8(s3)
10002e7c:	00f00693          	li	a3,15
10002e80:	40e507b3          	sub	a5,a0,a4
10002e84:	f4f6dce3          	bge	a3,a5,10002ddc <_malloc_trim_r+0x78>
10002e88:	8801a683          	lw	a3,-1920(gp) # 100120c0 <__malloc_sbrk_base>
10002e8c:	0017e793          	ori	a5,a5,1
10002e90:	00f72223          	sw	a5,4(a4) # 1004 <__heap_size+0x4>
10002e94:	40d50533          	sub	a0,a0,a3
10002e98:	1001c6b7          	lui	a3,0x1001c
10002e9c:	58a6a423          	sw	a0,1416(a3) # 1001c588 <__malloc_current_mallinfo>
10002ea0:	f3dff06f          	j	10002ddc <_malloc_trim_r+0x78>

10002ea4 <_free_r>:
10002ea4:	18058263          	beqz	a1,10003028 <_free_r+0x184>
10002ea8:	ff010113          	addi	sp,sp,-16
10002eac:	00812423          	sw	s0,8(sp)
10002eb0:	00912223          	sw	s1,4(sp)
10002eb4:	00058413          	mv	s0,a1
10002eb8:	00050493          	mv	s1,a0
10002ebc:	00112623          	sw	ra,12(sp)
10002ec0:	2ad000ef          	jal	1000396c <__malloc_lock>
10002ec4:	ffc42503          	lw	a0,-4(s0)
10002ec8:	ff840713          	addi	a4,s0,-8
10002ecc:	100125b7          	lui	a1,0x10012
10002ed0:	ffe57793          	andi	a5,a0,-2
10002ed4:	00f70633          	add	a2,a4,a5
10002ed8:	ac858593          	addi	a1,a1,-1336 # 10011ac8 <__malloc_av_>
10002edc:	00462683          	lw	a3,4(a2)
10002ee0:	0085a803          	lw	a6,8(a1)
10002ee4:	ffc6f693          	andi	a3,a3,-4
10002ee8:	1ac80263          	beq	a6,a2,1000308c <_free_r+0x1e8>
10002eec:	00d62223          	sw	a3,4(a2)
10002ef0:	00157513          	andi	a0,a0,1
10002ef4:	00d60833          	add	a6,a2,a3
10002ef8:	0a051063          	bnez	a0,10002f98 <_free_r+0xf4>
10002efc:	ff842303          	lw	t1,-8(s0)
10002f00:	00482803          	lw	a6,4(a6)
10002f04:	10012537          	lui	a0,0x10012
10002f08:	40670733          	sub	a4,a4,t1
10002f0c:	00872883          	lw	a7,8(a4)
10002f10:	ad050513          	addi	a0,a0,-1328 # 10011ad0 <__malloc_av_+0x8>
10002f14:	006787b3          	add	a5,a5,t1
10002f18:	00187813          	andi	a6,a6,1
10002f1c:	14a88263          	beq	a7,a0,10003060 <_free_r+0x1bc>
10002f20:	00c72303          	lw	t1,12(a4)
10002f24:	0068a623          	sw	t1,12(a7)
10002f28:	01132423          	sw	a7,8(t1)
10002f2c:	1a080663          	beqz	a6,100030d8 <_free_r+0x234>
10002f30:	0017e693          	ori	a3,a5,1
10002f34:	00d72223          	sw	a3,4(a4)
10002f38:	00f62023          	sw	a5,0(a2)
10002f3c:	1ff00693          	li	a3,511
10002f40:	06f6ec63          	bltu	a3,a5,10002fb8 <_free_r+0x114>
10002f44:	ff87f693          	andi	a3,a5,-8
10002f48:	00868693          	addi	a3,a3,8
10002f4c:	0045a503          	lw	a0,4(a1)
10002f50:	00d586b3          	add	a3,a1,a3
10002f54:	0006a603          	lw	a2,0(a3)
10002f58:	0057d813          	srli	a6,a5,0x5
10002f5c:	00100793          	li	a5,1
10002f60:	010797b3          	sll	a5,a5,a6
10002f64:	00a7e7b3          	or	a5,a5,a0
10002f68:	ff868513          	addi	a0,a3,-8
10002f6c:	00a72623          	sw	a0,12(a4)
10002f70:	00c72423          	sw	a2,8(a4)
10002f74:	00f5a223          	sw	a5,4(a1)
10002f78:	00e6a023          	sw	a4,0(a3)
10002f7c:	00e62623          	sw	a4,12(a2)
10002f80:	00812403          	lw	s0,8(sp)
10002f84:	00c12083          	lw	ra,12(sp)
10002f88:	00048513          	mv	a0,s1
10002f8c:	00412483          	lw	s1,4(sp)
10002f90:	01010113          	addi	sp,sp,16
10002f94:	1dd0006f          	j	10003970 <__malloc_unlock>
10002f98:	00482503          	lw	a0,4(a6)
10002f9c:	00157513          	andi	a0,a0,1
10002fa0:	08050663          	beqz	a0,1000302c <_free_r+0x188>
10002fa4:	0017e693          	ori	a3,a5,1
10002fa8:	fed42e23          	sw	a3,-4(s0)
10002fac:	00f62023          	sw	a5,0(a2)
10002fb0:	1ff00693          	li	a3,511
10002fb4:	f8f6f8e3          	bgeu	a3,a5,10002f44 <_free_r+0xa0>
10002fb8:	0097d693          	srli	a3,a5,0x9
10002fbc:	00400613          	li	a2,4
10002fc0:	12d66063          	bltu	a2,a3,100030e0 <_free_r+0x23c>
10002fc4:	0067d693          	srli	a3,a5,0x6
10002fc8:	03968513          	addi	a0,a3,57
10002fcc:	03868613          	addi	a2,a3,56
10002fd0:	00351513          	slli	a0,a0,0x3
10002fd4:	00a58533          	add	a0,a1,a0
10002fd8:	00052683          	lw	a3,0(a0)
10002fdc:	ff850513          	addi	a0,a0,-8
10002fe0:	00d51863          	bne	a0,a3,10002ff0 <_free_r+0x14c>
10002fe4:	1540006f          	j	10003138 <_free_r+0x294>
10002fe8:	0086a683          	lw	a3,8(a3)
10002fec:	00d50863          	beq	a0,a3,10002ffc <_free_r+0x158>
10002ff0:	0046a603          	lw	a2,4(a3)
10002ff4:	ffc67613          	andi	a2,a2,-4
10002ff8:	fec7e8e3          	bltu	a5,a2,10002fe8 <_free_r+0x144>
10002ffc:	00c6a503          	lw	a0,12(a3)
10003000:	00a72623          	sw	a0,12(a4)
10003004:	00d72423          	sw	a3,8(a4)
10003008:	00812403          	lw	s0,8(sp)
1000300c:	00e52423          	sw	a4,8(a0)
10003010:	00c12083          	lw	ra,12(sp)
10003014:	00048513          	mv	a0,s1
10003018:	00412483          	lw	s1,4(sp)
1000301c:	00e6a623          	sw	a4,12(a3)
10003020:	01010113          	addi	sp,sp,16
10003024:	14d0006f          	j	10003970 <__malloc_unlock>
10003028:	00008067          	ret
1000302c:	10012537          	lui	a0,0x10012
10003030:	00d787b3          	add	a5,a5,a3
10003034:	ad050513          	addi	a0,a0,-1328 # 10011ad0 <__malloc_av_+0x8>
10003038:	00862683          	lw	a3,8(a2)
1000303c:	0ca68c63          	beq	a3,a0,10003114 <_free_r+0x270>
10003040:	00c62803          	lw	a6,12(a2)
10003044:	0017e513          	ori	a0,a5,1
10003048:	00f70633          	add	a2,a4,a5
1000304c:	0106a623          	sw	a6,12(a3)
10003050:	00d82423          	sw	a3,8(a6)
10003054:	00a72223          	sw	a0,4(a4)
10003058:	00f62023          	sw	a5,0(a2)
1000305c:	ee1ff06f          	j	10002f3c <_free_r+0x98>
10003060:	12081c63          	bnez	a6,10003198 <_free_r+0x2f4>
10003064:	00862583          	lw	a1,8(a2)
10003068:	00c62603          	lw	a2,12(a2)
1000306c:	00f686b3          	add	a3,a3,a5
10003070:	0016e793          	ori	a5,a3,1
10003074:	00c5a623          	sw	a2,12(a1)
10003078:	00b62423          	sw	a1,8(a2)
1000307c:	00f72223          	sw	a5,4(a4)
10003080:	00d70733          	add	a4,a4,a3
10003084:	00d72023          	sw	a3,0(a4)
10003088:	ef9ff06f          	j	10002f80 <_free_r+0xdc>
1000308c:	00157513          	andi	a0,a0,1
10003090:	00d786b3          	add	a3,a5,a3
10003094:	02051063          	bnez	a0,100030b4 <_free_r+0x210>
10003098:	ff842503          	lw	a0,-8(s0)
1000309c:	40a70733          	sub	a4,a4,a0
100030a0:	00c72783          	lw	a5,12(a4)
100030a4:	00872603          	lw	a2,8(a4)
100030a8:	00a686b3          	add	a3,a3,a0
100030ac:	00f62623          	sw	a5,12(a2)
100030b0:	00c7a423          	sw	a2,8(a5)
100030b4:	0016e613          	ori	a2,a3,1
100030b8:	8841a783          	lw	a5,-1916(gp) # 100120c4 <__malloc_trim_threshold>
100030bc:	00c72223          	sw	a2,4(a4)
100030c0:	00e5a423          	sw	a4,8(a1)
100030c4:	eaf6eee3          	bltu	a3,a5,10002f80 <_free_r+0xdc>
100030c8:	91c1a583          	lw	a1,-1764(gp) # 1001215c <__malloc_top_pad>
100030cc:	00048513          	mv	a0,s1
100030d0:	c95ff0ef          	jal	10002d64 <_malloc_trim_r>
100030d4:	eadff06f          	j	10002f80 <_free_r+0xdc>
100030d8:	00d787b3          	add	a5,a5,a3
100030dc:	f5dff06f          	j	10003038 <_free_r+0x194>
100030e0:	01400613          	li	a2,20
100030e4:	02d67063          	bgeu	a2,a3,10003104 <_free_r+0x260>
100030e8:	05400613          	li	a2,84
100030ec:	06d66463          	bltu	a2,a3,10003154 <_free_r+0x2b0>
100030f0:	00c7d693          	srli	a3,a5,0xc
100030f4:	06f68513          	addi	a0,a3,111
100030f8:	06e68613          	addi	a2,a3,110
100030fc:	00351513          	slli	a0,a0,0x3
10003100:	ed5ff06f          	j	10002fd4 <_free_r+0x130>
10003104:	05c68513          	addi	a0,a3,92
10003108:	05b68613          	addi	a2,a3,91
1000310c:	00351513          	slli	a0,a0,0x3
10003110:	ec5ff06f          	j	10002fd4 <_free_r+0x130>
10003114:	00e5aa23          	sw	a4,20(a1)
10003118:	00e5a823          	sw	a4,16(a1)
1000311c:	0017e693          	ori	a3,a5,1
10003120:	00a72623          	sw	a0,12(a4)
10003124:	00a72423          	sw	a0,8(a4)
10003128:	00d72223          	sw	a3,4(a4)
1000312c:	00f70733          	add	a4,a4,a5
10003130:	00f72023          	sw	a5,0(a4)
10003134:	e4dff06f          	j	10002f80 <_free_r+0xdc>
10003138:	0045a803          	lw	a6,4(a1)
1000313c:	40265613          	srai	a2,a2,0x2
10003140:	00100793          	li	a5,1
10003144:	00c797b3          	sll	a5,a5,a2
10003148:	0107e7b3          	or	a5,a5,a6
1000314c:	00f5a223          	sw	a5,4(a1)
10003150:	eb1ff06f          	j	10003000 <_free_r+0x15c>
10003154:	15400613          	li	a2,340
10003158:	00d66c63          	bltu	a2,a3,10003170 <_free_r+0x2cc>
1000315c:	00f7d693          	srli	a3,a5,0xf
10003160:	07868513          	addi	a0,a3,120
10003164:	07768613          	addi	a2,a3,119
10003168:	00351513          	slli	a0,a0,0x3
1000316c:	e69ff06f          	j	10002fd4 <_free_r+0x130>
10003170:	55400613          	li	a2,1364
10003174:	00d66c63          	bltu	a2,a3,1000318c <_free_r+0x2e8>
10003178:	0127d693          	srli	a3,a5,0x12
1000317c:	07d68513          	addi	a0,a3,125
10003180:	07c68613          	addi	a2,a3,124
10003184:	00351513          	slli	a0,a0,0x3
10003188:	e4dff06f          	j	10002fd4 <_free_r+0x130>
1000318c:	3f800513          	li	a0,1016
10003190:	07e00613          	li	a2,126
10003194:	e41ff06f          	j	10002fd4 <_free_r+0x130>
10003198:	0017e693          	ori	a3,a5,1
1000319c:	00d72223          	sw	a3,4(a4)
100031a0:	00f62023          	sw	a5,0(a2)
100031a4:	dddff06f          	j	10002f80 <_free_r+0xdc>

100031a8 <_malloc_r>:
100031a8:	fd010113          	addi	sp,sp,-48
100031ac:	01312e23          	sw	s3,28(sp)
100031b0:	02112623          	sw	ra,44(sp)
100031b4:	02812423          	sw	s0,40(sp)
100031b8:	02912223          	sw	s1,36(sp)
100031bc:	03212023          	sw	s2,32(sp)
100031c0:	00b58793          	addi	a5,a1,11
100031c4:	01600713          	li	a4,22
100031c8:	00050993          	mv	s3,a0
100031cc:	08f76263          	bltu	a4,a5,10003250 <_malloc_r+0xa8>
100031d0:	01000793          	li	a5,16
100031d4:	20b7e663          	bltu	a5,a1,100033e0 <_malloc_r+0x238>
100031d8:	794000ef          	jal	1000396c <__malloc_lock>
100031dc:	01800793          	li	a5,24
100031e0:	00200593          	li	a1,2
100031e4:	01000493          	li	s1,16
100031e8:	10012937          	lui	s2,0x10012
100031ec:	ac890913          	addi	s2,s2,-1336 # 10011ac8 <__malloc_av_>
100031f0:	00f907b3          	add	a5,s2,a5
100031f4:	0047a403          	lw	s0,4(a5)
100031f8:	ff878713          	addi	a4,a5,-8
100031fc:	34e40663          	beq	s0,a4,10003548 <_malloc_r+0x3a0>
10003200:	00442783          	lw	a5,4(s0)
10003204:	00c42683          	lw	a3,12(s0)
10003208:	00842603          	lw	a2,8(s0)
1000320c:	ffc7f793          	andi	a5,a5,-4
10003210:	00f407b3          	add	a5,s0,a5
10003214:	0047a703          	lw	a4,4(a5)
10003218:	00d62623          	sw	a3,12(a2)
1000321c:	00c6a423          	sw	a2,8(a3)
10003220:	00176713          	ori	a4,a4,1
10003224:	00098513          	mv	a0,s3
10003228:	00e7a223          	sw	a4,4(a5)
1000322c:	744000ef          	jal	10003970 <__malloc_unlock>
10003230:	00840513          	addi	a0,s0,8
10003234:	02c12083          	lw	ra,44(sp)
10003238:	02812403          	lw	s0,40(sp)
1000323c:	02412483          	lw	s1,36(sp)
10003240:	02012903          	lw	s2,32(sp)
10003244:	01c12983          	lw	s3,28(sp)
10003248:	03010113          	addi	sp,sp,48
1000324c:	00008067          	ret
10003250:	ff87f493          	andi	s1,a5,-8
10003254:	1807c663          	bltz	a5,100033e0 <_malloc_r+0x238>
10003258:	18b4e463          	bltu	s1,a1,100033e0 <_malloc_r+0x238>
1000325c:	710000ef          	jal	1000396c <__malloc_lock>
10003260:	1f700793          	li	a5,503
10003264:	3e97fc63          	bgeu	a5,s1,1000365c <_malloc_r+0x4b4>
10003268:	0094d793          	srli	a5,s1,0x9
1000326c:	18078263          	beqz	a5,100033f0 <_malloc_r+0x248>
10003270:	00400713          	li	a4,4
10003274:	34f76263          	bltu	a4,a5,100035b8 <_malloc_r+0x410>
10003278:	0064d793          	srli	a5,s1,0x6
1000327c:	03978593          	addi	a1,a5,57
10003280:	03878813          	addi	a6,a5,56
10003284:	00359613          	slli	a2,a1,0x3
10003288:	10012937          	lui	s2,0x10012
1000328c:	ac890913          	addi	s2,s2,-1336 # 10011ac8 <__malloc_av_>
10003290:	00c90633          	add	a2,s2,a2
10003294:	00462403          	lw	s0,4(a2)
10003298:	ff860613          	addi	a2,a2,-8
1000329c:	02860863          	beq	a2,s0,100032cc <_malloc_r+0x124>
100032a0:	00f00513          	li	a0,15
100032a4:	0140006f          	j	100032b8 <_malloc_r+0x110>
100032a8:	00c42683          	lw	a3,12(s0)
100032ac:	28075a63          	bgez	a4,10003540 <_malloc_r+0x398>
100032b0:	00d60e63          	beq	a2,a3,100032cc <_malloc_r+0x124>
100032b4:	00068413          	mv	s0,a3
100032b8:	00442783          	lw	a5,4(s0)
100032bc:	ffc7f793          	andi	a5,a5,-4
100032c0:	40978733          	sub	a4,a5,s1
100032c4:	fee552e3          	bge	a0,a4,100032a8 <_malloc_r+0x100>
100032c8:	00080593          	mv	a1,a6
100032cc:	01092403          	lw	s0,16(s2)
100032d0:	10012837          	lui	a6,0x10012
100032d4:	ad080813          	addi	a6,a6,-1328 # 10011ad0 <__malloc_av_+0x8>
100032d8:	27040063          	beq	s0,a6,10003538 <_malloc_r+0x390>
100032dc:	00442783          	lw	a5,4(s0)
100032e0:	00f00693          	li	a3,15
100032e4:	ffc7f793          	andi	a5,a5,-4
100032e8:	40978733          	sub	a4,a5,s1
100032ec:	36e6ce63          	blt	a3,a4,10003668 <_malloc_r+0x4c0>
100032f0:	01092a23          	sw	a6,20(s2)
100032f4:	01092823          	sw	a6,16(s2)
100032f8:	34075263          	bgez	a4,1000363c <_malloc_r+0x494>
100032fc:	1ff00713          	li	a4,511
10003300:	00492503          	lw	a0,4(s2)
10003304:	24f76a63          	bltu	a4,a5,10003558 <_malloc_r+0x3b0>
10003308:	ff87f713          	andi	a4,a5,-8
1000330c:	00870713          	addi	a4,a4,8
10003310:	00e90733          	add	a4,s2,a4
10003314:	00072683          	lw	a3,0(a4)
10003318:	0057d613          	srli	a2,a5,0x5
1000331c:	00100793          	li	a5,1
10003320:	00c797b3          	sll	a5,a5,a2
10003324:	00f56533          	or	a0,a0,a5
10003328:	ff870793          	addi	a5,a4,-8
1000332c:	00f42623          	sw	a5,12(s0)
10003330:	00d42423          	sw	a3,8(s0)
10003334:	00a92223          	sw	a0,4(s2)
10003338:	00872023          	sw	s0,0(a4)
1000333c:	0086a623          	sw	s0,12(a3)
10003340:	4025d793          	srai	a5,a1,0x2
10003344:	00100613          	li	a2,1
10003348:	00f61633          	sll	a2,a2,a5
1000334c:	0ac56a63          	bltu	a0,a2,10003400 <_malloc_r+0x258>
10003350:	00a677b3          	and	a5,a2,a0
10003354:	02079463          	bnez	a5,1000337c <_malloc_r+0x1d4>
10003358:	00161613          	slli	a2,a2,0x1
1000335c:	ffc5f593          	andi	a1,a1,-4
10003360:	00a677b3          	and	a5,a2,a0
10003364:	00458593          	addi	a1,a1,4
10003368:	00079a63          	bnez	a5,1000337c <_malloc_r+0x1d4>
1000336c:	00161613          	slli	a2,a2,0x1
10003370:	00a677b3          	and	a5,a2,a0
10003374:	00458593          	addi	a1,a1,4
10003378:	fe078ae3          	beqz	a5,1000336c <_malloc_r+0x1c4>
1000337c:	00f00893          	li	a7,15
10003380:	00359313          	slli	t1,a1,0x3
10003384:	00690333          	add	t1,s2,t1
10003388:	00030513          	mv	a0,t1
1000338c:	00c52783          	lw	a5,12(a0)
10003390:	00058e13          	mv	t3,a1
10003394:	24f50463          	beq	a0,a5,100035dc <_malloc_r+0x434>
10003398:	0047a703          	lw	a4,4(a5)
1000339c:	00078413          	mv	s0,a5
100033a0:	00c7a783          	lw	a5,12(a5)
100033a4:	ffc77713          	andi	a4,a4,-4
100033a8:	409706b3          	sub	a3,a4,s1
100033ac:	24d8c463          	blt	a7,a3,100035f4 <_malloc_r+0x44c>
100033b0:	fe06c2e3          	bltz	a3,10003394 <_malloc_r+0x1ec>
100033b4:	00e40733          	add	a4,s0,a4
100033b8:	00472683          	lw	a3,4(a4)
100033bc:	00842603          	lw	a2,8(s0)
100033c0:	00098513          	mv	a0,s3
100033c4:	0016e693          	ori	a3,a3,1
100033c8:	00d72223          	sw	a3,4(a4)
100033cc:	00f62623          	sw	a5,12(a2)
100033d0:	00c7a423          	sw	a2,8(a5)
100033d4:	59c000ef          	jal	10003970 <__malloc_unlock>
100033d8:	00840513          	addi	a0,s0,8
100033dc:	e59ff06f          	j	10003234 <_malloc_r+0x8c>
100033e0:	00c00793          	li	a5,12
100033e4:	00f9a023          	sw	a5,0(s3)
100033e8:	00000513          	li	a0,0
100033ec:	e49ff06f          	j	10003234 <_malloc_r+0x8c>
100033f0:	20000613          	li	a2,512
100033f4:	04000593          	li	a1,64
100033f8:	03f00813          	li	a6,63
100033fc:	e8dff06f          	j	10003288 <_malloc_r+0xe0>
10003400:	00892403          	lw	s0,8(s2)
10003404:	01612823          	sw	s6,16(sp)
10003408:	00442783          	lw	a5,4(s0)
1000340c:	ffc7fb13          	andi	s6,a5,-4
10003410:	009b6863          	bltu	s6,s1,10003420 <_malloc_r+0x278>
10003414:	409b0733          	sub	a4,s6,s1
10003418:	00f00793          	li	a5,15
1000341c:	0ce7cc63          	blt	a5,a4,100034f4 <_malloc_r+0x34c>
10003420:	01912223          	sw	s9,4(sp)
10003424:	01512a23          	sw	s5,20(sp)
10003428:	8801a703          	lw	a4,-1920(gp) # 100120c0 <__malloc_sbrk_base>
1000342c:	91c1aa83          	lw	s5,-1764(gp) # 1001215c <__malloc_top_pad>
10003430:	01412c23          	sw	s4,24(sp)
10003434:	01712623          	sw	s7,12(sp)
10003438:	fff00793          	li	a5,-1
1000343c:	01640a33          	add	s4,s0,s6
10003440:	01548ab3          	add	s5,s1,s5
10003444:	3cf70a63          	beq	a4,a5,10003818 <_malloc_r+0x670>
10003448:	000017b7          	lui	a5,0x1
1000344c:	00f78793          	addi	a5,a5,15 # 100f <__heap_size+0xf>
10003450:	00fa8ab3          	add	s5,s5,a5
10003454:	fffff7b7          	lui	a5,0xfffff
10003458:	00fafab3          	and	s5,s5,a5
1000345c:	000a8593          	mv	a1,s5
10003460:	00098513          	mv	a0,s3
10003464:	0f1030ef          	jal	10006d54 <_sbrk_r>
10003468:	fff00793          	li	a5,-1
1000346c:	00050b93          	mv	s7,a0
10003470:	44f50e63          	beq	a0,a5,100038cc <_malloc_r+0x724>
10003474:	01812423          	sw	s8,8(sp)
10003478:	25456063          	bltu	a0,s4,100036b8 <_malloc_r+0x510>
1000347c:	1001cc37          	lui	s8,0x1001c
10003480:	588c0c13          	addi	s8,s8,1416 # 1001c588 <__malloc_current_mallinfo>
10003484:	000c2583          	lw	a1,0(s8)
10003488:	00ba85b3          	add	a1,s5,a1
1000348c:	00bc2023          	sw	a1,0(s8)
10003490:	00058713          	mv	a4,a1
10003494:	2aaa1863          	bne	s4,a0,10003744 <_malloc_r+0x59c>
10003498:	01451793          	slli	a5,a0,0x14
1000349c:	2a079463          	bnez	a5,10003744 <_malloc_r+0x59c>
100034a0:	00892b83          	lw	s7,8(s2)
100034a4:	015b07b3          	add	a5,s6,s5
100034a8:	0017e793          	ori	a5,a5,1
100034ac:	00fba223          	sw	a5,4(s7)
100034b0:	9181a683          	lw	a3,-1768(gp) # 10012158 <__malloc_max_sbrked_mem>
100034b4:	00b6f463          	bgeu	a3,a1,100034bc <_malloc_r+0x314>
100034b8:	90b1ac23          	sw	a1,-1768(gp) # 10012158 <__malloc_max_sbrked_mem>
100034bc:	9141a683          	lw	a3,-1772(gp) # 10012154 <__malloc_max_total_mem>
100034c0:	00b6f463          	bgeu	a3,a1,100034c8 <_malloc_r+0x320>
100034c4:	90b1aa23          	sw	a1,-1772(gp) # 10012154 <__malloc_max_total_mem>
100034c8:	00812c03          	lw	s8,8(sp)
100034cc:	000b8413          	mv	s0,s7
100034d0:	ffc7f793          	andi	a5,a5,-4
100034d4:	40978733          	sub	a4,a5,s1
100034d8:	3897ec63          	bltu	a5,s1,10003870 <_malloc_r+0x6c8>
100034dc:	00f00793          	li	a5,15
100034e0:	38e7d863          	bge	a5,a4,10003870 <_malloc_r+0x6c8>
100034e4:	01812a03          	lw	s4,24(sp)
100034e8:	01412a83          	lw	s5,20(sp)
100034ec:	00c12b83          	lw	s7,12(sp)
100034f0:	00412c83          	lw	s9,4(sp)
100034f4:	0014e793          	ori	a5,s1,1
100034f8:	00f42223          	sw	a5,4(s0)
100034fc:	009404b3          	add	s1,s0,s1
10003500:	00992423          	sw	s1,8(s2)
10003504:	00176713          	ori	a4,a4,1
10003508:	00098513          	mv	a0,s3
1000350c:	00e4a223          	sw	a4,4(s1)
10003510:	460000ef          	jal	10003970 <__malloc_unlock>
10003514:	02c12083          	lw	ra,44(sp)
10003518:	00840513          	addi	a0,s0,8
1000351c:	02812403          	lw	s0,40(sp)
10003520:	01012b03          	lw	s6,16(sp)
10003524:	02412483          	lw	s1,36(sp)
10003528:	02012903          	lw	s2,32(sp)
1000352c:	01c12983          	lw	s3,28(sp)
10003530:	03010113          	addi	sp,sp,48
10003534:	00008067          	ret
10003538:	00492503          	lw	a0,4(s2)
1000353c:	e05ff06f          	j	10003340 <_malloc_r+0x198>
10003540:	00842603          	lw	a2,8(s0)
10003544:	ccdff06f          	j	10003210 <_malloc_r+0x68>
10003548:	00c7a403          	lw	s0,12(a5) # fffff00c <_sp+0xeffe1930>
1000354c:	00258593          	addi	a1,a1,2
10003550:	d6878ee3          	beq	a5,s0,100032cc <_malloc_r+0x124>
10003554:	cadff06f          	j	10003200 <_malloc_r+0x58>
10003558:	0097d713          	srli	a4,a5,0x9
1000355c:	00400693          	li	a3,4
10003560:	14e6f263          	bgeu	a3,a4,100036a4 <_malloc_r+0x4fc>
10003564:	01400693          	li	a3,20
10003568:	32e6e663          	bltu	a3,a4,10003894 <_malloc_r+0x6ec>
1000356c:	05c70613          	addi	a2,a4,92
10003570:	05b70693          	addi	a3,a4,91
10003574:	00361613          	slli	a2,a2,0x3
10003578:	00c90633          	add	a2,s2,a2
1000357c:	00062703          	lw	a4,0(a2)
10003580:	ff860613          	addi	a2,a2,-8
10003584:	00e61863          	bne	a2,a4,10003594 <_malloc_r+0x3ec>
10003588:	2980006f          	j	10003820 <_malloc_r+0x678>
1000358c:	00872703          	lw	a4,8(a4)
10003590:	00e60863          	beq	a2,a4,100035a0 <_malloc_r+0x3f8>
10003594:	00472683          	lw	a3,4(a4)
10003598:	ffc6f693          	andi	a3,a3,-4
1000359c:	fed7e8e3          	bltu	a5,a3,1000358c <_malloc_r+0x3e4>
100035a0:	00c72603          	lw	a2,12(a4)
100035a4:	00c42623          	sw	a2,12(s0)
100035a8:	00e42423          	sw	a4,8(s0)
100035ac:	00862423          	sw	s0,8(a2)
100035b0:	00872623          	sw	s0,12(a4)
100035b4:	d8dff06f          	j	10003340 <_malloc_r+0x198>
100035b8:	01400713          	li	a4,20
100035bc:	10f77863          	bgeu	a4,a5,100036cc <_malloc_r+0x524>
100035c0:	05400713          	li	a4,84
100035c4:	2ef76663          	bltu	a4,a5,100038b0 <_malloc_r+0x708>
100035c8:	00c4d793          	srli	a5,s1,0xc
100035cc:	06f78593          	addi	a1,a5,111
100035d0:	06e78813          	addi	a6,a5,110
100035d4:	00359613          	slli	a2,a1,0x3
100035d8:	cb1ff06f          	j	10003288 <_malloc_r+0xe0>
100035dc:	001e0e13          	addi	t3,t3,1
100035e0:	003e7793          	andi	a5,t3,3
100035e4:	00850513          	addi	a0,a0,8
100035e8:	10078063          	beqz	a5,100036e8 <_malloc_r+0x540>
100035ec:	00c52783          	lw	a5,12(a0)
100035f0:	da5ff06f          	j	10003394 <_malloc_r+0x1ec>
100035f4:	00842603          	lw	a2,8(s0)
100035f8:	0014e593          	ori	a1,s1,1
100035fc:	00b42223          	sw	a1,4(s0)
10003600:	00f62623          	sw	a5,12(a2)
10003604:	00c7a423          	sw	a2,8(a5)
10003608:	009404b3          	add	s1,s0,s1
1000360c:	00992a23          	sw	s1,20(s2)
10003610:	00992823          	sw	s1,16(s2)
10003614:	0016e793          	ori	a5,a3,1
10003618:	0104a623          	sw	a6,12(s1)
1000361c:	0104a423          	sw	a6,8(s1)
10003620:	00f4a223          	sw	a5,4(s1)
10003624:	00e40733          	add	a4,s0,a4
10003628:	00098513          	mv	a0,s3
1000362c:	00d72023          	sw	a3,0(a4)
10003630:	340000ef          	jal	10003970 <__malloc_unlock>
10003634:	00840513          	addi	a0,s0,8
10003638:	bfdff06f          	j	10003234 <_malloc_r+0x8c>
1000363c:	00f407b3          	add	a5,s0,a5
10003640:	0047a703          	lw	a4,4(a5)
10003644:	00098513          	mv	a0,s3
10003648:	00176713          	ori	a4,a4,1
1000364c:	00e7a223          	sw	a4,4(a5)
10003650:	320000ef          	jal	10003970 <__malloc_unlock>
10003654:	00840513          	addi	a0,s0,8
10003658:	bddff06f          	j	10003234 <_malloc_r+0x8c>
1000365c:	0034d593          	srli	a1,s1,0x3
10003660:	00848793          	addi	a5,s1,8
10003664:	b85ff06f          	j	100031e8 <_malloc_r+0x40>
10003668:	0014e693          	ori	a3,s1,1
1000366c:	00d42223          	sw	a3,4(s0)
10003670:	009404b3          	add	s1,s0,s1
10003674:	00992a23          	sw	s1,20(s2)
10003678:	00992823          	sw	s1,16(s2)
1000367c:	00176693          	ori	a3,a4,1
10003680:	0104a623          	sw	a6,12(s1)
10003684:	0104a423          	sw	a6,8(s1)
10003688:	00d4a223          	sw	a3,4(s1)
1000368c:	00f407b3          	add	a5,s0,a5
10003690:	00098513          	mv	a0,s3
10003694:	00e7a023          	sw	a4,0(a5)
10003698:	2d8000ef          	jal	10003970 <__malloc_unlock>
1000369c:	00840513          	addi	a0,s0,8
100036a0:	b95ff06f          	j	10003234 <_malloc_r+0x8c>
100036a4:	0067d713          	srli	a4,a5,0x6
100036a8:	03970613          	addi	a2,a4,57
100036ac:	03870693          	addi	a3,a4,56
100036b0:	00361613          	slli	a2,a2,0x3
100036b4:	ec5ff06f          	j	10003578 <_malloc_r+0x3d0>
100036b8:	07240c63          	beq	s0,s2,10003730 <_malloc_r+0x588>
100036bc:	00892403          	lw	s0,8(s2)
100036c0:	00812c03          	lw	s8,8(sp)
100036c4:	00442783          	lw	a5,4(s0)
100036c8:	e09ff06f          	j	100034d0 <_malloc_r+0x328>
100036cc:	05c78593          	addi	a1,a5,92
100036d0:	05b78813          	addi	a6,a5,91
100036d4:	00359613          	slli	a2,a1,0x3
100036d8:	bb1ff06f          	j	10003288 <_malloc_r+0xe0>
100036dc:	00832783          	lw	a5,8(t1)
100036e0:	fff58593          	addi	a1,a1,-1
100036e4:	28679063          	bne	a5,t1,10003964 <_malloc_r+0x7bc>
100036e8:	0035f793          	andi	a5,a1,3
100036ec:	ff830313          	addi	t1,t1,-8
100036f0:	fe0796e3          	bnez	a5,100036dc <_malloc_r+0x534>
100036f4:	00492703          	lw	a4,4(s2)
100036f8:	fff64793          	not	a5,a2
100036fc:	00e7f7b3          	and	a5,a5,a4
10003700:	00f92223          	sw	a5,4(s2)
10003704:	00161613          	slli	a2,a2,0x1
10003708:	cec7ece3          	bltu	a5,a2,10003400 <_malloc_r+0x258>
1000370c:	ce060ae3          	beqz	a2,10003400 <_malloc_r+0x258>
10003710:	00f67733          	and	a4,a2,a5
10003714:	00071a63          	bnez	a4,10003728 <_malloc_r+0x580>
10003718:	00161613          	slli	a2,a2,0x1
1000371c:	00f67733          	and	a4,a2,a5
10003720:	004e0e13          	addi	t3,t3,4
10003724:	fe070ae3          	beqz	a4,10003718 <_malloc_r+0x570>
10003728:	000e0593          	mv	a1,t3
1000372c:	c55ff06f          	j	10003380 <_malloc_r+0x1d8>
10003730:	1001cc37          	lui	s8,0x1001c
10003734:	588c0c13          	addi	s8,s8,1416 # 1001c588 <__malloc_current_mallinfo>
10003738:	000c2703          	lw	a4,0(s8)
1000373c:	00ea8733          	add	a4,s5,a4
10003740:	00ec2023          	sw	a4,0(s8)
10003744:	8801a683          	lw	a3,-1920(gp) # 100120c0 <__malloc_sbrk_base>
10003748:	fff00793          	li	a5,-1
1000374c:	18f68663          	beq	a3,a5,100038d8 <_malloc_r+0x730>
10003750:	414b87b3          	sub	a5,s7,s4
10003754:	00e787b3          	add	a5,a5,a4
10003758:	00fc2023          	sw	a5,0(s8)
1000375c:	007bfc93          	andi	s9,s7,7
10003760:	0c0c8c63          	beqz	s9,10003838 <_malloc_r+0x690>
10003764:	419b8bb3          	sub	s7,s7,s9
10003768:	000017b7          	lui	a5,0x1
1000376c:	00878793          	addi	a5,a5,8 # 1008 <__heap_size+0x8>
10003770:	008b8b93          	addi	s7,s7,8
10003774:	419785b3          	sub	a1,a5,s9
10003778:	015b8ab3          	add	s5,s7,s5
1000377c:	415585b3          	sub	a1,a1,s5
10003780:	01459593          	slli	a1,a1,0x14
10003784:	0145da13          	srli	s4,a1,0x14
10003788:	000a0593          	mv	a1,s4
1000378c:	00098513          	mv	a0,s3
10003790:	5c4030ef          	jal	10006d54 <_sbrk_r>
10003794:	fff00793          	li	a5,-1
10003798:	18f50063          	beq	a0,a5,10003918 <_malloc_r+0x770>
1000379c:	41750533          	sub	a0,a0,s7
100037a0:	01450ab3          	add	s5,a0,s4
100037a4:	000c2703          	lw	a4,0(s8)
100037a8:	01792423          	sw	s7,8(s2)
100037ac:	001ae793          	ori	a5,s5,1
100037b0:	00ea05b3          	add	a1,s4,a4
100037b4:	00bc2023          	sw	a1,0(s8)
100037b8:	00fba223          	sw	a5,4(s7)
100037bc:	cf240ae3          	beq	s0,s2,100034b0 <_malloc_r+0x308>
100037c0:	00f00693          	li	a3,15
100037c4:	0b66f063          	bgeu	a3,s6,10003864 <_malloc_r+0x6bc>
100037c8:	00442703          	lw	a4,4(s0)
100037cc:	ff4b0793          	addi	a5,s6,-12
100037d0:	ff87f793          	andi	a5,a5,-8
100037d4:	00177713          	andi	a4,a4,1
100037d8:	00f76733          	or	a4,a4,a5
100037dc:	00e42223          	sw	a4,4(s0)
100037e0:	00500613          	li	a2,5
100037e4:	00f40733          	add	a4,s0,a5
100037e8:	00c72223          	sw	a2,4(a4)
100037ec:	00c72423          	sw	a2,8(a4)
100037f0:	00f6e663          	bltu	a3,a5,100037fc <_malloc_r+0x654>
100037f4:	004ba783          	lw	a5,4(s7)
100037f8:	cb9ff06f          	j	100034b0 <_malloc_r+0x308>
100037fc:	00840593          	addi	a1,s0,8
10003800:	00098513          	mv	a0,s3
10003804:	ea0ff0ef          	jal	10002ea4 <_free_r>
10003808:	00892b83          	lw	s7,8(s2)
1000380c:	000c2583          	lw	a1,0(s8)
10003810:	004ba783          	lw	a5,4(s7)
10003814:	c9dff06f          	j	100034b0 <_malloc_r+0x308>
10003818:	010a8a93          	addi	s5,s5,16
1000381c:	c41ff06f          	j	1000345c <_malloc_r+0x2b4>
10003820:	4026d693          	srai	a3,a3,0x2
10003824:	00100793          	li	a5,1
10003828:	00d797b3          	sll	a5,a5,a3
1000382c:	00f56533          	or	a0,a0,a5
10003830:	00a92223          	sw	a0,4(s2)
10003834:	d71ff06f          	j	100035a4 <_malloc_r+0x3fc>
10003838:	015b85b3          	add	a1,s7,s5
1000383c:	40b005b3          	neg	a1,a1
10003840:	01459593          	slli	a1,a1,0x14
10003844:	0145da13          	srli	s4,a1,0x14
10003848:	000a0593          	mv	a1,s4
1000384c:	00098513          	mv	a0,s3
10003850:	504030ef          	jal	10006d54 <_sbrk_r>
10003854:	fff00793          	li	a5,-1
10003858:	f4f512e3          	bne	a0,a5,1000379c <_malloc_r+0x5f4>
1000385c:	00000a13          	li	s4,0
10003860:	f45ff06f          	j	100037a4 <_malloc_r+0x5fc>
10003864:	00812c03          	lw	s8,8(sp)
10003868:	00100793          	li	a5,1
1000386c:	00fba223          	sw	a5,4(s7)
10003870:	00098513          	mv	a0,s3
10003874:	0fc000ef          	jal	10003970 <__malloc_unlock>
10003878:	00000513          	li	a0,0
1000387c:	01812a03          	lw	s4,24(sp)
10003880:	01412a83          	lw	s5,20(sp)
10003884:	01012b03          	lw	s6,16(sp)
10003888:	00c12b83          	lw	s7,12(sp)
1000388c:	00412c83          	lw	s9,4(sp)
10003890:	9a5ff06f          	j	10003234 <_malloc_r+0x8c>
10003894:	05400693          	li	a3,84
10003898:	04e6e463          	bltu	a3,a4,100038e0 <_malloc_r+0x738>
1000389c:	00c7d713          	srli	a4,a5,0xc
100038a0:	06f70613          	addi	a2,a4,111
100038a4:	06e70693          	addi	a3,a4,110
100038a8:	00361613          	slli	a2,a2,0x3
100038ac:	ccdff06f          	j	10003578 <_malloc_r+0x3d0>
100038b0:	15400713          	li	a4,340
100038b4:	04f76463          	bltu	a4,a5,100038fc <_malloc_r+0x754>
100038b8:	00f4d793          	srli	a5,s1,0xf
100038bc:	07878593          	addi	a1,a5,120
100038c0:	07778813          	addi	a6,a5,119
100038c4:	00359613          	slli	a2,a1,0x3
100038c8:	9c1ff06f          	j	10003288 <_malloc_r+0xe0>
100038cc:	00892403          	lw	s0,8(s2)
100038d0:	00442783          	lw	a5,4(s0)
100038d4:	bfdff06f          	j	100034d0 <_malloc_r+0x328>
100038d8:	8971a023          	sw	s7,-1920(gp) # 100120c0 <__malloc_sbrk_base>
100038dc:	e81ff06f          	j	1000375c <_malloc_r+0x5b4>
100038e0:	15400693          	li	a3,340
100038e4:	04e6e463          	bltu	a3,a4,1000392c <_malloc_r+0x784>
100038e8:	00f7d713          	srli	a4,a5,0xf
100038ec:	07870613          	addi	a2,a4,120
100038f0:	07770693          	addi	a3,a4,119
100038f4:	00361613          	slli	a2,a2,0x3
100038f8:	c81ff06f          	j	10003578 <_malloc_r+0x3d0>
100038fc:	55400713          	li	a4,1364
10003900:	04f76463          	bltu	a4,a5,10003948 <_malloc_r+0x7a0>
10003904:	0124d793          	srli	a5,s1,0x12
10003908:	07d78593          	addi	a1,a5,125
1000390c:	07c78813          	addi	a6,a5,124
10003910:	00359613          	slli	a2,a1,0x3
10003914:	975ff06f          	j	10003288 <_malloc_r+0xe0>
10003918:	ff8c8c93          	addi	s9,s9,-8
1000391c:	019a8ab3          	add	s5,s5,s9
10003920:	417a8ab3          	sub	s5,s5,s7
10003924:	00000a13          	li	s4,0
10003928:	e7dff06f          	j	100037a4 <_malloc_r+0x5fc>
1000392c:	55400693          	li	a3,1364
10003930:	02e6e463          	bltu	a3,a4,10003958 <_malloc_r+0x7b0>
10003934:	0127d713          	srli	a4,a5,0x12
10003938:	07d70613          	addi	a2,a4,125
1000393c:	07c70693          	addi	a3,a4,124
10003940:	00361613          	slli	a2,a2,0x3
10003944:	c35ff06f          	j	10003578 <_malloc_r+0x3d0>
10003948:	3f800613          	li	a2,1016
1000394c:	07f00593          	li	a1,127
10003950:	07e00813          	li	a6,126
10003954:	935ff06f          	j	10003288 <_malloc_r+0xe0>
10003958:	3f800613          	li	a2,1016
1000395c:	07e00693          	li	a3,126
10003960:	c19ff06f          	j	10003578 <_malloc_r+0x3d0>
10003964:	00492783          	lw	a5,4(s2)
10003968:	d9dff06f          	j	10003704 <_malloc_r+0x55c>

1000396c <__malloc_lock>:
1000396c:	00008067          	ret

10003970 <__malloc_unlock>:
10003970:	00008067          	ret

10003974 <_svfprintf_r>:
10003974:	e3010113          	addi	sp,sp,-464
10003978:	1c112623          	sw	ra,460(sp)
1000397c:	1c812423          	sw	s0,456(sp)
10003980:	1b612823          	sw	s6,432(sp)
10003984:	00058413          	mv	s0,a1
10003988:	00b12223          	sw	a1,4(sp)
1000398c:	00060b13          	mv	s6,a2
10003990:	00d12823          	sw	a3,16(sp)
10003994:	02a12423          	sw	a0,40(sp)
10003998:	3b0030ef          	jal	10006d48 <_localeconv_r>
1000399c:	00052703          	lw	a4,0(a0)
100039a0:	00070513          	mv	a0,a4
100039a4:	02e12823          	sw	a4,48(sp)
100039a8:	960ff0ef          	jal	10002b08 <strlen>
100039ac:	00c45703          	lhu	a4,12(s0)
100039b0:	0c012823          	sw	zero,208(sp)
100039b4:	0c012a23          	sw	zero,212(sp)
100039b8:	0c012c23          	sw	zero,216(sp)
100039bc:	0c012e23          	sw	zero,220(sp)
100039c0:	08077713          	andi	a4,a4,128
100039c4:	02a12623          	sw	a0,44(sp)
100039c8:	00070863          	beqz	a4,100039d8 <_svfprintf_r+0x64>
100039cc:	01042703          	lw	a4,16(s0)
100039d0:	00071463          	bnez	a4,100039d8 <_svfprintf_r+0x64>
100039d4:	4000106f          	j	10004dd4 <_svfprintf_r+0x1460>
100039d8:	1c912223          	sw	s1,452(sp)
100039dc:	1d212023          	sw	s2,448(sp)
100039e0:	1b312e23          	sw	s3,444(sp)
100039e4:	1b412c23          	sw	s4,440(sp)
100039e8:	1b512a23          	sw	s5,436(sp)
100039ec:	1b712623          	sw	s7,428(sp)
100039f0:	1b812423          	sw	s8,424(sp)
100039f4:	1b912223          	sw	s9,420(sp)
100039f8:	1ba12023          	sw	s10,416(sp)
100039fc:	19b12e23          	sw	s11,412(sp)
10003a00:	10011737          	lui	a4,0x10011
10003a04:	000b0d13          	mv	s10,s6
10003a08:	3bc70793          	addi	a5,a4,956 # 100113bc <__clz_tab+0x100>
10003a0c:	000d4703          	lbu	a4,0(s10)
10003a10:	0ec10993          	addi	s3,sp,236
10003a14:	10011a37          	lui	s4,0x10011
10003a18:	0d312223          	sw	s3,196(sp)
10003a1c:	0c012623          	sw	zero,204(sp)
10003a20:	0c012423          	sw	zero,200(sp)
10003a24:	00012e23          	sw	zero,28(sp)
10003a28:	02012a23          	sw	zero,52(sp)
10003a2c:	04012023          	sw	zero,64(sp)
10003a30:	02012e23          	sw	zero,60(sp)
10003a34:	04012423          	sw	zero,72(sp)
10003a38:	04012223          	sw	zero,68(sp)
10003a3c:	00012423          	sw	zero,8(sp)
10003a40:	00f12a23          	sw	a5,20(sp)
10003a44:	02812a83          	lw	s5,40(sp)
10003a48:	00098413          	mv	s0,s3
10003a4c:	5c0a0a13          	addi	s4,s4,1472 # 100115c0 <zeroes.0>
10003a50:	22070063          	beqz	a4,10003c70 <_svfprintf_r+0x2fc>
10003a54:	000d0493          	mv	s1,s10
10003a58:	02500693          	li	a3,37
10003a5c:	3cd70663          	beq	a4,a3,10003e28 <_svfprintf_r+0x4b4>
10003a60:	0014c703          	lbu	a4,1(s1)
10003a64:	00148493          	addi	s1,s1,1
10003a68:	fe071ae3          	bnez	a4,10003a5c <_svfprintf_r+0xe8>
10003a6c:	41a48933          	sub	s2,s1,s10
10003a70:	21a48063          	beq	s1,s10,10003c70 <_svfprintf_r+0x2fc>
10003a74:	0cc12683          	lw	a3,204(sp)
10003a78:	0c812703          	lw	a4,200(sp)
10003a7c:	01a42023          	sw	s10,0(s0)
10003a80:	012686b3          	add	a3,a3,s2
10003a84:	00170713          	addi	a4,a4,1
10003a88:	01242223          	sw	s2,4(s0)
10003a8c:	0cd12623          	sw	a3,204(sp)
10003a90:	0ce12423          	sw	a4,200(sp)
10003a94:	00700693          	li	a3,7
10003a98:	00840413          	addi	s0,s0,8
10003a9c:	38e6ce63          	blt	a3,a4,10003e38 <_svfprintf_r+0x4c4>
10003aa0:	00812783          	lw	a5,8(sp)
10003aa4:	0004c703          	lbu	a4,0(s1)
10003aa8:	012787b3          	add	a5,a5,s2
10003aac:	00f12423          	sw	a5,8(sp)
10003ab0:	1c070063          	beqz	a4,10003c70 <_svfprintf_r+0x2fc>
10003ab4:	0014c883          	lbu	a7,1(s1)
10003ab8:	0a0103a3          	sb	zero,167(sp)
10003abc:	00148493          	addi	s1,s1,1
10003ac0:	fff00913          	li	s2,-1
10003ac4:	00000c93          	li	s9,0
10003ac8:	00000b93          	li	s7,0
10003acc:	05a00b13          	li	s6,90
10003ad0:	00148493          	addi	s1,s1,1
10003ad4:	fe088793          	addi	a5,a7,-32
10003ad8:	04fb6663          	bltu	s6,a5,10003b24 <_svfprintf_r+0x1b0>
10003adc:	01412703          	lw	a4,20(sp)
10003ae0:	00279793          	slli	a5,a5,0x2
10003ae4:	00e787b3          	add	a5,a5,a4
10003ae8:	0007a783          	lw	a5,0(a5)
10003aec:	00078067          	jr	a5
10003af0:	00000c93          	li	s9,0
10003af4:	fd088793          	addi	a5,a7,-48
10003af8:	00900693          	li	a3,9
10003afc:	0004c883          	lbu	a7,0(s1)
10003b00:	002c9713          	slli	a4,s9,0x2
10003b04:	01970cb3          	add	s9,a4,s9
10003b08:	001c9c93          	slli	s9,s9,0x1
10003b0c:	01978cb3          	add	s9,a5,s9
10003b10:	fd088793          	addi	a5,a7,-48
10003b14:	00148493          	addi	s1,s1,1
10003b18:	fef6f2e3          	bgeu	a3,a5,10003afc <_svfprintf_r+0x188>
10003b1c:	fe088793          	addi	a5,a7,-32
10003b20:	fafb7ee3          	bgeu	s6,a5,10003adc <_svfprintf_r+0x168>
10003b24:	14088663          	beqz	a7,10003c70 <_svfprintf_r+0x2fc>
10003b28:	13110623          	sb	a7,300(sp)
10003b2c:	0a0103a3          	sb	zero,167(sp)
10003b30:	00100d93          	li	s11,1
10003b34:	00100b13          	li	s6,1
10003b38:	12c10d13          	addi	s10,sp,300
10003b3c:	00012623          	sw	zero,12(sp)
10003b40:	00000913          	li	s2,0
10003b44:	02012223          	sw	zero,36(sp)
10003b48:	02012023          	sw	zero,32(sp)
10003b4c:	00012c23          	sw	zero,24(sp)
10003b50:	002bf293          	andi	t0,s7,2
10003b54:	00028463          	beqz	t0,10003b5c <_svfprintf_r+0x1e8>
10003b58:	002d8d93          	addi	s11,s11,2
10003b5c:	084bff93          	andi	t6,s7,132
10003b60:	0cc12603          	lw	a2,204(sp)
10003b64:	000f9663          	bnez	t6,10003b70 <_svfprintf_r+0x1fc>
10003b68:	41bc8733          	sub	a4,s9,s11
10003b6c:	42e046e3          	bgtz	a4,10004798 <_svfprintf_r+0xe24>
10003b70:	0a714703          	lbu	a4,167(sp)
10003b74:	02070a63          	beqz	a4,10003ba8 <_svfprintf_r+0x234>
10003b78:	0c812703          	lw	a4,200(sp)
10003b7c:	0a710593          	addi	a1,sp,167
10003b80:	00b42023          	sw	a1,0(s0)
10003b84:	00160613          	addi	a2,a2,1
10003b88:	00100593          	li	a1,1
10003b8c:	00170713          	addi	a4,a4,1
10003b90:	00b42223          	sw	a1,4(s0)
10003b94:	0cc12623          	sw	a2,204(sp)
10003b98:	0ce12423          	sw	a4,200(sp)
10003b9c:	00700593          	li	a1,7
10003ba0:	00840413          	addi	s0,s0,8
10003ba4:	3ce5c463          	blt	a1,a4,10003f6c <_svfprintf_r+0x5f8>
10003ba8:	02028a63          	beqz	t0,10003bdc <_svfprintf_r+0x268>
10003bac:	0c812703          	lw	a4,200(sp)
10003bb0:	00200593          	li	a1,2
10003bb4:	00260613          	addi	a2,a2,2
10003bb8:	00170713          	addi	a4,a4,1
10003bbc:	0a810793          	addi	a5,sp,168
10003bc0:	00b42223          	sw	a1,4(s0)
10003bc4:	00f42023          	sw	a5,0(s0)
10003bc8:	0cc12623          	sw	a2,204(sp)
10003bcc:	0ce12423          	sw	a4,200(sp)
10003bd0:	00700593          	li	a1,7
10003bd4:	00840413          	addi	s0,s0,8
10003bd8:	4ce5cee3          	blt	a1,a4,100048b4 <_svfprintf_r+0xf40>
10003bdc:	08000713          	li	a4,128
10003be0:	18ef8ee3          	beq	t6,a4,1000457c <_svfprintf_r+0xc08>
10003be4:	41690933          	sub	s2,s2,s6
10003be8:	29204ee3          	bgtz	s2,10004684 <_svfprintf_r+0xd10>
10003bec:	100bf713          	andi	a4,s7,256
10003bf0:	7e071a63          	bnez	a4,100043e4 <_svfprintf_r+0xa70>
10003bf4:	0c812783          	lw	a5,200(sp)
10003bf8:	01660633          	add	a2,a2,s6
10003bfc:	01a42023          	sw	s10,0(s0)
10003c00:	00178793          	addi	a5,a5,1
10003c04:	01642223          	sw	s6,4(s0)
10003c08:	0cc12623          	sw	a2,204(sp)
10003c0c:	0cf12423          	sw	a5,200(sp)
10003c10:	00700713          	li	a4,7
10003c14:	48f74863          	blt	a4,a5,100040a4 <_svfprintf_r+0x730>
10003c18:	00840413          	addi	s0,s0,8
10003c1c:	004bfe13          	andi	t3,s7,4
10003c20:	000e0663          	beqz	t3,10003c2c <_svfprintf_r+0x2b8>
10003c24:	41bc8933          	sub	s2,s9,s11
10003c28:	4b204ee3          	bgtz	s2,100048e4 <_svfprintf_r+0xf70>
10003c2c:	000c8313          	mv	t1,s9
10003c30:	01bcd463          	bge	s9,s11,10003c38 <_svfprintf_r+0x2c4>
10003c34:	000d8313          	mv	t1,s11
10003c38:	00812783          	lw	a5,8(sp)
10003c3c:	006787b3          	add	a5,a5,t1
10003c40:	00f12423          	sw	a5,8(sp)
10003c44:	320610e3          	bnez	a2,10004764 <_svfprintf_r+0xdf0>
10003c48:	00c12783          	lw	a5,12(sp)
10003c4c:	0c012423          	sw	zero,200(sp)
10003c50:	00078863          	beqz	a5,10003c60 <_svfprintf_r+0x2ec>
10003c54:	00c12583          	lw	a1,12(sp)
10003c58:	000a8513          	mv	a0,s5
10003c5c:	a48ff0ef          	jal	10002ea4 <_free_r>
10003c60:	00098413          	mv	s0,s3
10003c64:	00048d13          	mv	s10,s1
10003c68:	000d4703          	lbu	a4,0(s10)
10003c6c:	de0714e3          	bnez	a4,10003a54 <_svfprintf_r+0xe0>
10003c70:	0cc12783          	lw	a5,204(sp)
10003c74:	00078463          	beqz	a5,10003c7c <_svfprintf_r+0x308>
10003c78:	48d0106f          	j	10005904 <_svfprintf_r+0x1f90>
10003c7c:	00412783          	lw	a5,4(sp)
10003c80:	1c412483          	lw	s1,452(sp)
10003c84:	1c012903          	lw	s2,448(sp)
10003c88:	00c7d783          	lhu	a5,12(a5)
10003c8c:	1bc12983          	lw	s3,444(sp)
10003c90:	1b812a03          	lw	s4,440(sp)
10003c94:	0407f793          	andi	a5,a5,64
10003c98:	1b412a83          	lw	s5,436(sp)
10003c9c:	1ac12b83          	lw	s7,428(sp)
10003ca0:	1a812c03          	lw	s8,424(sp)
10003ca4:	1a412c83          	lw	s9,420(sp)
10003ca8:	1a012d03          	lw	s10,416(sp)
10003cac:	19c12d83          	lw	s11,412(sp)
10003cb0:	00078463          	beqz	a5,10003cb8 <_svfprintf_r+0x344>
10003cb4:	3780206f          	j	1000602c <_svfprintf_r+0x26b8>
10003cb8:	1cc12083          	lw	ra,460(sp)
10003cbc:	1c812403          	lw	s0,456(sp)
10003cc0:	00812503          	lw	a0,8(sp)
10003cc4:	1b012b03          	lw	s6,432(sp)
10003cc8:	1d010113          	addi	sp,sp,464
10003ccc:	00008067          	ret
10003cd0:	000a8513          	mv	a0,s5
10003cd4:	074030ef          	jal	10006d48 <_localeconv_r>
10003cd8:	00452783          	lw	a5,4(a0)
10003cdc:	00078513          	mv	a0,a5
10003ce0:	04f12223          	sw	a5,68(sp)
10003ce4:	e25fe0ef          	jal	10002b08 <strlen>
10003ce8:	00050793          	mv	a5,a0
10003cec:	000a8513          	mv	a0,s5
10003cf0:	00078c13          	mv	s8,a5
10003cf4:	04f12423          	sw	a5,72(sp)
10003cf8:	050030ef          	jal	10006d48 <_localeconv_r>
10003cfc:	00852703          	lw	a4,8(a0)
10003d00:	02e12e23          	sw	a4,60(sp)
10003d04:	000c0463          	beqz	s8,10003d0c <_svfprintf_r+0x398>
10003d08:	7c90006f          	j	10004cd0 <_svfprintf_r+0x135c>
10003d0c:	0004c883          	lbu	a7,0(s1)
10003d10:	dc1ff06f          	j	10003ad0 <_svfprintf_r+0x15c>
10003d14:	0004c883          	lbu	a7,0(s1)
10003d18:	020beb93          	ori	s7,s7,32
10003d1c:	db5ff06f          	j	10003ad0 <_svfprintf_r+0x15c>
10003d20:	010beb93          	ori	s7,s7,16
10003d24:	020bf793          	andi	a5,s7,32
10003d28:	3c078663          	beqz	a5,100040f4 <_svfprintf_r+0x780>
10003d2c:	01012783          	lw	a5,16(sp)
10003d30:	00778c13          	addi	s8,a5,7
10003d34:	ff8c7c13          	andi	s8,s8,-8
10003d38:	004c2783          	lw	a5,4(s8)
10003d3c:	000c2b03          	lw	s6,0(s8)
10003d40:	008c0713          	addi	a4,s8,8
10003d44:	00e12823          	sw	a4,16(sp)
10003d48:	00078d93          	mv	s11,a5
10003d4c:	3c07ce63          	bltz	a5,10004128 <_svfprintf_r+0x7b4>
10003d50:	000b8e93          	mv	t4,s7
10003d54:	00094a63          	bltz	s2,10003d68 <_svfprintf_r+0x3f4>
10003d58:	01bb67b3          	or	a5,s6,s11
10003d5c:	f7fbfe93          	andi	t4,s7,-129
10003d60:	00079463          	bnez	a5,10003d68 <_svfprintf_r+0x3f4>
10003d64:	7a90006f          	j	10004d0c <_svfprintf_r+0x1398>
10003d68:	000d8463          	beqz	s11,10003d70 <_svfprintf_r+0x3fc>
10003d6c:	3f40106f          	j	10005160 <_svfprintf_r+0x17ec>
10003d70:	00900793          	li	a5,9
10003d74:	0167f463          	bgeu	a5,s6,10003d7c <_svfprintf_r+0x408>
10003d78:	3e80106f          	j	10005160 <_svfprintf_r+0x17ec>
10003d7c:	030b0b13          	addi	s6,s6,48
10003d80:	196107a3          	sb	s6,399(sp)
10003d84:	000e8b93          	mv	s7,t4
10003d88:	00100b13          	li	s6,1
10003d8c:	18f10d13          	addi	s10,sp,399
10003d90:	0a714703          	lbu	a4,167(sp)
10003d94:	00090d93          	mv	s11,s2
10003d98:	01695463          	bge	s2,s6,10003da0 <_svfprintf_r+0x42c>
10003d9c:	000b0d93          	mv	s11,s6
10003da0:	00012623          	sw	zero,12(sp)
10003da4:	02012223          	sw	zero,36(sp)
10003da8:	02012023          	sw	zero,32(sp)
10003dac:	00012c23          	sw	zero,24(sp)
10003db0:	da0700e3          	beqz	a4,10003b50 <_svfprintf_r+0x1dc>
10003db4:	001d8d93          	addi	s11,s11,1
10003db8:	d99ff06f          	j	10003b50 <_svfprintf_r+0x1dc>
10003dbc:	010beb93          	ori	s7,s7,16
10003dc0:	020bf793          	andi	a5,s7,32
10003dc4:	30078063          	beqz	a5,100040c4 <_svfprintf_r+0x750>
10003dc8:	01012783          	lw	a5,16(sp)
10003dcc:	00778c13          	addi	s8,a5,7
10003dd0:	ff8c7c13          	andi	s8,s8,-8
10003dd4:	000c2b03          	lw	s6,0(s8)
10003dd8:	004c2d83          	lw	s11,4(s8)
10003ddc:	008c0793          	addi	a5,s8,8
10003de0:	00f12823          	sw	a5,16(sp)
10003de4:	bffbfe93          	andi	t4,s7,-1025
10003de8:	00000793          	li	a5,0
10003dec:	00000713          	li	a4,0
10003df0:	0ae103a3          	sb	a4,167(sp)
10003df4:	34094c63          	bltz	s2,1000414c <_svfprintf_r+0x7d8>
10003df8:	01bb6733          	or	a4,s6,s11
10003dfc:	f7fefb93          	andi	s7,t4,-129
10003e00:	180718e3          	bnez	a4,10004790 <_svfprintf_r+0xe1c>
10003e04:	70091e63          	bnez	s2,10004520 <_svfprintf_r+0xbac>
10003e08:	5e0792e3          	bnez	a5,10004bec <_svfprintf_r+0x1278>
10003e0c:	001efb13          	andi	s6,t4,1
10003e10:	19010d13          	addi	s10,sp,400
10003e14:	f60b0ee3          	beqz	s6,10003d90 <_svfprintf_r+0x41c>
10003e18:	03000793          	li	a5,48
10003e1c:	18f107a3          	sb	a5,399(sp)
10003e20:	18f10d13          	addi	s10,sp,399
10003e24:	f6dff06f          	j	10003d90 <_svfprintf_r+0x41c>
10003e28:	41a48933          	sub	s2,s1,s10
10003e2c:	c5a494e3          	bne	s1,s10,10003a74 <_svfprintf_r+0x100>
10003e30:	0004c703          	lbu	a4,0(s1)
10003e34:	c7dff06f          	j	10003ab0 <_svfprintf_r+0x13c>
10003e38:	00412583          	lw	a1,4(sp)
10003e3c:	0c410613          	addi	a2,sp,196
10003e40:	000a8513          	mv	a0,s5
10003e44:	009060ef          	jal	1000a64c <__ssprint_r>
10003e48:	e2051ae3          	bnez	a0,10003c7c <_svfprintf_r+0x308>
10003e4c:	00098413          	mv	s0,s3
10003e50:	c51ff06f          	j	10003aa0 <_svfprintf_r+0x12c>
10003e54:	008bf713          	andi	a4,s7,8
10003e58:	620714e3          	bnez	a4,10004c80 <_svfprintf_r+0x130c>
10003e5c:	01012783          	lw	a5,16(sp)
10003e60:	09010513          	addi	a0,sp,144
10003e64:	01112623          	sw	a7,12(sp)
10003e68:	00778c13          	addi	s8,a5,7
10003e6c:	ff8c7c13          	andi	s8,s8,-8
10003e70:	000c2583          	lw	a1,0(s8)
10003e74:	004c2603          	lw	a2,4(s8)
10003e78:	008c0793          	addi	a5,s8,8
10003e7c:	00f12823          	sw	a5,16(sp)
10003e80:	0ac0d0ef          	jal	10010f2c <__extenddftf2>
10003e84:	09012583          	lw	a1,144(sp)
10003e88:	09412603          	lw	a2,148(sp)
10003e8c:	09812683          	lw	a3,152(sp)
10003e90:	09c12703          	lw	a4,156(sp)
10003e94:	00c12883          	lw	a7,12(sp)
10003e98:	0d010513          	addi	a0,sp,208
10003e9c:	01112623          	sw	a7,12(sp)
10003ea0:	0ce12e23          	sw	a4,220(sp)
10003ea4:	0cb12823          	sw	a1,208(sp)
10003ea8:	0cc12a23          	sw	a2,212(sp)
10003eac:	0cd12c23          	sw	a3,216(sp)
10003eb0:	448030ef          	jal	100072f8 <_ldcheck>
10003eb4:	0aa12623          	sw	a0,172(sp)
10003eb8:	00200713          	li	a4,2
10003ebc:	00c12883          	lw	a7,12(sp)
10003ec0:	00e51463          	bne	a0,a4,10003ec8 <_svfprintf_r+0x554>
10003ec4:	4ec0106f          	j	100053b0 <_svfprintf_r+0x1a3c>
10003ec8:	00100713          	li	a4,1
10003ecc:	00e51463          	bne	a0,a4,10003ed4 <_svfprintf_r+0x560>
10003ed0:	0990106f          	j	10005768 <_svfprintf_r+0x1df4>
10003ed4:	06100713          	li	a4,97
10003ed8:	00e89463          	bne	a7,a4,10003ee0 <_svfprintf_r+0x56c>
10003edc:	64c0106f          	j	10005528 <_svfprintf_r+0x1bb4>
10003ee0:	04100713          	li	a4,65
10003ee4:	05800793          	li	a5,88
10003ee8:	00e89463          	bne	a7,a4,10003ef0 <_svfprintf_r+0x57c>
10003eec:	6400106f          	j	1000552c <_svfprintf_r+0x1bb8>
10003ef0:	fff00713          	li	a4,-1
10003ef4:	00e91463          	bne	s2,a4,10003efc <_svfprintf_r+0x588>
10003ef8:	2950106f          	j	1000598c <_svfprintf_r+0x2018>
10003efc:	fdf8f713          	andi	a4,a7,-33
10003f00:	04700693          	li	a3,71
10003f04:	00012623          	sw	zero,12(sp)
10003f08:	00d71663          	bne	a4,a3,10003f14 <_svfprintf_r+0x5a0>
10003f0c:	00091463          	bnez	s2,10003f14 <_svfprintf_r+0x5a0>
10003f10:	00100913          	li	s2,1
10003f14:	0dc12c03          	lw	s8,220(sp)
10003f18:	100be793          	ori	a5,s7,256
10003f1c:	04f12623          	sw	a5,76(sp)
10003f20:	02012c23          	sw	zero,56(sp)
10003f24:	0d012f83          	lw	t6,208(sp)
10003f28:	0d412f03          	lw	t5,212(sp)
10003f2c:	0d812e83          	lw	t4,216(sp)
10003f30:	000c5a63          	bgez	s8,10003f44 <_svfprintf_r+0x5d0>
10003f34:	80000737          	lui	a4,0x80000
10003f38:	02d00793          	li	a5,45
10003f3c:	01874c33          	xor	s8,a4,s8
10003f40:	02f12c23          	sw	a5,56(sp)
10003f44:	fbf88713          	addi	a4,a7,-65
10003f48:	02500693          	li	a3,37
10003f4c:	00e6f463          	bgeu	a3,a4,10003f54 <_svfprintf_r+0x5e0>
10003f50:	6240106f          	j	10005574 <_svfprintf_r+0x1c00>
10003f54:	100116b7          	lui	a3,0x10011
10003f58:	00271713          	slli	a4,a4,0x2
10003f5c:	52868693          	addi	a3,a3,1320 # 10011528 <__clz_tab+0x26c>
10003f60:	00d70733          	add	a4,a4,a3
10003f64:	00072703          	lw	a4,0(a4) # 80000000 <_sp+0x6ffe2924>
10003f68:	00070067          	jr	a4
10003f6c:	00412583          	lw	a1,4(sp)
10003f70:	0c410613          	addi	a2,sp,196
10003f74:	000a8513          	mv	a0,s5
10003f78:	05112823          	sw	a7,80(sp)
10003f7c:	05f12623          	sw	t6,76(sp)
10003f80:	02512c23          	sw	t0,56(sp)
10003f84:	6c8060ef          	jal	1000a64c <__ssprint_r>
10003f88:	7e051863          	bnez	a0,10004778 <_svfprintf_r+0xe04>
10003f8c:	0cc12603          	lw	a2,204(sp)
10003f90:	05012883          	lw	a7,80(sp)
10003f94:	04c12f83          	lw	t6,76(sp)
10003f98:	03812283          	lw	t0,56(sp)
10003f9c:	00098413          	mv	s0,s3
10003fa0:	c09ff06f          	j	10003ba8 <_svfprintf_r+0x234>
10003fa4:	0c812903          	lw	s2,200(sp)
10003fa8:	01c12783          	lw	a5,28(sp)
10003fac:	00100713          	li	a4,1
10003fb0:	01a42023          	sw	s10,0(s0)
10003fb4:	00160c13          	addi	s8,a2,1
10003fb8:	00190913          	addi	s2,s2,1
10003fbc:	00840b13          	addi	s6,s0,8
10003fc0:	32f750e3          	bge	a4,a5,10004ae0 <_svfprintf_r+0x116c>
10003fc4:	00100713          	li	a4,1
10003fc8:	00e42223          	sw	a4,4(s0)
10003fcc:	0d812623          	sw	s8,204(sp)
10003fd0:	0d212423          	sw	s2,200(sp)
10003fd4:	00700713          	li	a4,7
10003fd8:	432740e3          	blt	a4,s2,10004bf8 <_svfprintf_r+0x1284>
10003fdc:	02c12783          	lw	a5,44(sp)
10003fe0:	03012703          	lw	a4,48(sp)
10003fe4:	00190913          	addi	s2,s2,1
10003fe8:	00fc0c33          	add	s8,s8,a5
10003fec:	00eb2023          	sw	a4,0(s6)
10003ff0:	00fb2223          	sw	a5,4(s6)
10003ff4:	0d812623          	sw	s8,204(sp)
10003ff8:	0d212423          	sw	s2,200(sp)
10003ffc:	00700713          	li	a4,7
10004000:	008b0b13          	addi	s6,s6,8
10004004:	41274ce3          	blt	a4,s2,10004c1c <_svfprintf_r+0x12a8>
10004008:	0d012703          	lw	a4,208(sp)
1000400c:	01c12783          	lw	a5,28(sp)
10004010:	08010593          	addi	a1,sp,128
10004014:	08e12823          	sw	a4,144(sp)
10004018:	0d412703          	lw	a4,212(sp)
1000401c:	09010513          	addi	a0,sp,144
10004020:	08012023          	sw	zero,128(sp)
10004024:	08e12a23          	sw	a4,148(sp)
10004028:	0d812703          	lw	a4,216(sp)
1000402c:	08012223          	sw	zero,132(sp)
10004030:	08012423          	sw	zero,136(sp)
10004034:	08e12c23          	sw	a4,152(sp)
10004038:	0dc12703          	lw	a4,220(sp)
1000403c:	08012623          	sw	zero,140(sp)
10004040:	fff78413          	addi	s0,a5,-1
10004044:	08e12e23          	sw	a4,156(sp)
10004048:	44c0a0ef          	jal	1000e494 <__eqtf2>
1000404c:	2c050ae3          	beqz	a0,10004b20 <_svfprintf_r+0x11ac>
10004050:	001d0793          	addi	a5,s10,1
10004054:	00190913          	addi	s2,s2,1
10004058:	008c0c33          	add	s8,s8,s0
1000405c:	00fb2023          	sw	a5,0(s6)
10004060:	008b2223          	sw	s0,4(s6)
10004064:	0d812623          	sw	s8,204(sp)
10004068:	0d212423          	sw	s2,200(sp)
1000406c:	00700793          	li	a5,7
10004070:	008b0b13          	addi	s6,s6,8
10004074:	2927c4e3          	blt	a5,s2,10004afc <_svfprintf_r+0x1188>
10004078:	04012683          	lw	a3,64(sp)
1000407c:	0b410713          	addi	a4,sp,180
10004080:	00190793          	addi	a5,s2,1
10004084:	01868633          	add	a2,a3,s8
10004088:	00eb2023          	sw	a4,0(s6)
1000408c:	00db2223          	sw	a3,4(s6)
10004090:	0cc12623          	sw	a2,204(sp)
10004094:	0cf12423          	sw	a5,200(sp)
10004098:	00700713          	li	a4,7
1000409c:	008b0413          	addi	s0,s6,8
100040a0:	b6f75ee3          	bge	a4,a5,10003c1c <_svfprintf_r+0x2a8>
100040a4:	00412583          	lw	a1,4(sp)
100040a8:	0c410613          	addi	a2,sp,196
100040ac:	000a8513          	mv	a0,s5
100040b0:	59c060ef          	jal	1000a64c <__ssprint_r>
100040b4:	6c051263          	bnez	a0,10004778 <_svfprintf_r+0xe04>
100040b8:	0cc12603          	lw	a2,204(sp)
100040bc:	00098413          	mv	s0,s3
100040c0:	b5dff06f          	j	10003c1c <_svfprintf_r+0x2a8>
100040c4:	01012703          	lw	a4,16(sp)
100040c8:	010bf793          	andi	a5,s7,16
100040cc:	00072b03          	lw	s6,0(a4)
100040d0:	00470713          	addi	a4,a4,4
100040d4:	00e12823          	sw	a4,16(sp)
100040d8:	3a0790e3          	bnez	a5,10004c78 <_svfprintf_r+0x1304>
100040dc:	040bf793          	andi	a5,s7,64
100040e0:	380788e3          	beqz	a5,10004c70 <_svfprintf_r+0x12fc>
100040e4:	010b1b13          	slli	s6,s6,0x10
100040e8:	010b5b13          	srli	s6,s6,0x10
100040ec:	00000d93          	li	s11,0
100040f0:	cf5ff06f          	j	10003de4 <_svfprintf_r+0x470>
100040f4:	01012703          	lw	a4,16(sp)
100040f8:	010bf793          	andi	a5,s7,16
100040fc:	00072b03          	lw	s6,0(a4)
10004100:	00470713          	addi	a4,a4,4
10004104:	00e12823          	sw	a4,16(sp)
10004108:	34079ee3          	bnez	a5,10004c64 <_svfprintf_r+0x12f0>
1000410c:	040bf793          	andi	a5,s7,64
10004110:	340786e3          	beqz	a5,10004c5c <_svfprintf_r+0x12e8>
10004114:	010b1b13          	slli	s6,s6,0x10
10004118:	410b5b13          	srai	s6,s6,0x10
1000411c:	41fb5d93          	srai	s11,s6,0x1f
10004120:	000d8793          	mv	a5,s11
10004124:	c207d6e3          	bgez	a5,10003d50 <_svfprintf_r+0x3dc>
10004128:	02d00713          	li	a4,45
1000412c:	016037b3          	snez	a5,s6
10004130:	41b00db3          	neg	s11,s11
10004134:	0ae103a3          	sb	a4,167(sp)
10004138:	40fd8db3          	sub	s11,s11,a5
1000413c:	41600b33          	neg	s6,s6
10004140:	000b8e93          	mv	t4,s7
10004144:	00100793          	li	a5,1
10004148:	ca0958e3          	bgez	s2,10003df8 <_svfprintf_r+0x484>
1000414c:	00100713          	li	a4,1
10004150:	c0e78ce3          	beq	a5,a4,10003d68 <_svfprintf_r+0x3f4>
10004154:	00200713          	li	a4,2
10004158:	3ee78063          	beq	a5,a4,10004538 <_svfprintf_r+0xbc4>
1000415c:	19010d13          	addi	s10,sp,400
10004160:	01dd9793          	slli	a5,s11,0x1d
10004164:	007b7713          	andi	a4,s6,7
10004168:	003b5b13          	srli	s6,s6,0x3
1000416c:	03070713          	addi	a4,a4,48
10004170:	0167eb33          	or	s6,a5,s6
10004174:	003ddd93          	srli	s11,s11,0x3
10004178:	feed0fa3          	sb	a4,-1(s10)
1000417c:	01bb67b3          	or	a5,s6,s11
10004180:	000d0613          	mv	a2,s10
10004184:	fffd0d13          	addi	s10,s10,-1
10004188:	fc079ce3          	bnez	a5,10004160 <_svfprintf_r+0x7ec>
1000418c:	001ef693          	andi	a3,t4,1
10004190:	3c068e63          	beqz	a3,1000456c <_svfprintf_r+0xbf8>
10004194:	03000693          	li	a3,48
10004198:	3cd70a63          	beq	a4,a3,1000456c <_svfprintf_r+0xbf8>
1000419c:	ffe60613          	addi	a2,a2,-2
100041a0:	19010793          	addi	a5,sp,400
100041a4:	fedd0fa3          	sb	a3,-1(s10)
100041a8:	40c78b33          	sub	s6,a5,a2
100041ac:	000e8b93          	mv	s7,t4
100041b0:	00060d13          	mv	s10,a2
100041b4:	bddff06f          	j	10003d90 <_svfprintf_r+0x41c>
100041b8:	01012783          	lw	a5,16(sp)
100041bc:	0a0103a3          	sb	zero,167(sp)
100041c0:	0007ad03          	lw	s10,0(a5)
100041c4:	00478c13          	addi	s8,a5,4
100041c8:	000d1463          	bnez	s10,100041d0 <_svfprintf_r+0x85c>
100041cc:	27c0106f          	j	10005448 <_svfprintf_r+0x1ad4>
100041d0:	44094ee3          	bltz	s2,10004e2c <_svfprintf_r+0x14b8>
100041d4:	00090613          	mv	a2,s2
100041d8:	00000593          	li	a1,0
100041dc:	000d0513          	mv	a0,s10
100041e0:	01112823          	sw	a7,16(sp)
100041e4:	1f5020ef          	jal	10006bd8 <memchr>
100041e8:	00a12623          	sw	a0,12(sp)
100041ec:	01012883          	lw	a7,16(sp)
100041f0:	00051463          	bnez	a0,100041f8 <_svfprintf_r+0x884>
100041f4:	44d0106f          	j	10005e40 <_svfprintf_r+0x24cc>
100041f8:	00c12783          	lw	a5,12(sp)
100041fc:	0a714703          	lbu	a4,167(sp)
10004200:	01812823          	sw	s8,16(sp)
10004204:	41a78b33          	sub	s6,a5,s10
10004208:	fffb4693          	not	a3,s6
1000420c:	41f6d693          	srai	a3,a3,0x1f
10004210:	00012623          	sw	zero,12(sp)
10004214:	02012223          	sw	zero,36(sp)
10004218:	02012023          	sw	zero,32(sp)
1000421c:	00012c23          	sw	zero,24(sp)
10004220:	00db7db3          	and	s11,s6,a3
10004224:	00000913          	li	s2,0
10004228:	b80716e3          	bnez	a4,10003db4 <_svfprintf_r+0x440>
1000422c:	925ff06f          	j	10003b50 <_svfprintf_r+0x1dc>
10004230:	01012703          	lw	a4,16(sp)
10004234:	0a0103a3          	sb	zero,167(sp)
10004238:	00100d93          	li	s11,1
1000423c:	00072783          	lw	a5,0(a4)
10004240:	00470713          	addi	a4,a4,4
10004244:	00e12823          	sw	a4,16(sp)
10004248:	12f10623          	sb	a5,300(sp)
1000424c:	00100b13          	li	s6,1
10004250:	12c10d13          	addi	s10,sp,300
10004254:	8e9ff06f          	j	10003b3c <_svfprintf_r+0x1c8>
10004258:	01012783          	lw	a5,16(sp)
1000425c:	0007ac83          	lw	s9,0(a5)
10004260:	00478793          	addi	a5,a5,4
10004264:	1e0cd6e3          	bgez	s9,10004c50 <_svfprintf_r+0x12dc>
10004268:	41900cb3          	neg	s9,s9
1000426c:	00f12823          	sw	a5,16(sp)
10004270:	0004c883          	lbu	a7,0(s1)
10004274:	004beb93          	ori	s7,s7,4
10004278:	859ff06f          	j	10003ad0 <_svfprintf_r+0x15c>
1000427c:	02b00793          	li	a5,43
10004280:	0004c883          	lbu	a7,0(s1)
10004284:	0af103a3          	sb	a5,167(sp)
10004288:	849ff06f          	j	10003ad0 <_svfprintf_r+0x15c>
1000428c:	0004c883          	lbu	a7,0(s1)
10004290:	080beb93          	ori	s7,s7,128
10004294:	83dff06f          	j	10003ad0 <_svfprintf_r+0x15c>
10004298:	0004c883          	lbu	a7,0(s1)
1000429c:	02a00793          	li	a5,42
100042a0:	00148693          	addi	a3,s1,1
100042a4:	00f89463          	bne	a7,a5,100042ac <_svfprintf_r+0x938>
100042a8:	6d50106f          	j	1000617c <_svfprintf_r+0x2808>
100042ac:	fd088793          	addi	a5,a7,-48
100042b0:	00900713          	li	a4,9
100042b4:	00000913          	li	s2,0
100042b8:	00900613          	li	a2,9
100042bc:	02f76463          	bltu	a4,a5,100042e4 <_svfprintf_r+0x970>
100042c0:	0006c883          	lbu	a7,0(a3)
100042c4:	00291713          	slli	a4,s2,0x2
100042c8:	01270933          	add	s2,a4,s2
100042cc:	00191913          	slli	s2,s2,0x1
100042d0:	00f90933          	add	s2,s2,a5
100042d4:	fd088793          	addi	a5,a7,-48
100042d8:	00168693          	addi	a3,a3,1
100042dc:	fef672e3          	bgeu	a2,a5,100042c0 <_svfprintf_r+0x94c>
100042e0:	220940e3          	bltz	s2,10004d00 <_svfprintf_r+0x138c>
100042e4:	00068493          	mv	s1,a3
100042e8:	fecff06f          	j	10003ad4 <_svfprintf_r+0x160>
100042ec:	0004c883          	lbu	a7,0(s1)
100042f0:	001beb93          	ori	s7,s7,1
100042f4:	fdcff06f          	j	10003ad0 <_svfprintf_r+0x15c>
100042f8:	0a714783          	lbu	a5,167(sp)
100042fc:	0004c883          	lbu	a7,0(s1)
10004300:	fc079863          	bnez	a5,10003ad0 <_svfprintf_r+0x15c>
10004304:	02000793          	li	a5,32
10004308:	0af103a3          	sb	a5,167(sp)
1000430c:	fc4ff06f          	j	10003ad0 <_svfprintf_r+0x15c>
10004310:	010bee93          	ori	t4,s7,16
10004314:	020ef793          	andi	a5,t4,32
10004318:	080784e3          	beqz	a5,10004ba0 <_svfprintf_r+0x122c>
1000431c:	01012783          	lw	a5,16(sp)
10004320:	00778c13          	addi	s8,a5,7
10004324:	ff8c7c13          	andi	s8,s8,-8
10004328:	008c0793          	addi	a5,s8,8
1000432c:	00f12823          	sw	a5,16(sp)
10004330:	000c2b03          	lw	s6,0(s8)
10004334:	004c2d83          	lw	s11,4(s8)
10004338:	00100793          	li	a5,1
1000433c:	ab1ff06f          	j	10003dec <_svfprintf_r+0x478>
10004340:	0004c883          	lbu	a7,0(s1)
10004344:	008beb93          	ori	s7,s7,8
10004348:	f88ff06f          	j	10003ad0 <_svfprintf_r+0x15c>
1000434c:	01012703          	lw	a4,16(sp)
10004350:	000087b7          	lui	a5,0x8
10004354:	83078793          	addi	a5,a5,-2000 # 7830 <__heap_size+0x6830>
10004358:	0af11423          	sh	a5,168(sp)
1000435c:	00470793          	addi	a5,a4,4
10004360:	00f12823          	sw	a5,16(sp)
10004364:	100117b7          	lui	a5,0x10011
10004368:	1a078793          	addi	a5,a5,416 # 100111a0 <__extenddftf2+0x274>
1000436c:	02f12a23          	sw	a5,52(sp)
10004370:	00072b03          	lw	s6,0(a4)
10004374:	00000d93          	li	s11,0
10004378:	002bee93          	ori	t4,s7,2
1000437c:	00200793          	li	a5,2
10004380:	07800893          	li	a7,120
10004384:	a69ff06f          	j	10003dec <_svfprintf_r+0x478>
10004388:	020bf793          	andi	a5,s7,32
1000438c:	10078ce3          	beqz	a5,10004ca4 <_svfprintf_r+0x1330>
10004390:	01012783          	lw	a5,16(sp)
10004394:	00812683          	lw	a3,8(sp)
10004398:	0007a783          	lw	a5,0(a5)
1000439c:	41f6d713          	srai	a4,a3,0x1f
100043a0:	00d7a023          	sw	a3,0(a5)
100043a4:	00e7a223          	sw	a4,4(a5)
100043a8:	01012783          	lw	a5,16(sp)
100043ac:	00048d13          	mv	s10,s1
100043b0:	00478793          	addi	a5,a5,4
100043b4:	00f12823          	sw	a5,16(sp)
100043b8:	8b1ff06f          	j	10003c68 <_svfprintf_r+0x2f4>
100043bc:	0004c883          	lbu	a7,0(s1)
100043c0:	06c00793          	li	a5,108
100043c4:	1ef880e3          	beq	a7,a5,10004da4 <_svfprintf_r+0x1430>
100043c8:	010beb93          	ori	s7,s7,16
100043cc:	f04ff06f          	j	10003ad0 <_svfprintf_r+0x15c>
100043d0:	0004c883          	lbu	a7,0(s1)
100043d4:	06800793          	li	a5,104
100043d8:	1af886e3          	beq	a7,a5,10004d84 <_svfprintf_r+0x1410>
100043dc:	040beb93          	ori	s7,s7,64
100043e0:	ef0ff06f          	j	10003ad0 <_svfprintf_r+0x15c>
100043e4:	06500713          	li	a4,101
100043e8:	bb175ee3          	bge	a4,a7,10003fa4 <_svfprintf_r+0x630>
100043ec:	0d012703          	lw	a4,208(sp)
100043f0:	08010593          	addi	a1,sp,128
100043f4:	09010513          	addi	a0,sp,144
100043f8:	08e12823          	sw	a4,144(sp)
100043fc:	0d412703          	lw	a4,212(sp)
10004400:	02c12c23          	sw	a2,56(sp)
10004404:	08012023          	sw	zero,128(sp)
10004408:	08e12a23          	sw	a4,148(sp)
1000440c:	0d812703          	lw	a4,216(sp)
10004410:	08012223          	sw	zero,132(sp)
10004414:	08012423          	sw	zero,136(sp)
10004418:	08e12c23          	sw	a4,152(sp)
1000441c:	0dc12703          	lw	a4,220(sp)
10004420:	08012623          	sw	zero,140(sp)
10004424:	08e12e23          	sw	a4,156(sp)
10004428:	06c0a0ef          	jal	1000e494 <__eqtf2>
1000442c:	03812603          	lw	a2,56(sp)
10004430:	56051263          	bnez	a0,10004994 <_svfprintf_r+0x1020>
10004434:	0c812783          	lw	a5,200(sp)
10004438:	10011737          	lui	a4,0x10011
1000443c:	1d070713          	addi	a4,a4,464 # 100111d0 <__extenddftf2+0x2a4>
10004440:	00e42023          	sw	a4,0(s0)
10004444:	00160613          	addi	a2,a2,1
10004448:	00100713          	li	a4,1
1000444c:	00178793          	addi	a5,a5,1
10004450:	00e42223          	sw	a4,4(s0)
10004454:	0cc12623          	sw	a2,204(sp)
10004458:	0cf12423          	sw	a5,200(sp)
1000445c:	00700713          	li	a4,7
10004460:	00840413          	addi	s0,s0,8
10004464:	6cf74ae3          	blt	a4,a5,10005338 <_svfprintf_r+0x19c4>
10004468:	0ac12783          	lw	a5,172(sp)
1000446c:	01c12703          	lw	a4,28(sp)
10004470:	7ce7d863          	bge	a5,a4,10004c40 <_svfprintf_r+0x12cc>
10004474:	03012783          	lw	a5,48(sp)
10004478:	02c12703          	lw	a4,44(sp)
1000447c:	00840413          	addi	s0,s0,8
10004480:	fef42c23          	sw	a5,-8(s0)
10004484:	0c812783          	lw	a5,200(sp)
10004488:	00e60633          	add	a2,a2,a4
1000448c:	fee42e23          	sw	a4,-4(s0)
10004490:	00178793          	addi	a5,a5,1
10004494:	0cc12623          	sw	a2,204(sp)
10004498:	0cf12423          	sw	a5,200(sp)
1000449c:	00700713          	li	a4,7
100044a0:	10f74ae3          	blt	a4,a5,10004db4 <_svfprintf_r+0x1440>
100044a4:	01c12783          	lw	a5,28(sp)
100044a8:	fff78913          	addi	s2,a5,-1
100044ac:	f7205863          	blez	s2,10003c1c <_svfprintf_r+0x2a8>
100044b0:	10011837          	lui	a6,0x10011
100044b4:	5c080813          	addi	a6,a6,1472 # 100115c0 <zeroes.0>
100044b8:	01000713          	li	a4,16
100044bc:	0c812783          	lw	a5,200(sp)
100044c0:	01000b13          	li	s6,16
100044c4:	00700c13          	li	s8,7
100044c8:	00080d13          	mv	s10,a6
100044cc:	01274863          	blt	a4,s2,100044dc <_svfprintf_r+0xb68>
100044d0:	68d0006f          	j	1000535c <_svfprintf_r+0x19e8>
100044d4:	ff090913          	addi	s2,s2,-16
100044d8:	692b50e3          	bge	s6,s2,10005358 <_svfprintf_r+0x19e4>
100044dc:	01060613          	addi	a2,a2,16
100044e0:	00178793          	addi	a5,a5,1
100044e4:	01a42023          	sw	s10,0(s0)
100044e8:	01642223          	sw	s6,4(s0)
100044ec:	0cc12623          	sw	a2,204(sp)
100044f0:	0cf12423          	sw	a5,200(sp)
100044f4:	00840413          	addi	s0,s0,8
100044f8:	fcfc5ee3          	bge	s8,a5,100044d4 <_svfprintf_r+0xb60>
100044fc:	00412583          	lw	a1,4(sp)
10004500:	0c410613          	addi	a2,sp,196
10004504:	000a8513          	mv	a0,s5
10004508:	144060ef          	jal	1000a64c <__ssprint_r>
1000450c:	26051663          	bnez	a0,10004778 <_svfprintf_r+0xe04>
10004510:	0cc12603          	lw	a2,204(sp)
10004514:	0c812783          	lw	a5,200(sp)
10004518:	00098413          	mv	s0,s3
1000451c:	fb9ff06f          	j	100044d4 <_svfprintf_r+0xb60>
10004520:	00100713          	li	a4,1
10004524:	00e79463          	bne	a5,a4,1000452c <_svfprintf_r+0xbb8>
10004528:	2650106f          	j	10005f8c <_svfprintf_r+0x2618>
1000452c:	00200713          	li	a4,2
10004530:	000b8e93          	mv	t4,s7
10004534:	c2e794e3          	bne	a5,a4,1000415c <_svfprintf_r+0x7e8>
10004538:	03412683          	lw	a3,52(sp)
1000453c:	19010d13          	addi	s10,sp,400
10004540:	00fb7793          	andi	a5,s6,15
10004544:	00f687b3          	add	a5,a3,a5
10004548:	0007c703          	lbu	a4,0(a5)
1000454c:	004b5b13          	srli	s6,s6,0x4
10004550:	01cd9793          	slli	a5,s11,0x1c
10004554:	0167eb33          	or	s6,a5,s6
10004558:	004ddd93          	srli	s11,s11,0x4
1000455c:	feed0fa3          	sb	a4,-1(s10)
10004560:	01bb67b3          	or	a5,s6,s11
10004564:	fffd0d13          	addi	s10,s10,-1
10004568:	fc079ce3          	bnez	a5,10004540 <_svfprintf_r+0xbcc>
1000456c:	19010793          	addi	a5,sp,400
10004570:	41a78b33          	sub	s6,a5,s10
10004574:	000e8b93          	mv	s7,t4
10004578:	819ff06f          	j	10003d90 <_svfprintf_r+0x41c>
1000457c:	41bc8c33          	sub	s8,s9,s11
10004580:	e7805263          	blez	s8,10003be4 <_svfprintf_r+0x270>
10004584:	10011837          	lui	a6,0x10011
10004588:	01000513          	li	a0,16
1000458c:	0c812583          	lw	a1,200(sp)
10004590:	5c080813          	addi	a6,a6,1472 # 100115c0 <zeroes.0>
10004594:	0b855063          	bge	a0,s8,10004634 <_svfprintf_r+0xcc0>
10004598:	02912c23          	sw	s1,56(sp)
1000459c:	00040793          	mv	a5,s0
100045a0:	01000e93          	li	t4,16
100045a4:	000c0413          	mv	s0,s8
100045a8:	00700f93          	li	t6,7
100045ac:	000b0c13          	mv	s8,s6
100045b0:	00080493          	mv	s1,a6
100045b4:	00090b13          	mv	s6,s2
100045b8:	00088913          	mv	s2,a7
100045bc:	00c0006f          	j	100045c8 <_svfprintf_r+0xc54>
100045c0:	ff040413          	addi	s0,s0,-16
100045c4:	048eda63          	bge	t4,s0,10004618 <_svfprintf_r+0xca4>
100045c8:	01060613          	addi	a2,a2,16
100045cc:	00158593          	addi	a1,a1,1
100045d0:	0097a023          	sw	s1,0(a5)
100045d4:	01d7a223          	sw	t4,4(a5)
100045d8:	0cc12623          	sw	a2,204(sp)
100045dc:	0cb12423          	sw	a1,200(sp)
100045e0:	00878793          	addi	a5,a5,8
100045e4:	fcbfdee3          	bge	t6,a1,100045c0 <_svfprintf_r+0xc4c>
100045e8:	00412583          	lw	a1,4(sp)
100045ec:	0c410613          	addi	a2,sp,196
100045f0:	000a8513          	mv	a0,s5
100045f4:	058060ef          	jal	1000a64c <__ssprint_r>
100045f8:	18051063          	bnez	a0,10004778 <_svfprintf_r+0xe04>
100045fc:	01000e93          	li	t4,16
10004600:	ff040413          	addi	s0,s0,-16
10004604:	0cc12603          	lw	a2,204(sp)
10004608:	0c812583          	lw	a1,200(sp)
1000460c:	00098793          	mv	a5,s3
10004610:	00700f93          	li	t6,7
10004614:	fa8ecae3          	blt	t4,s0,100045c8 <_svfprintf_r+0xc54>
10004618:	00048813          	mv	a6,s1
1000461c:	03812483          	lw	s1,56(sp)
10004620:	00090893          	mv	a7,s2
10004624:	000b0913          	mv	s2,s6
10004628:	000c0b13          	mv	s6,s8
1000462c:	00040c13          	mv	s8,s0
10004630:	00078413          	mv	s0,a5
10004634:	01860633          	add	a2,a2,s8
10004638:	00158593          	addi	a1,a1,1
1000463c:	01042023          	sw	a6,0(s0)
10004640:	01842223          	sw	s8,4(s0)
10004644:	0cc12623          	sw	a2,204(sp)
10004648:	0cb12423          	sw	a1,200(sp)
1000464c:	00700713          	li	a4,7
10004650:	00840413          	addi	s0,s0,8
10004654:	d8b75863          	bge	a4,a1,10003be4 <_svfprintf_r+0x270>
10004658:	00412583          	lw	a1,4(sp)
1000465c:	0c410613          	addi	a2,sp,196
10004660:	000a8513          	mv	a0,s5
10004664:	03112c23          	sw	a7,56(sp)
10004668:	7e5050ef          	jal	1000a64c <__ssprint_r>
1000466c:	10051663          	bnez	a0,10004778 <_svfprintf_r+0xe04>
10004670:	41690933          	sub	s2,s2,s6
10004674:	0cc12603          	lw	a2,204(sp)
10004678:	03812883          	lw	a7,56(sp)
1000467c:	00098413          	mv	s0,s3
10004680:	d7205663          	blez	s2,10003bec <_svfprintf_r+0x278>
10004684:	10011837          	lui	a6,0x10011
10004688:	01000713          	li	a4,16
1000468c:	0c812583          	lw	a1,200(sp)
10004690:	5c080813          	addi	a6,a6,1472 # 100115c0 <zeroes.0>
10004694:	09275263          	bge	a4,s2,10004718 <_svfprintf_r+0xda4>
10004698:	00040793          	mv	a5,s0
1000469c:	01000713          	li	a4,16
100046a0:	00090413          	mv	s0,s2
100046a4:	00700c13          	li	s8,7
100046a8:	03112c23          	sw	a7,56(sp)
100046ac:	000a0913          	mv	s2,s4
100046b0:	00c0006f          	j	100046bc <_svfprintf_r+0xd48>
100046b4:	ff040413          	addi	s0,s0,-16
100046b8:	04875863          	bge	a4,s0,10004708 <_svfprintf_r+0xd94>
100046bc:	01060613          	addi	a2,a2,16
100046c0:	00158593          	addi	a1,a1,1
100046c4:	0147a023          	sw	s4,0(a5)
100046c8:	00e7a223          	sw	a4,4(a5)
100046cc:	0cc12623          	sw	a2,204(sp)
100046d0:	0cb12423          	sw	a1,200(sp)
100046d4:	00878793          	addi	a5,a5,8
100046d8:	fcbc5ee3          	bge	s8,a1,100046b4 <_svfprintf_r+0xd40>
100046dc:	00412583          	lw	a1,4(sp)
100046e0:	0c410613          	addi	a2,sp,196
100046e4:	000a8513          	mv	a0,s5
100046e8:	765050ef          	jal	1000a64c <__ssprint_r>
100046ec:	08051663          	bnez	a0,10004778 <_svfprintf_r+0xe04>
100046f0:	01000713          	li	a4,16
100046f4:	ff040413          	addi	s0,s0,-16
100046f8:	0cc12603          	lw	a2,204(sp)
100046fc:	0c812583          	lw	a1,200(sp)
10004700:	00098793          	mv	a5,s3
10004704:	fa874ce3          	blt	a4,s0,100046bc <_svfprintf_r+0xd48>
10004708:	03812883          	lw	a7,56(sp)
1000470c:	00090813          	mv	a6,s2
10004710:	00040913          	mv	s2,s0
10004714:	00078413          	mv	s0,a5
10004718:	01260633          	add	a2,a2,s2
1000471c:	00158593          	addi	a1,a1,1
10004720:	01042023          	sw	a6,0(s0)
10004724:	01242223          	sw	s2,4(s0)
10004728:	0cc12623          	sw	a2,204(sp)
1000472c:	0cb12423          	sw	a1,200(sp)
10004730:	00700713          	li	a4,7
10004734:	00840413          	addi	s0,s0,8
10004738:	cab75a63          	bge	a4,a1,10003bec <_svfprintf_r+0x278>
1000473c:	00412583          	lw	a1,4(sp)
10004740:	0c410613          	addi	a2,sp,196
10004744:	000a8513          	mv	a0,s5
10004748:	03112c23          	sw	a7,56(sp)
1000474c:	701050ef          	jal	1000a64c <__ssprint_r>
10004750:	02051463          	bnez	a0,10004778 <_svfprintf_r+0xe04>
10004754:	0cc12603          	lw	a2,204(sp)
10004758:	03812883          	lw	a7,56(sp)
1000475c:	00098413          	mv	s0,s3
10004760:	c8cff06f          	j	10003bec <_svfprintf_r+0x278>
10004764:	00412583          	lw	a1,4(sp)
10004768:	0c410613          	addi	a2,sp,196
1000476c:	000a8513          	mv	a0,s5
10004770:	6dd050ef          	jal	1000a64c <__ssprint_r>
10004774:	cc050a63          	beqz	a0,10003c48 <_svfprintf_r+0x2d4>
10004778:	00c12783          	lw	a5,12(sp)
1000477c:	d0078063          	beqz	a5,10003c7c <_svfprintf_r+0x308>
10004780:	02812503          	lw	a0,40(sp)
10004784:	00078593          	mv	a1,a5
10004788:	f1cfe0ef          	jal	10002ea4 <_free_r>
1000478c:	cf0ff06f          	j	10003c7c <_svfprintf_r+0x308>
10004790:	000b8e93          	mv	t4,s7
10004794:	9b9ff06f          	j	1000414c <_svfprintf_r+0x7d8>
10004798:	10011837          	lui	a6,0x10011
1000479c:	01000513          	li	a0,16
100047a0:	0c812583          	lw	a1,200(sp)
100047a4:	5d080c13          	addi	s8,a6,1488 # 100115d0 <blanks.1>
100047a8:	0ae55863          	bge	a0,a4,10004858 <_svfprintf_r+0xee4>
100047ac:	02912c23          	sw	s1,56(sp)
100047b0:	00040793          	mv	a5,s0
100047b4:	000c0493          	mv	s1,s8
100047b8:	01000e93          	li	t4,16
100047bc:	000b0c13          	mv	s8,s6
100047c0:	00700393          	li	t2,7
100047c4:	00090b13          	mv	s6,s2
100047c8:	04512623          	sw	t0,76(sp)
100047cc:	05f12823          	sw	t6,80(sp)
100047d0:	00070413          	mv	s0,a4
100047d4:	00088913          	mv	s2,a7
100047d8:	00c0006f          	j	100047e4 <_svfprintf_r+0xe70>
100047dc:	ff040413          	addi	s0,s0,-16
100047e0:	048eda63          	bge	t4,s0,10004834 <_svfprintf_r+0xec0>
100047e4:	01060613          	addi	a2,a2,16
100047e8:	00158593          	addi	a1,a1,1
100047ec:	0097a023          	sw	s1,0(a5)
100047f0:	01d7a223          	sw	t4,4(a5)
100047f4:	0cc12623          	sw	a2,204(sp)
100047f8:	0cb12423          	sw	a1,200(sp)
100047fc:	00878793          	addi	a5,a5,8
10004800:	fcb3dee3          	bge	t2,a1,100047dc <_svfprintf_r+0xe68>
10004804:	00412583          	lw	a1,4(sp)
10004808:	0c410613          	addi	a2,sp,196
1000480c:	000a8513          	mv	a0,s5
10004810:	63d050ef          	jal	1000a64c <__ssprint_r>
10004814:	f60512e3          	bnez	a0,10004778 <_svfprintf_r+0xe04>
10004818:	01000e93          	li	t4,16
1000481c:	ff040413          	addi	s0,s0,-16
10004820:	0cc12603          	lw	a2,204(sp)
10004824:	0c812583          	lw	a1,200(sp)
10004828:	00098793          	mv	a5,s3
1000482c:	00700393          	li	t2,7
10004830:	fa8ecae3          	blt	t4,s0,100047e4 <_svfprintf_r+0xe70>
10004834:	00090893          	mv	a7,s2
10004838:	04c12283          	lw	t0,76(sp)
1000483c:	000b0913          	mv	s2,s6
10004840:	05012f83          	lw	t6,80(sp)
10004844:	000c0b13          	mv	s6,s8
10004848:	00048c13          	mv	s8,s1
1000484c:	03812483          	lw	s1,56(sp)
10004850:	00040713          	mv	a4,s0
10004854:	00078413          	mv	s0,a5
10004858:	00e60633          	add	a2,a2,a4
1000485c:	00158593          	addi	a1,a1,1
10004860:	00e42223          	sw	a4,4(s0)
10004864:	01842023          	sw	s8,0(s0)
10004868:	0cc12623          	sw	a2,204(sp)
1000486c:	0cb12423          	sw	a1,200(sp)
10004870:	00700713          	li	a4,7
10004874:	00840413          	addi	s0,s0,8
10004878:	aeb75c63          	bge	a4,a1,10003b70 <_svfprintf_r+0x1fc>
1000487c:	00412583          	lw	a1,4(sp)
10004880:	0c410613          	addi	a2,sp,196
10004884:	000a8513          	mv	a0,s5
10004888:	05112823          	sw	a7,80(sp)
1000488c:	05f12623          	sw	t6,76(sp)
10004890:	02512c23          	sw	t0,56(sp)
10004894:	5b9050ef          	jal	1000a64c <__ssprint_r>
10004898:	ee0510e3          	bnez	a0,10004778 <_svfprintf_r+0xe04>
1000489c:	0cc12603          	lw	a2,204(sp)
100048a0:	05012883          	lw	a7,80(sp)
100048a4:	04c12f83          	lw	t6,76(sp)
100048a8:	03812283          	lw	t0,56(sp)
100048ac:	00098413          	mv	s0,s3
100048b0:	ac0ff06f          	j	10003b70 <_svfprintf_r+0x1fc>
100048b4:	00412583          	lw	a1,4(sp)
100048b8:	0c410613          	addi	a2,sp,196
100048bc:	000a8513          	mv	a0,s5
100048c0:	05112623          	sw	a7,76(sp)
100048c4:	03f12c23          	sw	t6,56(sp)
100048c8:	585050ef          	jal	1000a64c <__ssprint_r>
100048cc:	ea0516e3          	bnez	a0,10004778 <_svfprintf_r+0xe04>
100048d0:	0cc12603          	lw	a2,204(sp)
100048d4:	04c12883          	lw	a7,76(sp)
100048d8:	03812f83          	lw	t6,56(sp)
100048dc:	00098413          	mv	s0,s3
100048e0:	afcff06f          	j	10003bdc <_svfprintf_r+0x268>
100048e4:	10011837          	lui	a6,0x10011
100048e8:	01000713          	li	a4,16
100048ec:	0c812783          	lw	a5,200(sp)
100048f0:	5d080c13          	addi	s8,a6,1488 # 100115d0 <blanks.1>
100048f4:	07275263          	bge	a4,s2,10004958 <_svfprintf_r+0xfe4>
100048f8:	00412d03          	lw	s10,4(sp)
100048fc:	01000b13          	li	s6,16
10004900:	00700b93          	li	s7,7
10004904:	00c0006f          	j	10004910 <_svfprintf_r+0xf9c>
10004908:	ff090913          	addi	s2,s2,-16
1000490c:	052b5663          	bge	s6,s2,10004958 <_svfprintf_r+0xfe4>
10004910:	01060613          	addi	a2,a2,16
10004914:	00178793          	addi	a5,a5,1
10004918:	01842023          	sw	s8,0(s0)
1000491c:	01642223          	sw	s6,4(s0)
10004920:	0cc12623          	sw	a2,204(sp)
10004924:	0cf12423          	sw	a5,200(sp)
10004928:	00840413          	addi	s0,s0,8
1000492c:	fcfbdee3          	bge	s7,a5,10004908 <_svfprintf_r+0xf94>
10004930:	0c410613          	addi	a2,sp,196
10004934:	000d0593          	mv	a1,s10
10004938:	000a8513          	mv	a0,s5
1000493c:	511050ef          	jal	1000a64c <__ssprint_r>
10004940:	e2051ce3          	bnez	a0,10004778 <_svfprintf_r+0xe04>
10004944:	ff090913          	addi	s2,s2,-16
10004948:	0cc12603          	lw	a2,204(sp)
1000494c:	0c812783          	lw	a5,200(sp)
10004950:	00098413          	mv	s0,s3
10004954:	fb2b4ee3          	blt	s6,s2,10004910 <_svfprintf_r+0xf9c>
10004958:	01260633          	add	a2,a2,s2
1000495c:	00178793          	addi	a5,a5,1
10004960:	01842023          	sw	s8,0(s0)
10004964:	01242223          	sw	s2,4(s0)
10004968:	0cc12623          	sw	a2,204(sp)
1000496c:	0cf12423          	sw	a5,200(sp)
10004970:	00700713          	li	a4,7
10004974:	aaf75c63          	bge	a4,a5,10003c2c <_svfprintf_r+0x2b8>
10004978:	00412583          	lw	a1,4(sp)
1000497c:	0c410613          	addi	a2,sp,196
10004980:	000a8513          	mv	a0,s5
10004984:	4c9050ef          	jal	1000a64c <__ssprint_r>
10004988:	de0518e3          	bnez	a0,10004778 <_svfprintf_r+0xe04>
1000498c:	0cc12603          	lw	a2,204(sp)
10004990:	a9cff06f          	j	10003c2c <_svfprintf_r+0x2b8>
10004994:	0ac12503          	lw	a0,172(sp)
10004998:	0ca05ae3          	blez	a0,1000526c <_svfprintf_r+0x18f8>
1000499c:	01812783          	lw	a5,24(sp)
100049a0:	01c12703          	lw	a4,28(sp)
100049a4:	00078913          	mv	s2,a5
100049a8:	34f74663          	blt	a4,a5,10004cf4 <_svfprintf_r+0x1380>
100049ac:	03205663          	blez	s2,100049d8 <_svfprintf_r+0x1064>
100049b0:	0c812703          	lw	a4,200(sp)
100049b4:	01260633          	add	a2,a2,s2
100049b8:	01a42023          	sw	s10,0(s0)
100049bc:	00170713          	addi	a4,a4,1
100049c0:	01242223          	sw	s2,4(s0)
100049c4:	0cc12623          	sw	a2,204(sp)
100049c8:	0ce12423          	sw	a4,200(sp)
100049cc:	00700593          	li	a1,7
100049d0:	00840413          	addi	s0,s0,8
100049d4:	6ce5c2e3          	blt	a1,a4,10005898 <_svfprintf_r+0x1f24>
100049d8:	fff94713          	not	a4,s2
100049dc:	01812783          	lw	a5,24(sp)
100049e0:	41f75713          	srai	a4,a4,0x1f
100049e4:	00e97933          	and	s2,s2,a4
100049e8:	41278933          	sub	s2,a5,s2
100049ec:	49204463          	bgtz	s2,10004e74 <_svfprintf_r+0x1500>
100049f0:	01812783          	lw	a5,24(sp)
100049f4:	400bf713          	andi	a4,s7,1024
100049f8:	00fd0c33          	add	s8,s10,a5
100049fc:	4e071663          	bnez	a4,10004ee8 <_svfprintf_r+0x1574>
10004a00:	0ac12903          	lw	s2,172(sp)
10004a04:	01c12783          	lw	a5,28(sp)
10004a08:	68f94e63          	blt	s2,a5,100050a4 <_svfprintf_r+0x1730>
10004a0c:	001bf713          	andi	a4,s7,1
10004a10:	68071a63          	bnez	a4,100050a4 <_svfprintf_r+0x1730>
10004a14:	01c12703          	lw	a4,28(sp)
10004a18:	00ed07b3          	add	a5,s10,a4
10004a1c:	41270933          	sub	s2,a4,s2
10004a20:	41878b33          	sub	s6,a5,s8
10004a24:	01695463          	bge	s2,s6,10004a2c <_svfprintf_r+0x10b8>
10004a28:	00090b13          	mv	s6,s2
10004a2c:	03605863          	blez	s6,10004a5c <_svfprintf_r+0x10e8>
10004a30:	0c812783          	lw	a5,200(sp)
10004a34:	01660633          	add	a2,a2,s6
10004a38:	01842023          	sw	s8,0(s0)
10004a3c:	00178793          	addi	a5,a5,1
10004a40:	01642223          	sw	s6,4(s0)
10004a44:	0cc12623          	sw	a2,204(sp)
10004a48:	0cf12423          	sw	a5,200(sp)
10004a4c:	00700713          	li	a4,7
10004a50:	00840413          	addi	s0,s0,8
10004a54:	00f75463          	bge	a4,a5,10004a5c <_svfprintf_r+0x10e8>
10004a58:	4200106f          	j	10005e78 <_svfprintf_r+0x2504>
10004a5c:	fffb4793          	not	a5,s6
10004a60:	41f7d793          	srai	a5,a5,0x1f
10004a64:	00fb7b33          	and	s6,s6,a5
10004a68:	41690933          	sub	s2,s2,s6
10004a6c:	9b205863          	blez	s2,10003c1c <_svfprintf_r+0x2a8>
10004a70:	10011837          	lui	a6,0x10011
10004a74:	5c080813          	addi	a6,a6,1472 # 100115c0 <zeroes.0>
10004a78:	01000713          	li	a4,16
10004a7c:	0c812783          	lw	a5,200(sp)
10004a80:	01000b13          	li	s6,16
10004a84:	00700c13          	li	s8,7
10004a88:	00080d13          	mv	s10,a6
10004a8c:	01274863          	blt	a4,s2,10004a9c <_svfprintf_r+0x1128>
10004a90:	0cd0006f          	j	1000535c <_svfprintf_r+0x19e8>
10004a94:	ff090913          	addi	s2,s2,-16
10004a98:	0d2b50e3          	bge	s6,s2,10005358 <_svfprintf_r+0x19e4>
10004a9c:	01060613          	addi	a2,a2,16
10004aa0:	00178793          	addi	a5,a5,1
10004aa4:	01a42023          	sw	s10,0(s0)
10004aa8:	01642223          	sw	s6,4(s0)
10004aac:	0cc12623          	sw	a2,204(sp)
10004ab0:	0cf12423          	sw	a5,200(sp)
10004ab4:	00840413          	addi	s0,s0,8
10004ab8:	fcfc5ee3          	bge	s8,a5,10004a94 <_svfprintf_r+0x1120>
10004abc:	00412583          	lw	a1,4(sp)
10004ac0:	0c410613          	addi	a2,sp,196
10004ac4:	000a8513          	mv	a0,s5
10004ac8:	385050ef          	jal	1000a64c <__ssprint_r>
10004acc:	ca0516e3          	bnez	a0,10004778 <_svfprintf_r+0xe04>
10004ad0:	0cc12603          	lw	a2,204(sp)
10004ad4:	0c812783          	lw	a5,200(sp)
10004ad8:	00098413          	mv	s0,s3
10004adc:	fb9ff06f          	j	10004a94 <_svfprintf_r+0x1120>
10004ae0:	001bf593          	andi	a1,s7,1
10004ae4:	ce059063          	bnez	a1,10003fc4 <_svfprintf_r+0x650>
10004ae8:	00e42223          	sw	a4,4(s0)
10004aec:	0d812623          	sw	s8,204(sp)
10004af0:	0d212423          	sw	s2,200(sp)
10004af4:	00700793          	li	a5,7
10004af8:	d927d063          	bge	a5,s2,10004078 <_svfprintf_r+0x704>
10004afc:	00412583          	lw	a1,4(sp)
10004b00:	0c410613          	addi	a2,sp,196
10004b04:	000a8513          	mv	a0,s5
10004b08:	345050ef          	jal	1000a64c <__ssprint_r>
10004b0c:	c60516e3          	bnez	a0,10004778 <_svfprintf_r+0xe04>
10004b10:	0cc12c03          	lw	s8,204(sp)
10004b14:	0c812903          	lw	s2,200(sp)
10004b18:	00098b13          	mv	s6,s3
10004b1c:	d5cff06f          	j	10004078 <_svfprintf_r+0x704>
10004b20:	01c12703          	lw	a4,28(sp)
10004b24:	00100793          	li	a5,1
10004b28:	d4e7d863          	bge	a5,a4,10004078 <_svfprintf_r+0x704>
10004b2c:	10011837          	lui	a6,0x10011
10004b30:	01100793          	li	a5,17
10004b34:	5c080813          	addi	a6,a6,1472 # 100115c0 <zeroes.0>
10004b38:	12e7dce3          	bge	a5,a4,10005470 <_svfprintf_r+0x1afc>
10004b3c:	00912c23          	sw	s1,24(sp)
10004b40:	01000793          	li	a5,16
10004b44:	00700d13          	li	s10,7
10004b48:	00080493          	mv	s1,a6
10004b4c:	00c0006f          	j	10004b58 <_svfprintf_r+0x11e4>
10004b50:	ff040413          	addi	s0,s0,-16
10004b54:	1087dae3          	bge	a5,s0,10005468 <_svfprintf_r+0x1af4>
10004b58:	010c0c13          	addi	s8,s8,16
10004b5c:	00190913          	addi	s2,s2,1
10004b60:	009b2023          	sw	s1,0(s6)
10004b64:	00fb2223          	sw	a5,4(s6)
10004b68:	0d812623          	sw	s8,204(sp)
10004b6c:	0d212423          	sw	s2,200(sp)
10004b70:	008b0b13          	addi	s6,s6,8
10004b74:	fd2d5ee3          	bge	s10,s2,10004b50 <_svfprintf_r+0x11dc>
10004b78:	00412583          	lw	a1,4(sp)
10004b7c:	0c410613          	addi	a2,sp,196
10004b80:	000a8513          	mv	a0,s5
10004b84:	2c9050ef          	jal	1000a64c <__ssprint_r>
10004b88:	be0518e3          	bnez	a0,10004778 <_svfprintf_r+0xe04>
10004b8c:	0cc12c03          	lw	s8,204(sp)
10004b90:	0c812903          	lw	s2,200(sp)
10004b94:	00098b13          	mv	s6,s3
10004b98:	01000793          	li	a5,16
10004b9c:	fb5ff06f          	j	10004b50 <_svfprintf_r+0x11dc>
10004ba0:	01012703          	lw	a4,16(sp)
10004ba4:	010ef793          	andi	a5,t4,16
10004ba8:	00072b03          	lw	s6,0(a4)
10004bac:	00470713          	addi	a4,a4,4
10004bb0:	00e12823          	sw	a4,16(sp)
10004bb4:	02079663          	bnez	a5,10004be0 <_svfprintf_r+0x126c>
10004bb8:	040ef793          	andi	a5,t4,64
10004bbc:	00078c63          	beqz	a5,10004bd4 <_svfprintf_r+0x1260>
10004bc0:	010b1b13          	slli	s6,s6,0x10
10004bc4:	010b5b13          	srli	s6,s6,0x10
10004bc8:	00000d93          	li	s11,0
10004bcc:	00100793          	li	a5,1
10004bd0:	a1cff06f          	j	10003dec <_svfprintf_r+0x478>
10004bd4:	200ef793          	andi	a5,t4,512
10004bd8:	00078463          	beqz	a5,10004be0 <_svfprintf_r+0x126c>
10004bdc:	0ffb7b13          	zext.b	s6,s6
10004be0:	00000d93          	li	s11,0
10004be4:	00100793          	li	a5,1
10004be8:	a04ff06f          	j	10003dec <_svfprintf_r+0x478>
10004bec:	00000b13          	li	s6,0
10004bf0:	19010d13          	addi	s10,sp,400
10004bf4:	99cff06f          	j	10003d90 <_svfprintf_r+0x41c>
10004bf8:	00412583          	lw	a1,4(sp)
10004bfc:	0c410613          	addi	a2,sp,196
10004c00:	000a8513          	mv	a0,s5
10004c04:	249050ef          	jal	1000a64c <__ssprint_r>
10004c08:	b60518e3          	bnez	a0,10004778 <_svfprintf_r+0xe04>
10004c0c:	0cc12c03          	lw	s8,204(sp)
10004c10:	0c812903          	lw	s2,200(sp)
10004c14:	00098b13          	mv	s6,s3
10004c18:	bc4ff06f          	j	10003fdc <_svfprintf_r+0x668>
10004c1c:	00412583          	lw	a1,4(sp)
10004c20:	0c410613          	addi	a2,sp,196
10004c24:	000a8513          	mv	a0,s5
10004c28:	225050ef          	jal	1000a64c <__ssprint_r>
10004c2c:	b40516e3          	bnez	a0,10004778 <_svfprintf_r+0xe04>
10004c30:	0cc12c03          	lw	s8,204(sp)
10004c34:	0c812903          	lw	s2,200(sp)
10004c38:	00098b13          	mv	s6,s3
10004c3c:	bccff06f          	j	10004008 <_svfprintf_r+0x694>
10004c40:	001bf793          	andi	a5,s7,1
10004c44:	00079463          	bnez	a5,10004c4c <_svfprintf_r+0x12d8>
10004c48:	fd5fe06f          	j	10003c1c <_svfprintf_r+0x2a8>
10004c4c:	829ff06f          	j	10004474 <_svfprintf_r+0xb00>
10004c50:	0004c883          	lbu	a7,0(s1)
10004c54:	00f12823          	sw	a5,16(sp)
10004c58:	e79fe06f          	j	10003ad0 <_svfprintf_r+0x15c>
10004c5c:	200bf793          	andi	a5,s7,512
10004c60:	480792e3          	bnez	a5,100058e4 <_svfprintf_r+0x1f70>
10004c64:	41fb5d93          	srai	s11,s6,0x1f
10004c68:	000d8793          	mv	a5,s11
10004c6c:	8e0ff06f          	j	10003d4c <_svfprintf_r+0x3d8>
10004c70:	200bf793          	andi	a5,s7,512
10004c74:	480792e3          	bnez	a5,100058f8 <_svfprintf_r+0x1f84>
10004c78:	00000d93          	li	s11,0
10004c7c:	968ff06f          	j	10003de4 <_svfprintf_r+0x470>
10004c80:	01012783          	lw	a5,16(sp)
10004c84:	0007a703          	lw	a4,0(a5)
10004c88:	00478793          	addi	a5,a5,4
10004c8c:	00f12823          	sw	a5,16(sp)
10004c90:	00072583          	lw	a1,0(a4)
10004c94:	00472603          	lw	a2,4(a4)
10004c98:	00872683          	lw	a3,8(a4)
10004c9c:	00c72703          	lw	a4,12(a4)
10004ca0:	9f8ff06f          	j	10003e98 <_svfprintf_r+0x524>
10004ca4:	010bf793          	andi	a5,s7,16
10004ca8:	78079663          	bnez	a5,10005434 <_svfprintf_r+0x1ac0>
10004cac:	040bf793          	andi	a5,s7,64
10004cb0:	40079ae3          	bnez	a5,100058c4 <_svfprintf_r+0x1f50>
10004cb4:	200bfe13          	andi	t3,s7,512
10004cb8:	760e0e63          	beqz	t3,10005434 <_svfprintf_r+0x1ac0>
10004cbc:	01012783          	lw	a5,16(sp)
10004cc0:	00812703          	lw	a4,8(sp)
10004cc4:	0007a783          	lw	a5,0(a5)
10004cc8:	00e78023          	sb	a4,0(a5)
10004ccc:	edcff06f          	j	100043a8 <_svfprintf_r+0xa34>
10004cd0:	03c12783          	lw	a5,60(sp)
10004cd4:	0004c883          	lbu	a7,0(s1)
10004cd8:	00079463          	bnez	a5,10004ce0 <_svfprintf_r+0x136c>
10004cdc:	df5fe06f          	j	10003ad0 <_svfprintf_r+0x15c>
10004ce0:	0007c783          	lbu	a5,0(a5)
10004ce4:	00079463          	bnez	a5,10004cec <_svfprintf_r+0x1378>
10004ce8:	de9fe06f          	j	10003ad0 <_svfprintf_r+0x15c>
10004cec:	400beb93          	ori	s7,s7,1024
10004cf0:	de1fe06f          	j	10003ad0 <_svfprintf_r+0x15c>
10004cf4:	00070913          	mv	s2,a4
10004cf8:	cb204ce3          	bgtz	s2,100049b0 <_svfprintf_r+0x103c>
10004cfc:	cddff06f          	j	100049d8 <_svfprintf_r+0x1064>
10004d00:	fff00913          	li	s2,-1
10004d04:	00068493          	mv	s1,a3
10004d08:	dcdfe06f          	j	10003ad4 <_svfprintf_r+0x160>
10004d0c:	86091863          	bnez	s2,10003d7c <_svfprintf_r+0x408>
10004d10:	00000b13          	li	s6,0
10004d14:	000e8b93          	mv	s7,t4
10004d18:	19010d13          	addi	s10,sp,400
10004d1c:	874ff06f          	j	10003d90 <_svfprintf_r+0x41c>
10004d20:	100117b7          	lui	a5,0x10011
10004d24:	1b478793          	addi	a5,a5,436 # 100111b4 <__extenddftf2+0x288>
10004d28:	02f12a23          	sw	a5,52(sp)
10004d2c:	020bf793          	andi	a5,s7,32
10004d30:	3c078463          	beqz	a5,100050f8 <_svfprintf_r+0x1784>
10004d34:	01012783          	lw	a5,16(sp)
10004d38:	00778c13          	addi	s8,a5,7
10004d3c:	ff8c7c13          	andi	s8,s8,-8
10004d40:	000c2b03          	lw	s6,0(s8)
10004d44:	004c2d83          	lw	s11,4(s8)
10004d48:	008c0793          	addi	a5,s8,8
10004d4c:	00f12823          	sw	a5,16(sp)
10004d50:	001bf793          	andi	a5,s7,1
10004d54:	00078e63          	beqz	a5,10004d70 <_svfprintf_r+0x13fc>
10004d58:	01bb67b3          	or	a5,s6,s11
10004d5c:	00078a63          	beqz	a5,10004d70 <_svfprintf_r+0x13fc>
10004d60:	03000793          	li	a5,48
10004d64:	0af10423          	sb	a5,168(sp)
10004d68:	0b1104a3          	sb	a7,169(sp)
10004d6c:	002beb93          	ori	s7,s7,2
10004d70:	bffbfe93          	andi	t4,s7,-1025
10004d74:	00200793          	li	a5,2
10004d78:	874ff06f          	j	10003dec <_svfprintf_r+0x478>
10004d7c:	000b8e93          	mv	t4,s7
10004d80:	d94ff06f          	j	10004314 <_svfprintf_r+0x9a0>
10004d84:	0014c883          	lbu	a7,1(s1)
10004d88:	200beb93          	ori	s7,s7,512
10004d8c:	00148493          	addi	s1,s1,1
10004d90:	d41fe06f          	j	10003ad0 <_svfprintf_r+0x15c>
10004d94:	100117b7          	lui	a5,0x10011
10004d98:	1a078793          	addi	a5,a5,416 # 100111a0 <__extenddftf2+0x274>
10004d9c:	02f12a23          	sw	a5,52(sp)
10004da0:	f8dff06f          	j	10004d2c <_svfprintf_r+0x13b8>
10004da4:	0014c883          	lbu	a7,1(s1)
10004da8:	020beb93          	ori	s7,s7,32
10004dac:	00148493          	addi	s1,s1,1
10004db0:	d21fe06f          	j	10003ad0 <_svfprintf_r+0x15c>
10004db4:	00412583          	lw	a1,4(sp)
10004db8:	0c410613          	addi	a2,sp,196
10004dbc:	000a8513          	mv	a0,s5
10004dc0:	08d050ef          	jal	1000a64c <__ssprint_r>
10004dc4:	9a051ae3          	bnez	a0,10004778 <_svfprintf_r+0xe04>
10004dc8:	0cc12603          	lw	a2,204(sp)
10004dcc:	00098413          	mv	s0,s3
10004dd0:	ed4ff06f          	j	100044a4 <_svfprintf_r+0xb30>
10004dd4:	02812503          	lw	a0,40(sp)
10004dd8:	04000593          	li	a1,64
10004ddc:	bccfe0ef          	jal	100031a8 <_malloc_r>
10004de0:	00412783          	lw	a5,4(sp)
10004de4:	00a7a023          	sw	a0,0(a5)
10004de8:	00a7a823          	sw	a0,16(a5)
10004dec:	00051463          	bnez	a0,10004df4 <_svfprintf_r+0x1480>
10004df0:	2300106f          	j	10006020 <_svfprintf_r+0x26ac>
10004df4:	00412783          	lw	a5,4(sp)
10004df8:	1c912223          	sw	s1,452(sp)
10004dfc:	1d212023          	sw	s2,448(sp)
10004e00:	1b312e23          	sw	s3,444(sp)
10004e04:	1b412c23          	sw	s4,440(sp)
10004e08:	1b512a23          	sw	s5,436(sp)
10004e0c:	1b712623          	sw	s7,428(sp)
10004e10:	1b812423          	sw	s8,424(sp)
10004e14:	1b912223          	sw	s9,420(sp)
10004e18:	1ba12023          	sw	s10,416(sp)
10004e1c:	19b12e23          	sw	s11,412(sp)
10004e20:	04000713          	li	a4,64
10004e24:	00e7aa23          	sw	a4,20(a5)
10004e28:	bd9fe06f          	j	10003a00 <_svfprintf_r+0x8c>
10004e2c:	000d0513          	mv	a0,s10
10004e30:	03112c23          	sw	a7,56(sp)
10004e34:	cd5fd0ef          	jal	10002b08 <strlen>
10004e38:	0a714703          	lbu	a4,167(sp)
10004e3c:	fff54693          	not	a3,a0
10004e40:	41f6d693          	srai	a3,a3,0x1f
10004e44:	01812823          	sw	s8,16(sp)
10004e48:	00012623          	sw	zero,12(sp)
10004e4c:	02012223          	sw	zero,36(sp)
10004e50:	02012023          	sw	zero,32(sp)
10004e54:	00012c23          	sw	zero,24(sp)
10004e58:	03812883          	lw	a7,56(sp)
10004e5c:	00050b13          	mv	s6,a0
10004e60:	00d57db3          	and	s11,a0,a3
10004e64:	00000913          	li	s2,0
10004e68:	00070463          	beqz	a4,10004e70 <_svfprintf_r+0x14fc>
10004e6c:	f49fe06f          	j	10003db4 <_svfprintf_r+0x440>
10004e70:	ce1fe06f          	j	10003b50 <_svfprintf_r+0x1dc>
10004e74:	10011837          	lui	a6,0x10011
10004e78:	01000593          	li	a1,16
10004e7c:	0c812703          	lw	a4,200(sp)
10004e80:	5c080813          	addi	a6,a6,1472 # 100115c0 <zeroes.0>
10004e84:	1125d6e3          	bge	a1,s2,10005790 <_svfprintf_r+0x1e1c>
10004e88:	00040793          	mv	a5,s0
10004e8c:	01000c13          	li	s8,16
10004e90:	00700b13          	li	s6,7
10004e94:	00080413          	mv	s0,a6
10004e98:	00c0006f          	j	10004ea4 <_svfprintf_r+0x1530>
10004e9c:	ff090913          	addi	s2,s2,-16
10004ea0:	0f2c54e3          	bge	s8,s2,10005788 <_svfprintf_r+0x1e14>
10004ea4:	01060613          	addi	a2,a2,16
10004ea8:	00170713          	addi	a4,a4,1
10004eac:	0087a023          	sw	s0,0(a5)
10004eb0:	0187a223          	sw	s8,4(a5)
10004eb4:	0cc12623          	sw	a2,204(sp)
10004eb8:	0ce12423          	sw	a4,200(sp)
10004ebc:	00878793          	addi	a5,a5,8
10004ec0:	fceb5ee3          	bge	s6,a4,10004e9c <_svfprintf_r+0x1528>
10004ec4:	00412583          	lw	a1,4(sp)
10004ec8:	0c410613          	addi	a2,sp,196
10004ecc:	000a8513          	mv	a0,s5
10004ed0:	77c050ef          	jal	1000a64c <__ssprint_r>
10004ed4:	8a0512e3          	bnez	a0,10004778 <_svfprintf_r+0xe04>
10004ed8:	0cc12603          	lw	a2,204(sp)
10004edc:	0c812703          	lw	a4,200(sp)
10004ee0:	00098793          	mv	a5,s3
10004ee4:	fb9ff06f          	j	10004e9c <_svfprintf_r+0x1528>
10004ee8:	01c12783          	lw	a5,28(sp)
10004eec:	02012b03          	lw	s6,32(sp)
10004ef0:	100118b7          	lui	a7,0x10011
10004ef4:	00fd07b3          	add	a5,s10,a5
10004ef8:	02912c23          	sw	s1,56(sp)
10004efc:	05712623          	sw	s7,76(sp)
10004f00:	05912823          	sw	s9,80(sp)
10004f04:	03b12023          	sw	s11,32(sp)
10004f08:	02412d83          	lw	s11,36(sp)
10004f0c:	03a12223          	sw	s10,36(sp)
10004f10:	04812c83          	lw	s9,72(sp)
10004f14:	000c0d13          	mv	s10,s8
10004f18:	00412483          	lw	s1,4(sp)
10004f1c:	03c12c03          	lw	s8,60(sp)
10004f20:	00700813          	li	a6,7
10004f24:	01000713          	li	a4,16
10004f28:	5c088913          	addi	s2,a7,1472 # 100115c0 <zeroes.0>
10004f2c:	00040593          	mv	a1,s0
10004f30:	00078b93          	mv	s7,a5
10004f34:	09605663          	blez	s6,10004fc0 <_svfprintf_r+0x164c>
10004f38:	17b05063          	blez	s11,10005098 <_svfprintf_r+0x1724>
10004f3c:	fffd8d93          	addi	s11,s11,-1
10004f40:	04412783          	lw	a5,68(sp)
10004f44:	01960633          	add	a2,a2,s9
10004f48:	0195a223          	sw	s9,4(a1)
10004f4c:	00f5a023          	sw	a5,0(a1)
10004f50:	0c812783          	lw	a5,200(sp)
10004f54:	0cc12623          	sw	a2,204(sp)
10004f58:	00858593          	addi	a1,a1,8
10004f5c:	00178793          	addi	a5,a5,1
10004f60:	0cf12423          	sw	a5,200(sp)
10004f64:	1cf84263          	blt	a6,a5,10005128 <_svfprintf_r+0x17b4>
10004f68:	000c4683          	lbu	a3,0(s8)
10004f6c:	41ab8433          	sub	s0,s7,s10
10004f70:	0086d463          	bge	a3,s0,10004f78 <_svfprintf_r+0x1604>
10004f74:	00068413          	mv	s0,a3
10004f78:	02805663          	blez	s0,10004fa4 <_svfprintf_r+0x1630>
10004f7c:	0c812683          	lw	a3,200(sp)
10004f80:	00860633          	add	a2,a2,s0
10004f84:	01a5a023          	sw	s10,0(a1)
10004f88:	00168693          	addi	a3,a3,1
10004f8c:	0085a223          	sw	s0,4(a1)
10004f90:	0cc12623          	sw	a2,204(sp)
10004f94:	0cd12423          	sw	a3,200(sp)
10004f98:	3ed84663          	blt	a6,a3,10005384 <_svfprintf_r+0x1a10>
10004f9c:	000c4683          	lbu	a3,0(s8)
10004fa0:	00858593          	addi	a1,a1,8
10004fa4:	fff44513          	not	a0,s0
10004fa8:	41f55513          	srai	a0,a0,0x1f
10004fac:	00a477b3          	and	a5,s0,a0
10004fb0:	40f68433          	sub	s0,a3,a5
10004fb4:	04804263          	bgtz	s0,10004ff8 <_svfprintf_r+0x1684>
10004fb8:	00dd0d33          	add	s10,s10,a3
10004fbc:	f7604ee3          	bgtz	s6,10004f38 <_svfprintf_r+0x15c4>
10004fc0:	f7b04ee3          	bgtz	s11,10004f3c <_svfprintf_r+0x15c8>
10004fc4:	01c12783          	lw	a5,28(sp)
10004fc8:	03812e23          	sw	s8,60(sp)
10004fcc:	000d0c13          	mv	s8,s10
10004fd0:	02412d03          	lw	s10,36(sp)
10004fd4:	03812483          	lw	s1,56(sp)
10004fd8:	04c12b83          	lw	s7,76(sp)
10004fdc:	00fd0733          	add	a4,s10,a5
10004fe0:	05012c83          	lw	s9,80(sp)
10004fe4:	02012d83          	lw	s11,32(sp)
10004fe8:	00058413          	mv	s0,a1
10004fec:	a1877ae3          	bgeu	a4,s8,10004a00 <_svfprintf_r+0x108c>
10004ff0:	00070c13          	mv	s8,a4
10004ff4:	a0dff06f          	j	10004a00 <_svfprintf_r+0x108c>
10004ff8:	10011f37          	lui	t5,0x10011
10004ffc:	0c812683          	lw	a3,200(sp)
10005000:	5c0f0f13          	addi	t5,t5,1472 # 100115c0 <zeroes.0>
10005004:	06875463          	bge	a4,s0,1000506c <_svfprintf_r+0x16f8>
10005008:	01212c23          	sw	s2,24(sp)
1000500c:	00c0006f          	j	10005018 <_svfprintf_r+0x16a4>
10005010:	ff040413          	addi	s0,s0,-16
10005014:	04875a63          	bge	a4,s0,10005068 <_svfprintf_r+0x16f4>
10005018:	01060613          	addi	a2,a2,16
1000501c:	00168693          	addi	a3,a3,1
10005020:	0125a023          	sw	s2,0(a1)
10005024:	00e5a223          	sw	a4,4(a1)
10005028:	0cc12623          	sw	a2,204(sp)
1000502c:	0cd12423          	sw	a3,200(sp)
10005030:	00858593          	addi	a1,a1,8
10005034:	fcd85ee3          	bge	a6,a3,10005010 <_svfprintf_r+0x169c>
10005038:	0c410613          	addi	a2,sp,196
1000503c:	00048593          	mv	a1,s1
10005040:	000a8513          	mv	a0,s5
10005044:	608050ef          	jal	1000a64c <__ssprint_r>
10005048:	f2051863          	bnez	a0,10004778 <_svfprintf_r+0xe04>
1000504c:	01000713          	li	a4,16
10005050:	ff040413          	addi	s0,s0,-16
10005054:	0cc12603          	lw	a2,204(sp)
10005058:	0c812683          	lw	a3,200(sp)
1000505c:	00098593          	mv	a1,s3
10005060:	00700813          	li	a6,7
10005064:	fa874ae3          	blt	a4,s0,10005018 <_svfprintf_r+0x16a4>
10005068:	01812f03          	lw	t5,24(sp)
1000506c:	00860633          	add	a2,a2,s0
10005070:	00168693          	addi	a3,a3,1
10005074:	01e5a023          	sw	t5,0(a1)
10005078:	0085a223          	sw	s0,4(a1)
1000507c:	0cc12623          	sw	a2,204(sp)
10005080:	0cd12423          	sw	a3,200(sp)
10005084:	56d846e3          	blt	a6,a3,10005df0 <_svfprintf_r+0x247c>
10005088:	000c4683          	lbu	a3,0(s8)
1000508c:	00858593          	addi	a1,a1,8
10005090:	00dd0d33          	add	s10,s10,a3
10005094:	f29ff06f          	j	10004fbc <_svfprintf_r+0x1648>
10005098:	fffc0c13          	addi	s8,s8,-1
1000509c:	fffb0b13          	addi	s6,s6,-1
100050a0:	ea1ff06f          	j	10004f40 <_svfprintf_r+0x15cc>
100050a4:	03012703          	lw	a4,48(sp)
100050a8:	02c12783          	lw	a5,44(sp)
100050ac:	00700593          	li	a1,7
100050b0:	00e42023          	sw	a4,0(s0)
100050b4:	0c812703          	lw	a4,200(sp)
100050b8:	00f60633          	add	a2,a2,a5
100050bc:	00f42223          	sw	a5,4(s0)
100050c0:	00170713          	addi	a4,a4,1
100050c4:	0cc12623          	sw	a2,204(sp)
100050c8:	0ce12423          	sw	a4,200(sp)
100050cc:	00840413          	addi	s0,s0,8
100050d0:	94e5d2e3          	bge	a1,a4,10004a14 <_svfprintf_r+0x10a0>
100050d4:	00412583          	lw	a1,4(sp)
100050d8:	0c410613          	addi	a2,sp,196
100050dc:	000a8513          	mv	a0,s5
100050e0:	56c050ef          	jal	1000a64c <__ssprint_r>
100050e4:	e8051a63          	bnez	a0,10004778 <_svfprintf_r+0xe04>
100050e8:	0ac12903          	lw	s2,172(sp)
100050ec:	0cc12603          	lw	a2,204(sp)
100050f0:	00098413          	mv	s0,s3
100050f4:	921ff06f          	j	10004a14 <_svfprintf_r+0x10a0>
100050f8:	01012703          	lw	a4,16(sp)
100050fc:	010bf793          	andi	a5,s7,16
10005100:	00072b03          	lw	s6,0(a4)
10005104:	00470713          	addi	a4,a4,4
10005108:	00e12823          	sw	a4,16(sp)
1000510c:	04079663          	bnez	a5,10005158 <_svfprintf_r+0x17e4>
10005110:	040bf793          	andi	a5,s7,64
10005114:	02078e63          	beqz	a5,10005150 <_svfprintf_r+0x17dc>
10005118:	010b1b13          	slli	s6,s6,0x10
1000511c:	010b5b13          	srli	s6,s6,0x10
10005120:	00000d93          	li	s11,0
10005124:	c2dff06f          	j	10004d50 <_svfprintf_r+0x13dc>
10005128:	0c410613          	addi	a2,sp,196
1000512c:	00048593          	mv	a1,s1
10005130:	000a8513          	mv	a0,s5
10005134:	518050ef          	jal	1000a64c <__ssprint_r>
10005138:	e4051063          	bnez	a0,10004778 <_svfprintf_r+0xe04>
1000513c:	0cc12603          	lw	a2,204(sp)
10005140:	00098593          	mv	a1,s3
10005144:	01000713          	li	a4,16
10005148:	00700813          	li	a6,7
1000514c:	e1dff06f          	j	10004f68 <_svfprintf_r+0x15f4>
10005150:	200bf793          	andi	a5,s7,512
10005154:	78079263          	bnez	a5,100058d8 <_svfprintf_r+0x1f64>
10005158:	00000d93          	li	s11,0
1000515c:	bf5ff06f          	j	10004d50 <_svfprintf_r+0x13dc>
10005160:	ccccd837          	lui	a6,0xccccd
10005164:	ccccdc37          	lui	s8,0xccccd
10005168:	03c12703          	lw	a4,60(sp)
1000516c:	400eff13          	andi	t5,t4,1024
10005170:	00000613          	li	a2,0
10005174:	19010593          	addi	a1,sp,400
10005178:	00500e13          	li	t3,5
1000517c:	ccd80813          	addi	a6,a6,-819 # cccccccd <_sp+0xbccaf5f1>
10005180:	cccc0c13          	addi	s8,s8,-820 # cccccccc <_sp+0xbccaf5f0>
10005184:	0ff00b93          	li	s7,255
10005188:	0540006f          	j	100051dc <_svfprintf_r+0x1868>
1000518c:	016d37b3          	sltu	a5,s10,s6
10005190:	00fd07b3          	add	a5,s10,a5
10005194:	03c7f7b3          	remu	a5,a5,t3
10005198:	40fb07b3          	sub	a5,s6,a5
1000519c:	00fb35b3          	sltu	a1,s6,a5
100051a0:	40bd85b3          	sub	a1,s11,a1
100051a4:	03878333          	mul	t1,a5,s8
100051a8:	030585b3          	mul	a1,a1,a6
100051ac:	0307b533          	mulhu	a0,a5,a6
100051b0:	006585b3          	add	a1,a1,t1
100051b4:	030787b3          	mul	a5,a5,a6
100051b8:	00a585b3          	add	a1,a1,a0
100051bc:	01f59513          	slli	a0,a1,0x1f
100051c0:	0015d593          	srli	a1,a1,0x1
100051c4:	0017d793          	srli	a5,a5,0x1
100051c8:	00f567b3          	or	a5,a0,a5
100051cc:	440d8ce3          	beqz	s11,10005e24 <_svfprintf_r+0x24b0>
100051d0:	00058d93          	mv	s11,a1
100051d4:	00078b13          	mv	s6,a5
100051d8:	00068593          	mv	a1,a3
100051dc:	01bb0d33          	add	s10,s6,s11
100051e0:	016d37b3          	sltu	a5,s10,s6
100051e4:	00fd07b3          	add	a5,s10,a5
100051e8:	03c7f7b3          	remu	a5,a5,t3
100051ec:	fff58693          	addi	a3,a1,-1
100051f0:	00160613          	addi	a2,a2,1
100051f4:	40fb07b3          	sub	a5,s6,a5
100051f8:	00fb3533          	sltu	a0,s6,a5
100051fc:	40ad8533          	sub	a0,s11,a0
10005200:	0307b333          	mulhu	t1,a5,a6
10005204:	03050533          	mul	a0,a0,a6
10005208:	030787b3          	mul	a5,a5,a6
1000520c:	00650533          	add	a0,a0,t1
10005210:	01f51513          	slli	a0,a0,0x1f
10005214:	0017d793          	srli	a5,a5,0x1
10005218:	00f567b3          	or	a5,a0,a5
1000521c:	00279513          	slli	a0,a5,0x2
10005220:	00f507b3          	add	a5,a0,a5
10005224:	00179793          	slli	a5,a5,0x1
10005228:	40fb07b3          	sub	a5,s6,a5
1000522c:	03078793          	addi	a5,a5,48
10005230:	fef58fa3          	sb	a5,-1(a1)
10005234:	f40f0ce3          	beqz	t5,1000518c <_svfprintf_r+0x1818>
10005238:	00074783          	lbu	a5,0(a4)
1000523c:	f4f618e3          	bne	a2,a5,1000518c <_svfprintf_r+0x1818>
10005240:	f57606e3          	beq	a2,s7,1000518c <_svfprintf_r+0x1818>
10005244:	580d9a63          	bnez	s11,100057d8 <_svfprintf_r+0x1e64>
10005248:	00900793          	li	a5,9
1000524c:	5967e663          	bltu	a5,s6,100057d8 <_svfprintf_r+0x1e64>
10005250:	00068d13          	mv	s10,a3
10005254:	19010793          	addi	a5,sp,400
10005258:	02e12e23          	sw	a4,60(sp)
1000525c:	00c12e23          	sw	a2,28(sp)
10005260:	41a78b33          	sub	s6,a5,s10
10005264:	000e8b93          	mv	s7,t4
10005268:	b29fe06f          	j	10003d90 <_svfprintf_r+0x41c>
1000526c:	0c812703          	lw	a4,200(sp)
10005270:	100115b7          	lui	a1,0x10011
10005274:	1d058593          	addi	a1,a1,464 # 100111d0 <__extenddftf2+0x2a4>
10005278:	00b42023          	sw	a1,0(s0)
1000527c:	00160613          	addi	a2,a2,1
10005280:	00100593          	li	a1,1
10005284:	00170713          	addi	a4,a4,1
10005288:	00b42223          	sw	a1,4(s0)
1000528c:	0cc12623          	sw	a2,204(sp)
10005290:	0ce12423          	sw	a4,200(sp)
10005294:	00700593          	li	a1,7
10005298:	00840413          	addi	s0,s0,8
1000529c:	06e5cc63          	blt	a1,a4,10005314 <_svfprintf_r+0x19a0>
100052a0:	1e051063          	bnez	a0,10005480 <_svfprintf_r+0x1b0c>
100052a4:	01c12783          	lw	a5,28(sp)
100052a8:	001bf713          	andi	a4,s7,1
100052ac:	00f76733          	or	a4,a4,a5
100052b0:	00071463          	bnez	a4,100052b8 <_svfprintf_r+0x1944>
100052b4:	969fe06f          	j	10003c1c <_svfprintf_r+0x2a8>
100052b8:	03012703          	lw	a4,48(sp)
100052bc:	02c12783          	lw	a5,44(sp)
100052c0:	00700593          	li	a1,7
100052c4:	00e42023          	sw	a4,0(s0)
100052c8:	0c812703          	lw	a4,200(sp)
100052cc:	00c78633          	add	a2,a5,a2
100052d0:	00f42223          	sw	a5,4(s0)
100052d4:	00170713          	addi	a4,a4,1
100052d8:	0cc12623          	sw	a2,204(sp)
100052dc:	0ce12423          	sw	a4,200(sp)
100052e0:	64e5c463          	blt	a1,a4,10005928 <_svfprintf_r+0x1fb4>
100052e4:	00840413          	addi	s0,s0,8
100052e8:	01c12783          	lw	a5,28(sp)
100052ec:	00170713          	addi	a4,a4,1
100052f0:	01a42023          	sw	s10,0(s0)
100052f4:	00c78633          	add	a2,a5,a2
100052f8:	00f42223          	sw	a5,4(s0)
100052fc:	0cc12623          	sw	a2,204(sp)
10005300:	0ce12423          	sw	a4,200(sp)
10005304:	00700793          	li	a5,7
10005308:	00e7c463          	blt	a5,a4,10005310 <_svfprintf_r+0x199c>
1000530c:	90dfe06f          	j	10003c18 <_svfprintf_r+0x2a4>
10005310:	d95fe06f          	j	100040a4 <_svfprintf_r+0x730>
10005314:	00412583          	lw	a1,4(sp)
10005318:	0c410613          	addi	a2,sp,196
1000531c:	000a8513          	mv	a0,s5
10005320:	32c050ef          	jal	1000a64c <__ssprint_r>
10005324:	c4051a63          	bnez	a0,10004778 <_svfprintf_r+0xe04>
10005328:	0ac12503          	lw	a0,172(sp)
1000532c:	0cc12603          	lw	a2,204(sp)
10005330:	00098413          	mv	s0,s3
10005334:	f6dff06f          	j	100052a0 <_svfprintf_r+0x192c>
10005338:	00412583          	lw	a1,4(sp)
1000533c:	0c410613          	addi	a2,sp,196
10005340:	000a8513          	mv	a0,s5
10005344:	308050ef          	jal	1000a64c <__ssprint_r>
10005348:	c2051863          	bnez	a0,10004778 <_svfprintf_r+0xe04>
1000534c:	0cc12603          	lw	a2,204(sp)
10005350:	00098413          	mv	s0,s3
10005354:	914ff06f          	j	10004468 <_svfprintf_r+0xaf4>
10005358:	000d0813          	mv	a6,s10
1000535c:	01042023          	sw	a6,0(s0)
10005360:	01242223          	sw	s2,4(s0)
10005364:	01260633          	add	a2,a2,s2
10005368:	00178793          	addi	a5,a5,1
1000536c:	0cc12623          	sw	a2,204(sp)
10005370:	0cf12423          	sw	a5,200(sp)
10005374:	00700713          	li	a4,7
10005378:	00f74463          	blt	a4,a5,10005380 <_svfprintf_r+0x1a0c>
1000537c:	89dfe06f          	j	10003c18 <_svfprintf_r+0x2a4>
10005380:	d25fe06f          	j	100040a4 <_svfprintf_r+0x730>
10005384:	0c410613          	addi	a2,sp,196
10005388:	00048593          	mv	a1,s1
1000538c:	000a8513          	mv	a0,s5
10005390:	2bc050ef          	jal	1000a64c <__ssprint_r>
10005394:	be051263          	bnez	a0,10004778 <_svfprintf_r+0xe04>
10005398:	000c4683          	lbu	a3,0(s8)
1000539c:	0cc12603          	lw	a2,204(sp)
100053a0:	00098593          	mv	a1,s3
100053a4:	01000713          	li	a4,16
100053a8:	00700813          	li	a6,7
100053ac:	bf9ff06f          	j	10004fa4 <_svfprintf_r+0x1630>
100053b0:	0d012783          	lw	a5,208(sp)
100053b4:	08010593          	addi	a1,sp,128
100053b8:	09010513          	addi	a0,sp,144
100053bc:	08f12823          	sw	a5,144(sp)
100053c0:	0d412783          	lw	a5,212(sp)
100053c4:	08012023          	sw	zero,128(sp)
100053c8:	08012223          	sw	zero,132(sp)
100053cc:	08f12a23          	sw	a5,148(sp)
100053d0:	0d812783          	lw	a5,216(sp)
100053d4:	08012423          	sw	zero,136(sp)
100053d8:	08012623          	sw	zero,140(sp)
100053dc:	08f12c23          	sw	a5,152(sp)
100053e0:	0dc12783          	lw	a5,220(sp)
100053e4:	08f12e23          	sw	a5,156(sp)
100053e8:	2a8090ef          	jal	1000e690 <__letf2>
100053ec:	00c12883          	lw	a7,12(sp)
100053f0:	240540e3          	bltz	a0,10005e30 <_svfprintf_r+0x24bc>
100053f4:	0a714703          	lbu	a4,167(sp)
100053f8:	04700793          	li	a5,71
100053fc:	4917d863          	bge	a5,a7,1000588c <_svfprintf_r+0x1f18>
10005400:	100117b7          	lui	a5,0x10011
10005404:	19478d13          	addi	s10,a5,404 # 10011194 <__extenddftf2+0x268>
10005408:	00012623          	sw	zero,12(sp)
1000540c:	02012223          	sw	zero,36(sp)
10005410:	02012023          	sw	zero,32(sp)
10005414:	00012c23          	sw	zero,24(sp)
10005418:	f7fbfb93          	andi	s7,s7,-129
1000541c:	00300d93          	li	s11,3
10005420:	00300b13          	li	s6,3
10005424:	00000913          	li	s2,0
10005428:	00070463          	beqz	a4,10005430 <_svfprintf_r+0x1abc>
1000542c:	989fe06f          	j	10003db4 <_svfprintf_r+0x440>
10005430:	f20fe06f          	j	10003b50 <_svfprintf_r+0x1dc>
10005434:	01012783          	lw	a5,16(sp)
10005438:	00812703          	lw	a4,8(sp)
1000543c:	0007a783          	lw	a5,0(a5)
10005440:	00e7a023          	sw	a4,0(a5)
10005444:	f65fe06f          	j	100043a8 <_svfprintf_r+0xa34>
10005448:	00600793          	li	a5,6
1000544c:	00090b13          	mv	s6,s2
10005450:	4727e663          	bltu	a5,s2,100058bc <_svfprintf_r+0x1f48>
10005454:	100117b7          	lui	a5,0x10011
10005458:	000b0d93          	mv	s11,s6
1000545c:	01812823          	sw	s8,16(sp)
10005460:	1c878d13          	addi	s10,a5,456 # 100111c8 <__extenddftf2+0x29c>
10005464:	ed8fe06f          	j	10003b3c <_svfprintf_r+0x1c8>
10005468:	00048813          	mv	a6,s1
1000546c:	01812483          	lw	s1,24(sp)
10005470:	008c0c33          	add	s8,s8,s0
10005474:	00190913          	addi	s2,s2,1
10005478:	010b2023          	sw	a6,0(s6)
1000547c:	be5fe06f          	j	10004060 <_svfprintf_r+0x6ec>
10005480:	03012703          	lw	a4,48(sp)
10005484:	02c12783          	lw	a5,44(sp)
10005488:	00700593          	li	a1,7
1000548c:	00e42023          	sw	a4,0(s0)
10005490:	0c812703          	lw	a4,200(sp)
10005494:	00c78633          	add	a2,a5,a2
10005498:	00f42223          	sw	a5,4(s0)
1000549c:	00170713          	addi	a4,a4,1
100054a0:	0cc12623          	sw	a2,204(sp)
100054a4:	0ce12423          	sw	a4,200(sp)
100054a8:	00840413          	addi	s0,s0,8
100054ac:	46e5ce63          	blt	a1,a4,10005928 <_svfprintf_r+0x1fb4>
100054b0:	e2055ce3          	bgez	a0,100052e8 <_svfprintf_r+0x1974>
100054b4:	10011837          	lui	a6,0x10011
100054b8:	ff000593          	li	a1,-16
100054bc:	40a00933          	neg	s2,a0
100054c0:	5c080813          	addi	a6,a6,1472 # 100115c0 <zeroes.0>
100054c4:	30b554e3          	bge	a0,a1,10005fcc <_svfprintf_r+0x2658>
100054c8:	00912c23          	sw	s1,24(sp)
100054cc:	01000b13          	li	s6,16
100054d0:	00700c13          	li	s8,7
100054d4:	00080493          	mv	s1,a6
100054d8:	00c0006f          	j	100054e4 <_svfprintf_r+0x1b70>
100054dc:	ff090913          	addi	s2,s2,-16
100054e0:	2f2b52e3          	bge	s6,s2,10005fc4 <_svfprintf_r+0x2650>
100054e4:	01060613          	addi	a2,a2,16
100054e8:	00170713          	addi	a4,a4,1
100054ec:	00942023          	sw	s1,0(s0)
100054f0:	01642223          	sw	s6,4(s0)
100054f4:	0cc12623          	sw	a2,204(sp)
100054f8:	0ce12423          	sw	a4,200(sp)
100054fc:	00840413          	addi	s0,s0,8
10005500:	fcec5ee3          	bge	s8,a4,100054dc <_svfprintf_r+0x1b68>
10005504:	00412583          	lw	a1,4(sp)
10005508:	0c410613          	addi	a2,sp,196
1000550c:	000a8513          	mv	a0,s5
10005510:	13c050ef          	jal	1000a64c <__ssprint_r>
10005514:	a6051263          	bnez	a0,10004778 <_svfprintf_r+0xe04>
10005518:	0cc12603          	lw	a2,204(sp)
1000551c:	0c812703          	lw	a4,200(sp)
10005520:	00098413          	mv	s0,s3
10005524:	fb9ff06f          	j	100054dc <_svfprintf_r+0x1b68>
10005528:	07800793          	li	a5,120
1000552c:	03000713          	li	a4,48
10005530:	0ae10423          	sb	a4,168(sp)
10005534:	0af104a3          	sb	a5,169(sp)
10005538:	06300713          	li	a4,99
1000553c:	00012623          	sw	zero,12(sp)
10005540:	002beb93          	ori	s7,s7,2
10005544:	12c10d13          	addi	s10,sp,300
10005548:	01274463          	blt	a4,s2,10005550 <_svfprintf_r+0x1bdc>
1000554c:	9c9fe06f          	j	10003f14 <_svfprintf_r+0x5a0>
10005550:	00190593          	addi	a1,s2,1
10005554:	000a8513          	mv	a0,s5
10005558:	01112623          	sw	a7,12(sp)
1000555c:	c4dfd0ef          	jal	100031a8 <_malloc_r>
10005560:	00c12883          	lw	a7,12(sp)
10005564:	00050d13          	mv	s10,a0
10005568:	440502e3          	beqz	a0,100061ac <_svfprintf_r+0x2838>
1000556c:	00a12623          	sw	a0,12(sp)
10005570:	9a5fe06f          	j	10003f14 <_svfprintf_r+0x5a0>
10005574:	09010b13          	addi	s6,sp,144
10005578:	0ac10713          	addi	a4,sp,172
1000557c:	0bc10813          	addi	a6,sp,188
10005580:	0b010793          	addi	a5,sp,176
10005584:	00090693          	mv	a3,s2
10005588:	00200613          	li	a2,2
1000558c:	000b0593          	mv	a1,s6
10005590:	000a8513          	mv	a0,s5
10005594:	03112223          	sw	a7,36(sp)
10005598:	09f12823          	sw	t6,144(sp)
1000559c:	03f12023          	sw	t6,32(sp)
100055a0:	09e12a23          	sw	t5,148(sp)
100055a4:	01e12e23          	sw	t5,28(sp)
100055a8:	09d12c23          	sw	t4,152(sp)
100055ac:	01d12c23          	sw	t4,24(sp)
100055b0:	09812e23          	sw	s8,156(sp)
100055b4:	28d010ef          	jal	10007040 <_ldtoa_r>
100055b8:	001bf713          	andi	a4,s7,1
100055bc:	01812e83          	lw	t4,24(sp)
100055c0:	01c12f03          	lw	t5,28(sp)
100055c4:	02012f83          	lw	t6,32(sp)
100055c8:	02412883          	lw	a7,36(sp)
100055cc:	00050d13          	mv	s10,a0
100055d0:	38070463          	beqz	a4,10005958 <_svfprintf_r+0x1fe4>
100055d4:	01250733          	add	a4,a0,s2
100055d8:	04700613          	li	a2,71
100055dc:	08010593          	addi	a1,sp,128
100055e0:	000b0513          	mv	a0,s6
100055e4:	02e12023          	sw	a4,32(sp)
100055e8:	00c12e23          	sw	a2,28(sp)
100055ec:	01112c23          	sw	a7,24(sp)
100055f0:	09f12823          	sw	t6,144(sp)
100055f4:	09e12a23          	sw	t5,148(sp)
100055f8:	09d12c23          	sw	t4,152(sp)
100055fc:	09812e23          	sw	s8,156(sp)
10005600:	08012023          	sw	zero,128(sp)
10005604:	08012223          	sw	zero,132(sp)
10005608:	08012423          	sw	zero,136(sp)
1000560c:	08012623          	sw	zero,140(sp)
10005610:	685080ef          	jal	1000e494 <__eqtf2>
10005614:	01812883          	lw	a7,24(sp)
10005618:	01c12603          	lw	a2,28(sp)
1000561c:	02012703          	lw	a4,32(sp)
10005620:	080504e3          	beqz	a0,10005ea8 <_svfprintf_r+0x2534>
10005624:	0bc12783          	lw	a5,188(sp)
10005628:	00e7fe63          	bgeu	a5,a4,10005644 <_svfprintf_r+0x1cd0>
1000562c:	03000593          	li	a1,48
10005630:	00178693          	addi	a3,a5,1
10005634:	0ad12e23          	sw	a3,188(sp)
10005638:	00b78023          	sb	a1,0(a5)
1000563c:	0bc12783          	lw	a5,188(sp)
10005640:	fee7e8e3          	bltu	a5,a4,10005630 <_svfprintf_r+0x1cbc>
10005644:	0ac12703          	lw	a4,172(sp)
10005648:	00e12c23          	sw	a4,24(sp)
1000564c:	41a787b3          	sub	a5,a5,s10
10005650:	04700713          	li	a4,71
10005654:	00f12e23          	sw	a5,28(sp)
10005658:	30e60a63          	beq	a2,a4,1000596c <_svfprintf_r+0x1ff8>
1000565c:	04600713          	li	a4,70
10005660:	10e606e3          	beq	a2,a4,10005f6c <_svfprintf_r+0x25f8>
10005664:	01812783          	lw	a5,24(sp)
10005668:	fff78713          	addi	a4,a5,-1
1000566c:	0ae12623          	sw	a4,172(sp)
10005670:	0ff8f693          	zext.b	a3,a7
10005674:	00000613          	li	a2,0
10005678:	0ad10a23          	sb	a3,180(sp)
1000567c:	02b00693          	li	a3,43
10005680:	00075a63          	bgez	a4,10005694 <_svfprintf_r+0x1d20>
10005684:	01812783          	lw	a5,24(sp)
10005688:	00100713          	li	a4,1
1000568c:	02d00693          	li	a3,45
10005690:	40f70733          	sub	a4,a4,a5
10005694:	0ad10aa3          	sb	a3,181(sp)
10005698:	00900693          	li	a3,9
1000569c:	0ee6dce3          	bge	a3,a4,10005f94 <_svfprintf_r+0x2620>
100056a0:	0c310813          	addi	a6,sp,195
100056a4:	00080593          	mv	a1,a6
100056a8:	00a00513          	li	a0,10
100056ac:	06300f13          	li	t5,99
100056b0:	02a767b3          	rem	a5,a4,a0
100056b4:	00058613          	mv	a2,a1
100056b8:	00070693          	mv	a3,a4
100056bc:	fff58593          	addi	a1,a1,-1
100056c0:	03078793          	addi	a5,a5,48
100056c4:	fef60fa3          	sb	a5,-1(a2)
100056c8:	02a74733          	div	a4,a4,a0
100056cc:	fedf42e3          	blt	t5,a3,100056b0 <_svfprintf_r+0x1d3c>
100056d0:	03070713          	addi	a4,a4,48
100056d4:	ffe60693          	addi	a3,a2,-2
100056d8:	fee58fa3          	sb	a4,-1(a1)
100056dc:	2d06f2e3          	bgeu	a3,a6,100061a0 <_svfprintf_r+0x282c>
100056e0:	0b610713          	addi	a4,sp,182
100056e4:	0006c783          	lbu	a5,0(a3)
100056e8:	00168693          	addi	a3,a3,1
100056ec:	00170713          	addi	a4,a4,1
100056f0:	fef70fa3          	sb	a5,-1(a4)
100056f4:	ff0698e3          	bne	a3,a6,100056e4 <_svfprintf_r+0x1d70>
100056f8:	19010793          	addi	a5,sp,400
100056fc:	40c78733          	sub	a4,a5,a2
10005700:	f3770793          	addi	a5,a4,-201
10005704:	04f12023          	sw	a5,64(sp)
10005708:	01c12783          	lw	a5,28(sp)
1000570c:	04012683          	lw	a3,64(sp)
10005710:	00100713          	li	a4,1
10005714:	00d78b33          	add	s6,a5,a3
10005718:	0ef75ee3          	bge	a4,a5,10006014 <_svfprintf_r+0x26a0>
1000571c:	02c12783          	lw	a5,44(sp)
10005720:	00fb0b33          	add	s6,s6,a5
10005724:	fffb4693          	not	a3,s6
10005728:	bffbfe13          	andi	t3,s7,-1025
1000572c:	41f6d693          	srai	a3,a3,0x1f
10005730:	100e6793          	ori	a5,t3,256
10005734:	04f12623          	sw	a5,76(sp)
10005738:	00db7db3          	and	s11,s6,a3
1000573c:	02012223          	sw	zero,36(sp)
10005740:	02012023          	sw	zero,32(sp)
10005744:	00012c23          	sw	zero,24(sp)
10005748:	03812783          	lw	a5,56(sp)
1000574c:	62078e63          	beqz	a5,10005d88 <_svfprintf_r+0x2414>
10005750:	02d00713          	li	a4,45
10005754:	04c12b83          	lw	s7,76(sp)
10005758:	0ae103a3          	sb	a4,167(sp)
1000575c:	00000913          	li	s2,0
10005760:	001d8d93          	addi	s11,s11,1
10005764:	becfe06f          	j	10003b50 <_svfprintf_r+0x1dc>
10005768:	0dc12783          	lw	a5,220(sp)
1000576c:	1a07c663          	bltz	a5,10005918 <_svfprintf_r+0x1fa4>
10005770:	0a714703          	lbu	a4,167(sp)
10005774:	04700793          	li	a5,71
10005778:	6f17ca63          	blt	a5,a7,10005e6c <_svfprintf_r+0x24f8>
1000577c:	100117b7          	lui	a5,0x10011
10005780:	19878d13          	addi	s10,a5,408 # 10011198 <__extenddftf2+0x26c>
10005784:	c85ff06f          	j	10005408 <_svfprintf_r+0x1a94>
10005788:	00040813          	mv	a6,s0
1000578c:	00078413          	mv	s0,a5
10005790:	01260633          	add	a2,a2,s2
10005794:	00170713          	addi	a4,a4,1
10005798:	01042023          	sw	a6,0(s0)
1000579c:	01242223          	sw	s2,4(s0)
100057a0:	0cc12623          	sw	a2,204(sp)
100057a4:	0ce12423          	sw	a4,200(sp)
100057a8:	00700593          	li	a1,7
100057ac:	00840413          	addi	s0,s0,8
100057b0:	a4e5d063          	bge	a1,a4,100049f0 <_svfprintf_r+0x107c>
100057b4:	00412583          	lw	a1,4(sp)
100057b8:	0c410613          	addi	a2,sp,196
100057bc:	000a8513          	mv	a0,s5
100057c0:	68d040ef          	jal	1000a64c <__ssprint_r>
100057c4:	00050463          	beqz	a0,100057cc <_svfprintf_r+0x1e58>
100057c8:	fb1fe06f          	j	10004778 <_svfprintf_r+0xe04>
100057cc:	0cc12603          	lw	a2,204(sp)
100057d0:	00098413          	mv	s0,s3
100057d4:	a1cff06f          	j	100049f0 <_svfprintf_r+0x107c>
100057d8:	04812783          	lw	a5,72(sp)
100057dc:	04412583          	lw	a1,68(sp)
100057e0:	03012c23          	sw	a6,56(sp)
100057e4:	40f686b3          	sub	a3,a3,a5
100057e8:	00078613          	mv	a2,a5
100057ec:	00068513          	mv	a0,a3
100057f0:	03e12223          	sw	t5,36(sp)
100057f4:	03d12023          	sw	t4,32(sp)
100057f8:	01112e23          	sw	a7,28(sp)
100057fc:	00e12c23          	sw	a4,24(sp)
10005800:	00d12623          	sw	a3,12(sp)
10005804:	498010ef          	jal	10006c9c <strncpy>
10005808:	016d37b3          	sltu	a5,s10,s6
1000580c:	00500613          	li	a2,5
10005810:	00fd07b3          	add	a5,s10,a5
10005814:	02c7f7b3          	remu	a5,a5,a2
10005818:	01812703          	lw	a4,24(sp)
1000581c:	ccccd337          	lui	t1,0xccccd
10005820:	ccccd537          	lui	a0,0xccccd
10005824:	00174583          	lbu	a1,1(a4)
10005828:	ccd30313          	addi	t1,t1,-819 # cccccccd <_sp+0xbccaf5f1>
1000582c:	ccc50513          	addi	a0,a0,-820 # cccccccc <_sp+0xbccaf5f0>
10005830:	00b035b3          	snez	a1,a1
10005834:	00b70733          	add	a4,a4,a1
10005838:	00c12683          	lw	a3,12(sp)
1000583c:	01c12883          	lw	a7,28(sp)
10005840:	02012e83          	lw	t4,32(sp)
10005844:	02412f03          	lw	t5,36(sp)
10005848:	03812803          	lw	a6,56(sp)
1000584c:	00000613          	li	a2,0
10005850:	00500e13          	li	t3,5
10005854:	40fb07b3          	sub	a5,s6,a5
10005858:	00fb35b3          	sltu	a1,s6,a5
1000585c:	40bd85b3          	sub	a1,s11,a1
10005860:	02a78533          	mul	a0,a5,a0
10005864:	026585b3          	mul	a1,a1,t1
10005868:	0267bfb3          	mulhu	t6,a5,t1
1000586c:	00a585b3          	add	a1,a1,a0
10005870:	02678533          	mul	a0,a5,t1
10005874:	01f585b3          	add	a1,a1,t6
10005878:	01f59793          	slli	a5,a1,0x1f
1000587c:	0015d593          	srli	a1,a1,0x1
10005880:	00155513          	srli	a0,a0,0x1
10005884:	00a7e7b3          	or	a5,a5,a0
10005888:	949ff06f          	j	100051d0 <_svfprintf_r+0x185c>
1000588c:	100117b7          	lui	a5,0x10011
10005890:	19078d13          	addi	s10,a5,400 # 10011190 <__extenddftf2+0x264>
10005894:	b75ff06f          	j	10005408 <_svfprintf_r+0x1a94>
10005898:	00412583          	lw	a1,4(sp)
1000589c:	0c410613          	addi	a2,sp,196
100058a0:	000a8513          	mv	a0,s5
100058a4:	5a9040ef          	jal	1000a64c <__ssprint_r>
100058a8:	00050463          	beqz	a0,100058b0 <_svfprintf_r+0x1f3c>
100058ac:	ecdfe06f          	j	10004778 <_svfprintf_r+0xe04>
100058b0:	0cc12603          	lw	a2,204(sp)
100058b4:	00098413          	mv	s0,s3
100058b8:	920ff06f          	j	100049d8 <_svfprintf_r+0x1064>
100058bc:	00600b13          	li	s6,6
100058c0:	b95ff06f          	j	10005454 <_svfprintf_r+0x1ae0>
100058c4:	01012783          	lw	a5,16(sp)
100058c8:	00812703          	lw	a4,8(sp)
100058cc:	0007a783          	lw	a5,0(a5)
100058d0:	00e79023          	sh	a4,0(a5)
100058d4:	ad5fe06f          	j	100043a8 <_svfprintf_r+0xa34>
100058d8:	0ffb7b13          	zext.b	s6,s6
100058dc:	00000d93          	li	s11,0
100058e0:	c70ff06f          	j	10004d50 <_svfprintf_r+0x13dc>
100058e4:	018b1b13          	slli	s6,s6,0x18
100058e8:	418b5b13          	srai	s6,s6,0x18
100058ec:	41fb5d93          	srai	s11,s6,0x1f
100058f0:	000d8793          	mv	a5,s11
100058f4:	c58fe06f          	j	10003d4c <_svfprintf_r+0x3d8>
100058f8:	0ffb7b13          	zext.b	s6,s6
100058fc:	00000d93          	li	s11,0
10005900:	ce4fe06f          	j	10003de4 <_svfprintf_r+0x470>
10005904:	00412583          	lw	a1,4(sp)
10005908:	02812503          	lw	a0,40(sp)
1000590c:	0c410613          	addi	a2,sp,196
10005910:	53d040ef          	jal	1000a64c <__ssprint_r>
10005914:	b68fe06f          	j	10003c7c <_svfprintf_r+0x308>
10005918:	02d00793          	li	a5,45
1000591c:	0af103a3          	sb	a5,167(sp)
10005920:	02d00713          	li	a4,45
10005924:	e51ff06f          	j	10005774 <_svfprintf_r+0x1e00>
10005928:	00412583          	lw	a1,4(sp)
1000592c:	0c410613          	addi	a2,sp,196
10005930:	000a8513          	mv	a0,s5
10005934:	519040ef          	jal	1000a64c <__ssprint_r>
10005938:	00050463          	beqz	a0,10005940 <_svfprintf_r+0x1fcc>
1000593c:	e3dfe06f          	j	10004778 <_svfprintf_r+0xe04>
10005940:	0ac12503          	lw	a0,172(sp)
10005944:	0cc12603          	lw	a2,204(sp)
10005948:	0c812703          	lw	a4,200(sp)
1000594c:	00098413          	mv	s0,s3
10005950:	98055ce3          	bgez	a0,100052e8 <_svfprintf_r+0x1974>
10005954:	b61ff06f          	j	100054b4 <_svfprintf_r+0x1b40>
10005958:	0ac12783          	lw	a5,172(sp)
1000595c:	00f12c23          	sw	a5,24(sp)
10005960:	0bc12783          	lw	a5,188(sp)
10005964:	40a787b3          	sub	a5,a5,a0
10005968:	00f12e23          	sw	a5,28(sp)
1000596c:	01812783          	lw	a5,24(sp)
10005970:	ffd00713          	li	a4,-3
10005974:	00e7c463          	blt	a5,a4,1000597c <_svfprintf_r+0x2008>
10005978:	42f95463          	bge	s2,a5,10005da0 <_svfprintf_r+0x242c>
1000597c:	01812783          	lw	a5,24(sp)
10005980:	ffe88893          	addi	a7,a7,-2
10005984:	fff78713          	addi	a4,a5,-1
10005988:	ce5ff06f          	j	1000566c <_svfprintf_r+0x1cf8>
1000598c:	00012623          	sw	zero,12(sp)
10005990:	00600913          	li	s2,6
10005994:	d80fe06f          	j	10003f14 <_svfprintf_r+0x5a0>
10005998:	00190693          	addi	a3,s2,1
1000599c:	00200613          	li	a2,2
100059a0:	09010b13          	addi	s6,sp,144
100059a4:	0ac10713          	addi	a4,sp,172
100059a8:	000b0593          	mv	a1,s6
100059ac:	0bc10813          	addi	a6,sp,188
100059b0:	0b010793          	addi	a5,sp,176
100059b4:	000a8513          	mv	a0,s5
100059b8:	05112823          	sw	a7,80(sp)
100059bc:	02d12223          	sw	a3,36(sp)
100059c0:	09f12823          	sw	t6,144(sp)
100059c4:	03f12023          	sw	t6,32(sp)
100059c8:	09e12a23          	sw	t5,148(sp)
100059cc:	01e12e23          	sw	t5,28(sp)
100059d0:	09d12c23          	sw	t4,152(sp)
100059d4:	01d12c23          	sw	t4,24(sp)
100059d8:	09812e23          	sw	s8,156(sp)
100059dc:	664010ef          	jal	10007040 <_ldtoa_r>
100059e0:	05012883          	lw	a7,80(sp)
100059e4:	02412683          	lw	a3,36(sp)
100059e8:	04600593          	li	a1,70
100059ec:	fdf8f613          	andi	a2,a7,-33
100059f0:	01812e83          	lw	t4,24(sp)
100059f4:	01c12f03          	lw	t5,28(sp)
100059f8:	02012f83          	lw	t6,32(sp)
100059fc:	00050d13          	mv	s10,a0
10005a00:	00d50733          	add	a4,a0,a3
10005a04:	7ab61e63          	bne	a2,a1,100061c0 <_svfprintf_r+0x284c>
10005a08:	000d4503          	lbu	a0,0(s10)
10005a0c:	03000593          	li	a1,48
10005a10:	4cb50c63          	beq	a0,a1,10005ee8 <_svfprintf_r+0x2574>
10005a14:	0ac12683          	lw	a3,172(sp)
10005a18:	08010593          	addi	a1,sp,128
10005a1c:	00d70733          	add	a4,a4,a3
10005a20:	bc1ff06f          	j	100055e0 <_svfprintf_r+0x1c6c>
10005a24:	09010b13          	addi	s6,sp,144
10005a28:	08010593          	addi	a1,sp,128
10005a2c:	0ac10613          	addi	a2,sp,172
10005a30:	000b0513          	mv	a0,s6
10005a34:	05112023          	sw	a7,64(sp)
10005a38:	09f12023          	sw	t6,128(sp)
10005a3c:	09e12223          	sw	t5,132(sp)
10005a40:	09d12423          	sw	t4,136(sp)
10005a44:	00b12c23          	sw	a1,24(sp)
10005a48:	09812623          	sw	s8,140(sp)
10005a4c:	470010ef          	jal	10006ebc <frexpl>
10005a50:	09012703          	lw	a4,144(sp)
10005a54:	01812583          	lw	a1,24(sp)
10005a58:	07010613          	addi	a2,sp,112
10005a5c:	08e12023          	sw	a4,128(sp)
10005a60:	09412703          	lw	a4,148(sp)
10005a64:	000b0513          	mv	a0,s6
10005a68:	06012823          	sw	zero,112(sp)
10005a6c:	08e12223          	sw	a4,132(sp)
10005a70:	09812703          	lw	a4,152(sp)
10005a74:	06012a23          	sw	zero,116(sp)
10005a78:	06012c23          	sw	zero,120(sp)
10005a7c:	08e12423          	sw	a4,136(sp)
10005a80:	09c12703          	lw	a4,156(sp)
10005a84:	08e12623          	sw	a4,140(sp)
10005a88:	3ffc0737          	lui	a4,0x3ffc0
10005a8c:	06e12e23          	sw	a4,124(sp)
10005a90:	531080ef          	jal	1000e7c0 <__multf3>
10005a94:	01812583          	lw	a1,24(sp)
10005a98:	09012f03          	lw	t5,144(sp)
10005a9c:	09412e83          	lw	t4,148(sp)
10005aa0:	09812803          	lw	a6,152(sp)
10005aa4:	000b0513          	mv	a0,s6
10005aa8:	02b12223          	sw	a1,36(sp)
10005aac:	03e12023          	sw	t5,32(sp)
10005ab0:	01d12e23          	sw	t4,28(sp)
10005ab4:	01012c23          	sw	a6,24(sp)
10005ab8:	08012023          	sw	zero,128(sp)
10005abc:	08012223          	sw	zero,132(sp)
10005ac0:	08012423          	sw	zero,136(sp)
10005ac4:	08012623          	sw	zero,140(sp)
10005ac8:	1cd080ef          	jal	1000e494 <__eqtf2>
10005acc:	09c12d83          	lw	s11,156(sp)
10005ad0:	01812803          	lw	a6,24(sp)
10005ad4:	01c12e83          	lw	t4,28(sp)
10005ad8:	02012f03          	lw	t5,32(sp)
10005adc:	02412583          	lw	a1,36(sp)
10005ae0:	04012883          	lw	a7,64(sp)
10005ae4:	00051663          	bnez	a0,10005af0 <_svfprintf_r+0x217c>
10005ae8:	00100713          	li	a4,1
10005aec:	0ae12623          	sw	a4,172(sp)
10005af0:	06100713          	li	a4,97
10005af4:	64e88263          	beq	a7,a4,10006138 <_svfprintf_r+0x27c4>
10005af8:	10011737          	lui	a4,0x10011
10005afc:	1b470793          	addi	a5,a4,436 # 100111b4 <__extenddftf2+0x288>
10005b00:	00f12c23          	sw	a5,24(sp)
10005b04:	00912e23          	sw	s1,28(sp)
10005b08:	03712223          	sw	s7,36(sp)
10005b0c:	05912023          	sw	s9,64(sp)
10005b10:	04812623          	sw	s0,76(sp)
10005b14:	05512823          	sw	s5,80(sp)
10005b18:	05a12a23          	sw	s10,84(sp)
10005b1c:	000d0a93          	mv	s5,s10
10005b20:	01812483          	lw	s1,24(sp)
10005b24:	fff90913          	addi	s2,s2,-1
10005b28:	03112023          	sw	a7,32(sp)
10005b2c:	000f0b93          	mv	s7,t5
10005b30:	000e8c13          	mv	s8,t4
10005b34:	00080c93          	mv	s9,a6
10005b38:	000d8d13          	mv	s10,s11
10005b3c:	00058413          	mv	s0,a1
10005b40:	03c0006f          	j	10005b7c <_svfprintf_r+0x2208>
10005b44:	00040593          	mv	a1,s0
10005b48:	000b0513          	mv	a0,s6
10005b4c:	09712823          	sw	s7,144(sp)
10005b50:	09812a23          	sw	s8,148(sp)
10005b54:	09912c23          	sw	s9,152(sp)
10005b58:	09a12e23          	sw	s10,156(sp)
10005b5c:	08012023          	sw	zero,128(sp)
10005b60:	08012223          	sw	zero,132(sp)
10005b64:	08012423          	sw	zero,136(sp)
10005b68:	08012623          	sw	zero,140(sp)
10005b6c:	fff90d93          	addi	s11,s2,-1
10005b70:	125080ef          	jal	1000e494 <__eqtf2>
10005b74:	54050263          	beqz	a0,100060b8 <_svfprintf_r+0x2744>
10005b78:	000d8913          	mv	s2,s11
10005b7c:	400307b7          	lui	a5,0x40030
10005b80:	07010613          	addi	a2,sp,112
10005b84:	00040593          	mv	a1,s0
10005b88:	000b0513          	mv	a0,s6
10005b8c:	06f12e23          	sw	a5,124(sp)
10005b90:	09712023          	sw	s7,128(sp)
10005b94:	09812223          	sw	s8,132(sp)
10005b98:	09912423          	sw	s9,136(sp)
10005b9c:	09a12623          	sw	s10,140(sp)
10005ba0:	06012823          	sw	zero,112(sp)
10005ba4:	06012a23          	sw	zero,116(sp)
10005ba8:	06012c23          	sw	zero,120(sp)
10005bac:	415080ef          	jal	1000e7c0 <__multf3>
10005bb0:	000b0513          	mv	a0,s6
10005bb4:	12c0b0ef          	jal	10010ce0 <__fixtfsi>
10005bb8:	00050593          	mv	a1,a0
10005bbc:	00050d93          	mv	s11,a0
10005bc0:	000b0513          	mv	a0,s6
10005bc4:	09012d03          	lw	s10,144(sp)
10005bc8:	09412c83          	lw	s9,148(sp)
10005bcc:	09812c03          	lw	s8,152(sp)
10005bd0:	09c12b83          	lw	s7,156(sp)
10005bd4:	2040b0ef          	jal	10010dd8 <__floatsitf>
10005bd8:	09012683          	lw	a3,144(sp)
10005bdc:	06010613          	addi	a2,sp,96
10005be0:	07010593          	addi	a1,sp,112
10005be4:	06d12023          	sw	a3,96(sp)
10005be8:	09412683          	lw	a3,148(sp)
10005bec:	00040513          	mv	a0,s0
10005bf0:	07a12823          	sw	s10,112(sp)
10005bf4:	06d12223          	sw	a3,100(sp)
10005bf8:	09812683          	lw	a3,152(sp)
10005bfc:	07912a23          	sw	s9,116(sp)
10005c00:	07812c23          	sw	s8,120(sp)
10005c04:	06d12423          	sw	a3,104(sp)
10005c08:	09c12683          	lw	a3,156(sp)
10005c0c:	07712e23          	sw	s7,124(sp)
10005c10:	06d12623          	sw	a3,108(sp)
10005c14:	3b1090ef          	jal	1000f7c4 <__subtf3>
10005c18:	01b486b3          	add	a3,s1,s11
10005c1c:	0006c603          	lbu	a2,0(a3)
10005c20:	000a8f93          	mv	t6,s5
10005c24:	001a8a93          	addi	s5,s5,1
10005c28:	08012b83          	lw	s7,128(sp)
10005c2c:	08412c03          	lw	s8,132(sp)
10005c30:	08812c83          	lw	s9,136(sp)
10005c34:	08c12d03          	lw	s10,140(sp)
10005c38:	fff00793          	li	a5,-1
10005c3c:	feca8fa3          	sb	a2,-1(s5)
10005c40:	f0f912e3          	bne	s2,a5,10005b44 <_svfprintf_r+0x21d0>
10005c44:	02012883          	lw	a7,32(sp)
10005c48:	000b8f13          	mv	t5,s7
10005c4c:	000c0e93          	mv	t4,s8
10005c50:	000c8813          	mv	a6,s9
10005c54:	00040593          	mv	a1,s0
10005c58:	05b12c23          	sw	s11,88(sp)
10005c5c:	3ffe0937          	lui	s2,0x3ffe0
10005c60:	000d0d93          	mv	s11,s10
10005c64:	000b0513          	mv	a0,s6
10005c68:	05f12e23          	sw	t6,92(sp)
10005c6c:	01c12483          	lw	s1,28(sp)
10005c70:	02412b83          	lw	s7,36(sp)
10005c74:	01112e23          	sw	a7,28(sp)
10005c78:	04012c83          	lw	s9,64(sp)
10005c7c:	04c12403          	lw	s0,76(sp)
10005c80:	000a8c13          	mv	s8,s5
10005c84:	09e12823          	sw	t5,144(sp)
10005c88:	05012a83          	lw	s5,80(sp)
10005c8c:	09d12a23          	sw	t4,148(sp)
10005c90:	05e12823          	sw	t5,80(sp)
10005c94:	05d12623          	sw	t4,76(sp)
10005c98:	09012c23          	sw	a6,152(sp)
10005c9c:	05012023          	sw	a6,64(sp)
10005ca0:	09b12e23          	sw	s11,156(sp)
10005ca4:	08012023          	sw	zero,128(sp)
10005ca8:	08012223          	sw	zero,132(sp)
10005cac:	08012423          	sw	zero,136(sp)
10005cb0:	09212623          	sw	s2,140(sp)
10005cb4:	02b12223          	sw	a1,36(sp)
10005cb8:	0a9080ef          	jal	1000e560 <__getf2>
10005cbc:	05412d03          	lw	s10,84(sp)
10005cc0:	01c12883          	lw	a7,28(sp)
10005cc4:	05c12f83          	lw	t6,92(sp)
10005cc8:	02a04663          	bgtz	a0,10005cf4 <_svfprintf_r+0x2380>
10005ccc:	02412583          	lw	a1,36(sp)
10005cd0:	000b0513          	mv	a0,s6
10005cd4:	01f12e23          	sw	t6,28(sp)
10005cd8:	7bc080ef          	jal	1000e494 <__eqtf2>
10005cdc:	02012883          	lw	a7,32(sp)
10005ce0:	04051e63          	bnez	a0,10005d3c <_svfprintf_r+0x23c8>
10005ce4:	05812783          	lw	a5,88(sp)
10005ce8:	01c12f83          	lw	t6,28(sp)
10005cec:	0017f693          	andi	a3,a5,1
10005cf0:	04068663          	beqz	a3,10005d3c <_svfprintf_r+0x23c8>
10005cf4:	01812783          	lw	a5,24(sp)
10005cf8:	0bf12e23          	sw	t6,188(sp)
10005cfc:	fffc4603          	lbu	a2,-1(s8)
10005d00:	00f7c583          	lbu	a1,15(a5) # 4003000f <_sp+0x30012933>
10005d04:	000c0693          	mv	a3,s8
10005d08:	02b61063          	bne	a2,a1,10005d28 <_svfprintf_r+0x23b4>
10005d0c:	03000513          	li	a0,48
10005d10:	fea68fa3          	sb	a0,-1(a3)
10005d14:	0bc12683          	lw	a3,188(sp)
10005d18:	fff68793          	addi	a5,a3,-1
10005d1c:	0af12e23          	sw	a5,188(sp)
10005d20:	fff6c603          	lbu	a2,-1(a3)
10005d24:	fec586e3          	beq	a1,a2,10005d10 <_svfprintf_r+0x239c>
10005d28:	00160593          	addi	a1,a2,1
10005d2c:	03900513          	li	a0,57
10005d30:	0ff5f593          	zext.b	a1,a1
10005d34:	04a60463          	beq	a2,a0,10005d7c <_svfprintf_r+0x2408>
10005d38:	feb68fa3          	sb	a1,-1(a3)
10005d3c:	0ac12783          	lw	a5,172(sp)
10005d40:	41ac0733          	sub	a4,s8,s10
10005d44:	00e12e23          	sw	a4,28(sp)
10005d48:	fff78713          	addi	a4,a5,-1
10005d4c:	00f12c23          	sw	a5,24(sp)
10005d50:	06100613          	li	a2,97
10005d54:	0ae12623          	sw	a4,172(sp)
10005d58:	07000693          	li	a3,112
10005d5c:	00c88663          	beq	a7,a2,10005d68 <_svfprintf_r+0x23f4>
10005d60:	05000693          	li	a3,80
10005d64:	04100893          	li	a7,65
10005d68:	00100613          	li	a2,1
10005d6c:	90dff06f          	j	10005678 <_svfprintf_r+0x1d04>
10005d70:	00090693          	mv	a3,s2
10005d74:	00300613          	li	a2,3
10005d78:	c29ff06f          	j	100059a0 <_svfprintf_r+0x202c>
10005d7c:	01812783          	lw	a5,24(sp)
10005d80:	00a7c583          	lbu	a1,10(a5)
10005d84:	fb5ff06f          	j	10005d38 <_svfprintf_r+0x23c4>
10005d88:	0a714703          	lbu	a4,167(sp)
10005d8c:	04c12b83          	lw	s7,76(sp)
10005d90:	00000913          	li	s2,0
10005d94:	00070463          	beqz	a4,10005d9c <_svfprintf_r+0x2428>
10005d98:	81cfe06f          	j	10003db4 <_svfprintf_r+0x440>
10005d9c:	db5fd06f          	j	10003b50 <_svfprintf_r+0x1dc>
10005da0:	01c12783          	lw	a5,28(sp)
10005da4:	01812703          	lw	a4,24(sp)
10005da8:	10f74863          	blt	a4,a5,10005eb8 <_svfprintf_r+0x2544>
10005dac:	01812783          	lw	a5,24(sp)
10005db0:	001bf713          	andi	a4,s7,1
10005db4:	00078b13          	mv	s6,a5
10005db8:	00070663          	beqz	a4,10005dc4 <_svfprintf_r+0x2450>
10005dbc:	02c12703          	lw	a4,44(sp)
10005dc0:	00e78b33          	add	s6,a5,a4
10005dc4:	400bfe13          	andi	t3,s7,1024
10005dc8:	000e0663          	beqz	t3,10005dd4 <_svfprintf_r+0x2460>
10005dcc:	01812783          	lw	a5,24(sp)
10005dd0:	26f04463          	bgtz	a5,10006038 <_svfprintf_r+0x26c4>
10005dd4:	fffb4693          	not	a3,s6
10005dd8:	41f6d693          	srai	a3,a3,0x1f
10005ddc:	00db7db3          	and	s11,s6,a3
10005de0:	06700893          	li	a7,103
10005de4:	02012223          	sw	zero,36(sp)
10005de8:	02012023          	sw	zero,32(sp)
10005dec:	95dff06f          	j	10005748 <_svfprintf_r+0x1dd4>
10005df0:	0c410613          	addi	a2,sp,196
10005df4:	00048593          	mv	a1,s1
10005df8:	000a8513          	mv	a0,s5
10005dfc:	051040ef          	jal	1000a64c <__ssprint_r>
10005e00:	00050463          	beqz	a0,10005e08 <_svfprintf_r+0x2494>
10005e04:	975fe06f          	j	10004778 <_svfprintf_r+0xe04>
10005e08:	000c4683          	lbu	a3,0(s8)
10005e0c:	0cc12603          	lw	a2,204(sp)
10005e10:	00098593          	mv	a1,s3
10005e14:	01000713          	li	a4,16
10005e18:	00700813          	li	a6,7
10005e1c:	00dd0d33          	add	s10,s10,a3
10005e20:	99cff06f          	j	10004fbc <_svfprintf_r+0x1648>
10005e24:	00900513          	li	a0,9
10005e28:	bb656463          	bltu	a0,s6,100051d0 <_svfprintf_r+0x185c>
10005e2c:	c24ff06f          	j	10005250 <_svfprintf_r+0x18dc>
10005e30:	02d00793          	li	a5,45
10005e34:	0af103a3          	sb	a5,167(sp)
10005e38:	02d00713          	li	a4,45
10005e3c:	dbcff06f          	j	100053f8 <_svfprintf_r+0x1a84>
10005e40:	0a714703          	lbu	a4,167(sp)
10005e44:	01812823          	sw	s8,16(sp)
10005e48:	02012223          	sw	zero,36(sp)
10005e4c:	02012023          	sw	zero,32(sp)
10005e50:	00012c23          	sw	zero,24(sp)
10005e54:	00090d93          	mv	s11,s2
10005e58:	00090b13          	mv	s6,s2
10005e5c:	00000913          	li	s2,0
10005e60:	00070463          	beqz	a4,10005e68 <_svfprintf_r+0x24f4>
10005e64:	f51fd06f          	j	10003db4 <_svfprintf_r+0x440>
10005e68:	ce9fd06f          	j	10003b50 <_svfprintf_r+0x1dc>
10005e6c:	100117b7          	lui	a5,0x10011
10005e70:	19c78d13          	addi	s10,a5,412 # 1001119c <__extenddftf2+0x270>
10005e74:	d94ff06f          	j	10005408 <_svfprintf_r+0x1a94>
10005e78:	00412583          	lw	a1,4(sp)
10005e7c:	0c410613          	addi	a2,sp,196
10005e80:	000a8513          	mv	a0,s5
10005e84:	7c8040ef          	jal	1000a64c <__ssprint_r>
10005e88:	00050463          	beqz	a0,10005e90 <_svfprintf_r+0x251c>
10005e8c:	8edfe06f          	j	10004778 <_svfprintf_r+0xe04>
10005e90:	0ac12903          	lw	s2,172(sp)
10005e94:	01c12783          	lw	a5,28(sp)
10005e98:	0cc12603          	lw	a2,204(sp)
10005e9c:	00098413          	mv	s0,s3
10005ea0:	41278933          	sub	s2,a5,s2
10005ea4:	bb9fe06f          	j	10004a5c <_svfprintf_r+0x10e8>
10005ea8:	0ac12783          	lw	a5,172(sp)
10005eac:	00f12c23          	sw	a5,24(sp)
10005eb0:	00070793          	mv	a5,a4
10005eb4:	f98ff06f          	j	1000564c <_svfprintf_r+0x1cd8>
10005eb8:	01c12783          	lw	a5,28(sp)
10005ebc:	02c12703          	lw	a4,44(sp)
10005ec0:	06700893          	li	a7,103
10005ec4:	00e78b33          	add	s6,a5,a4
10005ec8:	01812783          	lw	a5,24(sp)
10005ecc:	24f05063          	blez	a5,1000610c <_svfprintf_r+0x2798>
10005ed0:	400bfe13          	andi	t3,s7,1024
10005ed4:	160e1463          	bnez	t3,1000603c <_svfprintf_r+0x26c8>
10005ed8:	fffb4693          	not	a3,s6
10005edc:	41f6d693          	srai	a3,a3,0x1f
10005ee0:	00db7db3          	and	s11,s6,a3
10005ee4:	f01ff06f          	j	10005de4 <_svfprintf_r+0x2470>
10005ee8:	08010593          	addi	a1,sp,128
10005eec:	000b0513          	mv	a0,s6
10005ef0:	04e12e23          	sw	a4,92(sp)
10005ef4:	04c12c23          	sw	a2,88(sp)
10005ef8:	05112a23          	sw	a7,84(sp)
10005efc:	04d12823          	sw	a3,80(sp)
10005f00:	09f12823          	sw	t6,144(sp)
10005f04:	03f12223          	sw	t6,36(sp)
10005f08:	09e12a23          	sw	t5,148(sp)
10005f0c:	03e12023          	sw	t5,32(sp)
10005f10:	09d12c23          	sw	t4,152(sp)
10005f14:	01d12e23          	sw	t4,28(sp)
10005f18:	00b12c23          	sw	a1,24(sp)
10005f1c:	09812e23          	sw	s8,156(sp)
10005f20:	08012023          	sw	zero,128(sp)
10005f24:	08012223          	sw	zero,132(sp)
10005f28:	08012423          	sw	zero,136(sp)
10005f2c:	08012623          	sw	zero,140(sp)
10005f30:	564080ef          	jal	1000e494 <__eqtf2>
10005f34:	01812583          	lw	a1,24(sp)
10005f38:	01c12e83          	lw	t4,28(sp)
10005f3c:	02012f03          	lw	t5,32(sp)
10005f40:	02412f83          	lw	t6,36(sp)
10005f44:	05012683          	lw	a3,80(sp)
10005f48:	05412883          	lw	a7,84(sp)
10005f4c:	05812603          	lw	a2,88(sp)
10005f50:	05c12703          	lw	a4,92(sp)
10005f54:	1c051863          	bnez	a0,10006124 <_svfprintf_r+0x27b0>
10005f58:	0ac12783          	lw	a5,172(sp)
10005f5c:	00f70733          	add	a4,a4,a5
10005f60:	00f12c23          	sw	a5,24(sp)
10005f64:	41a707b3          	sub	a5,a4,s10
10005f68:	00f12e23          	sw	a5,28(sp)
10005f6c:	01812783          	lw	a5,24(sp)
10005f70:	001bf713          	andi	a4,s7,1
10005f74:	01276733          	or	a4,a4,s2
10005f78:	1cf05863          	blez	a5,10006148 <_svfprintf_r+0x27d4>
10005f7c:	16071e63          	bnez	a4,100060f8 <_svfprintf_r+0x2784>
10005f80:	01812b03          	lw	s6,24(sp)
10005f84:	06600893          	li	a7,102
10005f88:	f49ff06f          	j	10005ed0 <_svfprintf_r+0x255c>
10005f8c:	000b8e93          	mv	t4,s7
10005f90:	dedfd06f          	j	10003d7c <_svfprintf_r+0x408>
10005f94:	0b610693          	addi	a3,sp,182
10005f98:	00061863          	bnez	a2,10005fa8 <_svfprintf_r+0x2634>
10005f9c:	03000693          	li	a3,48
10005fa0:	0ad10b23          	sb	a3,182(sp)
10005fa4:	0b710693          	addi	a3,sp,183
10005fa8:	19010793          	addi	a5,sp,400
10005fac:	40f68633          	sub	a2,a3,a5
10005fb0:	03070713          	addi	a4,a4,48
10005fb4:	0dd60793          	addi	a5,a2,221
10005fb8:	00e68023          	sb	a4,0(a3)
10005fbc:	04f12023          	sw	a5,64(sp)
10005fc0:	f48ff06f          	j	10005708 <_svfprintf_r+0x1d94>
10005fc4:	00048813          	mv	a6,s1
10005fc8:	01812483          	lw	s1,24(sp)
10005fcc:	01260633          	add	a2,a2,s2
10005fd0:	00170713          	addi	a4,a4,1
10005fd4:	01042023          	sw	a6,0(s0)
10005fd8:	01242223          	sw	s2,4(s0)
10005fdc:	0cc12623          	sw	a2,204(sp)
10005fe0:	0ce12423          	sw	a4,200(sp)
10005fe4:	00700593          	li	a1,7
10005fe8:	aee5de63          	bge	a1,a4,100052e4 <_svfprintf_r+0x1970>
10005fec:	00412583          	lw	a1,4(sp)
10005ff0:	0c410613          	addi	a2,sp,196
10005ff4:	000a8513          	mv	a0,s5
10005ff8:	654040ef          	jal	1000a64c <__ssprint_r>
10005ffc:	00050463          	beqz	a0,10006004 <_svfprintf_r+0x2690>
10006000:	f78fe06f          	j	10004778 <_svfprintf_r+0xe04>
10006004:	0cc12603          	lw	a2,204(sp)
10006008:	0c812703          	lw	a4,200(sp)
1000600c:	00098413          	mv	s0,s3
10006010:	ad8ff06f          	j	100052e8 <_svfprintf_r+0x1974>
10006014:	001bf713          	andi	a4,s7,1
10006018:	f0070663          	beqz	a4,10005724 <_svfprintf_r+0x1db0>
1000601c:	f00ff06f          	j	1000571c <_svfprintf_r+0x1da8>
10006020:	02812703          	lw	a4,40(sp)
10006024:	00c00793          	li	a5,12
10006028:	00f72023          	sw	a5,0(a4)
1000602c:	fff00793          	li	a5,-1
10006030:	00f12423          	sw	a5,8(sp)
10006034:	c85fd06f          	j	10003cb8 <_svfprintf_r+0x344>
10006038:	06700893          	li	a7,103
1000603c:	03c12603          	lw	a2,60(sp)
10006040:	0ff00693          	li	a3,255
10006044:	00064703          	lbu	a4,0(a2)
10006048:	18d70263          	beq	a4,a3,100061cc <_svfprintf_r+0x2858>
1000604c:	01812783          	lw	a5,24(sp)
10006050:	00000513          	li	a0,0
10006054:	00000593          	li	a1,0
10006058:	00f75e63          	bge	a4,a5,10006074 <_svfprintf_r+0x2700>
1000605c:	40e787b3          	sub	a5,a5,a4
10006060:	00164703          	lbu	a4,1(a2)
10006064:	04070463          	beqz	a4,100060ac <_svfprintf_r+0x2738>
10006068:	00158593          	addi	a1,a1,1
1000606c:	00160613          	addi	a2,a2,1
10006070:	fed714e3          	bne	a4,a3,10006058 <_svfprintf_r+0x26e4>
10006074:	02c12e23          	sw	a2,60(sp)
10006078:	02b12023          	sw	a1,32(sp)
1000607c:	02a12223          	sw	a0,36(sp)
10006080:	00f12c23          	sw	a5,24(sp)
10006084:	02412783          	lw	a5,36(sp)
10006088:	02012703          	lw	a4,32(sp)
1000608c:	00e78733          	add	a4,a5,a4
10006090:	04812783          	lw	a5,72(sp)
10006094:	02f70733          	mul	a4,a4,a5
10006098:	01670b33          	add	s6,a4,s6
1000609c:	fffb4693          	not	a3,s6
100060a0:	41f6d693          	srai	a3,a3,0x1f
100060a4:	00db7db3          	and	s11,s6,a3
100060a8:	ea0ff06f          	j	10005748 <_svfprintf_r+0x1dd4>
100060ac:	00064703          	lbu	a4,0(a2)
100060b0:	00150513          	addi	a0,a0,1
100060b4:	fbdff06f          	j	10006070 <_svfprintf_r+0x26fc>
100060b8:	000a8c13          	mv	s8,s5
100060bc:	00190693          	addi	a3,s2,1 # 3ffe0001 <_sp+0x2ffc2925>
100060c0:	01c12483          	lw	s1,28(sp)
100060c4:	02012883          	lw	a7,32(sp)
100060c8:	02412b83          	lw	s7,36(sp)
100060cc:	04012c83          	lw	s9,64(sp)
100060d0:	04c12403          	lw	s0,76(sp)
100060d4:	05012a83          	lw	s5,80(sp)
100060d8:	05412d03          	lw	s10,84(sp)
100060dc:	00dc06b3          	add	a3,s8,a3
100060e0:	03000613          	li	a2,48
100060e4:	c4094ce3          	bltz	s2,10005d3c <_svfprintf_r+0x23c8>
100060e8:	001c0c13          	addi	s8,s8,1
100060ec:	fecc0fa3          	sb	a2,-1(s8)
100060f0:	fedc1ce3          	bne	s8,a3,100060e8 <_svfprintf_r+0x2774>
100060f4:	c49ff06f          	j	10005d3c <_svfprintf_r+0x23c8>
100060f8:	02c12703          	lw	a4,44(sp)
100060fc:	06600893          	li	a7,102
10006100:	00e90f33          	add	t5,s2,a4
10006104:	00ff0b33          	add	s6,t5,a5
10006108:	dc9ff06f          	j	10005ed0 <_svfprintf_r+0x255c>
1000610c:	40fb0f33          	sub	t5,s6,a5
10006110:	001f0b13          	addi	s6,t5,1
10006114:	fffb4693          	not	a3,s6
10006118:	41f6d693          	srai	a3,a3,0x1f
1000611c:	00db7db3          	and	s11,s6,a3
10006120:	cc5ff06f          	j	10005de4 <_svfprintf_r+0x2470>
10006124:	00100513          	li	a0,1
10006128:	40d506b3          	sub	a3,a0,a3
1000612c:	0ad12623          	sw	a3,172(sp)
10006130:	00d70733          	add	a4,a4,a3
10006134:	cacff06f          	j	100055e0 <_svfprintf_r+0x1c6c>
10006138:	10011737          	lui	a4,0x10011
1000613c:	1a070793          	addi	a5,a4,416 # 100111a0 <__extenddftf2+0x274>
10006140:	00f12c23          	sw	a5,24(sp)
10006144:	9c1ff06f          	j	10005b04 <_svfprintf_r+0x2190>
10006148:	00071a63          	bnez	a4,1000615c <_svfprintf_r+0x27e8>
1000614c:	00100d93          	li	s11,1
10006150:	06600893          	li	a7,102
10006154:	00100b13          	li	s6,1
10006158:	c8dff06f          	j	10005de4 <_svfprintf_r+0x2470>
1000615c:	02c12783          	lw	a5,44(sp)
10006160:	06600893          	li	a7,102
10006164:	00178f13          	addi	t5,a5,1
10006168:	012f0b33          	add	s6,t5,s2
1000616c:	fffb4693          	not	a3,s6
10006170:	41f6d693          	srai	a3,a3,0x1f
10006174:	00db7db3          	and	s11,s6,a3
10006178:	c6dff06f          	j	10005de4 <_svfprintf_r+0x2470>
1000617c:	01012783          	lw	a5,16(sp)
10006180:	0007a903          	lw	s2,0(a5)
10006184:	00478793          	addi	a5,a5,4
10006188:	00095463          	bgez	s2,10006190 <_svfprintf_r+0x281c>
1000618c:	fff00913          	li	s2,-1
10006190:	0014c883          	lbu	a7,1(s1)
10006194:	00f12823          	sw	a5,16(sp)
10006198:	00068493          	mv	s1,a3
1000619c:	935fd06f          	j	10003ad0 <_svfprintf_r+0x15c>
100061a0:	00200793          	li	a5,2
100061a4:	04f12023          	sw	a5,64(sp)
100061a8:	d60ff06f          	j	10005708 <_svfprintf_r+0x1d94>
100061ac:	00412703          	lw	a4,4(sp)
100061b0:	00c75783          	lhu	a5,12(a4)
100061b4:	0407e793          	ori	a5,a5,64
100061b8:	00f71623          	sh	a5,12(a4)
100061bc:	ac1fd06f          	j	10003c7c <_svfprintf_r+0x308>
100061c0:	04500613          	li	a2,69
100061c4:	08010593          	addi	a1,sp,128
100061c8:	c18ff06f          	j	100055e0 <_svfprintf_r+0x1c6c>
100061cc:	02012223          	sw	zero,36(sp)
100061d0:	02012023          	sw	zero,32(sp)
100061d4:	eb1ff06f          	j	10006084 <_svfprintf_r+0x2710>

100061d8 <_fclose_r>:
100061d8:	ff010113          	addi	sp,sp,-16
100061dc:	00112623          	sw	ra,12(sp)
100061e0:	01212023          	sw	s2,0(sp)
100061e4:	02058863          	beqz	a1,10006214 <_fclose_r+0x3c>
100061e8:	00812423          	sw	s0,8(sp)
100061ec:	00912223          	sw	s1,4(sp)
100061f0:	00058413          	mv	s0,a1
100061f4:	00050493          	mv	s1,a0
100061f8:	00050663          	beqz	a0,10006204 <_fclose_r+0x2c>
100061fc:	03452783          	lw	a5,52(a0)
10006200:	0c078c63          	beqz	a5,100062d8 <_fclose_r+0x100>
10006204:	00c41783          	lh	a5,12(s0)
10006208:	02079263          	bnez	a5,1000622c <_fclose_r+0x54>
1000620c:	00812403          	lw	s0,8(sp)
10006210:	00412483          	lw	s1,4(sp)
10006214:	00c12083          	lw	ra,12(sp)
10006218:	00000913          	li	s2,0
1000621c:	00090513          	mv	a0,s2
10006220:	00012903          	lw	s2,0(sp)
10006224:	01010113          	addi	sp,sp,16
10006228:	00008067          	ret
1000622c:	00040593          	mv	a1,s0
10006230:	00048513          	mv	a0,s1
10006234:	0ac000ef          	jal	100062e0 <__sflush_r>
10006238:	02c42783          	lw	a5,44(s0)
1000623c:	00050913          	mv	s2,a0
10006240:	00078a63          	beqz	a5,10006254 <_fclose_r+0x7c>
10006244:	01c42583          	lw	a1,28(s0)
10006248:	00048513          	mv	a0,s1
1000624c:	000780e7          	jalr	a5
10006250:	06054463          	bltz	a0,100062b8 <_fclose_r+0xe0>
10006254:	00c45783          	lhu	a5,12(s0)
10006258:	0807f793          	andi	a5,a5,128
1000625c:	06079663          	bnez	a5,100062c8 <_fclose_r+0xf0>
10006260:	03042583          	lw	a1,48(s0)
10006264:	00058c63          	beqz	a1,1000627c <_fclose_r+0xa4>
10006268:	04040793          	addi	a5,s0,64
1000626c:	00f58663          	beq	a1,a5,10006278 <_fclose_r+0xa0>
10006270:	00048513          	mv	a0,s1
10006274:	c31fc0ef          	jal	10002ea4 <_free_r>
10006278:	02042823          	sw	zero,48(s0)
1000627c:	04442583          	lw	a1,68(s0)
10006280:	00058863          	beqz	a1,10006290 <_fclose_r+0xb8>
10006284:	00048513          	mv	a0,s1
10006288:	c1dfc0ef          	jal	10002ea4 <_free_r>
1000628c:	04042223          	sw	zero,68(s0)
10006290:	ed1fb0ef          	jal	10002160 <__sfp_lock_acquire>
10006294:	00041623          	sh	zero,12(s0)
10006298:	ecdfb0ef          	jal	10002164 <__sfp_lock_release>
1000629c:	00c12083          	lw	ra,12(sp)
100062a0:	00812403          	lw	s0,8(sp)
100062a4:	00412483          	lw	s1,4(sp)
100062a8:	00090513          	mv	a0,s2
100062ac:	00012903          	lw	s2,0(sp)
100062b0:	01010113          	addi	sp,sp,16
100062b4:	00008067          	ret
100062b8:	00c45783          	lhu	a5,12(s0)
100062bc:	fff00913          	li	s2,-1
100062c0:	0807f793          	andi	a5,a5,128
100062c4:	f8078ee3          	beqz	a5,10006260 <_fclose_r+0x88>
100062c8:	01042583          	lw	a1,16(s0)
100062cc:	00048513          	mv	a0,s1
100062d0:	bd5fc0ef          	jal	10002ea4 <_free_r>
100062d4:	f8dff06f          	j	10006260 <_fclose_r+0x88>
100062d8:	e65fb0ef          	jal	1000213c <__sinit>
100062dc:	f29ff06f          	j	10006204 <_fclose_r+0x2c>

100062e0 <__sflush_r>:
100062e0:	00c59703          	lh	a4,12(a1)
100062e4:	fe010113          	addi	sp,sp,-32
100062e8:	00812c23          	sw	s0,24(sp)
100062ec:	01312623          	sw	s3,12(sp)
100062f0:	00112e23          	sw	ra,28(sp)
100062f4:	00877793          	andi	a5,a4,8
100062f8:	00058413          	mv	s0,a1
100062fc:	00050993          	mv	s3,a0
10006300:	12079063          	bnez	a5,10006420 <__sflush_r+0x140>
10006304:	000017b7          	lui	a5,0x1
10006308:	80078793          	addi	a5,a5,-2048 # 800 <__stack_size+0x6d4>
1000630c:	0045a683          	lw	a3,4(a1)
10006310:	00f767b3          	or	a5,a4,a5
10006314:	00f59623          	sh	a5,12(a1)
10006318:	18d05263          	blez	a3,1000649c <__sflush_r+0x1bc>
1000631c:	02842803          	lw	a6,40(s0)
10006320:	0e080463          	beqz	a6,10006408 <__sflush_r+0x128>
10006324:	00912a23          	sw	s1,20(sp)
10006328:	01371693          	slli	a3,a4,0x13
1000632c:	0009a483          	lw	s1,0(s3)
10006330:	0009a023          	sw	zero,0(s3)
10006334:	01c42583          	lw	a1,28(s0)
10006338:	1606ce63          	bltz	a3,100064b4 <__sflush_r+0x1d4>
1000633c:	00000613          	li	a2,0
10006340:	00100693          	li	a3,1
10006344:	00098513          	mv	a0,s3
10006348:	000800e7          	jalr	a6
1000634c:	fff00793          	li	a5,-1
10006350:	00050613          	mv	a2,a0
10006354:	1af50463          	beq	a0,a5,100064fc <__sflush_r+0x21c>
10006358:	00c41783          	lh	a5,12(s0)
1000635c:	02842803          	lw	a6,40(s0)
10006360:	01c42583          	lw	a1,28(s0)
10006364:	0047f793          	andi	a5,a5,4
10006368:	00078e63          	beqz	a5,10006384 <__sflush_r+0xa4>
1000636c:	00442703          	lw	a4,4(s0)
10006370:	03042783          	lw	a5,48(s0)
10006374:	40e60633          	sub	a2,a2,a4
10006378:	00078663          	beqz	a5,10006384 <__sflush_r+0xa4>
1000637c:	03c42783          	lw	a5,60(s0)
10006380:	40f60633          	sub	a2,a2,a5
10006384:	00000693          	li	a3,0
10006388:	00098513          	mv	a0,s3
1000638c:	000800e7          	jalr	a6
10006390:	fff00793          	li	a5,-1
10006394:	12f51463          	bne	a0,a5,100064bc <__sflush_r+0x1dc>
10006398:	0009a683          	lw	a3,0(s3)
1000639c:	01d00793          	li	a5,29
100063a0:	00c41703          	lh	a4,12(s0)
100063a4:	16d7ea63          	bltu	a5,a3,10006518 <__sflush_r+0x238>
100063a8:	204007b7          	lui	a5,0x20400
100063ac:	00178793          	addi	a5,a5,1 # 20400001 <_sp+0x103e2925>
100063b0:	00d7d7b3          	srl	a5,a5,a3
100063b4:	0017f793          	andi	a5,a5,1
100063b8:	16078063          	beqz	a5,10006518 <__sflush_r+0x238>
100063bc:	01042603          	lw	a2,16(s0)
100063c0:	fffff7b7          	lui	a5,0xfffff
100063c4:	7ff78793          	addi	a5,a5,2047 # fffff7ff <_sp+0xeffe2123>
100063c8:	00f777b3          	and	a5,a4,a5
100063cc:	00f41623          	sh	a5,12(s0)
100063d0:	00042223          	sw	zero,4(s0)
100063d4:	00c42023          	sw	a2,0(s0)
100063d8:	01371793          	slli	a5,a4,0x13
100063dc:	0007d463          	bgez	a5,100063e4 <__sflush_r+0x104>
100063e0:	10068263          	beqz	a3,100064e4 <__sflush_r+0x204>
100063e4:	03042583          	lw	a1,48(s0)
100063e8:	0099a023          	sw	s1,0(s3)
100063ec:	10058463          	beqz	a1,100064f4 <__sflush_r+0x214>
100063f0:	04040793          	addi	a5,s0,64
100063f4:	00f58663          	beq	a1,a5,10006400 <__sflush_r+0x120>
100063f8:	00098513          	mv	a0,s3
100063fc:	aa9fc0ef          	jal	10002ea4 <_free_r>
10006400:	01412483          	lw	s1,20(sp)
10006404:	02042823          	sw	zero,48(s0)
10006408:	00000513          	li	a0,0
1000640c:	01c12083          	lw	ra,28(sp)
10006410:	01812403          	lw	s0,24(sp)
10006414:	00c12983          	lw	s3,12(sp)
10006418:	02010113          	addi	sp,sp,32
1000641c:	00008067          	ret
10006420:	01212823          	sw	s2,16(sp)
10006424:	0105a903          	lw	s2,16(a1)
10006428:	08090263          	beqz	s2,100064ac <__sflush_r+0x1cc>
1000642c:	00912a23          	sw	s1,20(sp)
10006430:	0005a483          	lw	s1,0(a1)
10006434:	00377713          	andi	a4,a4,3
10006438:	0125a023          	sw	s2,0(a1)
1000643c:	412484b3          	sub	s1,s1,s2
10006440:	00000793          	li	a5,0
10006444:	00071463          	bnez	a4,1000644c <__sflush_r+0x16c>
10006448:	0145a783          	lw	a5,20(a1)
1000644c:	00f42423          	sw	a5,8(s0)
10006450:	00904863          	bgtz	s1,10006460 <__sflush_r+0x180>
10006454:	0540006f          	j	100064a8 <__sflush_r+0x1c8>
10006458:	00a90933          	add	s2,s2,a0
1000645c:	04905663          	blez	s1,100064a8 <__sflush_r+0x1c8>
10006460:	02442783          	lw	a5,36(s0)
10006464:	01c42583          	lw	a1,28(s0)
10006468:	00048693          	mv	a3,s1
1000646c:	00090613          	mv	a2,s2
10006470:	00098513          	mv	a0,s3
10006474:	000780e7          	jalr	a5
10006478:	40a484b3          	sub	s1,s1,a0
1000647c:	fca04ee3          	bgtz	a0,10006458 <__sflush_r+0x178>
10006480:	00c41703          	lh	a4,12(s0)
10006484:	01012903          	lw	s2,16(sp)
10006488:	04076713          	ori	a4,a4,64
1000648c:	01412483          	lw	s1,20(sp)
10006490:	00e41623          	sh	a4,12(s0)
10006494:	fff00513          	li	a0,-1
10006498:	f75ff06f          	j	1000640c <__sflush_r+0x12c>
1000649c:	03c5a683          	lw	a3,60(a1)
100064a0:	e6d04ee3          	bgtz	a3,1000631c <__sflush_r+0x3c>
100064a4:	f65ff06f          	j	10006408 <__sflush_r+0x128>
100064a8:	01412483          	lw	s1,20(sp)
100064ac:	01012903          	lw	s2,16(sp)
100064b0:	f59ff06f          	j	10006408 <__sflush_r+0x128>
100064b4:	05042603          	lw	a2,80(s0)
100064b8:	eadff06f          	j	10006364 <__sflush_r+0x84>
100064bc:	00c41703          	lh	a4,12(s0)
100064c0:	01042683          	lw	a3,16(s0)
100064c4:	fffff7b7          	lui	a5,0xfffff
100064c8:	7ff78793          	addi	a5,a5,2047 # fffff7ff <_sp+0xeffe2123>
100064cc:	00f777b3          	and	a5,a4,a5
100064d0:	00f41623          	sh	a5,12(s0)
100064d4:	00042223          	sw	zero,4(s0)
100064d8:	00d42023          	sw	a3,0(s0)
100064dc:	01371793          	slli	a5,a4,0x13
100064e0:	f007d2e3          	bgez	a5,100063e4 <__sflush_r+0x104>
100064e4:	03042583          	lw	a1,48(s0)
100064e8:	04a42823          	sw	a0,80(s0)
100064ec:	0099a023          	sw	s1,0(s3)
100064f0:	f00590e3          	bnez	a1,100063f0 <__sflush_r+0x110>
100064f4:	01412483          	lw	s1,20(sp)
100064f8:	f11ff06f          	j	10006408 <__sflush_r+0x128>
100064fc:	0009a783          	lw	a5,0(s3)
10006500:	e4078ce3          	beqz	a5,10006358 <__sflush_r+0x78>
10006504:	01d00713          	li	a4,29
10006508:	00e78c63          	beq	a5,a4,10006520 <__sflush_r+0x240>
1000650c:	01600713          	li	a4,22
10006510:	00e78863          	beq	a5,a4,10006520 <__sflush_r+0x240>
10006514:	00c41703          	lh	a4,12(s0)
10006518:	04076713          	ori	a4,a4,64
1000651c:	f71ff06f          	j	1000648c <__sflush_r+0x1ac>
10006520:	0099a023          	sw	s1,0(s3)
10006524:	01412483          	lw	s1,20(sp)
10006528:	ee1ff06f          	j	10006408 <__sflush_r+0x128>

1000652c <_fflush_r>:
1000652c:	fe010113          	addi	sp,sp,-32
10006530:	00812c23          	sw	s0,24(sp)
10006534:	00112e23          	sw	ra,28(sp)
10006538:	00050413          	mv	s0,a0
1000653c:	00050663          	beqz	a0,10006548 <_fflush_r+0x1c>
10006540:	03452783          	lw	a5,52(a0)
10006544:	02078a63          	beqz	a5,10006578 <_fflush_r+0x4c>
10006548:	00c59783          	lh	a5,12(a1)
1000654c:	00079c63          	bnez	a5,10006564 <_fflush_r+0x38>
10006550:	01c12083          	lw	ra,28(sp)
10006554:	01812403          	lw	s0,24(sp)
10006558:	00000513          	li	a0,0
1000655c:	02010113          	addi	sp,sp,32
10006560:	00008067          	ret
10006564:	00040513          	mv	a0,s0
10006568:	01812403          	lw	s0,24(sp)
1000656c:	01c12083          	lw	ra,28(sp)
10006570:	02010113          	addi	sp,sp,32
10006574:	d6dff06f          	j	100062e0 <__sflush_r>
10006578:	00b12623          	sw	a1,12(sp)
1000657c:	bc1fb0ef          	jal	1000213c <__sinit>
10006580:	00c12583          	lw	a1,12(sp)
10006584:	fc5ff06f          	j	10006548 <_fflush_r+0x1c>

10006588 <__sfvwrite_r>:
10006588:	00862783          	lw	a5,8(a2)
1000658c:	2c078463          	beqz	a5,10006854 <__sfvwrite_r+0x2cc>
10006590:	00c59683          	lh	a3,12(a1)
10006594:	fd010113          	addi	sp,sp,-48
10006598:	02812423          	sw	s0,40(sp)
1000659c:	01412c23          	sw	s4,24(sp)
100065a0:	01612823          	sw	s6,16(sp)
100065a4:	02112623          	sw	ra,44(sp)
100065a8:	0086f793          	andi	a5,a3,8
100065ac:	00060b13          	mv	s6,a2
100065b0:	00050a13          	mv	s4,a0
100065b4:	00058413          	mv	s0,a1
100065b8:	08078e63          	beqz	a5,10006654 <__sfvwrite_r+0xcc>
100065bc:	0105a783          	lw	a5,16(a1)
100065c0:	08078a63          	beqz	a5,10006654 <__sfvwrite_r+0xcc>
100065c4:	02912223          	sw	s1,36(sp)
100065c8:	03212023          	sw	s2,32(sp)
100065cc:	01312e23          	sw	s3,28(sp)
100065d0:	01512a23          	sw	s5,20(sp)
100065d4:	0026f793          	andi	a5,a3,2
100065d8:	000b2483          	lw	s1,0(s6)
100065dc:	0a078463          	beqz	a5,10006684 <__sfvwrite_r+0xfc>
100065e0:	02442783          	lw	a5,36(s0)
100065e4:	01c42583          	lw	a1,28(s0)
100065e8:	80000ab7          	lui	s5,0x80000
100065ec:	00000993          	li	s3,0
100065f0:	00000913          	li	s2,0
100065f4:	c00a8a93          	addi	s5,s5,-1024 # 7ffffc00 <_sp+0x6ffe2524>
100065f8:	00098613          	mv	a2,s3
100065fc:	000a0513          	mv	a0,s4
10006600:	04090263          	beqz	s2,10006644 <__sfvwrite_r+0xbc>
10006604:	00090693          	mv	a3,s2
10006608:	012af463          	bgeu	s5,s2,10006610 <__sfvwrite_r+0x88>
1000660c:	000a8693          	mv	a3,s5
10006610:	000780e7          	jalr	a5
10006614:	46a05063          	blez	a0,10006a74 <__sfvwrite_r+0x4ec>
10006618:	008b2783          	lw	a5,8(s6)
1000661c:	00a989b3          	add	s3,s3,a0
10006620:	40a90933          	sub	s2,s2,a0
10006624:	40a787b3          	sub	a5,a5,a0
10006628:	00fb2423          	sw	a5,8(s6)
1000662c:	1a078663          	beqz	a5,100067d8 <__sfvwrite_r+0x250>
10006630:	02442783          	lw	a5,36(s0)
10006634:	01c42583          	lw	a1,28(s0)
10006638:	00098613          	mv	a2,s3
1000663c:	000a0513          	mv	a0,s4
10006640:	fc0912e3          	bnez	s2,10006604 <__sfvwrite_r+0x7c>
10006644:	0004a983          	lw	s3,0(s1)
10006648:	0044a903          	lw	s2,4(s1)
1000664c:	00848493          	addi	s1,s1,8
10006650:	fa9ff06f          	j	100065f8 <__sfvwrite_r+0x70>
10006654:	00040593          	mv	a1,s0
10006658:	000a0513          	mv	a0,s4
1000665c:	43c000ef          	jal	10006a98 <__swsetup_r>
10006660:	1c051c63          	bnez	a0,10006838 <__sfvwrite_r+0x2b0>
10006664:	00c41683          	lh	a3,12(s0)
10006668:	02912223          	sw	s1,36(sp)
1000666c:	03212023          	sw	s2,32(sp)
10006670:	01312e23          	sw	s3,28(sp)
10006674:	01512a23          	sw	s5,20(sp)
10006678:	0026f793          	andi	a5,a3,2
1000667c:	000b2483          	lw	s1,0(s6)
10006680:	f60790e3          	bnez	a5,100065e0 <__sfvwrite_r+0x58>
10006684:	01712623          	sw	s7,12(sp)
10006688:	01812423          	sw	s8,8(sp)
1000668c:	0016f793          	andi	a5,a3,1
10006690:	1c079663          	bnez	a5,1000685c <__sfvwrite_r+0x2d4>
10006694:	00042783          	lw	a5,0(s0)
10006698:	00842703          	lw	a4,8(s0)
1000669c:	80000ab7          	lui	s5,0x80000
100066a0:	01912223          	sw	s9,4(sp)
100066a4:	00000b93          	li	s7,0
100066a8:	00000993          	li	s3,0
100066ac:	fffa8a93          	addi	s5,s5,-1 # 7fffffff <_sp+0x6ffe2923>
100066b0:	00078513          	mv	a0,a5
100066b4:	00070c13          	mv	s8,a4
100066b8:	10098263          	beqz	s3,100067bc <__sfvwrite_r+0x234>
100066bc:	2006f613          	andi	a2,a3,512
100066c0:	28060863          	beqz	a2,10006950 <__sfvwrite_r+0x3c8>
100066c4:	00070c93          	mv	s9,a4
100066c8:	32e9e663          	bltu	s3,a4,100069f4 <__sfvwrite_r+0x46c>
100066cc:	4806f713          	andi	a4,a3,1152
100066d0:	08070a63          	beqz	a4,10006764 <__sfvwrite_r+0x1dc>
100066d4:	01442603          	lw	a2,20(s0)
100066d8:	01042583          	lw	a1,16(s0)
100066dc:	00161713          	slli	a4,a2,0x1
100066e0:	00c70733          	add	a4,a4,a2
100066e4:	40b78933          	sub	s2,a5,a1
100066e8:	01f75c13          	srli	s8,a4,0x1f
100066ec:	00ec0c33          	add	s8,s8,a4
100066f0:	00190793          	addi	a5,s2,1
100066f4:	401c5c13          	srai	s8,s8,0x1
100066f8:	013787b3          	add	a5,a5,s3
100066fc:	000c0613          	mv	a2,s8
10006700:	00fc7663          	bgeu	s8,a5,1000670c <__sfvwrite_r+0x184>
10006704:	00078c13          	mv	s8,a5
10006708:	00078613          	mv	a2,a5
1000670c:	4006f693          	andi	a3,a3,1024
10006710:	30068e63          	beqz	a3,10006a2c <__sfvwrite_r+0x4a4>
10006714:	00060593          	mv	a1,a2
10006718:	000a0513          	mv	a0,s4
1000671c:	a8dfc0ef          	jal	100031a8 <_malloc_r>
10006720:	00050c93          	mv	s9,a0
10006724:	34050c63          	beqz	a0,10006a7c <__sfvwrite_r+0x4f4>
10006728:	01042583          	lw	a1,16(s0)
1000672c:	00090613          	mv	a2,s2
10006730:	a34fc0ef          	jal	10002964 <memcpy>
10006734:	00c45783          	lhu	a5,12(s0)
10006738:	b7f7f793          	andi	a5,a5,-1153
1000673c:	0807e793          	ori	a5,a5,128
10006740:	00f41623          	sh	a5,12(s0)
10006744:	012c8533          	add	a0,s9,s2
10006748:	412c07b3          	sub	a5,s8,s2
1000674c:	01942823          	sw	s9,16(s0)
10006750:	01842a23          	sw	s8,20(s0)
10006754:	00a42023          	sw	a0,0(s0)
10006758:	00098c13          	mv	s8,s3
1000675c:	00f42423          	sw	a5,8(s0)
10006760:	00098c93          	mv	s9,s3
10006764:	000c8613          	mv	a2,s9
10006768:	000b8593          	mv	a1,s7
1000676c:	644000ef          	jal	10006db0 <memmove>
10006770:	00842703          	lw	a4,8(s0)
10006774:	00042783          	lw	a5,0(s0)
10006778:	00098913          	mv	s2,s3
1000677c:	41870733          	sub	a4,a4,s8
10006780:	019787b3          	add	a5,a5,s9
10006784:	00e42423          	sw	a4,8(s0)
10006788:	00f42023          	sw	a5,0(s0)
1000678c:	00000993          	li	s3,0
10006790:	008b2783          	lw	a5,8(s6)
10006794:	012b8bb3          	add	s7,s7,s2
10006798:	412787b3          	sub	a5,a5,s2
1000679c:	00fb2423          	sw	a5,8(s6)
100067a0:	02078663          	beqz	a5,100067cc <__sfvwrite_r+0x244>
100067a4:	00042783          	lw	a5,0(s0)
100067a8:	00842703          	lw	a4,8(s0)
100067ac:	00c41683          	lh	a3,12(s0)
100067b0:	00078513          	mv	a0,a5
100067b4:	00070c13          	mv	s8,a4
100067b8:	f00992e3          	bnez	s3,100066bc <__sfvwrite_r+0x134>
100067bc:	0004ab83          	lw	s7,0(s1)
100067c0:	0044a983          	lw	s3,4(s1)
100067c4:	00848493          	addi	s1,s1,8
100067c8:	ee9ff06f          	j	100066b0 <__sfvwrite_r+0x128>
100067cc:	00c12b83          	lw	s7,12(sp)
100067d0:	00812c03          	lw	s8,8(sp)
100067d4:	00412c83          	lw	s9,4(sp)
100067d8:	02c12083          	lw	ra,44(sp)
100067dc:	02812403          	lw	s0,40(sp)
100067e0:	02412483          	lw	s1,36(sp)
100067e4:	02012903          	lw	s2,32(sp)
100067e8:	01c12983          	lw	s3,28(sp)
100067ec:	01412a83          	lw	s5,20(sp)
100067f0:	01812a03          	lw	s4,24(sp)
100067f4:	01012b03          	lw	s6,16(sp)
100067f8:	00000513          	li	a0,0
100067fc:	03010113          	addi	sp,sp,48
10006800:	00008067          	ret
10006804:	00040593          	mv	a1,s0
10006808:	000a0513          	mv	a0,s4
1000680c:	d21ff0ef          	jal	1000652c <_fflush_r>
10006810:	0a050e63          	beqz	a0,100068cc <__sfvwrite_r+0x344>
10006814:	00c41783          	lh	a5,12(s0)
10006818:	00c12b83          	lw	s7,12(sp)
1000681c:	00812c03          	lw	s8,8(sp)
10006820:	02412483          	lw	s1,36(sp)
10006824:	02012903          	lw	s2,32(sp)
10006828:	01c12983          	lw	s3,28(sp)
1000682c:	01412a83          	lw	s5,20(sp)
10006830:	0407e793          	ori	a5,a5,64
10006834:	00f41623          	sh	a5,12(s0)
10006838:	02c12083          	lw	ra,44(sp)
1000683c:	02812403          	lw	s0,40(sp)
10006840:	01812a03          	lw	s4,24(sp)
10006844:	01012b03          	lw	s6,16(sp)
10006848:	fff00513          	li	a0,-1
1000684c:	03010113          	addi	sp,sp,48
10006850:	00008067          	ret
10006854:	00000513          	li	a0,0
10006858:	00008067          	ret
1000685c:	00000a93          	li	s5,0
10006860:	00000513          	li	a0,0
10006864:	00000c13          	li	s8,0
10006868:	00000993          	li	s3,0
1000686c:	08098263          	beqz	s3,100068f0 <__sfvwrite_r+0x368>
10006870:	08050a63          	beqz	a0,10006904 <__sfvwrite_r+0x37c>
10006874:	000a8793          	mv	a5,s5
10006878:	00098b93          	mv	s7,s3
1000687c:	0137f463          	bgeu	a5,s3,10006884 <__sfvwrite_r+0x2fc>
10006880:	00078b93          	mv	s7,a5
10006884:	00042503          	lw	a0,0(s0)
10006888:	01042783          	lw	a5,16(s0)
1000688c:	00842903          	lw	s2,8(s0)
10006890:	01442683          	lw	a3,20(s0)
10006894:	00a7f663          	bgeu	a5,a0,100068a0 <__sfvwrite_r+0x318>
10006898:	00d90933          	add	s2,s2,a3
1000689c:	09794463          	blt	s2,s7,10006924 <__sfvwrite_r+0x39c>
100068a0:	16dbc063          	blt	s7,a3,10006a00 <__sfvwrite_r+0x478>
100068a4:	02442783          	lw	a5,36(s0)
100068a8:	01c42583          	lw	a1,28(s0)
100068ac:	000c0613          	mv	a2,s8
100068b0:	000a0513          	mv	a0,s4
100068b4:	000780e7          	jalr	a5
100068b8:	00050913          	mv	s2,a0
100068bc:	f4a05ce3          	blez	a0,10006814 <__sfvwrite_r+0x28c>
100068c0:	412a8ab3          	sub	s5,s5,s2
100068c4:	00100513          	li	a0,1
100068c8:	f20a8ee3          	beqz	s5,10006804 <__sfvwrite_r+0x27c>
100068cc:	008b2783          	lw	a5,8(s6)
100068d0:	012c0c33          	add	s8,s8,s2
100068d4:	412989b3          	sub	s3,s3,s2
100068d8:	412787b3          	sub	a5,a5,s2
100068dc:	00fb2423          	sw	a5,8(s6)
100068e0:	f80796e3          	bnez	a5,1000686c <__sfvwrite_r+0x2e4>
100068e4:	00c12b83          	lw	s7,12(sp)
100068e8:	00812c03          	lw	s8,8(sp)
100068ec:	eedff06f          	j	100067d8 <__sfvwrite_r+0x250>
100068f0:	0044a983          	lw	s3,4(s1)
100068f4:	00048793          	mv	a5,s1
100068f8:	00848493          	addi	s1,s1,8
100068fc:	fe098ae3          	beqz	s3,100068f0 <__sfvwrite_r+0x368>
10006900:	0007ac03          	lw	s8,0(a5)
10006904:	00098613          	mv	a2,s3
10006908:	00a00593          	li	a1,10
1000690c:	000c0513          	mv	a0,s8
10006910:	2c8000ef          	jal	10006bd8 <memchr>
10006914:	14050a63          	beqz	a0,10006a68 <__sfvwrite_r+0x4e0>
10006918:	00150513          	addi	a0,a0,1
1000691c:	41850ab3          	sub	s5,a0,s8
10006920:	f55ff06f          	j	10006874 <__sfvwrite_r+0x2ec>
10006924:	000c0593          	mv	a1,s8
10006928:	00090613          	mv	a2,s2
1000692c:	484000ef          	jal	10006db0 <memmove>
10006930:	00042783          	lw	a5,0(s0)
10006934:	00040593          	mv	a1,s0
10006938:	000a0513          	mv	a0,s4
1000693c:	012787b3          	add	a5,a5,s2
10006940:	00f42023          	sw	a5,0(s0)
10006944:	be9ff0ef          	jal	1000652c <_fflush_r>
10006948:	f6050ce3          	beqz	a0,100068c0 <__sfvwrite_r+0x338>
1000694c:	ec9ff06f          	j	10006814 <__sfvwrite_r+0x28c>
10006950:	01042683          	lw	a3,16(s0)
10006954:	04f6e263          	bltu	a3,a5,10006998 <__sfvwrite_r+0x410>
10006958:	01442603          	lw	a2,20(s0)
1000695c:	02c9ee63          	bltu	s3,a2,10006998 <__sfvwrite_r+0x410>
10006960:	00098793          	mv	a5,s3
10006964:	013af463          	bgeu	s5,s3,1000696c <__sfvwrite_r+0x3e4>
10006968:	000a8793          	mv	a5,s5
1000696c:	02c7e6b3          	rem	a3,a5,a2
10006970:	02442703          	lw	a4,36(s0)
10006974:	01c42583          	lw	a1,28(s0)
10006978:	000b8613          	mv	a2,s7
1000697c:	000a0513          	mv	a0,s4
10006980:	40d786b3          	sub	a3,a5,a3
10006984:	000700e7          	jalr	a4
10006988:	00050913          	mv	s2,a0
1000698c:	04a05a63          	blez	a0,100069e0 <__sfvwrite_r+0x458>
10006990:	412989b3          	sub	s3,s3,s2
10006994:	dfdff06f          	j	10006790 <__sfvwrite_r+0x208>
10006998:	00070913          	mv	s2,a4
1000699c:	00e9f463          	bgeu	s3,a4,100069a4 <__sfvwrite_r+0x41c>
100069a0:	00098913          	mv	s2,s3
100069a4:	00078513          	mv	a0,a5
100069a8:	00090613          	mv	a2,s2
100069ac:	000b8593          	mv	a1,s7
100069b0:	400000ef          	jal	10006db0 <memmove>
100069b4:	00842703          	lw	a4,8(s0)
100069b8:	00042783          	lw	a5,0(s0)
100069bc:	41270733          	sub	a4,a4,s2
100069c0:	012787b3          	add	a5,a5,s2
100069c4:	00e42423          	sw	a4,8(s0)
100069c8:	00f42023          	sw	a5,0(s0)
100069cc:	fc0712e3          	bnez	a4,10006990 <__sfvwrite_r+0x408>
100069d0:	00040593          	mv	a1,s0
100069d4:	000a0513          	mv	a0,s4
100069d8:	b55ff0ef          	jal	1000652c <_fflush_r>
100069dc:	fa050ae3          	beqz	a0,10006990 <__sfvwrite_r+0x408>
100069e0:	00c41783          	lh	a5,12(s0)
100069e4:	00c12b83          	lw	s7,12(sp)
100069e8:	00812c03          	lw	s8,8(sp)
100069ec:	00412c83          	lw	s9,4(sp)
100069f0:	e31ff06f          	j	10006820 <__sfvwrite_r+0x298>
100069f4:	00098c13          	mv	s8,s3
100069f8:	00098c93          	mv	s9,s3
100069fc:	d69ff06f          	j	10006764 <__sfvwrite_r+0x1dc>
10006a00:	000b8613          	mv	a2,s7
10006a04:	000c0593          	mv	a1,s8
10006a08:	3a8000ef          	jal	10006db0 <memmove>
10006a0c:	00842703          	lw	a4,8(s0)
10006a10:	00042783          	lw	a5,0(s0)
10006a14:	000b8913          	mv	s2,s7
10006a18:	41770733          	sub	a4,a4,s7
10006a1c:	017787b3          	add	a5,a5,s7
10006a20:	00e42423          	sw	a4,8(s0)
10006a24:	00f42023          	sw	a5,0(s0)
10006a28:	e99ff06f          	j	100068c0 <__sfvwrite_r+0x338>
10006a2c:	000a0513          	mv	a0,s4
10006a30:	6ac030ef          	jal	1000a0dc <_realloc_r>
10006a34:	00050c93          	mv	s9,a0
10006a38:	d00516e3          	bnez	a0,10006744 <__sfvwrite_r+0x1bc>
10006a3c:	01042583          	lw	a1,16(s0)
10006a40:	000a0513          	mv	a0,s4
10006a44:	c60fc0ef          	jal	10002ea4 <_free_r>
10006a48:	00c41783          	lh	a5,12(s0)
10006a4c:	00c00713          	li	a4,12
10006a50:	00c12b83          	lw	s7,12(sp)
10006a54:	00812c03          	lw	s8,8(sp)
10006a58:	00412c83          	lw	s9,4(sp)
10006a5c:	00ea2023          	sw	a4,0(s4)
10006a60:	f7f7f793          	andi	a5,a5,-129
10006a64:	dbdff06f          	j	10006820 <__sfvwrite_r+0x298>
10006a68:	00198793          	addi	a5,s3,1
10006a6c:	00078a93          	mv	s5,a5
10006a70:	e09ff06f          	j	10006878 <__sfvwrite_r+0x2f0>
10006a74:	00c41783          	lh	a5,12(s0)
10006a78:	da9ff06f          	j	10006820 <__sfvwrite_r+0x298>
10006a7c:	00c00713          	li	a4,12
10006a80:	00c41783          	lh	a5,12(s0)
10006a84:	00c12b83          	lw	s7,12(sp)
10006a88:	00812c03          	lw	s8,8(sp)
10006a8c:	00412c83          	lw	s9,4(sp)
10006a90:	00ea2023          	sw	a4,0(s4)
10006a94:	d8dff06f          	j	10006820 <__sfvwrite_r+0x298>

10006a98 <__swsetup_r>:
10006a98:	87c1a783          	lw	a5,-1924(gp) # 100120bc <_impure_ptr>
10006a9c:	ff010113          	addi	sp,sp,-16
10006aa0:	00812423          	sw	s0,8(sp)
10006aa4:	00912223          	sw	s1,4(sp)
10006aa8:	00112623          	sw	ra,12(sp)
10006aac:	00050493          	mv	s1,a0
10006ab0:	00058413          	mv	s0,a1
10006ab4:	00078663          	beqz	a5,10006ac0 <__swsetup_r+0x28>
10006ab8:	0347a703          	lw	a4,52(a5)
10006abc:	0e070c63          	beqz	a4,10006bb4 <__swsetup_r+0x11c>
10006ac0:	00c41783          	lh	a5,12(s0)
10006ac4:	0087f713          	andi	a4,a5,8
10006ac8:	06070a63          	beqz	a4,10006b3c <__swsetup_r+0xa4>
10006acc:	01042703          	lw	a4,16(s0)
10006ad0:	08070663          	beqz	a4,10006b5c <__swsetup_r+0xc4>
10006ad4:	0017f693          	andi	a3,a5,1
10006ad8:	02068863          	beqz	a3,10006b08 <__swsetup_r+0x70>
10006adc:	01442683          	lw	a3,20(s0)
10006ae0:	00042423          	sw	zero,8(s0)
10006ae4:	00000513          	li	a0,0
10006ae8:	40d006b3          	neg	a3,a3
10006aec:	00d42c23          	sw	a3,24(s0)
10006af0:	02070a63          	beqz	a4,10006b24 <__swsetup_r+0x8c>
10006af4:	00c12083          	lw	ra,12(sp)
10006af8:	00812403          	lw	s0,8(sp)
10006afc:	00412483          	lw	s1,4(sp)
10006b00:	01010113          	addi	sp,sp,16
10006b04:	00008067          	ret
10006b08:	0027f693          	andi	a3,a5,2
10006b0c:	00000613          	li	a2,0
10006b10:	00069463          	bnez	a3,10006b18 <__swsetup_r+0x80>
10006b14:	01442603          	lw	a2,20(s0)
10006b18:	00c42423          	sw	a2,8(s0)
10006b1c:	00000513          	li	a0,0
10006b20:	fc071ae3          	bnez	a4,10006af4 <__swsetup_r+0x5c>
10006b24:	0807f713          	andi	a4,a5,128
10006b28:	fc0706e3          	beqz	a4,10006af4 <__swsetup_r+0x5c>
10006b2c:	0407e793          	ori	a5,a5,64
10006b30:	00f41623          	sh	a5,12(s0)
10006b34:	fff00513          	li	a0,-1
10006b38:	fbdff06f          	j	10006af4 <__swsetup_r+0x5c>
10006b3c:	0107f713          	andi	a4,a5,16
10006b40:	08070063          	beqz	a4,10006bc0 <__swsetup_r+0x128>
10006b44:	0047f713          	andi	a4,a5,4
10006b48:	02071c63          	bnez	a4,10006b80 <__swsetup_r+0xe8>
10006b4c:	01042703          	lw	a4,16(s0)
10006b50:	0087e793          	ori	a5,a5,8
10006b54:	00f41623          	sh	a5,12(s0)
10006b58:	f6071ee3          	bnez	a4,10006ad4 <__swsetup_r+0x3c>
10006b5c:	2807f693          	andi	a3,a5,640
10006b60:	20000613          	li	a2,512
10006b64:	f6c688e3          	beq	a3,a2,10006ad4 <__swsetup_r+0x3c>
10006b68:	00040593          	mv	a1,s0
10006b6c:	00048513          	mv	a0,s1
10006b70:	4d5030ef          	jal	1000a844 <__smakebuf_r>
10006b74:	00c41783          	lh	a5,12(s0)
10006b78:	01042703          	lw	a4,16(s0)
10006b7c:	f59ff06f          	j	10006ad4 <__swsetup_r+0x3c>
10006b80:	03042583          	lw	a1,48(s0)
10006b84:	00058e63          	beqz	a1,10006ba0 <__swsetup_r+0x108>
10006b88:	04040713          	addi	a4,s0,64
10006b8c:	00e58863          	beq	a1,a4,10006b9c <__swsetup_r+0x104>
10006b90:	00048513          	mv	a0,s1
10006b94:	b10fc0ef          	jal	10002ea4 <_free_r>
10006b98:	00c41783          	lh	a5,12(s0)
10006b9c:	02042823          	sw	zero,48(s0)
10006ba0:	01042703          	lw	a4,16(s0)
10006ba4:	fdb7f793          	andi	a5,a5,-37
10006ba8:	00042223          	sw	zero,4(s0)
10006bac:	00e42023          	sw	a4,0(s0)
10006bb0:	fa1ff06f          	j	10006b50 <__swsetup_r+0xb8>
10006bb4:	00078513          	mv	a0,a5
10006bb8:	d84fb0ef          	jal	1000213c <__sinit>
10006bbc:	f05ff06f          	j	10006ac0 <__swsetup_r+0x28>
10006bc0:	00900713          	li	a4,9
10006bc4:	00e4a023          	sw	a4,0(s1)
10006bc8:	0407e793          	ori	a5,a5,64
10006bcc:	00f41623          	sh	a5,12(s0)
10006bd0:	fff00513          	li	a0,-1
10006bd4:	f21ff06f          	j	10006af4 <__swsetup_r+0x5c>

10006bd8 <memchr>:
10006bd8:	00357793          	andi	a5,a0,3
10006bdc:	0ff5f693          	zext.b	a3,a1
10006be0:	02078a63          	beqz	a5,10006c14 <memchr+0x3c>
10006be4:	fff60793          	addi	a5,a2,-1
10006be8:	02060e63          	beqz	a2,10006c24 <memchr+0x4c>
10006bec:	fff00613          	li	a2,-1
10006bf0:	0180006f          	j	10006c08 <memchr+0x30>
10006bf4:	00150513          	addi	a0,a0,1
10006bf8:	00357713          	andi	a4,a0,3
10006bfc:	00070e63          	beqz	a4,10006c18 <memchr+0x40>
10006c00:	fff78793          	addi	a5,a5,-1
10006c04:	02c78063          	beq	a5,a2,10006c24 <memchr+0x4c>
10006c08:	00054703          	lbu	a4,0(a0)
10006c0c:	fed714e3          	bne	a4,a3,10006bf4 <memchr+0x1c>
10006c10:	00008067          	ret
10006c14:	00060793          	mv	a5,a2
10006c18:	00300713          	li	a4,3
10006c1c:	00f76863          	bltu	a4,a5,10006c2c <memchr+0x54>
10006c20:	06079063          	bnez	a5,10006c80 <memchr+0xa8>
10006c24:	00000513          	li	a0,0
10006c28:	00008067          	ret
10006c2c:	0ff5f593          	zext.b	a1,a1
10006c30:	00859713          	slli	a4,a1,0x8
10006c34:	00b705b3          	add	a1,a4,a1
10006c38:	01059713          	slli	a4,a1,0x10
10006c3c:	feff08b7          	lui	a7,0xfeff0
10006c40:	80808837          	lui	a6,0x80808
10006c44:	00e585b3          	add	a1,a1,a4
10006c48:	eff88893          	addi	a7,a7,-257 # fefefeff <_sp+0xeefd2823>
10006c4c:	08080813          	addi	a6,a6,128 # 80808080 <_sp+0x707ea9a4>
10006c50:	00300313          	li	t1,3
10006c54:	0100006f          	j	10006c64 <memchr+0x8c>
10006c58:	ffc78793          	addi	a5,a5,-4
10006c5c:	00450513          	addi	a0,a0,4
10006c60:	fcf370e3          	bgeu	t1,a5,10006c20 <memchr+0x48>
10006c64:	00052703          	lw	a4,0(a0)
10006c68:	00e5c733          	xor	a4,a1,a4
10006c6c:	01170633          	add	a2,a4,a7
10006c70:	fff74713          	not	a4,a4
10006c74:	00e67733          	and	a4,a2,a4
10006c78:	01077733          	and	a4,a4,a6
10006c7c:	fc070ee3          	beqz	a4,10006c58 <memchr+0x80>
10006c80:	00f507b3          	add	a5,a0,a5
10006c84:	00c0006f          	j	10006c90 <memchr+0xb8>
10006c88:	00150513          	addi	a0,a0,1
10006c8c:	f8a78ce3          	beq	a5,a0,10006c24 <memchr+0x4c>
10006c90:	00054703          	lbu	a4,0(a0)
10006c94:	fed71ae3          	bne	a4,a3,10006c88 <memchr+0xb0>
10006c98:	00008067          	ret

10006c9c <strncpy>:
10006c9c:	00a5e7b3          	or	a5,a1,a0
10006ca0:	0037f793          	andi	a5,a5,3
10006ca4:	00079663          	bnez	a5,10006cb0 <strncpy+0x14>
10006ca8:	00300793          	li	a5,3
10006cac:	04c7e663          	bltu	a5,a2,10006cf8 <strncpy+0x5c>
10006cb0:	00050713          	mv	a4,a0
10006cb4:	01c0006f          	j	10006cd0 <strncpy+0x34>
10006cb8:	fff5c683          	lbu	a3,-1(a1)
10006cbc:	fff60813          	addi	a6,a2,-1
10006cc0:	fed78fa3          	sb	a3,-1(a5)
10006cc4:	00068e63          	beqz	a3,10006ce0 <strncpy+0x44>
10006cc8:	00078713          	mv	a4,a5
10006ccc:	00080613          	mv	a2,a6
10006cd0:	00158593          	addi	a1,a1,1
10006cd4:	00170793          	addi	a5,a4,1
10006cd8:	fe0610e3          	bnez	a2,10006cb8 <strncpy+0x1c>
10006cdc:	00008067          	ret
10006ce0:	00c70733          	add	a4,a4,a2
10006ce4:	06080063          	beqz	a6,10006d44 <strncpy+0xa8>
10006ce8:	00178793          	addi	a5,a5,1
10006cec:	fe078fa3          	sb	zero,-1(a5)
10006cf0:	fee79ce3          	bne	a5,a4,10006ce8 <strncpy+0x4c>
10006cf4:	00008067          	ret
10006cf8:	feff0337          	lui	t1,0xfeff0
10006cfc:	808088b7          	lui	a7,0x80808
10006d00:	00050713          	mv	a4,a0
10006d04:	eff30313          	addi	t1,t1,-257 # fefefeff <_sp+0xeefd2823>
10006d08:	08088893          	addi	a7,a7,128 # 80808080 <_sp+0x707ea9a4>
10006d0c:	00300e13          	li	t3,3
10006d10:	0180006f          	j	10006d28 <strncpy+0x8c>
10006d14:	00d72023          	sw	a3,0(a4)
10006d18:	ffc60613          	addi	a2,a2,-4
10006d1c:	00470713          	addi	a4,a4,4
10006d20:	00458593          	addi	a1,a1,4
10006d24:	face76e3          	bgeu	t3,a2,10006cd0 <strncpy+0x34>
10006d28:	0005a683          	lw	a3,0(a1)
10006d2c:	006687b3          	add	a5,a3,t1
10006d30:	fff6c813          	not	a6,a3
10006d34:	0107f7b3          	and	a5,a5,a6
10006d38:	0117f7b3          	and	a5,a5,a7
10006d3c:	fc078ce3          	beqz	a5,10006d14 <strncpy+0x78>
10006d40:	f91ff06f          	j	10006cd0 <strncpy+0x34>
10006d44:	00008067          	ret

10006d48 <_localeconv_r>:
10006d48:	10012537          	lui	a0,0x10012
10006d4c:	fc050513          	addi	a0,a0,-64 # 10011fc0 <__global_locale+0xf0>
10006d50:	00008067          	ret

10006d54 <_sbrk_r>:
10006d54:	ff010113          	addi	sp,sp,-16
10006d58:	00812423          	sw	s0,8(sp)
10006d5c:	00912223          	sw	s1,4(sp)
10006d60:	00050413          	mv	s0,a0
10006d64:	00058513          	mv	a0,a1
10006d68:	00112623          	sw	ra,12(sp)
10006d6c:	9001a623          	sw	zero,-1780(gp) # 1001214c <errno>
10006d70:	e8ef90ef          	jal	100003fe <_sbrk>
10006d74:	fff00793          	li	a5,-1
10006d78:	00f50c63          	beq	a0,a5,10006d90 <_sbrk_r+0x3c>
10006d7c:	00c12083          	lw	ra,12(sp)
10006d80:	00812403          	lw	s0,8(sp)
10006d84:	00412483          	lw	s1,4(sp)
10006d88:	01010113          	addi	sp,sp,16
10006d8c:	00008067          	ret
10006d90:	90c1a783          	lw	a5,-1780(gp) # 1001214c <errno>
10006d94:	fe0784e3          	beqz	a5,10006d7c <_sbrk_r+0x28>
10006d98:	00c12083          	lw	ra,12(sp)
10006d9c:	00f42023          	sw	a5,0(s0)
10006da0:	00812403          	lw	s0,8(sp)
10006da4:	00412483          	lw	s1,4(sp)
10006da8:	01010113          	addi	sp,sp,16
10006dac:	00008067          	ret

10006db0 <memmove>:
10006db0:	02a5f663          	bgeu	a1,a0,10006ddc <memmove+0x2c>
10006db4:	00c58733          	add	a4,a1,a2
10006db8:	02e57263          	bgeu	a0,a4,10006ddc <memmove+0x2c>
10006dbc:	00c507b3          	add	a5,a0,a2
10006dc0:	04060663          	beqz	a2,10006e0c <memmove+0x5c>
10006dc4:	fff74683          	lbu	a3,-1(a4)
10006dc8:	fff78793          	addi	a5,a5,-1
10006dcc:	fff70713          	addi	a4,a4,-1
10006dd0:	00d78023          	sb	a3,0(a5)
10006dd4:	fef518e3          	bne	a0,a5,10006dc4 <memmove+0x14>
10006dd8:	00008067          	ret
10006ddc:	00f00793          	li	a5,15
10006de0:	02c7e863          	bltu	a5,a2,10006e10 <memmove+0x60>
10006de4:	00050793          	mv	a5,a0
10006de8:	fff60693          	addi	a3,a2,-1
10006dec:	0c060263          	beqz	a2,10006eb0 <memmove+0x100>
10006df0:	00168693          	addi	a3,a3,1
10006df4:	00d786b3          	add	a3,a5,a3
10006df8:	0005c703          	lbu	a4,0(a1)
10006dfc:	00178793          	addi	a5,a5,1
10006e00:	00158593          	addi	a1,a1,1
10006e04:	fee78fa3          	sb	a4,-1(a5)
10006e08:	fed798e3          	bne	a5,a3,10006df8 <memmove+0x48>
10006e0c:	00008067          	ret
10006e10:	00b567b3          	or	a5,a0,a1
10006e14:	0037f793          	andi	a5,a5,3
10006e18:	08079663          	bnez	a5,10006ea4 <memmove+0xf4>
10006e1c:	ff060893          	addi	a7,a2,-16
10006e20:	ff08f893          	andi	a7,a7,-16
10006e24:	01088893          	addi	a7,a7,16
10006e28:	011506b3          	add	a3,a0,a7
10006e2c:	00058713          	mv	a4,a1
10006e30:	00050793          	mv	a5,a0
10006e34:	00072803          	lw	a6,0(a4)
10006e38:	01070713          	addi	a4,a4,16
10006e3c:	01078793          	addi	a5,a5,16
10006e40:	ff07a823          	sw	a6,-16(a5)
10006e44:	ff472803          	lw	a6,-12(a4)
10006e48:	ff07aa23          	sw	a6,-12(a5)
10006e4c:	ff872803          	lw	a6,-8(a4)
10006e50:	ff07ac23          	sw	a6,-8(a5)
10006e54:	ffc72803          	lw	a6,-4(a4)
10006e58:	ff07ae23          	sw	a6,-4(a5)
10006e5c:	fcd79ce3          	bne	a5,a3,10006e34 <memmove+0x84>
10006e60:	00c67813          	andi	a6,a2,12
10006e64:	011585b3          	add	a1,a1,a7
10006e68:	00f67713          	andi	a4,a2,15
10006e6c:	04080463          	beqz	a6,10006eb4 <memmove+0x104>
10006e70:	ffc70813          	addi	a6,a4,-4
10006e74:	ffc87813          	andi	a6,a6,-4
10006e78:	00480813          	addi	a6,a6,4
10006e7c:	010687b3          	add	a5,a3,a6
10006e80:	00058713          	mv	a4,a1
10006e84:	00072883          	lw	a7,0(a4)
10006e88:	00468693          	addi	a3,a3,4
10006e8c:	00470713          	addi	a4,a4,4
10006e90:	ff16ae23          	sw	a7,-4(a3)
10006e94:	fef698e3          	bne	a3,a5,10006e84 <memmove+0xd4>
10006e98:	00367613          	andi	a2,a2,3
10006e9c:	010585b3          	add	a1,a1,a6
10006ea0:	f49ff06f          	j	10006de8 <memmove+0x38>
10006ea4:	fff60693          	addi	a3,a2,-1
10006ea8:	00050793          	mv	a5,a0
10006eac:	f45ff06f          	j	10006df0 <memmove+0x40>
10006eb0:	00008067          	ret
10006eb4:	00070613          	mv	a2,a4
10006eb8:	f31ff06f          	j	10006de8 <memmove+0x38>

10006ebc <frexpl>:
10006ebc:	f9010113          	addi	sp,sp,-112
10006ec0:	07212023          	sw	s2,96(sp)
10006ec4:	00c5a903          	lw	s2,12(a1)
10006ec8:	05412c23          	sw	s4,88(sp)
10006ecc:	05512a23          	sw	s5,84(sp)
10006ed0:	05612823          	sw	s6,80(sp)
10006ed4:	0045aa83          	lw	s5,4(a1)
10006ed8:	0005ab03          	lw	s6,0(a1)
10006edc:	0085aa03          	lw	s4,8(a1)
10006ee0:	05312e23          	sw	s3,92(sp)
10006ee4:	000089b7          	lui	s3,0x8
10006ee8:	06812423          	sw	s0,104(sp)
10006eec:	06912223          	sw	s1,100(sp)
10006ef0:	06112623          	sw	ra,108(sp)
10006ef4:	01095493          	srli	s1,s2,0x10
10006ef8:	fff98993          	addi	s3,s3,-1 # 7fff <__heap_size+0x6fff>
10006efc:	03612823          	sw	s6,48(sp)
10006f00:	03512a23          	sw	s5,52(sp)
10006f04:	03412c23          	sw	s4,56(sp)
10006f08:	03212e23          	sw	s2,60(sp)
10006f0c:	0134f4b3          	and	s1,s1,s3
10006f10:	00062023          	sw	zero,0(a2)
10006f14:	00050413          	mv	s0,a0
10006f18:	09348063          	beq	s1,s3,10006f98 <frexpl+0xdc>
10006f1c:	01010593          	addi	a1,sp,16
10006f20:	02010513          	addi	a0,sp,32
10006f24:	05712623          	sw	s7,76(sp)
10006f28:	03612023          	sw	s6,32(sp)
10006f2c:	00060b93          	mv	s7,a2
10006f30:	03512223          	sw	s5,36(sp)
10006f34:	03412423          	sw	s4,40(sp)
10006f38:	03212623          	sw	s2,44(sp)
10006f3c:	00012823          	sw	zero,16(sp)
10006f40:	00012a23          	sw	zero,20(sp)
10006f44:	00012c23          	sw	zero,24(sp)
10006f48:	00012e23          	sw	zero,28(sp)
10006f4c:	548070ef          	jal	1000e494 <__eqtf2>
10006f50:	0e050463          	beqz	a0,10007038 <frexpl+0x17c>
10006f54:	00000693          	li	a3,0
10006f58:	06048e63          	beqz	s1,10006fd4 <frexpl+0x118>
10006f5c:	ffffc737          	lui	a4,0xffffc
10006f60:	00270713          	addi	a4,a4,2 # ffffc002 <_sp+0xeffde926>
10006f64:	03c12903          	lw	s2,60(sp)
10006f68:	00e484b3          	add	s1,s1,a4
10006f6c:	800107b7          	lui	a5,0x80010
10006f70:	00d484b3          	add	s1,s1,a3
10006f74:	fff78793          	addi	a5,a5,-1 # 8000ffff <_sp+0x6fff2923>
10006f78:	009ba023          	sw	s1,0(s7)
10006f7c:	03012b03          	lw	s6,48(sp)
10006f80:	03412a83          	lw	s5,52(sp)
10006f84:	03812a03          	lw	s4,56(sp)
10006f88:	04c12b83          	lw	s7,76(sp)
10006f8c:	00f97933          	and	s2,s2,a5
10006f90:	3ffe07b7          	lui	a5,0x3ffe0
10006f94:	00f96933          	or	s2,s2,a5
10006f98:	01642023          	sw	s6,0(s0)
10006f9c:	01542223          	sw	s5,4(s0)
10006fa0:	01442423          	sw	s4,8(s0)
10006fa4:	01242623          	sw	s2,12(s0)
10006fa8:	06c12083          	lw	ra,108(sp)
10006fac:	00040513          	mv	a0,s0
10006fb0:	06812403          	lw	s0,104(sp)
10006fb4:	06412483          	lw	s1,100(sp)
10006fb8:	06012903          	lw	s2,96(sp)
10006fbc:	05c12983          	lw	s3,92(sp)
10006fc0:	05812a03          	lw	s4,88(sp)
10006fc4:	05412a83          	lw	s5,84(sp)
10006fc8:	05012b03          	lw	s6,80(sp)
10006fcc:	07010113          	addi	sp,sp,112
10006fd0:	00008067          	ret
10006fd4:	407107b7          	lui	a5,0x40710
10006fd8:	00010613          	mv	a2,sp
10006fdc:	01010593          	addi	a1,sp,16
10006fe0:	02010513          	addi	a0,sp,32
10006fe4:	00f12623          	sw	a5,12(sp)
10006fe8:	01612823          	sw	s6,16(sp)
10006fec:	01512a23          	sw	s5,20(sp)
10006ff0:	01412c23          	sw	s4,24(sp)
10006ff4:	01212e23          	sw	s2,28(sp)
10006ff8:	00012023          	sw	zero,0(sp)
10006ffc:	00012223          	sw	zero,4(sp)
10007000:	00012423          	sw	zero,8(sp)
10007004:	7bc070ef          	jal	1000e7c0 <__multf3>
10007008:	02012703          	lw	a4,32(sp)
1000700c:	02c12783          	lw	a5,44(sp)
10007010:	f8e00693          	li	a3,-114
10007014:	02e12823          	sw	a4,48(sp)
10007018:	02412703          	lw	a4,36(sp)
1000701c:	0107d493          	srli	s1,a5,0x10
10007020:	02f12e23          	sw	a5,60(sp)
10007024:	02e12a23          	sw	a4,52(sp)
10007028:	02812703          	lw	a4,40(sp)
1000702c:	0134f4b3          	and	s1,s1,s3
10007030:	02e12c23          	sw	a4,56(sp)
10007034:	f29ff06f          	j	10006f5c <frexpl+0xa0>
10007038:	04c12b83          	lw	s7,76(sp)
1000703c:	f5dff06f          	j	10006f98 <frexpl+0xdc>

10007040 <_ldtoa_r>:
10007040:	100118b7          	lui	a7,0x10011
10007044:	5e088893          	addi	a7,a7,1504 # 100115e0 <blanks.1+0x10>
10007048:	0008af83          	lw	t6,0(a7)
1000704c:	0048af03          	lw	t5,4(a7)
10007050:	0088ae83          	lw	t4,8(a7)
10007054:	00c8ae03          	lw	t3,12(a7)
10007058:	0108a303          	lw	t1,16(a7)
1000705c:	03852883          	lw	a7,56(a0)
10007060:	f5010113          	addi	sp,sp,-176
10007064:	0b212023          	sw	s2,160(sp)
10007068:	09312e23          	sw	s3,156(sp)
1000706c:	09412c23          	sw	s4,152(sp)
10007070:	09612823          	sw	s6,144(sp)
10007074:	09712623          	sw	s7,140(sp)
10007078:	09812423          	sw	s8,136(sp)
1000707c:	09912223          	sw	s9,132(sp)
10007080:	09a12023          	sw	s10,128(sp)
10007084:	0a112623          	sw	ra,172(sp)
10007088:	0a812423          	sw	s0,168(sp)
1000708c:	0a912223          	sw	s1,164(sp)
10007090:	09512a23          	sw	s5,148(sp)
10007094:	07b12e23          	sw	s11,124(sp)
10007098:	05f12e23          	sw	t6,92(sp)
1000709c:	07e12023          	sw	t5,96(sp)
100070a0:	07d12223          	sw	t4,100(sp)
100070a4:	07c12423          	sw	t3,104(sp)
100070a8:	06612623          	sw	t1,108(sp)
100070ac:	00c12c23          	sw	a2,24(sp)
100070b0:	00d12e23          	sw	a3,28(sp)
100070b4:	0005aa03          	lw	s4,0(a1)
100070b8:	0045a983          	lw	s3,4(a1)
100070bc:	0085a903          	lw	s2,8(a1)
100070c0:	00c5ac03          	lw	s8,12(a1)
100070c4:	00050b13          	mv	s6,a0
100070c8:	00070b93          	mv	s7,a4
100070cc:	00078c93          	mv	s9,a5
100070d0:	00080d13          	mv	s10,a6
100070d4:	02088263          	beqz	a7,100070f8 <_ldtoa_r+0xb8>
100070d8:	03c52683          	lw	a3,60(a0)
100070dc:	00100713          	li	a4,1
100070e0:	00088593          	mv	a1,a7
100070e4:	00d71733          	sll	a4,a4,a3
100070e8:	00d8a223          	sw	a3,4(a7)
100070ec:	00e8a423          	sw	a4,8(a7)
100070f0:	38c020ef          	jal	1000947c <_Bfree>
100070f4:	020b2c23          	sw	zero,56(s6)
100070f8:	06812603          	lw	a2,104(sp)
100070fc:	01fc5693          	srli	a3,s8,0x1f
10007100:	001c1a93          	slli	s5,s8,0x1
10007104:	40165713          	srai	a4,a2,0x1
10007108:	ffffc4b7          	lui	s1,0xffffc
1000710c:	001c1413          	slli	s0,s8,0x1
10007110:	00d77733          	and	a4,a4,a3
10007114:	011ada93          	srli	s5,s5,0x11
10007118:	f9148493          	addi	s1,s1,-111 # ffffbf91 <_sp+0xeffde8b5>
1000711c:	010c1d93          	slli	s11,s8,0x10
10007120:	00dca023          	sw	a3,0(s9)
10007124:	00145413          	srli	s0,s0,0x1
10007128:	00c74733          	xor	a4,a4,a2
1000712c:	010ddd93          	srli	s11,s11,0x10
10007130:	009a87b3          	add	a5,s5,s1
10007134:	02010593          	addi	a1,sp,32
10007138:	03010513          	addi	a0,sp,48
1000713c:	03412823          	sw	s4,48(sp)
10007140:	03312a23          	sw	s3,52(sp)
10007144:	03212c23          	sw	s2,56(sp)
10007148:	02812e23          	sw	s0,60(sp)
1000714c:	03412023          	sw	s4,32(sp)
10007150:	03312223          	sw	s3,36(sp)
10007154:	03212423          	sw	s2,40(sp)
10007158:	02812623          	sw	s0,44(sp)
1000715c:	06e12423          	sw	a4,104(sp)
10007160:	00f12a23          	sw	a5,20(sp)
10007164:	05412623          	sw	s4,76(sp)
10007168:	05312823          	sw	s3,80(sp)
1000716c:	05212a23          	sw	s2,84(sp)
10007170:	05b12c23          	sw	s11,88(sp)
10007174:	2e1090ef          	jal	10010c54 <__unordtf2>
10007178:	16051a63          	bnez	a0,100072ec <_ldtoa_r+0x2ac>
1000717c:	7fff0cb7          	lui	s9,0x7fff0
10007180:	fff00493          	li	s1,-1
10007184:	fffc8c93          	addi	s9,s9,-1 # 7ffeffff <_sp+0x6ffd2923>
10007188:	02010593          	addi	a1,sp,32
1000718c:	03010513          	addi	a0,sp,48
10007190:	03412823          	sw	s4,48(sp)
10007194:	03312a23          	sw	s3,52(sp)
10007198:	03212c23          	sw	s2,56(sp)
1000719c:	02812e23          	sw	s0,60(sp)
100071a0:	02912023          	sw	s1,32(sp)
100071a4:	02912223          	sw	s1,36(sp)
100071a8:	02912423          	sw	s1,40(sp)
100071ac:	03912623          	sw	s9,44(sp)
100071b0:	2a5090ef          	jal	10010c54 <__unordtf2>
100071b4:	08051c63          	bnez	a0,1000724c <_ldtoa_r+0x20c>
100071b8:	02010593          	addi	a1,sp,32
100071bc:	03010513          	addi	a0,sp,48
100071c0:	4d0070ef          	jal	1000e690 <__letf2>
100071c4:	08a05463          	blez	a0,1000724c <_ldtoa_r+0x20c>
100071c8:	00300793          	li	a5,3
100071cc:	04f12423          	sw	a5,72(sp)
100071d0:	01812783          	lw	a5,24(sp)
100071d4:	01c12803          	lw	a6,28(sp)
100071d8:	01412603          	lw	a2,20(sp)
100071dc:	04810713          	addi	a4,sp,72
100071e0:	01a12023          	sw	s10,0(sp)
100071e4:	000b8893          	mv	a7,s7
100071e8:	04c10693          	addi	a3,sp,76
100071ec:	05c10593          	addi	a1,sp,92
100071f0:	000b0513          	mv	a0,s6
100071f4:	208000ef          	jal	100073fc <__gdtoa>
100071f8:	000ba703          	lw	a4,0(s7)
100071fc:	ffff87b7          	lui	a5,0xffff8
10007200:	00f71863          	bne	a4,a5,10007210 <_ldtoa_r+0x1d0>
10007204:	800007b7          	lui	a5,0x80000
10007208:	fff78793          	addi	a5,a5,-1 # 7fffffff <_sp+0x6ffe2923>
1000720c:	00fba023          	sw	a5,0(s7)
10007210:	0ac12083          	lw	ra,172(sp)
10007214:	0a812403          	lw	s0,168(sp)
10007218:	0a412483          	lw	s1,164(sp)
1000721c:	0a012903          	lw	s2,160(sp)
10007220:	09c12983          	lw	s3,156(sp)
10007224:	09812a03          	lw	s4,152(sp)
10007228:	09412a83          	lw	s5,148(sp)
1000722c:	09012b03          	lw	s6,144(sp)
10007230:	08c12b83          	lw	s7,140(sp)
10007234:	08812c03          	lw	s8,136(sp)
10007238:	08412c83          	lw	s9,132(sp)
1000723c:	08012d03          	lw	s10,128(sp)
10007240:	07c12d83          	lw	s11,124(sp)
10007244:	0b010113          	addi	sp,sp,176
10007248:	00008067          	ret
1000724c:	000107b7          	lui	a5,0x10
10007250:	02010593          	addi	a1,sp,32
10007254:	03010513          	addi	a0,sp,48
10007258:	03412823          	sw	s4,48(sp)
1000725c:	03312a23          	sw	s3,52(sp)
10007260:	03212c23          	sw	s2,56(sp)
10007264:	02812e23          	sw	s0,60(sp)
10007268:	02012023          	sw	zero,32(sp)
1000726c:	02012223          	sw	zero,36(sp)
10007270:	02012423          	sw	zero,40(sp)
10007274:	02f12623          	sw	a5,44(sp)
10007278:	2e8070ef          	jal	1000e560 <__getf2>
1000727c:	00054e63          	bltz	a0,10007298 <_ldtoa_r+0x258>
10007280:	000107b7          	lui	a5,0x10
10007284:	00fdedb3          	or	s11,s11,a5
10007288:	00100793          	li	a5,1
1000728c:	04f12423          	sw	a5,72(sp)
10007290:	05b12c23          	sw	s11,88(sp)
10007294:	f3dff06f          	j	100071d0 <_ldtoa_r+0x190>
10007298:	02010593          	addi	a1,sp,32
1000729c:	03010513          	addi	a0,sp,48
100072a0:	03412823          	sw	s4,48(sp)
100072a4:	03312a23          	sw	s3,52(sp)
100072a8:	03212c23          	sw	s2,56(sp)
100072ac:	03812e23          	sw	s8,60(sp)
100072b0:	02012023          	sw	zero,32(sp)
100072b4:	02012223          	sw	zero,36(sp)
100072b8:	02012423          	sw	zero,40(sp)
100072bc:	02012623          	sw	zero,44(sp)
100072c0:	1d4070ef          	jal	1000e494 <__eqtf2>
100072c4:	00051663          	bnez	a0,100072d0 <_ldtoa_r+0x290>
100072c8:	04012423          	sw	zero,72(sp)
100072cc:	f05ff06f          	j	100071d0 <_ldtoa_r+0x190>
100072d0:	ffffc4b7          	lui	s1,0xffffc
100072d4:	00200793          	li	a5,2
100072d8:	f9248493          	addi	s1,s1,-110 # ffffbf92 <_sp+0xeffde8b6>
100072dc:	04f12423          	sw	a5,72(sp)
100072e0:	009a87b3          	add	a5,s5,s1
100072e4:	00f12a23          	sw	a5,20(sp)
100072e8:	ee9ff06f          	j	100071d0 <_ldtoa_r+0x190>
100072ec:	00400793          	li	a5,4
100072f0:	04f12423          	sw	a5,72(sp)
100072f4:	eddff06f          	j	100071d0 <_ldtoa_r+0x190>

100072f8 <_ldcheck>:
100072f8:	fc010113          	addi	sp,sp,-64
100072fc:	02912a23          	sw	s1,52(sp)
10007300:	00c52483          	lw	s1,12(a0)
10007304:	03312623          	sw	s3,44(sp)
10007308:	03412423          	sw	s4,40(sp)
1000730c:	00852983          	lw	s3,8(a0)
10007310:	00452a03          	lw	s4,4(a0)
10007314:	03512223          	sw	s5,36(sp)
10007318:	00052a83          	lw	s5,0(a0)
1000731c:	00149493          	slli	s1,s1,0x1
10007320:	0014d493          	srli	s1,s1,0x1
10007324:	00010593          	mv	a1,sp
10007328:	01010513          	addi	a0,sp,16
1000732c:	02112e23          	sw	ra,60(sp)
10007330:	01512823          	sw	s5,16(sp)
10007334:	01412a23          	sw	s4,20(sp)
10007338:	01312c23          	sw	s3,24(sp)
1000733c:	00912e23          	sw	s1,28(sp)
10007340:	01512023          	sw	s5,0(sp)
10007344:	01412223          	sw	s4,4(sp)
10007348:	01312423          	sw	s3,8(sp)
1000734c:	00912623          	sw	s1,12(sp)
10007350:	105090ef          	jal	10010c54 <__unordtf2>
10007354:	08051463          	bnez	a0,100073dc <_ldcheck+0xe4>
10007358:	03612023          	sw	s6,32(sp)
1000735c:	7fff0b37          	lui	s6,0x7fff0
10007360:	03212823          	sw	s2,48(sp)
10007364:	fffb0b13          	addi	s6,s6,-1 # 7ffeffff <_sp+0x6ffd2923>
10007368:	fff00913          	li	s2,-1
1000736c:	00010593          	mv	a1,sp
10007370:	01010513          	addi	a0,sp,16
10007374:	02812c23          	sw	s0,56(sp)
10007378:	01212023          	sw	s2,0(sp)
1000737c:	01212223          	sw	s2,4(sp)
10007380:	01212423          	sw	s2,8(sp)
10007384:	01612623          	sw	s6,12(sp)
10007388:	00100413          	li	s0,1
1000738c:	0c9090ef          	jal	10010c54 <__unordtf2>
10007390:	02050c63          	beqz	a0,100073c8 <_ldcheck+0xd0>
10007394:	03c12083          	lw	ra,60(sp)
10007398:	00144513          	xori	a0,s0,1
1000739c:	03812403          	lw	s0,56(sp)
100073a0:	0ff57513          	zext.b	a0,a0
100073a4:	03012903          	lw	s2,48(sp)
100073a8:	02012b03          	lw	s6,32(sp)
100073ac:	03412483          	lw	s1,52(sp)
100073b0:	02c12983          	lw	s3,44(sp)
100073b4:	02812a03          	lw	s4,40(sp)
100073b8:	02412a83          	lw	s5,36(sp)
100073bc:	00151513          	slli	a0,a0,0x1
100073c0:	04010113          	addi	sp,sp,64
100073c4:	00008067          	ret
100073c8:	00010593          	mv	a1,sp
100073cc:	01010513          	addi	a0,sp,16
100073d0:	2c0070ef          	jal	1000e690 <__letf2>
100073d4:	00152413          	slti	s0,a0,1
100073d8:	fbdff06f          	j	10007394 <_ldcheck+0x9c>
100073dc:	03c12083          	lw	ra,60(sp)
100073e0:	03412483          	lw	s1,52(sp)
100073e4:	02c12983          	lw	s3,44(sp)
100073e8:	02812a03          	lw	s4,40(sp)
100073ec:	02412a83          	lw	s5,36(sp)
100073f0:	00100513          	li	a0,1
100073f4:	04010113          	addi	sp,sp,64
100073f8:	00008067          	ret

100073fc <__gdtoa>:
100073fc:	f3010113          	addi	sp,sp,-208
10007400:	0b612823          	sw	s6,176(sp)
10007404:	00072b03          	lw	s6,0(a4)
10007408:	0ba12023          	sw	s10,160(sp)
1000740c:	0c112623          	sw	ra,204(sp)
10007410:	fcfb7313          	andi	t1,s6,-49
10007414:	00672023          	sw	t1,0(a4)
10007418:	00070d13          	mv	s10,a4
1000741c:	0d012703          	lw	a4,208(sp)
10007420:	00fb7313          	andi	t1,s6,15
10007424:	00300e93          	li	t4,3
10007428:	00e12623          	sw	a4,12(sp)
1000742c:	00f12823          	sw	a5,16(sp)
10007430:	01012c23          	sw	a6,24(sp)
10007434:	01112423          	sw	a7,8(sp)
10007438:	7fd30063          	beq	t1,t4,10007c18 <__gdtoa+0x81c>
1000743c:	0b912223          	sw	s9,164(sp)
10007440:	00cb7c93          	andi	s9,s6,12
10007444:	720c9463          	bnez	s9,10007b6c <__gdtoa+0x770>
10007448:	0c812423          	sw	s0,200(sp)
1000744c:	00050413          	mv	s0,a0
10007450:	78030063          	beqz	t1,10007bd0 <__gdtoa+0x7d4>
10007454:	0b712623          	sw	s7,172(sp)
10007458:	0005ab83          	lw	s7,0(a1)
1000745c:	0d212023          	sw	s2,192(sp)
10007460:	0b512a23          	sw	s5,180(sp)
10007464:	09b12e23          	sw	s11,156(sp)
10007468:	00068913          	mv	s2,a3
1000746c:	0c912223          	sw	s1,196(sp)
10007470:	02000693          	li	a3,32
10007474:	00058d93          	mv	s11,a1
10007478:	00060a93          	mv	s5,a2
1000747c:	00000593          	li	a1,0
10007480:	02000793          	li	a5,32
10007484:	0176d863          	bge	a3,s7,10007494 <__gdtoa+0x98>
10007488:	00179793          	slli	a5,a5,0x1
1000748c:	00158593          	addi	a1,a1,1
10007490:	ff77cce3          	blt	a5,s7,10007488 <__gdtoa+0x8c>
10007494:	00040513          	mv	a0,s0
10007498:	731010ef          	jal	100093c8 <_Balloc>
1000749c:	00050493          	mv	s1,a0
100074a0:	380508e3          	beqz	a0,10008030 <__gdtoa+0xc34>
100074a4:	fffb8513          	addi	a0,s7,-1
100074a8:	40555513          	srai	a0,a0,0x5
100074ac:	00251593          	slli	a1,a0,0x2
100074b0:	0b312e23          	sw	s3,188(sp)
100074b4:	0b812423          	sw	s8,168(sp)
100074b8:	00b905b3          	add	a1,s2,a1
100074bc:	01448693          	addi	a3,s1,20
100074c0:	00090793          	mv	a5,s2
100074c4:	0007a703          	lw	a4,0(a5) # 10000 <__heap_size+0xf000>
100074c8:	00478793          	addi	a5,a5,4
100074cc:	00468693          	addi	a3,a3,4
100074d0:	fee6ae23          	sw	a4,-4(a3)
100074d4:	fef5f8e3          	bgeu	a1,a5,100074c4 <__gdtoa+0xc8>
100074d8:	00158593          	addi	a1,a1,1
100074dc:	00190793          	addi	a5,s2,1
100074e0:	00400693          	li	a3,4
100074e4:	00f5e663          	bltu	a1,a5,100074f0 <__gdtoa+0xf4>
100074e8:	00251513          	slli	a0,a0,0x2
100074ec:	00450693          	addi	a3,a0,4
100074f0:	4026dc13          	srai	s8,a3,0x2
100074f4:	00d486b3          	add	a3,s1,a3
100074f8:	00c0006f          	j	10007504 <__gdtoa+0x108>
100074fc:	ffc68693          	addi	a3,a3,-4
10007500:	780c0863          	beqz	s8,10007c90 <__gdtoa+0x894>
10007504:	0106a783          	lw	a5,16(a3)
10007508:	000c0993          	mv	s3,s8
1000750c:	fffc0c13          	addi	s8,s8,-1
10007510:	fe0786e3          	beqz	a5,100074fc <__gdtoa+0x100>
10007514:	004c0793          	addi	a5,s8,4
10007518:	00279793          	slli	a5,a5,0x2
1000751c:	00f487b3          	add	a5,s1,a5
10007520:	0047a503          	lw	a0,4(a5)
10007524:	0134a823          	sw	s3,16(s1)
10007528:	00599993          	slli	s3,s3,0x5
1000752c:	0c0020ef          	jal	100095ec <__hi0bits>
10007530:	40a98c33          	sub	s8,s3,a0
10007534:	00048513          	mv	a0,s1
10007538:	62d010ef          	jal	10009364 <__trailz_D2A>
1000753c:	08a12623          	sw	a0,140(sp)
10007540:	03512223          	sw	s5,36(sp)
10007544:	78051a63          	bnez	a0,10007cd8 <__gdtoa+0x8dc>
10007548:	0104a683          	lw	a3,16(s1)
1000754c:	64068e63          	beqz	a3,10007ba8 <__gdtoa+0x7ac>
10007550:	08c10593          	addi	a1,sp,140
10007554:	00048513          	mv	a0,s1
10007558:	0b412c23          	sw	s4,184(sp)
1000755c:	265020ef          	jal	10009fc0 <__b2d>
10007560:	00c59993          	slli	s3,a1,0xc
10007564:	00c9d993          	srli	s3,s3,0xc
10007568:	3ff006b7          	lui	a3,0x3ff00
1000756c:	00d9e833          	or	a6,s3,a3
10007570:	02412703          	lw	a4,36(sp)
10007574:	100126b7          	lui	a3,0x10012
10007578:	0406a603          	lw	a2,64(a3) # 10012040 <__SDATA_BEGIN__>
1000757c:	0446a683          	lw	a3,68(a3)
10007580:	01870733          	add	a4,a4,s8
10007584:	00080593          	mv	a1,a6
10007588:	00050793          	mv	a5,a0
1000758c:	fff70a13          	addi	s4,a4,-1
10007590:	03012823          	sw	a6,48(sp)
10007594:	02e12423          	sw	a4,40(sp)
10007598:	04f12423          	sw	a5,72(sp)
1000759c:	04a12223          	sw	a0,68(sp)
100075a0:	624060ef          	jal	1000dbc4 <__subdf3>
100075a4:	100126b7          	lui	a3,0x10012
100075a8:	0486a603          	lw	a2,72(a3) # 10012048 <__SDATA_BEGIN__+0x8>
100075ac:	04c6a683          	lw	a3,76(a3)
100075b0:	024060ef          	jal	1000d5d4 <__muldf3>
100075b4:	8101a603          	lw	a2,-2032(gp) # 10012050 <__SDATA_BEGIN__+0x10>
100075b8:	8141a683          	lw	a3,-2028(gp) # 10012054 <__SDATA_BEGIN__+0x14>
100075bc:	765040ef          	jal	1000c520 <__adddf3>
100075c0:	00050793          	mv	a5,a0
100075c4:	000a0513          	mv	a0,s4
100075c8:	00f12e23          	sw	a5,28(sp)
100075cc:	00058993          	mv	s3,a1
100075d0:	61d060ef          	jal	1000e3ec <__floatsidf>
100075d4:	8181a603          	lw	a2,-2024(gp) # 10012058 <__SDATA_BEGIN__+0x18>
100075d8:	81c1a683          	lw	a3,-2020(gp) # 1001205c <__SDATA_BEGIN__+0x1c>
100075dc:	7f9050ef          	jal	1000d5d4 <__muldf3>
100075e0:	01c12783          	lw	a5,28(sp)
100075e4:	00050613          	mv	a2,a0
100075e8:	00058693          	mv	a3,a1
100075ec:	00078513          	mv	a0,a5
100075f0:	00098593          	mv	a1,s3
100075f4:	72d040ef          	jal	1000c520 <__adddf3>
100075f8:	02a12023          	sw	a0,32(sp)
100075fc:	00058993          	mv	s3,a1
10007600:	000a0513          	mv	a0,s4
10007604:	000a5863          	bgez	s4,10007614 <__gdtoa+0x218>
10007608:	02812703          	lw	a4,40(sp)
1000760c:	00100513          	li	a0,1
10007610:	40e50533          	sub	a0,a0,a4
10007614:	bcb50513          	addi	a0,a0,-1077
10007618:	02a05863          	blez	a0,10007648 <__gdtoa+0x24c>
1000761c:	5d1060ef          	jal	1000e3ec <__floatsidf>
10007620:	8201a603          	lw	a2,-2016(gp) # 10012060 <__SDATA_BEGIN__+0x20>
10007624:	8241a683          	lw	a3,-2012(gp) # 10012064 <__SDATA_BEGIN__+0x24>
10007628:	7ad050ef          	jal	1000d5d4 <__muldf3>
1000762c:	00050613          	mv	a2,a0
10007630:	02012503          	lw	a0,32(sp)
10007634:	00058693          	mv	a3,a1
10007638:	00098593          	mv	a1,s3
1000763c:	6e5040ef          	jal	1000c520 <__adddf3>
10007640:	02a12023          	sw	a0,32(sp)
10007644:	00058993          	mv	s3,a1
10007648:	02012503          	lw	a0,32(sp)
1000764c:	00098593          	mv	a1,s3
10007650:	51d060ef          	jal	1000e36c <__fixdfsi>
10007654:	00050813          	mv	a6,a0
10007658:	02012503          	lw	a0,32(sp)
1000765c:	00098593          	mv	a1,s3
10007660:	00000613          	li	a2,0
10007664:	00000693          	li	a3,0
10007668:	01012e23          	sw	a6,28(sp)
1000766c:	68d050ef          	jal	1000d4f8 <__ledf2>
10007670:	02055463          	bgez	a0,10007698 <__gdtoa+0x29c>
10007674:	01c12503          	lw	a0,28(sp)
10007678:	575060ef          	jal	1000e3ec <__floatsidf>
1000767c:	02012603          	lw	a2,32(sp)
10007680:	00098693          	mv	a3,s3
10007684:	50d050ef          	jal	1000d390 <__eqdf2>
10007688:	01c12783          	lw	a5,28(sp)
1000768c:	00a03533          	snez	a0,a0
10007690:	40a787b3          	sub	a5,a5,a0
10007694:	00f12e23          	sw	a5,28(sp)
10007698:	03012783          	lw	a5,48(sp)
1000769c:	014a1613          	slli	a2,s4,0x14
100076a0:	01c12703          	lw	a4,28(sp)
100076a4:	414c0a33          	sub	s4,s8,s4
100076a8:	00f609b3          	add	s3,a2,a5
100076ac:	fffa0793          	addi	a5,s4,-1
100076b0:	01600693          	li	a3,22
100076b4:	02f12023          	sw	a5,32(sp)
100076b8:	5ee6e063          	bltu	a3,a4,10007c98 <__gdtoa+0x89c>
100076bc:	100117b7          	lui	a5,0x10011
100076c0:	60078613          	addi	a2,a5,1536 # 10011600 <__mprec_tens>
100076c4:	00371693          	slli	a3,a4,0x3
100076c8:	00c686b3          	add	a3,a3,a2
100076cc:	04412883          	lw	a7,68(sp)
100076d0:	0006a503          	lw	a0,0(a3)
100076d4:	0046a583          	lw	a1,4(a3)
100076d8:	00088613          	mv	a2,a7
100076dc:	00098693          	mv	a3,s3
100076e0:	53d050ef          	jal	1000d41c <__gedf2>
100076e4:	18a04ee3          	bgtz	a0,10008080 <__gdtoa+0xc84>
100076e8:	04012823          	sw	zero,80(sp)
100076ec:	02012823          	sw	zero,48(sp)
100076f0:	01404a63          	bgtz	s4,10007704 <__gdtoa+0x308>
100076f4:	00100693          	li	a3,1
100076f8:	414687b3          	sub	a5,a3,s4
100076fc:	02f12823          	sw	a5,48(sp)
10007700:	02012023          	sw	zero,32(sp)
10007704:	02012703          	lw	a4,32(sp)
10007708:	01c12783          	lw	a5,28(sp)
1000770c:	02012c23          	sw	zero,56(sp)
10007710:	00f70733          	add	a4,a4,a5
10007714:	02e12023          	sw	a4,32(sp)
10007718:	02f12e23          	sw	a5,60(sp)
1000771c:	01012783          	lw	a5,16(sp)
10007720:	00900693          	li	a3,9
10007724:	5cf6ea63          	bltu	a3,a5,10007cf8 <__gdtoa+0x8fc>
10007728:	00500693          	li	a3,5
1000772c:	16f6c4e3          	blt	a3,a5,10008094 <__gdtoa+0xc98>
10007730:	02812783          	lw	a5,40(sp)
10007734:	00400613          	li	a2,4
10007738:	3fd78793          	addi	a5,a5,1021
1000773c:	7f87ba13          	sltiu	s4,a5,2040
10007740:	01012783          	lw	a5,16(sp)
10007744:	00c79463          	bne	a5,a2,1000774c <__gdtoa+0x350>
10007748:	0580106f          	j	100087a0 <__gdtoa+0x13a4>
1000774c:	00d79463          	bne	a5,a3,10007754 <__gdtoa+0x358>
10007750:	0440106f          	j	10008794 <__gdtoa+0x1398>
10007754:	00200693          	li	a3,2
10007758:	00d79463          	bne	a5,a3,10007760 <__gdtoa+0x364>
1000775c:	0500106f          	j	100087ac <__gdtoa+0x13b0>
10007760:	00300693          	li	a3,3
10007764:	04012023          	sw	zero,64(sp)
10007768:	5ad79063          	bne	a5,a3,10007d08 <__gdtoa+0x90c>
1000776c:	03c12783          	lw	a5,60(sp)
10007770:	01812703          	lw	a4,24(sp)
10007774:	00e787b3          	add	a5,a5,a4
10007778:	04f12a23          	sw	a5,84(sp)
1000777c:	00178793          	addi	a5,a5,1
10007780:	02f12a23          	sw	a5,52(sp)
10007784:	5ef056e3          	blez	a5,10008570 <__gdtoa+0x1174>
10007788:	00078693          	mv	a3,a5
1000778c:	00078593          	mv	a1,a5
10007790:	00040513          	mv	a0,s0
10007794:	08d12623          	sw	a3,140(sp)
10007798:	7f4010ef          	jal	10008f8c <__rv_alloc_D2A>
1000779c:	00050f13          	mv	t5,a0
100077a0:	4c050263          	beqz	a0,10007c64 <__gdtoa+0x868>
100077a4:	00cda783          	lw	a5,12(s11)
100077a8:	fff78793          	addi	a5,a5,-1
100077ac:	02f12423          	sw	a5,40(sp)
100077b0:	5a078263          	beqz	a5,10007d54 <__gdtoa+0x958>
100077b4:	0c07c0e3          	bltz	a5,10008074 <__gdtoa+0xc78>
100077b8:	100b7e13          	andi	t3,s6,256
100077bc:	580e1463          	bnez	t3,10007d44 <__gdtoa+0x948>
100077c0:	02412783          	lw	a5,36(sp)
100077c4:	0007c863          	bltz	a5,100077d4 <__gdtoa+0x3d8>
100077c8:	03c12783          	lw	a5,60(sp)
100077cc:	00e00693          	li	a3,14
100077d0:	0ef6dae3          	bge	a3,a5,100080c4 <__gdtoa+0xcc8>
100077d4:	04012783          	lw	a5,64(sp)
100077d8:	080786e3          	beqz	a5,10008064 <__gdtoa+0xc68>
100077dc:	02412783          	lw	a5,36(sp)
100077e0:	418b8333          	sub	t1,s7,s8
100077e4:	004da683          	lw	a3,4(s11)
100077e8:	00130613          	addi	a2,t1,1
100077ec:	08c12623          	sw	a2,140(sp)
100077f0:	40678333          	sub	t1,a5,t1
100077f4:	5cd35ee3          	bge	t1,a3,100085d0 <__gdtoa+0x11d4>
100077f8:	01012703          	lw	a4,16(sp)
100077fc:	ffd70613          	addi	a2,a4,-3
10007800:	ffd67613          	andi	a2,a2,-3
10007804:	4a060ee3          	beqz	a2,100084c0 <__gdtoa+0x10c4>
10007808:	40d786b3          	sub	a3,a5,a3
1000780c:	00168693          	addi	a3,a3,1
10007810:	08d12623          	sw	a3,140(sp)
10007814:	00100613          	li	a2,1
10007818:	00e65c63          	bge	a2,a4,10007830 <__gdtoa+0x434>
1000781c:	03412783          	lw	a5,52(sp)
10007820:	00f05863          	blez	a5,10007830 <__gdtoa+0x434>
10007824:	03412783          	lw	a5,52(sp)
10007828:	00d7d463          	bge	a5,a3,10007830 <__gdtoa+0x434>
1000782c:	5740106f          	j	10008da0 <__gdtoa+0x19a4>
10007830:	03012783          	lw	a5,48(sp)
10007834:	02012703          	lw	a4,32(sp)
10007838:	03812b03          	lw	s6,56(sp)
1000783c:	00078a13          	mv	s4,a5
10007840:	00d70733          	add	a4,a4,a3
10007844:	00f687b3          	add	a5,a3,a5
10007848:	02e12023          	sw	a4,32(sp)
1000784c:	02f12823          	sw	a5,48(sp)
10007850:	00100593          	li	a1,1
10007854:	00040513          	mv	a0,s0
10007858:	03e12223          	sw	t5,36(sp)
1000785c:	6e9010ef          	jal	10009744 <__i2b>
10007860:	02412f03          	lw	t5,36(sp)
10007864:	00050993          	mv	s3,a0
10007868:	3e050e63          	beqz	a0,10007c64 <__gdtoa+0x868>
1000786c:	020a0c63          	beqz	s4,100078a4 <__gdtoa+0x4a8>
10007870:	02012783          	lw	a5,32(sp)
10007874:	02f05863          	blez	a5,100078a4 <__gdtoa+0x4a8>
10007878:	000a0693          	mv	a3,s4
1000787c:	0147d463          	bge	a5,s4,10007884 <__gdtoa+0x488>
10007880:	00078693          	mv	a3,a5
10007884:	03012783          	lw	a5,48(sp)
10007888:	08d12623          	sw	a3,140(sp)
1000788c:	40da0a33          	sub	s4,s4,a3
10007890:	40d787b3          	sub	a5,a5,a3
10007894:	02f12823          	sw	a5,48(sp)
10007898:	02012783          	lw	a5,32(sp)
1000789c:	40d787b3          	sub	a5,a5,a3
100078a0:	02f12023          	sw	a5,32(sp)
100078a4:	03812783          	lw	a5,56(sp)
100078a8:	02078863          	beqz	a5,100078d8 <__gdtoa+0x4dc>
100078ac:	04012783          	lw	a5,64(sp)
100078b0:	00078463          	beqz	a5,100078b8 <__gdtoa+0x4bc>
100078b4:	600b16e3          	bnez	s6,100086c0 <__gdtoa+0x12c4>
100078b8:	03812603          	lw	a2,56(sp)
100078bc:	00048593          	mv	a1,s1
100078c0:	00040513          	mv	a0,s0
100078c4:	03e12223          	sw	t5,36(sp)
100078c8:	160020ef          	jal	10009a28 <__pow5mult>
100078cc:	02412f03          	lw	t5,36(sp)
100078d0:	00050493          	mv	s1,a0
100078d4:	38050863          	beqz	a0,10007c64 <__gdtoa+0x868>
100078d8:	00100593          	li	a1,1
100078dc:	00040513          	mv	a0,s0
100078e0:	03e12223          	sw	t5,36(sp)
100078e4:	661010ef          	jal	10009744 <__i2b>
100078e8:	00050b93          	mv	s7,a0
100078ec:	36050c63          	beqz	a0,10007c64 <__gdtoa+0x868>
100078f0:	01c12783          	lw	a5,28(sp)
100078f4:	02412f03          	lw	t5,36(sp)
100078f8:	480792e3          	bnez	a5,1000857c <__gdtoa+0x1180>
100078fc:	01012783          	lw	a5,16(sp)
10007900:	00100693          	li	a3,1
10007904:	18f6dce3          	bge	a3,a5,1000829c <__gdtoa+0xea0>
10007908:	01f00a93          	li	s5,31
1000790c:	02012783          	lw	a5,32(sp)
10007910:	40fa8ab3          	sub	s5,s5,a5
10007914:	03012783          	lw	a5,48(sp)
10007918:	ffca8a93          	addi	s5,s5,-4
1000791c:	01fafa93          	andi	s5,s5,31
10007920:	00fa8633          	add	a2,s5,a5
10007924:	09512623          	sw	s5,140(sp)
10007928:	000a8793          	mv	a5,s5
1000792c:	26c048e3          	bgtz	a2,1000839c <__gdtoa+0xfa0>
10007930:	02012703          	lw	a4,32(sp)
10007934:	00f70633          	add	a2,a4,a5
10007938:	30c04863          	bgtz	a2,10007c48 <__gdtoa+0x84c>
1000793c:	05012783          	lw	a5,80(sp)
10007940:	280790e3          	bnez	a5,100083c0 <__gdtoa+0xfc4>
10007944:	03412783          	lw	a5,52(sp)
10007948:	3af052e3          	blez	a5,100084ec <__gdtoa+0x10f0>
1000794c:	04012783          	lw	a5,64(sp)
10007950:	2c0784e3          	beqz	a5,10008418 <__gdtoa+0x101c>
10007954:	014a8633          	add	a2,s5,s4
10007958:	60c046e3          	bgtz	a2,10008764 <__gdtoa+0x1368>
1000795c:	01c12783          	lw	a5,28(sp)
10007960:	00098a13          	mv	s4,s3
10007964:	680790e3          	bnez	a5,100087e4 <__gdtoa+0x13e8>
10007968:	01a12e23          	sw	s10,28(sp)
1000796c:	01012c83          	lw	s9,16(sp)
10007970:	03412d03          	lw	s10,52(sp)
10007974:	000f0c13          	mv	s8,t5
10007978:	00100793          	li	a5,1
1000797c:	01e12c23          	sw	t5,24(sp)
10007980:	0b00006f          	j	10007a30 <__gdtoa+0x634>
10007984:	00040513          	mv	a0,s0
10007988:	2f5010ef          	jal	1000947c <_Bfree>
1000798c:	000ad463          	bgez	s5,10007994 <__gdtoa+0x598>
10007990:	7e50006f          	j	10008974 <__gdtoa+0x1578>
10007994:	015ceab3          	or	s5,s9,s5
10007998:	000a9a63          	bnez	s5,100079ac <__gdtoa+0x5b0>
1000799c:	00092783          	lw	a5,0(s2)
100079a0:	0017f793          	andi	a5,a5,1
100079a4:	00079463          	bnez	a5,100079ac <__gdtoa+0x5b0>
100079a8:	7cd0006f          	j	10008974 <__gdtoa+0x1578>
100079ac:	02812783          	lw	a5,40(sp)
100079b0:	00200713          	li	a4,2
100079b4:	00e78463          	beq	a5,a4,100079bc <__gdtoa+0x5c0>
100079b8:	3140106f          	j	10008ccc <__gdtoa+0x18d0>
100079bc:	01bc0023          	sb	s11,0(s8)
100079c0:	08c12783          	lw	a5,140(sp)
100079c4:	001c0c13          	addi	s8,s8,1
100079c8:	00fd1463          	bne	s10,a5,100079d0 <__gdtoa+0x5d4>
100079cc:	2340106f          	j	10008c00 <__gdtoa+0x1804>
100079d0:	00048593          	mv	a1,s1
100079d4:	00000693          	li	a3,0
100079d8:	00a00613          	li	a2,10
100079dc:	00040513          	mv	a0,s0
100079e0:	2c1010ef          	jal	100094a0 <__multadd>
100079e4:	00050493          	mv	s1,a0
100079e8:	26050e63          	beqz	a0,10007c64 <__gdtoa+0x868>
100079ec:	00000693          	li	a3,0
100079f0:	00a00613          	li	a2,10
100079f4:	00098593          	mv	a1,s3
100079f8:	00040513          	mv	a0,s0
100079fc:	114980e3          	beq	s3,s4,100082fc <__gdtoa+0xf00>
10007a00:	2a1010ef          	jal	100094a0 <__multadd>
10007a04:	00050993          	mv	s3,a0
10007a08:	24050e63          	beqz	a0,10007c64 <__gdtoa+0x868>
10007a0c:	000a0593          	mv	a1,s4
10007a10:	00000693          	li	a3,0
10007a14:	00a00613          	li	a2,10
10007a18:	00040513          	mv	a0,s0
10007a1c:	285010ef          	jal	100094a0 <__multadd>
10007a20:	00050a13          	mv	s4,a0
10007a24:	24050063          	beqz	a0,10007c64 <__gdtoa+0x868>
10007a28:	08c12783          	lw	a5,140(sp)
10007a2c:	00178793          	addi	a5,a5,1
10007a30:	000b8593          	mv	a1,s7
10007a34:	00048513          	mv	a0,s1
10007a38:	08f12623          	sw	a5,140(sp)
10007a3c:	64c010ef          	jal	10009088 <__quorem_D2A>
10007a40:	00050b13          	mv	s6,a0
10007a44:	00098593          	mv	a1,s3
10007a48:	00048513          	mv	a0,s1
10007a4c:	2bc020ef          	jal	10009d08 <__mcmp>
10007a50:	000b8593          	mv	a1,s7
10007a54:	00050a93          	mv	s5,a0
10007a58:	000a0613          	mv	a2,s4
10007a5c:	00040513          	mv	a0,s0
10007a60:	300020ef          	jal	10009d60 <__mdiff>
10007a64:	030b0d93          	addi	s11,s6,48
10007a68:	00050593          	mv	a1,a0
10007a6c:	1e050c63          	beqz	a0,10007c64 <__gdtoa+0x868>
10007a70:	00c52783          	lw	a5,12(a0)
10007a74:	f00798e3          	bnez	a5,10007984 <__gdtoa+0x588>
10007a78:	00a12823          	sw	a0,16(sp)
10007a7c:	00048513          	mv	a0,s1
10007a80:	288020ef          	jal	10009d08 <__mcmp>
10007a84:	01012583          	lw	a1,16(sp)
10007a88:	00050793          	mv	a5,a0
10007a8c:	00040513          	mv	a0,s0
10007a90:	00f12823          	sw	a5,16(sp)
10007a94:	1e9010ef          	jal	1000947c <_Bfree>
10007a98:	01012783          	lw	a5,16(sp)
10007a9c:	00fce733          	or	a4,s9,a5
10007aa0:	00070463          	beqz	a4,10007aa8 <__gdtoa+0x6ac>
10007aa4:	4800106f          	j	10008f24 <__gdtoa+0x1b28>
10007aa8:	00092783          	lw	a5,0(s2)
10007aac:	0017f793          	andi	a5,a5,1
10007ab0:	060790e3          	bnez	a5,10008310 <__gdtoa+0xf14>
10007ab4:	02812783          	lw	a5,40(sp)
10007ab8:	00079463          	bnez	a5,10007ac0 <__gdtoa+0x6c4>
10007abc:	3580106f          	j	10008e14 <__gdtoa+0x1a18>
10007ac0:	ef504ee3          	bgtz	s5,100079bc <__gdtoa+0x5c0>
10007ac4:	0104a683          	lw	a3,16(s1)
10007ac8:	00100793          	li	a5,1
10007acc:	01812f03          	lw	t5,24(sp)
10007ad0:	01c12d03          	lw	s10,28(sp)
10007ad4:	00070c93          	mv	s9,a4
10007ad8:	00d7c463          	blt	a5,a3,10007ae0 <__gdtoa+0x6e4>
10007adc:	4140106f          	j	10008ef0 <__gdtoa+0x1af4>
10007ae0:	02812703          	lw	a4,40(sp)
10007ae4:	00200793          	li	a5,2
10007ae8:	000f0b13          	mv	s6,t5
10007aec:	02f71463          	bne	a4,a5,10007b14 <__gdtoa+0x718>
10007af0:	3d40106f          	j	10008ec4 <__gdtoa+0x1ac8>
10007af4:	1ad010ef          	jal	100094a0 <__multadd>
10007af8:	000b8593          	mv	a1,s7
10007afc:	00050493          	mv	s1,a0
10007b00:	16050263          	beqz	a0,10007c64 <__gdtoa+0x868>
10007b04:	584010ef          	jal	10009088 <__quorem_D2A>
10007b08:	03050d93          	addi	s11,a0,48
10007b0c:	00090c13          	mv	s8,s2
10007b10:	000a8a13          	mv	s4,s5
10007b14:	000a0593          	mv	a1,s4
10007b18:	000b8513          	mv	a0,s7
10007b1c:	1ec020ef          	jal	10009d08 <__mcmp>
10007b20:	00050793          	mv	a5,a0
10007b24:	00000693          	li	a3,0
10007b28:	00a00613          	li	a2,10
10007b2c:	000a0593          	mv	a1,s4
10007b30:	00040513          	mv	a0,s0
10007b34:	001c0913          	addi	s2,s8,1
10007b38:	00f04463          	bgtz	a5,10007b40 <__gdtoa+0x744>
10007b3c:	3700106f          	j	10008eac <__gdtoa+0x1ab0>
10007b40:	ffb90fa3          	sb	s11,-1(s2)
10007b44:	15d010ef          	jal	100094a0 <__multadd>
10007b48:	00050a93          	mv	s5,a0
10007b4c:	00000693          	li	a3,0
10007b50:	00a00613          	li	a2,10
10007b54:	00048593          	mv	a1,s1
10007b58:	00040513          	mv	a0,s0
10007b5c:	100a8463          	beqz	s5,10007c64 <__gdtoa+0x868>
10007b60:	f9499ae3          	bne	s3,s4,10007af4 <__gdtoa+0x6f8>
10007b64:	000a8993          	mv	s3,s5
10007b68:	f8dff06f          	j	10007af4 <__gdtoa+0x6f8>
10007b6c:	00400793          	li	a5,4
10007b70:	10f31c63          	bne	t1,a5,10007c88 <__gdtoa+0x88c>
10007b74:	00812703          	lw	a4,8(sp)
10007b78:	00c12603          	lw	a2,12(sp)
10007b7c:	0a412c83          	lw	s9,164(sp)
10007b80:	0cc12083          	lw	ra,204(sp)
10007b84:	0b012b03          	lw	s6,176(sp)
10007b88:	0a012d03          	lw	s10,160(sp)
10007b8c:	ffff87b7          	lui	a5,0xffff8
10007b90:	00f72023          	sw	a5,0(a4)
10007b94:	100115b7          	lui	a1,0x10011
10007b98:	00300693          	li	a3,3
10007b9c:	1e058593          	addi	a1,a1,480 # 100111e0 <__extenddftf2+0x2b4>
10007ba0:	0d010113          	addi	sp,sp,208
10007ba4:	4380106f          	j	10008fdc <__nrv_alloc_D2A>
10007ba8:	00048593          	mv	a1,s1
10007bac:	00040513          	mv	a0,s0
10007bb0:	0cd010ef          	jal	1000947c <_Bfree>
10007bb4:	0c412483          	lw	s1,196(sp)
10007bb8:	0c012903          	lw	s2,192(sp)
10007bbc:	0bc12983          	lw	s3,188(sp)
10007bc0:	0b412a83          	lw	s5,180(sp)
10007bc4:	0ac12b83          	lw	s7,172(sp)
10007bc8:	0a812c03          	lw	s8,168(sp)
10007bcc:	09c12d83          	lw	s11,156(sp)
10007bd0:	00812703          	lw	a4,8(sp)
10007bd4:	00c12603          	lw	a2,12(sp)
10007bd8:	00100793          	li	a5,1
10007bdc:	100115b7          	lui	a1,0x10011
10007be0:	00040513          	mv	a0,s0
10007be4:	00f72023          	sw	a5,0(a4)
10007be8:	00100693          	li	a3,1
10007bec:	1d058593          	addi	a1,a1,464 # 100111d0 <__extenddftf2+0x2a4>
10007bf0:	3ec010ef          	jal	10008fdc <__nrv_alloc_D2A>
10007bf4:	0c812403          	lw	s0,200(sp)
10007bf8:	00050f13          	mv	t5,a0
10007bfc:	0cc12083          	lw	ra,204(sp)
10007c00:	0a412c83          	lw	s9,164(sp)
10007c04:	0b012b03          	lw	s6,176(sp)
10007c08:	0a012d03          	lw	s10,160(sp)
10007c0c:	000f0513          	mv	a0,t5
10007c10:	0d010113          	addi	sp,sp,208
10007c14:	00008067          	ret
10007c18:	00812703          	lw	a4,8(sp)
10007c1c:	00c12603          	lw	a2,12(sp)
10007c20:	0cc12083          	lw	ra,204(sp)
10007c24:	0b012b03          	lw	s6,176(sp)
10007c28:	0a012d03          	lw	s10,160(sp)
10007c2c:	ffff87b7          	lui	a5,0xffff8
10007c30:	00f72023          	sw	a5,0(a4)
10007c34:	100115b7          	lui	a1,0x10011
10007c38:	00800693          	li	a3,8
10007c3c:	1d458593          	addi	a1,a1,468 # 100111d4 <__extenddftf2+0x2a8>
10007c40:	0d010113          	addi	sp,sp,208
10007c44:	3980106f          	j	10008fdc <__nrv_alloc_D2A>
10007c48:	000b8593          	mv	a1,s7
10007c4c:	00040513          	mv	a0,s0
10007c50:	03e12023          	sw	t5,32(sp)
10007c54:	725010ef          	jal	10009b78 <__lshift>
10007c58:	02012f03          	lw	t5,32(sp)
10007c5c:	00050b93          	mv	s7,a0
10007c60:	cc051ee3          	bnez	a0,1000793c <__gdtoa+0x540>
10007c64:	0c812403          	lw	s0,200(sp)
10007c68:	0c412483          	lw	s1,196(sp)
10007c6c:	0c012903          	lw	s2,192(sp)
10007c70:	0bc12983          	lw	s3,188(sp)
10007c74:	0b812a03          	lw	s4,184(sp)
10007c78:	0b412a83          	lw	s5,180(sp)
10007c7c:	0ac12b83          	lw	s7,172(sp)
10007c80:	0a812c03          	lw	s8,168(sp)
10007c84:	09c12d83          	lw	s11,156(sp)
10007c88:	00000f13          	li	t5,0
10007c8c:	f71ff06f          	j	10007bfc <__gdtoa+0x800>
10007c90:	0004a823          	sw	zero,16(s1)
10007c94:	8a1ff06f          	j	10007534 <__gdtoa+0x138>
10007c98:	00100793          	li	a5,1
10007c9c:	04f12823          	sw	a5,80(sp)
10007ca0:	02012823          	sw	zero,48(sp)
10007ca4:	fffa0793          	addi	a5,s4,-1
10007ca8:	3a07c463          	bltz	a5,10008050 <__gdtoa+0xc54>
10007cac:	01c12783          	lw	a5,28(sp)
10007cb0:	a407dae3          	bgez	a5,10007704 <__gdtoa+0x308>
10007cb4:	01c12783          	lw	a5,28(sp)
10007cb8:	03012703          	lw	a4,48(sp)
10007cbc:	00012e23          	sw	zero,28(sp)
10007cc0:	02f12e23          	sw	a5,60(sp)
10007cc4:	40f70733          	sub	a4,a4,a5
10007cc8:	02e12823          	sw	a4,48(sp)
10007ccc:	40f00733          	neg	a4,a5
10007cd0:	02e12c23          	sw	a4,56(sp)
10007cd4:	a49ff06f          	j	1000771c <__gdtoa+0x320>
10007cd8:	00050593          	mv	a1,a0
10007cdc:	00048513          	mv	a0,s1
10007ce0:	5a0010ef          	jal	10009280 <__rshift_D2A>
10007ce4:	08c12683          	lw	a3,140(sp)
10007ce8:	015687b3          	add	a5,a3,s5
10007cec:	02f12223          	sw	a5,36(sp)
10007cf0:	40dc0c33          	sub	s8,s8,a3
10007cf4:	855ff06f          	j	10007548 <__gdtoa+0x14c>
10007cf8:	02812783          	lw	a5,40(sp)
10007cfc:	00012823          	sw	zero,16(sp)
10007d00:	3fd78793          	addi	a5,a5,1021 # ffff83fd <_sp+0xeffdad21>
10007d04:	7f87ba13          	sltiu	s4,a5,2040
10007d08:	000b8513          	mv	a0,s7
10007d0c:	6e0060ef          	jal	1000e3ec <__floatsidf>
10007d10:	8281a603          	lw	a2,-2008(gp) # 10012068 <__SDATA_BEGIN__+0x28>
10007d14:	82c1a683          	lw	a3,-2004(gp) # 1001206c <__SDATA_BEGIN__+0x2c>
10007d18:	0bd050ef          	jal	1000d5d4 <__muldf3>
10007d1c:	650060ef          	jal	1000e36c <__fixdfsi>
10007d20:	00100793          	li	a5,1
10007d24:	00350593          	addi	a1,a0,3
10007d28:	04f12023          	sw	a5,64(sp)
10007d2c:	fff00793          	li	a5,-1
10007d30:	00058693          	mv	a3,a1
10007d34:	00012c23          	sw	zero,24(sp)
10007d38:	04f12a23          	sw	a5,84(sp)
10007d3c:	02f12a23          	sw	a5,52(sp)
10007d40:	a51ff06f          	j	10007790 <__gdtoa+0x394>
10007d44:	02812783          	lw	a5,40(sp)
10007d48:	00300693          	li	a3,3
10007d4c:	40f687b3          	sub	a5,a3,a5
10007d50:	02f12423          	sw	a5,40(sp)
10007d54:	03412783          	lw	a5,52(sp)
10007d58:	00e00693          	li	a3,14
10007d5c:	a6f6e2e3          	bltu	a3,a5,100077c0 <__gdtoa+0x3c4>
10007d60:	a60a00e3          	beqz	s4,100077c0 <__gdtoa+0x3c4>
10007d64:	03c12703          	lw	a4,60(sp)
10007d68:	02812683          	lw	a3,40(sp)
10007d6c:	00d766b3          	or	a3,a4,a3
10007d70:	a40698e3          	bnez	a3,100077c0 <__gdtoa+0x3c4>
10007d74:	05012703          	lw	a4,80(sp)
10007d78:	08012623          	sw	zero,140(sp)
10007d7c:	05312c23          	sw	s3,88(sp)
10007d80:	04412b03          	lw	s6,68(sp)
10007d84:	02070263          	beqz	a4,10007da8 <__gdtoa+0x9ac>
10007d88:	8301a603          	lw	a2,-2000(gp) # 10012070 <__SDATA_BEGIN__+0x30>
10007d8c:	8341a683          	lw	a3,-1996(gp) # 10012074 <__SDATA_BEGIN__+0x34>
10007d90:	000b0513          	mv	a0,s6
10007d94:	00098593          	mv	a1,s3
10007d98:	03e12423          	sw	t5,40(sp)
10007d9c:	75c050ef          	jal	1000d4f8 <__ledf2>
10007da0:	02812f03          	lw	t5,40(sp)
10007da4:	66054ce3          	bltz	a0,10008c1c <__gdtoa+0x1820>
10007da8:	04412783          	lw	a5,68(sp)
10007dac:	03e12423          	sw	t5,40(sp)
10007db0:	00078613          	mv	a2,a5
10007db4:	00078513          	mv	a0,a5
10007db8:	05812783          	lw	a5,88(sp)
10007dbc:	00078693          	mv	a3,a5
10007dc0:	00078593          	mv	a1,a5
10007dc4:	75c040ef          	jal	1000c520 <__adddf3>
10007dc8:	8481a603          	lw	a2,-1976(gp) # 10012088 <__SDATA_BEGIN__+0x48>
10007dcc:	84c1a683          	lw	a3,-1972(gp) # 1001208c <__SDATA_BEGIN__+0x4c>
10007dd0:	750040ef          	jal	1000c520 <__adddf3>
10007dd4:	fcc007b7          	lui	a5,0xfcc00
10007dd8:	00b78a33          	add	s4,a5,a1
10007ddc:	03412783          	lw	a5,52(sp)
10007de0:	02812f03          	lw	t5,40(sp)
10007de4:	00050713          	mv	a4,a0
10007de8:	280782e3          	beqz	a5,1000886c <__gdtoa+0x1470>
10007dec:	03412783          	lw	a5,52(sp)
10007df0:	04412e83          	lw	t4,68(sp)
10007df4:	05812803          	lw	a6,88(sp)
10007df8:	06012023          	sw	zero,96(sp)
10007dfc:	04f12e23          	sw	a5,92(sp)
10007e00:	05c12683          	lw	a3,92(sp)
10007e04:	100117b7          	lui	a5,0x10011
10007e08:	04012583          	lw	a1,64(sp)
10007e0c:	fff68693          	addi	a3,a3,-1
10007e10:	60078613          	addi	a2,a5,1536 # 10011600 <__mprec_tens>
10007e14:	00369693          	slli	a3,a3,0x3
10007e18:	00c686b3          	add	a3,a3,a2
10007e1c:	07012223          	sw	a6,100(sp)
10007e20:	03d12423          	sw	t4,40(sp)
10007e24:	0006a603          	lw	a2,0(a3)
10007e28:	0046a683          	lw	a3,4(a3)
10007e2c:	42058ce3          	beqz	a1,10008a64 <__gdtoa+0x1668>
10007e30:	8581a503          	lw	a0,-1960(gp) # 10012098 <__SDATA_BEGIN__+0x58>
10007e34:	85c1a583          	lw	a1,-1956(gp) # 1001209c <__SDATA_BEGIN__+0x5c>
10007e38:	06f12e23          	sw	a5,124(sp)
10007e3c:	001f0b13          	addi	s6,t5,1
10007e40:	07e12a23          	sw	t5,116(sp)
10007e44:	04e12423          	sw	a4,72(sp)
10007e48:	66d040ef          	jal	1000ccb4 <__divdf3>
10007e4c:	04812703          	lw	a4,72(sp)
10007e50:	000a0693          	mv	a3,s4
10007e54:	00070613          	mv	a2,a4
10007e58:	56d050ef          	jal	1000dbc4 <__subdf3>
10007e5c:	02812e83          	lw	t4,40(sp)
10007e60:	06412803          	lw	a6,100(sp)
10007e64:	00050613          	mv	a2,a0
10007e68:	00058693          	mv	a3,a1
10007e6c:	000e8513          	mv	a0,t4
10007e70:	00080593          	mv	a1,a6
10007e74:	07d12423          	sw	t4,104(sp)
10007e78:	05012423          	sw	a6,72(sp)
10007e7c:	06c12623          	sw	a2,108(sp)
10007e80:	06d12823          	sw	a3,112(sp)
10007e84:	4e8060ef          	jal	1000e36c <__fixdfsi>
10007e88:	02a12423          	sw	a0,40(sp)
10007e8c:	560060ef          	jal	1000e3ec <__floatsidf>
10007e90:	06812e83          	lw	t4,104(sp)
10007e94:	04812803          	lw	a6,72(sp)
10007e98:	00050613          	mv	a2,a0
10007e9c:	00058693          	mv	a3,a1
10007ea0:	000e8513          	mv	a0,t4
10007ea4:	00080593          	mv	a1,a6
10007ea8:	51d050ef          	jal	1000dbc4 <__subdf3>
10007eac:	02812e03          	lw	t3,40(sp)
10007eb0:	07412f03          	lw	t5,116(sp)
10007eb4:	00050613          	mv	a2,a0
10007eb8:	00058693          	mv	a3,a1
10007ebc:	00050a13          	mv	s4,a0
10007ec0:	00058993          	mv	s3,a1
10007ec4:	06c12503          	lw	a0,108(sp)
10007ec8:	07012583          	lw	a1,112(sp)
10007ecc:	030e0e13          	addi	t3,t3,48
10007ed0:	01cf0023          	sb	t3,0(t5)
10007ed4:	03e12423          	sw	t5,40(sp)
10007ed8:	544050ef          	jal	1000d41c <__gedf2>
10007edc:	02812f03          	lw	t5,40(sp)
10007ee0:	68a042e3          	bgtz	a0,10008d64 <__gdtoa+0x1968>
10007ee4:	8301a783          	lw	a5,-2000(gp) # 10012070 <__SDATA_BEGIN__+0x30>
10007ee8:	8341a803          	lw	a6,-1996(gp) # 10012074 <__SDATA_BEGIN__+0x34>
10007eec:	04f12423          	sw	a5,72(sp)
10007ef0:	05012623          	sw	a6,76(sp)
10007ef4:	8381a783          	lw	a5,-1992(gp) # 10012078 <__SDATA_BEGIN__+0x38>
10007ef8:	83c1a803          	lw	a6,-1988(gp) # 1001207c <__SDATA_BEGIN__+0x3c>
10007efc:	06912223          	sw	s1,100(sp)
10007f00:	07712a23          	sw	s7,116(sp)
10007f04:	07812c23          	sw	s8,120(sp)
10007f08:	06c12483          	lw	s1,108(sp)
10007f0c:	05c12c03          	lw	s8,92(sp)
10007f10:	07012b83          	lw	s7,112(sp)
10007f14:	02f12423          	sw	a5,40(sp)
10007f18:	03012623          	sw	a6,44(sp)
10007f1c:	05e12e23          	sw	t5,92(sp)
10007f20:	06812423          	sw	s0,104(sp)
10007f24:	0800006f          	j	10007fa4 <__gdtoa+0xba8>
10007f28:	08c12783          	lw	a5,140(sp)
10007f2c:	00178793          	addi	a5,a5,1
10007f30:	08f12623          	sw	a5,140(sp)
10007f34:	6b87d6e3          	bge	a5,s8,10008de0 <__gdtoa+0x19e4>
10007f38:	69c050ef          	jal	1000d5d4 <__muldf3>
10007f3c:	02812603          	lw	a2,40(sp)
10007f40:	02c12683          	lw	a3,44(sp)
10007f44:	00050493          	mv	s1,a0
10007f48:	00058b93          	mv	s7,a1
10007f4c:	000a0513          	mv	a0,s4
10007f50:	00098593          	mv	a1,s3
10007f54:	680050ef          	jal	1000d5d4 <__muldf3>
10007f58:	00058a13          	mv	s4,a1
10007f5c:	00050413          	mv	s0,a0
10007f60:	40c060ef          	jal	1000e36c <__fixdfsi>
10007f64:	00050993          	mv	s3,a0
10007f68:	484060ef          	jal	1000e3ec <__floatsidf>
10007f6c:	00050613          	mv	a2,a0
10007f70:	00058693          	mv	a3,a1
10007f74:	00040513          	mv	a0,s0
10007f78:	000a0593          	mv	a1,s4
10007f7c:	449050ef          	jal	1000dbc4 <__subdf3>
10007f80:	03098793          	addi	a5,s3,48
10007f84:	00048613          	mv	a2,s1
10007f88:	000b8693          	mv	a3,s7
10007f8c:	00fb0023          	sb	a5,0(s6)
10007f90:	001b0b13          	addi	s6,s6,1
10007f94:	00050a13          	mv	s4,a0
10007f98:	00058993          	mv	s3,a1
10007f9c:	55c050ef          	jal	1000d4f8 <__ledf2>
10007fa0:	5a054ce3          	bltz	a0,10008d58 <__gdtoa+0x195c>
10007fa4:	04812503          	lw	a0,72(sp)
10007fa8:	04c12583          	lw	a1,76(sp)
10007fac:	000a0613          	mv	a2,s4
10007fb0:	00098693          	mv	a3,s3
10007fb4:	411050ef          	jal	1000dbc4 <__subdf3>
10007fb8:	00050613          	mv	a2,a0
10007fbc:	00058693          	mv	a3,a1
10007fc0:	00048513          	mv	a0,s1
10007fc4:	000b8593          	mv	a1,s7
10007fc8:	454050ef          	jal	1000d41c <__gedf2>
10007fcc:	00050793          	mv	a5,a0
10007fd0:	02812603          	lw	a2,40(sp)
10007fd4:	02c12683          	lw	a3,44(sp)
10007fd8:	00048513          	mv	a0,s1
10007fdc:	000b8593          	mv	a1,s7
10007fe0:	f4f054e3          	blez	a5,10007f28 <__gdtoa+0xb2c>
10007fe4:	06012783          	lw	a5,96(sp)
10007fe8:	06412483          	lw	s1,100(sp)
10007fec:	05c12f03          	lw	t5,92(sp)
10007ff0:	06812403          	lw	s0,104(sp)
10007ff4:	fffb4b83          	lbu	s7,-1(s6)
10007ff8:	00178d93          	addi	s11,a5,1
10007ffc:	03900693          	li	a3,57
10008000:	0100006f          	j	10008010 <__gdtoa+0xc14>
10008004:	24ff0ae3          	beq	t5,a5,10008a58 <__gdtoa+0x165c>
10008008:	fff7cb83          	lbu	s7,-1(a5)
1000800c:	00078b13          	mv	s6,a5
10008010:	fffb0793          	addi	a5,s6,-1
10008014:	fedb88e3          	beq	s7,a3,10008004 <__gdtoa+0xc08>
10008018:	001b8693          	addi	a3,s7,1
1000801c:	0ff6f693          	zext.b	a3,a3
10008020:	00d78023          	sb	a3,0(a5)
10008024:	000d8b93          	mv	s7,s11
10008028:	02000c93          	li	s9,32
1000802c:	2100006f          	j	1000823c <__gdtoa+0xe40>
10008030:	0c812403          	lw	s0,200(sp)
10008034:	0c412483          	lw	s1,196(sp)
10008038:	0c012903          	lw	s2,192(sp)
1000803c:	0b412a83          	lw	s5,180(sp)
10008040:	0ac12b83          	lw	s7,172(sp)
10008044:	09c12d83          	lw	s11,156(sp)
10008048:	00000f13          	li	t5,0
1000804c:	bb1ff06f          	j	10007bfc <__gdtoa+0x800>
10008050:	00100693          	li	a3,1
10008054:	414687b3          	sub	a5,a3,s4
10008058:	02f12823          	sw	a5,48(sp)
1000805c:	02012023          	sw	zero,32(sp)
10008060:	c4dff06f          	j	10007cac <__gdtoa+0x8b0>
10008064:	03812b03          	lw	s6,56(sp)
10008068:	03012a03          	lw	s4,48(sp)
1000806c:	00000993          	li	s3,0
10008070:	ffcff06f          	j	1000786c <__gdtoa+0x470>
10008074:	00200793          	li	a5,2
10008078:	02f12423          	sw	a5,40(sp)
1000807c:	f3cff06f          	j	100077b8 <__gdtoa+0x3bc>
10008080:	01c12783          	lw	a5,28(sp)
10008084:	04012823          	sw	zero,80(sp)
10008088:	fff78793          	addi	a5,a5,-1
1000808c:	00f12e23          	sw	a5,28(sp)
10008090:	c11ff06f          	j	10007ca0 <__gdtoa+0x8a4>
10008094:	ffc78793          	addi	a5,a5,-4
10008098:	00f12823          	sw	a5,16(sp)
1000809c:	00400613          	li	a2,4
100080a0:	22c78863          	beq	a5,a2,100082d0 <__gdtoa+0xed4>
100080a4:	6ed78063          	beq	a5,a3,10008784 <__gdtoa+0x1388>
100080a8:	00200693          	li	a3,2
100080ac:	04012023          	sw	zero,64(sp)
100080b0:	00000a13          	li	s4,0
100080b4:	22d78463          	beq	a5,a3,100082dc <__gdtoa+0xee0>
100080b8:	00300793          	li	a5,3
100080bc:	00f12823          	sw	a5,16(sp)
100080c0:	eacff06f          	j	1000776c <__gdtoa+0x370>
100080c4:	100116b7          	lui	a3,0x10011
100080c8:	00379793          	slli	a5,a5,0x3
100080cc:	60068693          	addi	a3,a3,1536 # 10011600 <__mprec_tens>
100080d0:	00d787b3          	add	a5,a5,a3
100080d4:	0007aa03          	lw	s4,0(a5)
100080d8:	0047aa83          	lw	s5,4(a5)
100080dc:	01812783          	lw	a5,24(sp)
100080e0:	5407c263          	bltz	a5,10008624 <__gdtoa+0x1228>
100080e4:	04812b03          	lw	s6,72(sp)
100080e8:	00100793          	li	a5,1
100080ec:	000a0613          	mv	a2,s4
100080f0:	000a8693          	mv	a3,s5
100080f4:	000b0513          	mv	a0,s6
100080f8:	00098593          	mv	a1,s3
100080fc:	01e12823          	sw	t5,16(sp)
10008100:	08f12623          	sw	a5,140(sp)
10008104:	3b1040ef          	jal	1000ccb4 <__divdf3>
10008108:	264060ef          	jal	1000e36c <__fixdfsi>
1000810c:	00050913          	mv	s2,a0
10008110:	2dc060ef          	jal	1000e3ec <__floatsidf>
10008114:	000a0613          	mv	a2,s4
10008118:	000a8693          	mv	a3,s5
1000811c:	4b8050ef          	jal	1000d5d4 <__muldf3>
10008120:	00050613          	mv	a2,a0
10008124:	00058693          	mv	a3,a1
10008128:	000b0513          	mv	a0,s6
1000812c:	00098593          	mv	a1,s3
10008130:	295050ef          	jal	1000dbc4 <__subdf3>
10008134:	01012f03          	lw	t5,16(sp)
10008138:	03c12703          	lw	a4,60(sp)
1000813c:	03090793          	addi	a5,s2,48
10008140:	00ff0023          	sb	a5,0(t5)
10008144:	00000613          	li	a2,0
10008148:	00000693          	li	a3,0
1000814c:	00170d93          	addi	s11,a4,1
10008150:	001f0b13          	addi	s6,t5,1
10008154:	00050c13          	mv	s8,a0
10008158:	00058993          	mv	s3,a1
1000815c:	234050ef          	jal	1000d390 <__eqdf2>
10008160:	01012f03          	lw	t5,16(sp)
10008164:	000d8b93          	mv	s7,s11
10008168:	0c050a63          	beqz	a0,1000823c <__gdtoa+0xe40>
1000816c:	83c1a803          	lw	a6,-1988(gp) # 1001207c <__SDATA_BEGIN__+0x3c>
10008170:	8381a783          	lw	a5,-1992(gp) # 10012078 <__SDATA_BEGIN__+0x38>
10008174:	01912e23          	sw	s9,28(sp)
10008178:	01b12c23          	sw	s11,24(sp)
1000817c:	03412c83          	lw	s9,52(sp)
10008180:	000c0d93          	mv	s11,s8
10008184:	00f12823          	sw	a5,16(sp)
10008188:	00098c13          	mv	s8,s3
1000818c:	01012a23          	sw	a6,20(sp)
10008190:	000f0993          	mv	s3,t5
10008194:	0700006f          	j	10008204 <__gdtoa+0xe08>
10008198:	09112623          	sw	a7,140(sp)
1000819c:	438050ef          	jal	1000d5d4 <__muldf3>
100081a0:	000a0613          	mv	a2,s4
100081a4:	000a8693          	mv	a3,s5
100081a8:	00050d93          	mv	s11,a0
100081ac:	00058c13          	mv	s8,a1
100081b0:	305040ef          	jal	1000ccb4 <__divdf3>
100081b4:	1b8060ef          	jal	1000e36c <__fixdfsi>
100081b8:	00050913          	mv	s2,a0
100081bc:	230060ef          	jal	1000e3ec <__floatsidf>
100081c0:	000a0613          	mv	a2,s4
100081c4:	000a8693          	mv	a3,s5
100081c8:	40c050ef          	jal	1000d5d4 <__muldf3>
100081cc:	00050613          	mv	a2,a0
100081d0:	00058693          	mv	a3,a1
100081d4:	000d8513          	mv	a0,s11
100081d8:	000c0593          	mv	a1,s8
100081dc:	1e9050ef          	jal	1000dbc4 <__subdf3>
100081e0:	001b0b13          	addi	s6,s6,1
100081e4:	03090793          	addi	a5,s2,48
100081e8:	fefb0fa3          	sb	a5,-1(s6)
100081ec:	00000613          	li	a2,0
100081f0:	00000693          	li	a3,0
100081f4:	00050d93          	mv	s11,a0
100081f8:	00058c13          	mv	s8,a1
100081fc:	194050ef          	jal	1000d390 <__eqdf2>
10008200:	40050c63          	beqz	a0,10008618 <__gdtoa+0x121c>
10008204:	08c12803          	lw	a6,140(sp)
10008208:	01012603          	lw	a2,16(sp)
1000820c:	01412683          	lw	a3,20(sp)
10008210:	000d8513          	mv	a0,s11
10008214:	000c0593          	mv	a1,s8
10008218:	00180893          	addi	a7,a6,1
1000821c:	f7981ee3          	bne	a6,s9,10008198 <__gdtoa+0xd9c>
10008220:	02812703          	lw	a4,40(sp)
10008224:	01812d83          	lw	s11,24(sp)
10008228:	00098f13          	mv	t5,s3
1000822c:	7a070a63          	beqz	a4,100089e0 <__gdtoa+0x15e4>
10008230:	00100793          	li	a5,1
10008234:	01000c93          	li	s9,16
10008238:	1cf70ee3          	beq	a4,a5,10008c14 <__gdtoa+0x1818>
1000823c:	00048593          	mv	a1,s1
10008240:	00040513          	mv	a0,s0
10008244:	01e12823          	sw	t5,16(sp)
10008248:	234010ef          	jal	1000947c <_Bfree>
1000824c:	00812783          	lw	a5,8(sp)
10008250:	000b0023          	sb	zero,0(s6)
10008254:	01012f03          	lw	t5,16(sp)
10008258:	0177a023          	sw	s7,0(a5)
1000825c:	00c12783          	lw	a5,12(sp)
10008260:	00078463          	beqz	a5,10008268 <__gdtoa+0xe6c>
10008264:	0167a023          	sw	s6,0(a5)
10008268:	000d2783          	lw	a5,0(s10)
1000826c:	0c812403          	lw	s0,200(sp)
10008270:	0c412483          	lw	s1,196(sp)
10008274:	0197e7b3          	or	a5,a5,s9
10008278:	0c012903          	lw	s2,192(sp)
1000827c:	0bc12983          	lw	s3,188(sp)
10008280:	0b812a03          	lw	s4,184(sp)
10008284:	0b412a83          	lw	s5,180(sp)
10008288:	0ac12b83          	lw	s7,172(sp)
1000828c:	0a812c03          	lw	s8,168(sp)
10008290:	09c12d83          	lw	s11,156(sp)
10008294:	00fd2023          	sw	a5,0(s10)
10008298:	965ff06f          	j	10007bfc <__gdtoa+0x800>
1000829c:	e6dc1663          	bne	s8,a3,10007908 <__gdtoa+0x50c>
100082a0:	004da783          	lw	a5,4(s11)
100082a4:	00178793          	addi	a5,a5,1
100082a8:	e757d063          	bge	a5,s5,10007908 <__gdtoa+0x50c>
100082ac:	03012783          	lw	a5,48(sp)
100082b0:	00178793          	addi	a5,a5,1
100082b4:	02f12823          	sw	a5,48(sp)
100082b8:	02012783          	lw	a5,32(sp)
100082bc:	00178793          	addi	a5,a5,1
100082c0:	02f12023          	sw	a5,32(sp)
100082c4:	00100793          	li	a5,1
100082c8:	00f12e23          	sw	a5,28(sp)
100082cc:	e3cff06f          	j	10007908 <__gdtoa+0x50c>
100082d0:	00100793          	li	a5,1
100082d4:	00000a13          	li	s4,0
100082d8:	04f12023          	sw	a5,64(sp)
100082dc:	01812583          	lw	a1,24(sp)
100082e0:	00b04463          	bgtz	a1,100082e8 <__gdtoa+0xeec>
100082e4:	00100593          	li	a1,1
100082e8:	00058693          	mv	a3,a1
100082ec:	04b12a23          	sw	a1,84(sp)
100082f0:	02b12a23          	sw	a1,52(sp)
100082f4:	00b12c23          	sw	a1,24(sp)
100082f8:	c98ff06f          	j	10007790 <__gdtoa+0x394>
100082fc:	1a4010ef          	jal	100094a0 <__multadd>
10008300:	00050993          	mv	s3,a0
10008304:	960500e3          	beqz	a0,10007c64 <__gdtoa+0x868>
10008308:	00050a13          	mv	s4,a0
1000830c:	f1cff06f          	j	10007a28 <__gdtoa+0x62c>
10008310:	ea0ad663          	bgez	s5,100079bc <__gdtoa+0x5c0>
10008314:	02812783          	lw	a5,40(sp)
10008318:	01812f03          	lw	t5,24(sp)
1000831c:	01c12d03          	lw	s10,28(sp)
10008320:	00070c93          	mv	s9,a4
10008324:	3a079ee3          	bnez	a5,10008ee0 <__gdtoa+0x1ae4>
10008328:	0104a683          	lw	a3,16(s1)
1000832c:	00100793          	li	a5,1
10008330:	01000c93          	li	s9,16
10008334:	001c0913          	addi	s2,s8,1
10008338:	34d7d0e3          	bge	a5,a3,10008e78 <__gdtoa+0x1a7c>
1000833c:	00098a93          	mv	s5,s3
10008340:	00090b13          	mv	s6,s2
10008344:	01bc0023          	sb	s11,0(s8)
10008348:	000a0993          	mv	s3,s4
1000834c:	000b8593          	mv	a1,s7
10008350:	00040513          	mv	a0,s0
10008354:	01e12823          	sw	t5,16(sp)
10008358:	124010ef          	jal	1000947c <_Bfree>
1000835c:	03c12783          	lw	a5,60(sp)
10008360:	01012f03          	lw	t5,16(sp)
10008364:	00178b93          	addi	s7,a5,1
10008368:	ec098ae3          	beqz	s3,1000823c <__gdtoa+0xe40>
1000836c:	000a8c63          	beqz	s5,10008384 <__gdtoa+0xf88>
10008370:	013a8a63          	beq	s5,s3,10008384 <__gdtoa+0xf88>
10008374:	000a8593          	mv	a1,s5
10008378:	00040513          	mv	a0,s0
1000837c:	100010ef          	jal	1000947c <_Bfree>
10008380:	01012f03          	lw	t5,16(sp)
10008384:	00098593          	mv	a1,s3
10008388:	00040513          	mv	a0,s0
1000838c:	01e12823          	sw	t5,16(sp)
10008390:	0ec010ef          	jal	1000947c <_Bfree>
10008394:	01012f03          	lw	t5,16(sp)
10008398:	ea5ff06f          	j	1000823c <__gdtoa+0xe40>
1000839c:	00048593          	mv	a1,s1
100083a0:	00040513          	mv	a0,s0
100083a4:	03e12223          	sw	t5,36(sp)
100083a8:	7d0010ef          	jal	10009b78 <__lshift>
100083ac:	00050493          	mv	s1,a0
100083b0:	8a050ae3          	beqz	a0,10007c64 <__gdtoa+0x868>
100083b4:	08c12783          	lw	a5,140(sp)
100083b8:	02412f03          	lw	t5,36(sp)
100083bc:	d74ff06f          	j	10007930 <__gdtoa+0x534>
100083c0:	000b8593          	mv	a1,s7
100083c4:	00048513          	mv	a0,s1
100083c8:	03e12023          	sw	t5,32(sp)
100083cc:	13d010ef          	jal	10009d08 <__mcmp>
100083d0:	02012f03          	lw	t5,32(sp)
100083d4:	d6055863          	bgez	a0,10007944 <__gdtoa+0x548>
100083d8:	03c12783          	lw	a5,60(sp)
100083dc:	00048593          	mv	a1,s1
100083e0:	00000693          	li	a3,0
100083e4:	fff78793          	addi	a5,a5,-1
100083e8:	00a00613          	li	a2,10
100083ec:	00040513          	mv	a0,s0
100083f0:	02f12e23          	sw	a5,60(sp)
100083f4:	0ac010ef          	jal	100094a0 <__multadd>
100083f8:	00050493          	mv	s1,a0
100083fc:	860504e3          	beqz	a0,10007c64 <__gdtoa+0x868>
10008400:	04012783          	lw	a5,64(sp)
10008404:	02012f03          	lw	t5,32(sp)
10008408:	100792e3          	bnez	a5,10008d0c <__gdtoa+0x1910>
1000840c:	05412783          	lw	a5,84(sp)
10008410:	1ef05863          	blez	a5,10008600 <__gdtoa+0x1204>
10008414:	02f12a23          	sw	a5,52(sp)
10008418:	03412903          	lw	s2,52(sp)
1000841c:	000f0c13          	mv	s8,t5
10008420:	00100793          	li	a5,1
10008424:	000f0a13          	mv	s4,t5
10008428:	0180006f          	j	10008440 <__gdtoa+0x1044>
1000842c:	074010ef          	jal	100094a0 <__multadd>
10008430:	00050493          	mv	s1,a0
10008434:	820508e3          	beqz	a0,10007c64 <__gdtoa+0x868>
10008438:	08c12783          	lw	a5,140(sp)
1000843c:	00178793          	addi	a5,a5,1
10008440:	000b8593          	mv	a1,s7
10008444:	00048513          	mv	a0,s1
10008448:	08f12623          	sw	a5,140(sp)
1000844c:	43d000ef          	jal	10009088 <__quorem_D2A>
10008450:	03050d93          	addi	s11,a0,48
10008454:	01bc0023          	sb	s11,0(s8)
10008458:	08c12783          	lw	a5,140(sp)
1000845c:	00000693          	li	a3,0
10008460:	00a00613          	li	a2,10
10008464:	00048593          	mv	a1,s1
10008468:	00040513          	mv	a0,s0
1000846c:	001c0c13          	addi	s8,s8,1
10008470:	fb27cee3          	blt	a5,s2,1000842c <__gdtoa+0x1030>
10008474:	000a0f13          	mv	t5,s4
10008478:	00000a93          	li	s5,0
1000847c:	02812703          	lw	a4,40(sp)
10008480:	48070463          	beqz	a4,10008908 <__gdtoa+0x150c>
10008484:	00200793          	li	a5,2
10008488:	0104a683          	lw	a3,16(s1)
1000848c:	4af70a63          	beq	a4,a5,10008940 <__gdtoa+0x1544>
10008490:	00100793          	li	a5,1
10008494:	2ad7c263          	blt	a5,a3,10008738 <__gdtoa+0x133c>
10008498:	0144a783          	lw	a5,20(s1)
1000849c:	28079e63          	bnez	a5,10008738 <__gdtoa+0x133c>
100084a0:	00f037b3          	snez	a5,a5
100084a4:	00479c93          	slli	s9,a5,0x4
100084a8:	03000693          	li	a3,48
100084ac:	fffc4783          	lbu	a5,-1(s8)
100084b0:	000c0b13          	mv	s6,s8
100084b4:	fffc0c13          	addi	s8,s8,-1
100084b8:	fed78ae3          	beq	a5,a3,100084ac <__gdtoa+0x10b0>
100084bc:	e91ff06f          	j	1000834c <__gdtoa+0xf50>
100084c0:	03412783          	lw	a5,52(sp)
100084c4:	03812703          	lw	a4,56(sp)
100084c8:	fff78693          	addi	a3,a5,-1
100084cc:	1ad74863          	blt	a4,a3,1000867c <__gdtoa+0x1280>
100084d0:	40d70b33          	sub	s6,a4,a3
100084d4:	7c07d263          	bgez	a5,10008c98 <__gdtoa+0x189c>
100084d8:	03012783          	lw	a5,48(sp)
100084dc:	03412703          	lw	a4,52(sp)
100084e0:	08012623          	sw	zero,140(sp)
100084e4:	40e78a33          	sub	s4,a5,a4
100084e8:	b68ff06f          	j	10007850 <__gdtoa+0x454>
100084ec:	01012703          	lw	a4,16(sp)
100084f0:	00200793          	li	a5,2
100084f4:	c4e7dc63          	bge	a5,a4,1000794c <__gdtoa+0x550>
100084f8:	000b8593          	mv	a1,s7
100084fc:	00000693          	li	a3,0
10008500:	00500613          	li	a2,5
10008504:	00040513          	mv	a0,s0
10008508:	01e12823          	sw	t5,16(sp)
1000850c:	795000ef          	jal	100094a0 <__multadd>
10008510:	00050593          	mv	a1,a0
10008514:	f4050863          	beqz	a0,10007c64 <__gdtoa+0x868>
10008518:	03412783          	lw	a5,52(sp)
1000851c:	01012f03          	lw	t5,16(sp)
10008520:	14079463          	bnez	a5,10008668 <__gdtoa+0x126c>
10008524:	00a12823          	sw	a0,16(sp)
10008528:	00048513          	mv	a0,s1
1000852c:	01e12e23          	sw	t5,28(sp)
10008530:	7d8010ef          	jal	10009d08 <__mcmp>
10008534:	01012583          	lw	a1,16(sp)
10008538:	01c12f03          	lw	t5,28(sp)
1000853c:	12a05663          	blez	a0,10008668 <__gdtoa+0x126c>
10008540:	03c12783          	lw	a5,60(sp)
10008544:	00278b93          	addi	s7,a5,2
10008548:	03100793          	li	a5,49
1000854c:	001f0b13          	addi	s6,t5,1
10008550:	00ff0023          	sb	a5,0(t5)
10008554:	02000c93          	li	s9,32
10008558:	00040513          	mv	a0,s0
1000855c:	01e12823          	sw	t5,16(sp)
10008560:	71d000ef          	jal	1000947c <_Bfree>
10008564:	01012f03          	lw	t5,16(sp)
10008568:	cc098ae3          	beqz	s3,1000823c <__gdtoa+0xe40>
1000856c:	e19ff06f          	j	10008384 <__gdtoa+0xf88>
10008570:	00100693          	li	a3,1
10008574:	00100593          	li	a1,1
10008578:	a18ff06f          	j	10007790 <__gdtoa+0x394>
1000857c:	00050593          	mv	a1,a0
10008580:	00078613          	mv	a2,a5
10008584:	00040513          	mv	a0,s0
10008588:	4a0010ef          	jal	10009a28 <__pow5mult>
1000858c:	00050b93          	mv	s7,a0
10008590:	ec050a63          	beqz	a0,10007c64 <__gdtoa+0x868>
10008594:	01012783          	lw	a5,16(sp)
10008598:	00100693          	li	a3,1
1000859c:	02412f03          	lw	t5,36(sp)
100085a0:	20f6da63          	bge	a3,a5,100087b4 <__gdtoa+0x13b8>
100085a4:	010ba783          	lw	a5,16(s7)
100085a8:	03e12223          	sw	t5,36(sp)
100085ac:	00378793          	addi	a5,a5,3
100085b0:	00279793          	slli	a5,a5,0x2
100085b4:	00fb87b3          	add	a5,s7,a5
100085b8:	0047a503          	lw	a0,4(a5)
100085bc:	030010ef          	jal	100095ec <__hi0bits>
100085c0:	02412f03          	lw	t5,36(sp)
100085c4:	00050a93          	mv	s5,a0
100085c8:	01912e23          	sw	s9,28(sp)
100085cc:	b40ff06f          	j	1000790c <__gdtoa+0x510>
100085d0:	01012783          	lw	a5,16(sp)
100085d4:	00100693          	li	a3,1
100085d8:	eef6c4e3          	blt	a3,a5,100084c0 <__gdtoa+0x10c4>
100085dc:	03012783          	lw	a5,48(sp)
100085e0:	02012703          	lw	a4,32(sp)
100085e4:	03812b03          	lw	s6,56(sp)
100085e8:	00078a13          	mv	s4,a5
100085ec:	00c70733          	add	a4,a4,a2
100085f0:	00f607b3          	add	a5,a2,a5
100085f4:	02e12023          	sw	a4,32(sp)
100085f8:	02f12823          	sw	a5,48(sp)
100085fc:	a54ff06f          	j	10007850 <__gdtoa+0x454>
10008600:	01012703          	lw	a4,16(sp)
10008604:	00200793          	li	a5,2
10008608:	08e7cce3          	blt	a5,a4,10008ea0 <__gdtoa+0x1aa4>
1000860c:	05412783          	lw	a5,84(sp)
10008610:	02f12a23          	sw	a5,52(sp)
10008614:	e05ff06f          	j	10008418 <__gdtoa+0x101c>
10008618:	01c12c83          	lw	s9,28(sp)
1000861c:	00098f13          	mv	t5,s3
10008620:	c1dff06f          	j	1000823c <__gdtoa+0xe40>
10008624:	03412783          	lw	a5,52(sp)
10008628:	aaf04ee3          	bgtz	a5,100080e4 <__gdtoa+0xce8>
1000862c:	02079a63          	bnez	a5,10008660 <__gdtoa+0x1264>
10008630:	8501a603          	lw	a2,-1968(gp) # 10012090 <__SDATA_BEGIN__+0x50>
10008634:	8541a683          	lw	a3,-1964(gp) # 10012094 <__SDATA_BEGIN__+0x54>
10008638:	000a0513          	mv	a0,s4
1000863c:	000a8593          	mv	a1,s5
10008640:	01e12823          	sw	t5,16(sp)
10008644:	791040ef          	jal	1000d5d4 <__muldf3>
10008648:	04812883          	lw	a7,72(sp)
1000864c:	00098693          	mv	a3,s3
10008650:	00088613          	mv	a2,a7
10008654:	5c9040ef          	jal	1000d41c <__gedf2>
10008658:	01012f03          	lw	t5,16(sp)
1000865c:	68054e63          	bltz	a0,10008cf8 <__gdtoa+0x18fc>
10008660:	00000593          	li	a1,0
10008664:	00000993          	li	s3,0
10008668:	01812783          	lw	a5,24(sp)
1000866c:	000f0b13          	mv	s6,t5
10008670:	01000c93          	li	s9,16
10008674:	40f00bb3          	neg	s7,a5
10008678:	ee1ff06f          	j	10008558 <__gdtoa+0x115c>
1000867c:	03812783          	lw	a5,56(sp)
10008680:	03012703          	lw	a4,48(sp)
10008684:	00000b13          	li	s6,0
10008688:	40f68633          	sub	a2,a3,a5
1000868c:	01c12783          	lw	a5,28(sp)
10008690:	00070a13          	mv	s4,a4
10008694:	02d12c23          	sw	a3,56(sp)
10008698:	00c787b3          	add	a5,a5,a2
1000869c:	00f12e23          	sw	a5,28(sp)
100086a0:	02012603          	lw	a2,32(sp)
100086a4:	03412783          	lw	a5,52(sp)
100086a8:	00f60633          	add	a2,a2,a5
100086ac:	08f12623          	sw	a5,140(sp)
100086b0:	00f707b3          	add	a5,a4,a5
100086b4:	02c12023          	sw	a2,32(sp)
100086b8:	02f12823          	sw	a5,48(sp)
100086bc:	994ff06f          	j	10007850 <__gdtoa+0x454>
100086c0:	00098593          	mv	a1,s3
100086c4:	000b0613          	mv	a2,s6
100086c8:	00040513          	mv	a0,s0
100086cc:	03e12223          	sw	t5,36(sp)
100086d0:	358010ef          	jal	10009a28 <__pow5mult>
100086d4:	00050993          	mv	s3,a0
100086d8:	d8050663          	beqz	a0,10007c64 <__gdtoa+0x868>
100086dc:	00050593          	mv	a1,a0
100086e0:	00048613          	mv	a2,s1
100086e4:	00040513          	mv	a0,s0
100086e8:	10c010ef          	jal	100097f4 <__multiply>
100086ec:	00050b93          	mv	s7,a0
100086f0:	d6050a63          	beqz	a0,10007c64 <__gdtoa+0x868>
100086f4:	00048593          	mv	a1,s1
100086f8:	00040513          	mv	a0,s0
100086fc:	581000ef          	jal	1000947c <_Bfree>
10008700:	03812783          	lw	a5,56(sp)
10008704:	02412f03          	lw	t5,36(sp)
10008708:	000b8493          	mv	s1,s7
1000870c:	416787b3          	sub	a5,a5,s6
10008710:	02f12c23          	sw	a5,56(sp)
10008714:	9c078263          	beqz	a5,100078d8 <__gdtoa+0x4dc>
10008718:	9a0ff06f          	j	100078b8 <__gdtoa+0x4bc>
1000871c:	00098a93          	mv	s5,s3
10008720:	000c0793          	mv	a5,s8
10008724:	001c0913          	addi	s2,s8,1
10008728:	000a0993          	mv	s3,s4
1000872c:	03900693          	li	a3,57
10008730:	00090c13          	mv	s8,s2
10008734:	00d78023          	sb	a3,0(a5)
10008738:	03900693          	li	a3,57
1000873c:	0080006f          	j	10008744 <__gdtoa+0x1348>
10008740:	218f0c63          	beq	t5,s8,10008958 <__gdtoa+0x155c>
10008744:	fffc4783          	lbu	a5,-1(s8)
10008748:	000c0b13          	mv	s6,s8
1000874c:	fffc0c13          	addi	s8,s8,-1
10008750:	fed788e3          	beq	a5,a3,10008740 <__gdtoa+0x1344>
10008754:	00178793          	addi	a5,a5,1
10008758:	00fc0023          	sb	a5,0(s8)
1000875c:	02000c93          	li	s9,32
10008760:	bedff06f          	j	1000834c <__gdtoa+0xf50>
10008764:	00098593          	mv	a1,s3
10008768:	00040513          	mv	a0,s0
1000876c:	01e12c23          	sw	t5,24(sp)
10008770:	408010ef          	jal	10009b78 <__lshift>
10008774:	01812f03          	lw	t5,24(sp)
10008778:	00050993          	mv	s3,a0
1000877c:	9e051063          	bnez	a0,1000795c <__gdtoa+0x560>
10008780:	ce4ff06f          	j	10007c64 <__gdtoa+0x868>
10008784:	00100793          	li	a5,1
10008788:	00000a13          	li	s4,0
1000878c:	04f12023          	sw	a5,64(sp)
10008790:	fddfe06f          	j	1000776c <__gdtoa+0x370>
10008794:	00100793          	li	a5,1
10008798:	04f12023          	sw	a5,64(sp)
1000879c:	fd1fe06f          	j	1000776c <__gdtoa+0x370>
100087a0:	00100793          	li	a5,1
100087a4:	04f12023          	sw	a5,64(sp)
100087a8:	b35ff06f          	j	100082dc <__gdtoa+0xee0>
100087ac:	04012023          	sw	zero,64(sp)
100087b0:	b2dff06f          	j	100082dc <__gdtoa+0xee0>
100087b4:	dedc18e3          	bne	s8,a3,100085a4 <__gdtoa+0x11a8>
100087b8:	004da783          	lw	a5,4(s11)
100087bc:	00178793          	addi	a5,a5,1
100087c0:	df57d2e3          	bge	a5,s5,100085a4 <__gdtoa+0x11a8>
100087c4:	03012783          	lw	a5,48(sp)
100087c8:	00100c93          	li	s9,1
100087cc:	00178793          	addi	a5,a5,1
100087d0:	02f12823          	sw	a5,48(sp)
100087d4:	02012783          	lw	a5,32(sp)
100087d8:	00178793          	addi	a5,a5,1
100087dc:	02f12023          	sw	a5,32(sp)
100087e0:	dc5ff06f          	j	100085a4 <__gdtoa+0x11a8>
100087e4:	0049a583          	lw	a1,4(s3)
100087e8:	00040513          	mv	a0,s0
100087ec:	01e12c23          	sw	t5,24(sp)
100087f0:	3d9000ef          	jal	100093c8 <_Balloc>
100087f4:	00050a13          	mv	s4,a0
100087f8:	c6050663          	beqz	a0,10007c64 <__gdtoa+0x868>
100087fc:	0109a603          	lw	a2,16(s3)
10008800:	00c98593          	addi	a1,s3,12
10008804:	00c50513          	addi	a0,a0,12
10008808:	00260613          	addi	a2,a2,2
1000880c:	00261613          	slli	a2,a2,0x2
10008810:	954fa0ef          	jal	10002964 <memcpy>
10008814:	000a0593          	mv	a1,s4
10008818:	00100613          	li	a2,1
1000881c:	00040513          	mv	a0,s0
10008820:	358010ef          	jal	10009b78 <__lshift>
10008824:	01812f03          	lw	t5,24(sp)
10008828:	00050a13          	mv	s4,a0
1000882c:	00050463          	beqz	a0,10008834 <__gdtoa+0x1438>
10008830:	938ff06f          	j	10007968 <__gdtoa+0x56c>
10008834:	c30ff06f          	j	10007c64 <__gdtoa+0x868>
10008838:	000b0613          	mv	a2,s6
1000883c:	00098693          	mv	a3,s3
10008840:	000b0513          	mv	a0,s6
10008844:	00098593          	mv	a1,s3
10008848:	03e12423          	sw	t5,40(sp)
1000884c:	4d5030ef          	jal	1000c520 <__adddf3>
10008850:	8481a603          	lw	a2,-1976(gp) # 10012088 <__SDATA_BEGIN__+0x48>
10008854:	84c1a683          	lw	a3,-1972(gp) # 1001208c <__SDATA_BEGIN__+0x4c>
10008858:	4c9030ef          	jal	1000c520 <__adddf3>
1000885c:	02812f03          	lw	t5,40(sp)
10008860:	fcc007b7          	lui	a5,0xfcc00
10008864:	00050713          	mv	a4,a0
10008868:	00b78a33          	add	s4,a5,a1
1000886c:	8501a603          	lw	a2,-1968(gp) # 10012090 <__SDATA_BEGIN__+0x50>
10008870:	04412503          	lw	a0,68(sp)
10008874:	8541a683          	lw	a3,-1964(gp) # 10012094 <__SDATA_BEGIN__+0x54>
10008878:	05812583          	lw	a1,88(sp)
1000887c:	03e12423          	sw	t5,40(sp)
10008880:	04e12423          	sw	a4,72(sp)
10008884:	340050ef          	jal	1000dbc4 <__subdf3>
10008888:	04812703          	lw	a4,72(sp)
1000888c:	000a0693          	mv	a3,s4
10008890:	00050993          	mv	s3,a0
10008894:	00070613          	mv	a2,a4
10008898:	00058b13          	mv	s6,a1
1000889c:	381040ef          	jal	1000d41c <__gedf2>
100088a0:	02812f03          	lw	t5,40(sp)
100088a4:	40a04c63          	bgtz	a0,10008cbc <__gdtoa+0x18c0>
100088a8:	04812703          	lw	a4,72(sp)
100088ac:	800008b7          	lui	a7,0x80000
100088b0:	0148c8b3          	xor	a7,a7,s4
100088b4:	00070613          	mv	a2,a4
100088b8:	00098513          	mv	a0,s3
100088bc:	00088693          	mv	a3,a7
100088c0:	000b0593          	mv	a1,s6
100088c4:	435040ef          	jal	1000d4f8 <__ledf2>
100088c8:	02812f03          	lw	t5,40(sp)
100088cc:	d8054ae3          	bltz	a0,10008660 <__gdtoa+0x1264>
100088d0:	04412783          	lw	a5,68(sp)
100088d4:	02412703          	lw	a4,36(sp)
100088d8:	05812983          	lw	s3,88(sp)
100088dc:	04f12423          	sw	a5,72(sp)
100088e0:	100117b7          	lui	a5,0x10011
100088e4:	4e074a63          	bltz	a4,10008dd8 <__gdtoa+0x19dc>
100088e8:	6007aa03          	lw	s4,1536(a5) # 10011600 <__mprec_tens>
100088ec:	6047aa83          	lw	s5,1540(a5)
100088f0:	01812783          	lw	a5,24(sp)
100088f4:	02012423          	sw	zero,40(sp)
100088f8:	fe07d663          	bgez	a5,100080e4 <__gdtoa+0xce8>
100088fc:	03412783          	lw	a5,52(sp)
10008900:	fe079263          	bnez	a5,100080e4 <__gdtoa+0xce8>
10008904:	d2dff06f          	j	10008630 <__gdtoa+0x1234>
10008908:	00048593          	mv	a1,s1
1000890c:	00100613          	li	a2,1
10008910:	00040513          	mv	a0,s0
10008914:	01e12823          	sw	t5,16(sp)
10008918:	260010ef          	jal	10009b78 <__lshift>
1000891c:	00050493          	mv	s1,a0
10008920:	b4050263          	beqz	a0,10007c64 <__gdtoa+0x868>
10008924:	000b8593          	mv	a1,s7
10008928:	3e0010ef          	jal	10009d08 <__mcmp>
1000892c:	01012f03          	lw	t5,16(sp)
10008930:	e0a044e3          	bgtz	a0,10008738 <__gdtoa+0x133c>
10008934:	00051663          	bnez	a0,10008940 <__gdtoa+0x1544>
10008938:	001dfd93          	andi	s11,s11,1
1000893c:	de0d9ee3          	bnez	s11,10008738 <__gdtoa+0x133c>
10008940:	0104a683          	lw	a3,16(s1)
10008944:	00100793          	li	a5,1
10008948:	01000c93          	li	s9,16
1000894c:	b4d7cee3          	blt	a5,a3,100084a8 <__gdtoa+0x10ac>
10008950:	0144a783          	lw	a5,20(s1)
10008954:	b4dff06f          	j	100084a0 <__gdtoa+0x10a4>
10008958:	03c12783          	lw	a5,60(sp)
1000895c:	02000c93          	li	s9,32
10008960:	00178793          	addi	a5,a5,1
10008964:	02f12e23          	sw	a5,60(sp)
10008968:	03100793          	li	a5,49
1000896c:	00ff0023          	sb	a5,0(t5)
10008970:	9ddff06f          	j	1000834c <__gdtoa+0xf50>
10008974:	02812783          	lw	a5,40(sp)
10008978:	01812f03          	lw	t5,24(sp)
1000897c:	01c12d03          	lw	s10,28(sp)
10008980:	00078e63          	beqz	a5,1000899c <__gdtoa+0x15a0>
10008984:	0104a683          	lw	a3,16(s1)
10008988:	00100793          	li	a5,1
1000898c:	94d7ca63          	blt	a5,a3,10007ae0 <__gdtoa+0x6e4>
10008990:	0144a783          	lw	a5,20(s1)
10008994:	00078463          	beqz	a5,1000899c <__gdtoa+0x15a0>
10008998:	948ff06f          	j	10007ae0 <__gdtoa+0x6e4>
1000899c:	00048593          	mv	a1,s1
100089a0:	00100613          	li	a2,1
100089a4:	00040513          	mv	a0,s0
100089a8:	01e12823          	sw	t5,16(sp)
100089ac:	1cc010ef          	jal	10009b78 <__lshift>
100089b0:	00050493          	mv	s1,a0
100089b4:	aa050863          	beqz	a0,10007c64 <__gdtoa+0x868>
100089b8:	000b8593          	mv	a1,s7
100089bc:	34c010ef          	jal	10009d08 <__mcmp>
100089c0:	01012f03          	lw	t5,16(sp)
100089c4:	4ca05263          	blez	a0,10008e88 <__gdtoa+0x1a8c>
100089c8:	03900793          	li	a5,57
100089cc:	d4fd88e3          	beq	s11,a5,1000871c <__gdtoa+0x1320>
100089d0:	02000793          	li	a5,32
100089d4:	031b0d93          	addi	s11,s6,49
100089d8:	02f12423          	sw	a5,40(sp)
100089dc:	94dff06f          	j	10008328 <__gdtoa+0xf2c>
100089e0:	00050613          	mv	a2,a0
100089e4:	00058693          	mv	a3,a1
100089e8:	01e12823          	sw	t5,16(sp)
100089ec:	335030ef          	jal	1000c520 <__adddf3>
100089f0:	000a0613          	mv	a2,s4
100089f4:	000a8693          	mv	a3,s5
100089f8:	00050c13          	mv	s8,a0
100089fc:	00058993          	mv	s3,a1
10008a00:	21d040ef          	jal	1000d41c <__gedf2>
10008a04:	fffb4b83          	lbu	s7,-1(s6)
10008a08:	01012f03          	lw	t5,16(sp)
10008a0c:	dea04863          	bgtz	a0,10007ffc <__gdtoa+0xc00>
10008a10:	000c0513          	mv	a0,s8
10008a14:	00098593          	mv	a1,s3
10008a18:	000a0613          	mv	a2,s4
10008a1c:	000a8693          	mv	a3,s5
10008a20:	171040ef          	jal	1000d390 <__eqdf2>
10008a24:	01012f03          	lw	t5,16(sp)
10008a28:	00051663          	bnez	a0,10008a34 <__gdtoa+0x1638>
10008a2c:	00197913          	andi	s2,s2,1
10008a30:	dc091663          	bnez	s2,10007ffc <__gdtoa+0xc00>
10008a34:	000b0793          	mv	a5,s6
10008a38:	01000c93          	li	s9,16
10008a3c:	03000613          	li	a2,48
10008a40:	fff7c703          	lbu	a4,-1(a5)
10008a44:	00078b13          	mv	s6,a5
10008a48:	fff78793          	addi	a5,a5,-1
10008a4c:	fec70ae3          	beq	a4,a2,10008a40 <__gdtoa+0x1644>
10008a50:	000d8b93          	mv	s7,s11
10008a54:	fe8ff06f          	j	1000823c <__gdtoa+0xe40>
10008a58:	03100693          	li	a3,49
10008a5c:	001d8d93          	addi	s11,s11,1
10008a60:	dc0ff06f          	j	10008020 <__gdtoa+0xc24>
10008a64:	00070513          	mv	a0,a4
10008a68:	000a0593          	mv	a1,s4
10008a6c:	06f12e23          	sw	a5,124(sp)
10008a70:	07e12823          	sw	t5,112(sp)
10008a74:	361040ef          	jal	1000d5d4 <__muldf3>
10008a78:	8381a783          	lw	a5,-1992(gp) # 10012078 <__SDATA_BEGIN__+0x38>
10008a7c:	07012f03          	lw	t5,112(sp)
10008a80:	83c1a803          	lw	a6,-1988(gp) # 1001207c <__SDATA_BEGIN__+0x3c>
10008a84:	04812603          	lw	a2,72(sp)
10008a88:	02f12423          	sw	a5,40(sp)
10008a8c:	07c12783          	lw	a5,124(sp)
10008a90:	06b12623          	sw	a1,108(sp)
10008a94:	00000693          	li	a3,0
10008a98:	00100593          	li	a1,1
10008a9c:	06912823          	sw	s1,112(sp)
10008aa0:	06812a23          	sw	s0,116(sp)
10008aa4:	05c12483          	lw	s1,92(sp)
10008aa8:	07212c23          	sw	s2,120(sp)
10008aac:	03012623          	sw	a6,44(sp)
10008ab0:	06a12423          	sw	a0,104(sp)
10008ab4:	08b12623          	sw	a1,140(sp)
10008ab8:	07312223          	sw	s3,100(sp)
10008abc:	000f0b13          	mv	s6,t5
10008ac0:	05e12e23          	sw	t5,92(sp)
10008ac4:	00068413          	mv	s0,a3
10008ac8:	00078b93          	mv	s7,a5
10008acc:	00060913          	mv	s2,a2
10008ad0:	0180006f          	j	10008ae8 <__gdtoa+0x16ec>
10008ad4:	08612623          	sw	t1,140(sp)
10008ad8:	2fd040ef          	jal	1000d5d4 <__muldf3>
10008adc:	00050913          	mv	s2,a0
10008ae0:	00058993          	mv	s3,a1
10008ae4:	00100413          	li	s0,1
10008ae8:	00090513          	mv	a0,s2
10008aec:	00098593          	mv	a1,s3
10008af0:	07d050ef          	jal	1000e36c <__fixdfsi>
10008af4:	00050a13          	mv	s4,a0
10008af8:	02050463          	beqz	a0,10008b20 <__gdtoa+0x1724>
10008afc:	0f1050ef          	jal	1000e3ec <__floatsidf>
10008b00:	00050613          	mv	a2,a0
10008b04:	00058693          	mv	a3,a1
10008b08:	00090513          	mv	a0,s2
10008b0c:	00098593          	mv	a1,s3
10008b10:	0b4050ef          	jal	1000dbc4 <__subdf3>
10008b14:	00050913          	mv	s2,a0
10008b18:	00058993          	mv	s3,a1
10008b1c:	00100413          	li	s0,1
10008b20:	030a0793          	addi	a5,s4,48
10008b24:	001b0b13          	addi	s6,s6,1
10008b28:	0ff7f793          	zext.b	a5,a5
10008b2c:	fefb0fa3          	sb	a5,-1(s6)
10008b30:	08c12883          	lw	a7,140(sp)
10008b34:	02812603          	lw	a2,40(sp)
10008b38:	02c12683          	lw	a3,44(sp)
10008b3c:	00090513          	mv	a0,s2
10008b40:	00098593          	mv	a1,s3
10008b44:	00188313          	addi	t1,a7,1 # 80000001 <_sp+0x6ffe2925>
10008b48:	f89896e3          	bne	a7,s1,10008ad4 <__gdtoa+0x16d8>
10008b4c:	000b8713          	mv	a4,s7
10008b50:	00040693          	mv	a3,s0
10008b54:	00078b93          	mv	s7,a5
10008b58:	07012483          	lw	s1,112(sp)
10008b5c:	05c12f03          	lw	t5,92(sp)
10008b60:	07412403          	lw	s0,116(sp)
10008b64:	07812903          	lw	s2,120(sp)
10008b68:	00070793          	mv	a5,a4
10008b6c:	00068663          	beqz	a3,10008b78 <__gdtoa+0x177c>
10008b70:	04a12423          	sw	a0,72(sp)
10008b74:	07312223          	sw	s3,100(sp)
10008b78:	8581a603          	lw	a2,-1960(gp) # 10012098 <__SDATA_BEGIN__+0x58>
10008b7c:	85c1a683          	lw	a3,-1956(gp) # 1001209c <__SDATA_BEGIN__+0x5c>
10008b80:	06812503          	lw	a0,104(sp)
10008b84:	06c12583          	lw	a1,108(sp)
10008b88:	03e12423          	sw	t5,40(sp)
10008b8c:	04f12e23          	sw	a5,92(sp)
10008b90:	191030ef          	jal	1000c520 <__adddf3>
10008b94:	06412a03          	lw	s4,100(sp)
10008b98:	04812603          	lw	a2,72(sp)
10008b9c:	000a0693          	mv	a3,s4
10008ba0:	159040ef          	jal	1000d4f8 <__ledf2>
10008ba4:	02812f03          	lw	t5,40(sp)
10008ba8:	1e054663          	bltz	a0,10008d94 <__gdtoa+0x1998>
10008bac:	06812603          	lw	a2,104(sp)
10008bb0:	06c12683          	lw	a3,108(sp)
10008bb4:	8581a503          	lw	a0,-1960(gp) # 10012098 <__SDATA_BEGIN__+0x58>
10008bb8:	85c1a583          	lw	a1,-1956(gp) # 1001209c <__SDATA_BEGIN__+0x5c>
10008bbc:	008050ef          	jal	1000dbc4 <__subdf3>
10008bc0:	04812603          	lw	a2,72(sp)
10008bc4:	000a0693          	mv	a3,s4
10008bc8:	055040ef          	jal	1000d41c <__gedf2>
10008bcc:	02812f03          	lw	t5,40(sp)
10008bd0:	05c12783          	lw	a5,92(sp)
10008bd4:	26a04863          	bgtz	a0,10008e44 <__gdtoa+0x1a48>
10008bd8:	04412703          	lw	a4,68(sp)
10008bdc:	05812983          	lw	s3,88(sp)
10008be0:	04e12423          	sw	a4,72(sp)
10008be4:	02412703          	lw	a4,36(sp)
10008be8:	d00750e3          	bgez	a4,100088e8 <__gdtoa+0x14ec>
10008bec:	03812b03          	lw	s6,56(sp)
10008bf0:	03012a03          	lw	s4,48(sp)
10008bf4:	02012423          	sw	zero,40(sp)
10008bf8:	00000993          	li	s3,0
10008bfc:	c71fe06f          	j	1000786c <__gdtoa+0x470>
10008c00:	00098a93          	mv	s5,s3
10008c04:	01812f03          	lw	t5,24(sp)
10008c08:	01c12d03          	lw	s10,28(sp)
10008c0c:	000a0993          	mv	s3,s4
10008c10:	86dff06f          	j	1000847c <__gdtoa+0x1080>
10008c14:	fffb4b83          	lbu	s7,-1(s6)
10008c18:	be4ff06f          	j	10007ffc <__gdtoa+0xc00>
10008c1c:	03412783          	lw	a5,52(sp)
10008c20:	c0078ce3          	beqz	a5,10008838 <__gdtoa+0x143c>
10008c24:	05412783          	lw	a5,84(sp)
10008c28:	caf054e3          	blez	a5,100088d0 <__gdtoa+0x14d4>
10008c2c:	8381a603          	lw	a2,-1992(gp) # 10012078 <__SDATA_BEGIN__+0x38>
10008c30:	83c1a683          	lw	a3,-1988(gp) # 1001207c <__SDATA_BEGIN__+0x3c>
10008c34:	00098593          	mv	a1,s3
10008c38:	000b0513          	mv	a0,s6
10008c3c:	07e12423          	sw	t5,104(sp)
10008c40:	195040ef          	jal	1000d5d4 <__muldf3>
10008c44:	8401a603          	lw	a2,-1984(gp) # 10012080 <__SDATA_BEGIN__+0x40>
10008c48:	8441a683          	lw	a3,-1980(gp) # 10012084 <__SDATA_BEGIN__+0x44>
10008c4c:	00058993          	mv	s3,a1
10008c50:	04a12423          	sw	a0,72(sp)
10008c54:	06a12223          	sw	a0,100(sp)
10008c58:	02b12423          	sw	a1,40(sp)
10008c5c:	179040ef          	jal	1000d5d4 <__muldf3>
10008c60:	8481a603          	lw	a2,-1976(gp) # 10012088 <__SDATA_BEGIN__+0x48>
10008c64:	84c1a683          	lw	a3,-1972(gp) # 1001208c <__SDATA_BEGIN__+0x4c>
10008c68:	0b9030ef          	jal	1000c520 <__adddf3>
10008c6c:	fcc007b7          	lui	a5,0xfcc00
10008c70:	00b78a33          	add	s4,a5,a1
10008c74:	05412783          	lw	a5,84(sp)
10008c78:	06412e83          	lw	t4,100(sp)
10008c7c:	06812f03          	lw	t5,104(sp)
10008c80:	04f12e23          	sw	a5,92(sp)
10008c84:	fff00793          	li	a5,-1
10008c88:	00050713          	mv	a4,a0
10008c8c:	06f12023          	sw	a5,96(sp)
10008c90:	00098813          	mv	a6,s3
10008c94:	96cff06f          	j	10007e00 <__gdtoa+0xa04>
10008c98:	03012703          	lw	a4,48(sp)
10008c9c:	02012683          	lw	a3,32(sp)
10008ca0:	08f12623          	sw	a5,140(sp)
10008ca4:	00070a13          	mv	s4,a4
10008ca8:	00f686b3          	add	a3,a3,a5
10008cac:	00f707b3          	add	a5,a4,a5
10008cb0:	02d12023          	sw	a3,32(sp)
10008cb4:	02f12823          	sw	a5,48(sp)
10008cb8:	b99fe06f          	j	10007850 <__gdtoa+0x454>
10008cbc:	00200b93          	li	s7,2
10008cc0:	00000593          	li	a1,0
10008cc4:	00000993          	li	s3,0
10008cc8:	881ff06f          	j	10008548 <__gdtoa+0x114c>
10008ccc:	03900793          	li	a5,57
10008cd0:	01812f03          	lw	t5,24(sp)
10008cd4:	01c12d03          	lw	s10,28(sp)
10008cd8:	a4fd82e3          	beq	s11,a5,1000871c <__gdtoa+0x1320>
10008cdc:	001d8d93          	addi	s11,s11,1
10008ce0:	00098a93          	mv	s5,s3
10008ce4:	001c0b13          	addi	s6,s8,1
10008ce8:	01bc0023          	sb	s11,0(s8)
10008cec:	000a0993          	mv	s3,s4
10008cf0:	02000c93          	li	s9,32
10008cf4:	e58ff06f          	j	1000834c <__gdtoa+0xf50>
10008cf8:	03c12783          	lw	a5,60(sp)
10008cfc:	00000593          	li	a1,0
10008d00:	00000993          	li	s3,0
10008d04:	00278b93          	addi	s7,a5,2 # fcc00002 <_sp+0xecbe2926>
10008d08:	841ff06f          	j	10008548 <__gdtoa+0x114c>
10008d0c:	00098593          	mv	a1,s3
10008d10:	00000693          	li	a3,0
10008d14:	00a00613          	li	a2,10
10008d18:	00040513          	mv	a0,s0
10008d1c:	784000ef          	jal	100094a0 <__multadd>
10008d20:	00050993          	mv	s3,a0
10008d24:	00051463          	bnez	a0,10008d2c <__gdtoa+0x1930>
10008d28:	f3dfe06f          	j	10007c64 <__gdtoa+0x868>
10008d2c:	05412783          	lw	a5,84(sp)
10008d30:	02012f03          	lw	t5,32(sp)
10008d34:	00f05663          	blez	a5,10008d40 <__gdtoa+0x1944>
10008d38:	02f12a23          	sw	a5,52(sp)
10008d3c:	c19fe06f          	j	10007954 <__gdtoa+0x558>
10008d40:	01012703          	lw	a4,16(sp)
10008d44:	00200793          	li	a5,2
10008d48:	14e7cc63          	blt	a5,a4,10008ea0 <__gdtoa+0x1aa4>
10008d4c:	05412783          	lw	a5,84(sp)
10008d50:	02f12a23          	sw	a5,52(sp)
10008d54:	c01fe06f          	j	10007954 <__gdtoa+0x558>
10008d58:	06412483          	lw	s1,100(sp)
10008d5c:	05c12f03          	lw	t5,92(sp)
10008d60:	06812403          	lw	s0,104(sp)
10008d64:	000a0513          	mv	a0,s4
10008d68:	00098593          	mv	a1,s3
10008d6c:	00000613          	li	a2,0
10008d70:	00000693          	li	a3,0
10008d74:	01e12823          	sw	t5,16(sp)
10008d78:	618040ef          	jal	1000d390 <__eqdf2>
10008d7c:	00a037b3          	snez	a5,a0
10008d80:	00479c93          	slli	s9,a5,0x4
10008d84:	06012783          	lw	a5,96(sp)
10008d88:	01012f03          	lw	t5,16(sp)
10008d8c:	00178b93          	addi	s7,a5,1
10008d90:	cacff06f          	j	1000823c <__gdtoa+0xe40>
10008d94:	06012783          	lw	a5,96(sp)
10008d98:	00178d93          	addi	s11,a5,1
10008d9c:	a60ff06f          	j	10007ffc <__gdtoa+0xc00>
10008da0:	03412783          	lw	a5,52(sp)
10008da4:	03812703          	lw	a4,56(sp)
10008da8:	fff78693          	addi	a3,a5,-1
10008dac:	8cd748e3          	blt	a4,a3,1000867c <__gdtoa+0x1280>
10008db0:	03012583          	lw	a1,48(sp)
10008db4:	02012603          	lw	a2,32(sp)
10008db8:	08f12623          	sw	a5,140(sp)
10008dbc:	00058a13          	mv	s4,a1
10008dc0:	00f60633          	add	a2,a2,a5
10008dc4:	00f587b3          	add	a5,a1,a5
10008dc8:	02c12023          	sw	a2,32(sp)
10008dcc:	40d70b33          	sub	s6,a4,a3
10008dd0:	02f12823          	sw	a5,48(sp)
10008dd4:	a7dfe06f          	j	10007850 <__gdtoa+0x454>
10008dd8:	02012423          	sw	zero,40(sp)
10008ddc:	9f9fe06f          	j	100077d4 <__gdtoa+0x3d8>
10008de0:	04412703          	lw	a4,68(sp)
10008de4:	06412483          	lw	s1,100(sp)
10008de8:	07412b83          	lw	s7,116(sp)
10008dec:	04e12423          	sw	a4,72(sp)
10008df0:	02412703          	lw	a4,36(sp)
10008df4:	07812c03          	lw	s8,120(sp)
10008df8:	05c12f03          	lw	t5,92(sp)
10008dfc:	06812403          	lw	s0,104(sp)
10008e00:	07c12783          	lw	a5,124(sp)
10008e04:	05812983          	lw	s3,88(sp)
10008e08:	ae0750e3          	bgez	a4,100088e8 <__gdtoa+0x14ec>
10008e0c:	02012423          	sw	zero,40(sp)
10008e10:	9cdfe06f          	j	100077dc <__gdtoa+0x3e0>
10008e14:	03900793          	li	a5,57
10008e18:	01812f03          	lw	t5,24(sp)
10008e1c:	01c12d03          	lw	s10,28(sp)
10008e20:	8efd8ee3          	beq	s11,a5,1000871c <__gdtoa+0x1320>
10008e24:	0f505063          	blez	s5,10008f04 <__gdtoa+0x1b08>
10008e28:	031b0d93          	addi	s11,s6,49
10008e2c:	02000c93          	li	s9,32
10008e30:	00098a93          	mv	s5,s3
10008e34:	001c0b13          	addi	s6,s8,1
10008e38:	01bc0023          	sb	s11,0(s8)
10008e3c:	000a0993          	mv	s3,s4
10008e40:	d0cff06f          	j	1000834c <__gdtoa+0xf50>
10008e44:	04812503          	lw	a0,72(sp)
10008e48:	000a0593          	mv	a1,s4
10008e4c:	00000613          	li	a2,0
10008e50:	00000693          	li	a3,0
10008e54:	01e12823          	sw	t5,16(sp)
10008e58:	538040ef          	jal	1000d390 <__eqdf2>
10008e5c:	06012703          	lw	a4,96(sp)
10008e60:	00a037b3          	snez	a5,a0
10008e64:	00479c93          	slli	s9,a5,0x4
10008e68:	01012f03          	lw	t5,16(sp)
10008e6c:	000b0793          	mv	a5,s6
10008e70:	00170d93          	addi	s11,a4,1
10008e74:	bc9ff06f          	j	10008a3c <__gdtoa+0x1640>
10008e78:	0144a783          	lw	a5,20(s1)
10008e7c:	cc079063          	bnez	a5,1000833c <__gdtoa+0xf40>
10008e80:	02812c83          	lw	s9,40(sp)
10008e84:	cb8ff06f          	j	1000833c <__gdtoa+0xf40>
10008e88:	00051663          	bnez	a0,10008e94 <__gdtoa+0x1a98>
10008e8c:	001df793          	andi	a5,s11,1
10008e90:	b2079ce3          	bnez	a5,100089c8 <__gdtoa+0x15cc>
10008e94:	02000793          	li	a5,32
10008e98:	02f12423          	sw	a5,40(sp)
10008e9c:	c8cff06f          	j	10008328 <__gdtoa+0xf2c>
10008ea0:	05412783          	lw	a5,84(sp)
10008ea4:	02f12a23          	sw	a5,52(sp)
10008ea8:	e50ff06f          	j	100084f8 <__gdtoa+0x10fc>
10008eac:	03900793          	li	a5,57
10008eb0:	000b0f13          	mv	t5,s6
10008eb4:	00fd8e63          	beq	s11,a5,10008ed0 <__gdtoa+0x1ad4>
10008eb8:	001d8d93          	addi	s11,s11,1
10008ebc:	02000c93          	li	s9,32
10008ec0:	c7cff06f          	j	1000833c <__gdtoa+0xf40>
10008ec4:	01000c93          	li	s9,16
10008ec8:	001c0913          	addi	s2,s8,1
10008ecc:	c70ff06f          	j	1000833c <__gdtoa+0xf40>
10008ed0:	00098a93          	mv	s5,s3
10008ed4:	000c0793          	mv	a5,s8
10008ed8:	000a0993          	mv	s3,s4
10008edc:	851ff06f          	j	1000872c <__gdtoa+0x1330>
10008ee0:	0104a683          	lw	a3,16(s1)
10008ee4:	00100793          	li	a5,1
10008ee8:	00d7d463          	bge	a5,a3,10008ef0 <__gdtoa+0x1af4>
10008eec:	bf5fe06f          	j	10007ae0 <__gdtoa+0x6e4>
10008ef0:	0144a783          	lw	a5,20(s1)
10008ef4:	00078463          	beqz	a5,10008efc <__gdtoa+0x1b00>
10008ef8:	be9fe06f          	j	10007ae0 <__gdtoa+0x6e4>
10008efc:	001c0913          	addi	s2,s8,1
10008f00:	c3cff06f          	j	1000833c <__gdtoa+0xf40>
10008f04:	0104a683          	lw	a3,16(s1)
10008f08:	00100793          	li	a5,1
10008f0c:	01000c93          	li	s9,16
10008f10:	f2d7c0e3          	blt	a5,a3,10008e30 <__gdtoa+0x1a34>
10008f14:	0144a783          	lw	a5,20(s1)
10008f18:	00f037b3          	snez	a5,a5
10008f1c:	00479c93          	slli	s9,a5,0x4
10008f20:	f11ff06f          	j	10008e30 <__gdtoa+0x1a34>
10008f24:	020ac263          	bltz	s5,10008f48 <__gdtoa+0x1b4c>
10008f28:	015ceab3          	or	s5,s9,s5
10008f2c:	000a9863          	bnez	s5,10008f3c <__gdtoa+0x1b40>
10008f30:	00092703          	lw	a4,0(s2)
10008f34:	00177713          	andi	a4,a4,1
10008f38:	00070863          	beqz	a4,10008f48 <__gdtoa+0x1b4c>
10008f3c:	00f04463          	bgtz	a5,10008f44 <__gdtoa+0x1b48>
10008f40:	a7dfe06f          	j	100079bc <__gdtoa+0x5c0>
10008f44:	a69fe06f          	j	100079ac <__gdtoa+0x5b0>
10008f48:	02812703          	lw	a4,40(sp)
10008f4c:	01812f03          	lw	t5,24(sp)
10008f50:	01c12d03          	lw	s10,28(sp)
10008f54:	02070863          	beqz	a4,10008f84 <__gdtoa+0x1b88>
10008f58:	0104a603          	lw	a2,16(s1)
10008f5c:	00100693          	li	a3,1
10008f60:	00c6d463          	bge	a3,a2,10008f68 <__gdtoa+0x1b6c>
10008f64:	b7dfe06f          	j	10007ae0 <__gdtoa+0x6e4>
10008f68:	0144a683          	lw	a3,20(s1)
10008f6c:	00068463          	beqz	a3,10008f74 <__gdtoa+0x1b78>
10008f70:	b71fe06f          	j	10007ae0 <__gdtoa+0x6e4>
10008f74:	a2f044e3          	bgtz	a5,1000899c <__gdtoa+0x15a0>
10008f78:	00000c93          	li	s9,0
10008f7c:	001c0913          	addi	s2,s8,1
10008f80:	bbcff06f          	j	1000833c <__gdtoa+0xf40>
10008f84:	baf05263          	blez	a5,10008328 <__gdtoa+0xf2c>
10008f88:	a15ff06f          	j	1000899c <__gdtoa+0x15a0>

10008f8c <__rv_alloc_D2A>:
10008f8c:	ff010113          	addi	sp,sp,-16
10008f90:	00812423          	sw	s0,8(sp)
10008f94:	00112623          	sw	ra,12(sp)
10008f98:	01300793          	li	a5,19
10008f9c:	00000413          	li	s0,0
10008fa0:	00b7fc63          	bgeu	a5,a1,10008fb8 <__rv_alloc_D2A+0x2c>
10008fa4:	00400793          	li	a5,4
10008fa8:	00179793          	slli	a5,a5,0x1
10008fac:	01078713          	addi	a4,a5,16
10008fb0:	00140413          	addi	s0,s0,1
10008fb4:	fee5fae3          	bgeu	a1,a4,10008fa8 <__rv_alloc_D2A+0x1c>
10008fb8:	00040593          	mv	a1,s0
10008fbc:	40c000ef          	jal	100093c8 <_Balloc>
10008fc0:	00050663          	beqz	a0,10008fcc <__rv_alloc_D2A+0x40>
10008fc4:	00852023          	sw	s0,0(a0)
10008fc8:	00450513          	addi	a0,a0,4
10008fcc:	00c12083          	lw	ra,12(sp)
10008fd0:	00812403          	lw	s0,8(sp)
10008fd4:	01010113          	addi	sp,sp,16
10008fd8:	00008067          	ret

10008fdc <__nrv_alloc_D2A>:
10008fdc:	ff010113          	addi	sp,sp,-16
10008fe0:	00812423          	sw	s0,8(sp)
10008fe4:	01212023          	sw	s2,0(sp)
10008fe8:	00112623          	sw	ra,12(sp)
10008fec:	00912223          	sw	s1,4(sp)
10008ff0:	01300793          	li	a5,19
10008ff4:	00058413          	mv	s0,a1
10008ff8:	00060913          	mv	s2,a2
10008ffc:	06d7fe63          	bgeu	a5,a3,10009078 <__nrv_alloc_D2A+0x9c>
10009000:	00400793          	li	a5,4
10009004:	00000493          	li	s1,0
10009008:	00179793          	slli	a5,a5,0x1
1000900c:	01078713          	addi	a4,a5,16
10009010:	00148493          	addi	s1,s1,1
10009014:	fee6fae3          	bgeu	a3,a4,10009008 <__nrv_alloc_D2A+0x2c>
10009018:	00048593          	mv	a1,s1
1000901c:	3ac000ef          	jal	100093c8 <_Balloc>
10009020:	00050793          	mv	a5,a0
10009024:	04050e63          	beqz	a0,10009080 <__nrv_alloc_D2A+0xa4>
10009028:	00952023          	sw	s1,0(a0)
1000902c:	00044703          	lbu	a4,0(s0)
10009030:	00450513          	addi	a0,a0,4
10009034:	00140593          	addi	a1,s0,1
10009038:	00e78223          	sb	a4,4(a5)
1000903c:	00050793          	mv	a5,a0
10009040:	00070c63          	beqz	a4,10009058 <__nrv_alloc_D2A+0x7c>
10009044:	0005c703          	lbu	a4,0(a1)
10009048:	00178793          	addi	a5,a5,1
1000904c:	00158593          	addi	a1,a1,1
10009050:	00e78023          	sb	a4,0(a5)
10009054:	fe0718e3          	bnez	a4,10009044 <__nrv_alloc_D2A+0x68>
10009058:	00090463          	beqz	s2,10009060 <__nrv_alloc_D2A+0x84>
1000905c:	00f92023          	sw	a5,0(s2)
10009060:	00c12083          	lw	ra,12(sp)
10009064:	00812403          	lw	s0,8(sp)
10009068:	00412483          	lw	s1,4(sp)
1000906c:	00012903          	lw	s2,0(sp)
10009070:	01010113          	addi	sp,sp,16
10009074:	00008067          	ret
10009078:	00000493          	li	s1,0
1000907c:	f9dff06f          	j	10009018 <__nrv_alloc_D2A+0x3c>
10009080:	00000513          	li	a0,0
10009084:	fddff06f          	j	10009060 <__nrv_alloc_D2A+0x84>

10009088 <__quorem_D2A>:
10009088:	fe010113          	addi	sp,sp,-32
1000908c:	00912a23          	sw	s1,20(sp)
10009090:	01052783          	lw	a5,16(a0)
10009094:	0105a483          	lw	s1,16(a1)
10009098:	00112e23          	sw	ra,28(sp)
1000909c:	1c97c863          	blt	a5,s1,1000926c <__quorem_D2A+0x1e4>
100090a0:	fff48493          	addi	s1,s1,-1
100090a4:	00249313          	slli	t1,s1,0x2
100090a8:	00812c23          	sw	s0,24(sp)
100090ac:	01458413          	addi	s0,a1,20
100090b0:	01312623          	sw	s3,12(sp)
100090b4:	01412423          	sw	s4,8(sp)
100090b8:	006409b3          	add	s3,s0,t1
100090bc:	01450a13          	addi	s4,a0,20
100090c0:	0009a783          	lw	a5,0(s3)
100090c4:	006a0333          	add	t1,s4,t1
100090c8:	00032703          	lw	a4,0(t1)
100090cc:	01212823          	sw	s2,16(sp)
100090d0:	01512223          	sw	s5,4(sp)
100090d4:	00178793          	addi	a5,a5,1
100090d8:	02f75933          	divu	s2,a4,a5
100090dc:	00050a93          	mv	s5,a0
100090e0:	0af76e63          	bltu	a4,a5,1000919c <__quorem_D2A+0x114>
100090e4:	00010537          	lui	a0,0x10
100090e8:	00040893          	mv	a7,s0
100090ec:	000a0813          	mv	a6,s4
100090f0:	00000f13          	li	t5,0
100090f4:	00000e93          	li	t4,0
100090f8:	fff50513          	addi	a0,a0,-1 # ffff <__heap_size+0xefff>
100090fc:	0008a783          	lw	a5,0(a7)
10009100:	00082603          	lw	a2,0(a6)
10009104:	00480813          	addi	a6,a6,4
10009108:	00a7f6b3          	and	a3,a5,a0
1000910c:	0107d793          	srli	a5,a5,0x10
10009110:	00a67733          	and	a4,a2,a0
10009114:	01065e13          	srli	t3,a2,0x10
10009118:	00488893          	addi	a7,a7,4
1000911c:	032686b3          	mul	a3,a3,s2
10009120:	032787b3          	mul	a5,a5,s2
10009124:	01e686b3          	add	a3,a3,t5
10009128:	00a6f633          	and	a2,a3,a0
1000912c:	40c70733          	sub	a4,a4,a2
10009130:	41d70733          	sub	a4,a4,t4
10009134:	0106d693          	srli	a3,a3,0x10
10009138:	01075613          	srli	a2,a4,0x10
1000913c:	00167613          	andi	a2,a2,1
10009140:	00a77733          	and	a4,a4,a0
10009144:	00d787b3          	add	a5,a5,a3
10009148:	00a7f6b3          	and	a3,a5,a0
1000914c:	00d60633          	add	a2,a2,a3
10009150:	40ce06b3          	sub	a3,t3,a2
10009154:	01069613          	slli	a2,a3,0x10
10009158:	00e66733          	or	a4,a2,a4
1000915c:	0106d693          	srli	a3,a3,0x10
10009160:	fee82e23          	sw	a4,-4(a6)
10009164:	0107df13          	srli	t5,a5,0x10
10009168:	0016fe93          	andi	t4,a3,1
1000916c:	f919f8e3          	bgeu	s3,a7,100090fc <__quorem_D2A+0x74>
10009170:	00032783          	lw	a5,0(t1)
10009174:	02079463          	bnez	a5,1000919c <__quorem_D2A+0x114>
10009178:	ffc30313          	addi	t1,t1,-4
1000917c:	006a6863          	bltu	s4,t1,1000918c <__quorem_D2A+0x104>
10009180:	0180006f          	j	10009198 <__quorem_D2A+0x110>
10009184:	fff48493          	addi	s1,s1,-1
10009188:	006a7863          	bgeu	s4,t1,10009198 <__quorem_D2A+0x110>
1000918c:	00032783          	lw	a5,0(t1)
10009190:	ffc30313          	addi	t1,t1,-4
10009194:	fe0788e3          	beqz	a5,10009184 <__quorem_D2A+0xfc>
10009198:	009aa823          	sw	s1,16(s5)
1000919c:	000a8513          	mv	a0,s5
100091a0:	369000ef          	jal	10009d08 <__mcmp>
100091a4:	0a054063          	bltz	a0,10009244 <__quorem_D2A+0x1bc>
100091a8:	00010537          	lui	a0,0x10
100091ac:	000a0593          	mv	a1,s4
100091b0:	00000693          	li	a3,0
100091b4:	fff50513          	addi	a0,a0,-1 # ffff <__heap_size+0xefff>
100091b8:	0005a783          	lw	a5,0(a1)
100091bc:	00042603          	lw	a2,0(s0)
100091c0:	00458593          	addi	a1,a1,4
100091c4:	00a7f733          	and	a4,a5,a0
100091c8:	00a67833          	and	a6,a2,a0
100091cc:	41070733          	sub	a4,a4,a6
100091d0:	40d70733          	sub	a4,a4,a3
100091d4:	01075693          	srli	a3,a4,0x10
100091d8:	0016f693          	andi	a3,a3,1
100091dc:	01065613          	srli	a2,a2,0x10
100091e0:	00c686b3          	add	a3,a3,a2
100091e4:	0107d793          	srli	a5,a5,0x10
100091e8:	40d787b3          	sub	a5,a5,a3
100091ec:	01079693          	slli	a3,a5,0x10
100091f0:	00a77733          	and	a4,a4,a0
100091f4:	00e6e733          	or	a4,a3,a4
100091f8:	0107d793          	srli	a5,a5,0x10
100091fc:	00440413          	addi	s0,s0,4
10009200:	fee5ae23          	sw	a4,-4(a1)
10009204:	0017f693          	andi	a3,a5,1
10009208:	fa89f8e3          	bgeu	s3,s0,100091b8 <__quorem_D2A+0x130>
1000920c:	00249793          	slli	a5,s1,0x2
10009210:	00fa07b3          	add	a5,s4,a5
10009214:	0007a703          	lw	a4,0(a5)
10009218:	02071463          	bnez	a4,10009240 <__quorem_D2A+0x1b8>
1000921c:	ffc78793          	addi	a5,a5,-4
10009220:	00fa6863          	bltu	s4,a5,10009230 <__quorem_D2A+0x1a8>
10009224:	0180006f          	j	1000923c <__quorem_D2A+0x1b4>
10009228:	fff48493          	addi	s1,s1,-1
1000922c:	00fa7863          	bgeu	s4,a5,1000923c <__quorem_D2A+0x1b4>
10009230:	0007a703          	lw	a4,0(a5)
10009234:	ffc78793          	addi	a5,a5,-4
10009238:	fe0708e3          	beqz	a4,10009228 <__quorem_D2A+0x1a0>
1000923c:	009aa823          	sw	s1,16(s5)
10009240:	00190913          	addi	s2,s2,1
10009244:	01812403          	lw	s0,24(sp)
10009248:	01c12083          	lw	ra,28(sp)
1000924c:	00c12983          	lw	s3,12(sp)
10009250:	00812a03          	lw	s4,8(sp)
10009254:	00412a83          	lw	s5,4(sp)
10009258:	01412483          	lw	s1,20(sp)
1000925c:	00090513          	mv	a0,s2
10009260:	01012903          	lw	s2,16(sp)
10009264:	02010113          	addi	sp,sp,32
10009268:	00008067          	ret
1000926c:	01c12083          	lw	ra,28(sp)
10009270:	01412483          	lw	s1,20(sp)
10009274:	00000513          	li	a0,0
10009278:	02010113          	addi	sp,sp,32
1000927c:	00008067          	ret

10009280 <__rshift_D2A>:
10009280:	01052803          	lw	a6,16(a0)
10009284:	4055de13          	srai	t3,a1,0x5
10009288:	010e4863          	blt	t3,a6,10009298 <__rshift_D2A+0x18>
1000928c:	00052823          	sw	zero,16(a0)
10009290:	00052a23          	sw	zero,20(a0)
10009294:	00008067          	ret
10009298:	01450313          	addi	t1,a0,20
1000929c:	00281613          	slli	a2,a6,0x2
100092a0:	002e1793          	slli	a5,t3,0x2
100092a4:	01f5f593          	andi	a1,a1,31
100092a8:	00c30633          	add	a2,t1,a2
100092ac:	00f307b3          	add	a5,t1,a5
100092b0:	06058263          	beqz	a1,10009314 <__rshift_D2A+0x94>
100092b4:	0007a683          	lw	a3,0(a5)
100092b8:	02000e93          	li	t4,32
100092bc:	00478793          	addi	a5,a5,4
100092c0:	40be8eb3          	sub	t4,t4,a1
100092c4:	00b6d6b3          	srl	a3,a3,a1
100092c8:	08c7f463          	bgeu	a5,a2,10009350 <__rshift_D2A+0xd0>
100092cc:	00030893          	mv	a7,t1
100092d0:	0007a703          	lw	a4,0(a5)
100092d4:	00488893          	addi	a7,a7,4
100092d8:	00478793          	addi	a5,a5,4
100092dc:	01d71733          	sll	a4,a4,t4
100092e0:	00d76733          	or	a4,a4,a3
100092e4:	fee8ae23          	sw	a4,-4(a7)
100092e8:	ffc7a683          	lw	a3,-4(a5)
100092ec:	00b6d6b3          	srl	a3,a3,a1
100092f0:	fec7e0e3          	bltu	a5,a2,100092d0 <__rshift_D2A+0x50>
100092f4:	41c80833          	sub	a6,a6,t3
100092f8:	00281813          	slli	a6,a6,0x2
100092fc:	ffc80813          	addi	a6,a6,-4
10009300:	01030833          	add	a6,t1,a6
10009304:	00d82023          	sw	a3,0(a6)
10009308:	02068a63          	beqz	a3,1000933c <__rshift_D2A+0xbc>
1000930c:	00480813          	addi	a6,a6,4
10009310:	02c0006f          	j	1000933c <__rshift_D2A+0xbc>
10009314:	00030713          	mv	a4,t1
10009318:	f6c7fae3          	bgeu	a5,a2,1000928c <__rshift_D2A+0xc>
1000931c:	0007a683          	lw	a3,0(a5)
10009320:	00478793          	addi	a5,a5,4
10009324:	00470713          	addi	a4,a4,4
10009328:	fed72e23          	sw	a3,-4(a4)
1000932c:	fec7e8e3          	bltu	a5,a2,1000931c <__rshift_D2A+0x9c>
10009330:	41c80833          	sub	a6,a6,t3
10009334:	00281813          	slli	a6,a6,0x2
10009338:	01030833          	add	a6,t1,a6
1000933c:	406807b3          	sub	a5,a6,t1
10009340:	4027d793          	srai	a5,a5,0x2
10009344:	00f52823          	sw	a5,16(a0)
10009348:	f46804e3          	beq	a6,t1,10009290 <__rshift_D2A+0x10>
1000934c:	00008067          	ret
10009350:	00d52a23          	sw	a3,20(a0)
10009354:	f2068ce3          	beqz	a3,1000928c <__rshift_D2A+0xc>
10009358:	00030813          	mv	a6,t1
1000935c:	00480813          	addi	a6,a6,4
10009360:	fddff06f          	j	1000933c <__rshift_D2A+0xbc>

10009364 <__trailz_D2A>:
10009364:	01052703          	lw	a4,16(a0)
10009368:	fe010113          	addi	sp,sp,-32
1000936c:	01450513          	addi	a0,a0,20
10009370:	00271713          	slli	a4,a4,0x2
10009374:	00812c23          	sw	s0,24(sp)
10009378:	00112e23          	sw	ra,28(sp)
1000937c:	00e50733          	add	a4,a0,a4
10009380:	00000413          	li	s0,0
10009384:	00e56a63          	bltu	a0,a4,10009398 <__trailz_D2A+0x34>
10009388:	02c0006f          	j	100093b4 <__trailz_D2A+0x50>
1000938c:	00450513          	addi	a0,a0,4
10009390:	02040413          	addi	s0,s0,32
10009394:	02e57063          	bgeu	a0,a4,100093b4 <__trailz_D2A+0x50>
10009398:	00052783          	lw	a5,0(a0)
1000939c:	fe0788e3          	beqz	a5,1000938c <__trailz_D2A+0x28>
100093a0:	00e57a63          	bgeu	a0,a4,100093b4 <__trailz_D2A+0x50>
100093a4:	00c10513          	addi	a0,sp,12
100093a8:	00f12623          	sw	a5,12(sp)
100093ac:	2b8000ef          	jal	10009664 <__lo0bits>
100093b0:	00a40433          	add	s0,s0,a0
100093b4:	01c12083          	lw	ra,28(sp)
100093b8:	00040513          	mv	a0,s0
100093bc:	01812403          	lw	s0,24(sp)
100093c0:	02010113          	addi	sp,sp,32
100093c4:	00008067          	ret

100093c8 <_Balloc>:
100093c8:	04452783          	lw	a5,68(a0)
100093cc:	ff010113          	addi	sp,sp,-16
100093d0:	00812423          	sw	s0,8(sp)
100093d4:	00912223          	sw	s1,4(sp)
100093d8:	00112623          	sw	ra,12(sp)
100093dc:	00050413          	mv	s0,a0
100093e0:	00058493          	mv	s1,a1
100093e4:	02078c63          	beqz	a5,1000941c <_Balloc+0x54>
100093e8:	00249713          	slli	a4,s1,0x2
100093ec:	00e787b3          	add	a5,a5,a4
100093f0:	0007a503          	lw	a0,0(a5)
100093f4:	04050463          	beqz	a0,1000943c <_Balloc+0x74>
100093f8:	00052703          	lw	a4,0(a0)
100093fc:	00e7a023          	sw	a4,0(a5)
10009400:	00052823          	sw	zero,16(a0)
10009404:	00052623          	sw	zero,12(a0)
10009408:	00c12083          	lw	ra,12(sp)
1000940c:	00812403          	lw	s0,8(sp)
10009410:	00412483          	lw	s1,4(sp)
10009414:	01010113          	addi	sp,sp,16
10009418:	00008067          	ret
1000941c:	02100613          	li	a2,33
10009420:	00400593          	li	a1,4
10009424:	6d8010ef          	jal	1000aafc <_calloc_r>
10009428:	04a42223          	sw	a0,68(s0)
1000942c:	00050793          	mv	a5,a0
10009430:	fa051ce3          	bnez	a0,100093e8 <_Balloc+0x20>
10009434:	00000513          	li	a0,0
10009438:	fd1ff06f          	j	10009408 <_Balloc+0x40>
1000943c:	01212023          	sw	s2,0(sp)
10009440:	00100913          	li	s2,1
10009444:	00991933          	sll	s2,s2,s1
10009448:	00590613          	addi	a2,s2,5
1000944c:	00261613          	slli	a2,a2,0x2
10009450:	00100593          	li	a1,1
10009454:	00040513          	mv	a0,s0
10009458:	6a4010ef          	jal	1000aafc <_calloc_r>
1000945c:	00050a63          	beqz	a0,10009470 <_Balloc+0xa8>
10009460:	01252423          	sw	s2,8(a0)
10009464:	00952223          	sw	s1,4(a0)
10009468:	00012903          	lw	s2,0(sp)
1000946c:	f95ff06f          	j	10009400 <_Balloc+0x38>
10009470:	00012903          	lw	s2,0(sp)
10009474:	00000513          	li	a0,0
10009478:	f91ff06f          	j	10009408 <_Balloc+0x40>

1000947c <_Bfree>:
1000947c:	02058063          	beqz	a1,1000949c <_Bfree+0x20>
10009480:	0045a703          	lw	a4,4(a1)
10009484:	04452783          	lw	a5,68(a0)
10009488:	00271713          	slli	a4,a4,0x2
1000948c:	00e787b3          	add	a5,a5,a4
10009490:	0007a703          	lw	a4,0(a5)
10009494:	00e5a023          	sw	a4,0(a1)
10009498:	00b7a023          	sw	a1,0(a5)
1000949c:	00008067          	ret

100094a0 <__multadd>:
100094a0:	fe010113          	addi	sp,sp,-32
100094a4:	00912a23          	sw	s1,20(sp)
100094a8:	0105a483          	lw	s1,16(a1)
100094ac:	00010337          	lui	t1,0x10
100094b0:	00812c23          	sw	s0,24(sp)
100094b4:	01212823          	sw	s2,16(sp)
100094b8:	01312623          	sw	s3,12(sp)
100094bc:	00112e23          	sw	ra,28(sp)
100094c0:	00058913          	mv	s2,a1
100094c4:	00050993          	mv	s3,a0
100094c8:	00068413          	mv	s0,a3
100094cc:	01458813          	addi	a6,a1,20
100094d0:	00000893          	li	a7,0
100094d4:	fff30313          	addi	t1,t1,-1 # ffff <__heap_size+0xefff>
100094d8:	00082783          	lw	a5,0(a6)
100094dc:	00480813          	addi	a6,a6,4
100094e0:	00188893          	addi	a7,a7,1
100094e4:	0067f733          	and	a4,a5,t1
100094e8:	02c70733          	mul	a4,a4,a2
100094ec:	0107d693          	srli	a3,a5,0x10
100094f0:	02c686b3          	mul	a3,a3,a2
100094f4:	008707b3          	add	a5,a4,s0
100094f8:	0107d713          	srli	a4,a5,0x10
100094fc:	0067f7b3          	and	a5,a5,t1
10009500:	00e686b3          	add	a3,a3,a4
10009504:	01069713          	slli	a4,a3,0x10
10009508:	00f707b3          	add	a5,a4,a5
1000950c:	fef82e23          	sw	a5,-4(a6)
10009510:	0106d413          	srli	s0,a3,0x10
10009514:	fc98c2e3          	blt	a7,s1,100094d8 <__multadd+0x38>
10009518:	02040263          	beqz	s0,1000953c <__multadd+0x9c>
1000951c:	00892783          	lw	a5,8(s2)
10009520:	02f4de63          	bge	s1,a5,1000955c <__multadd+0xbc>
10009524:	00448793          	addi	a5,s1,4
10009528:	00279793          	slli	a5,a5,0x2
1000952c:	00f907b3          	add	a5,s2,a5
10009530:	0087a223          	sw	s0,4(a5)
10009534:	00148493          	addi	s1,s1,1
10009538:	00992823          	sw	s1,16(s2)
1000953c:	01c12083          	lw	ra,28(sp)
10009540:	01812403          	lw	s0,24(sp)
10009544:	01412483          	lw	s1,20(sp)
10009548:	00c12983          	lw	s3,12(sp)
1000954c:	00090513          	mv	a0,s2
10009550:	01012903          	lw	s2,16(sp)
10009554:	02010113          	addi	sp,sp,32
10009558:	00008067          	ret
1000955c:	00492583          	lw	a1,4(s2)
10009560:	00098513          	mv	a0,s3
10009564:	01412423          	sw	s4,8(sp)
10009568:	00158593          	addi	a1,a1,1
1000956c:	e5dff0ef          	jal	100093c8 <_Balloc>
10009570:	00050a13          	mv	s4,a0
10009574:	04050e63          	beqz	a0,100095d0 <__multadd+0x130>
10009578:	01092603          	lw	a2,16(s2)
1000957c:	00c90593          	addi	a1,s2,12
10009580:	00c50513          	addi	a0,a0,12
10009584:	00260613          	addi	a2,a2,2
10009588:	00261613          	slli	a2,a2,0x2
1000958c:	bd8f90ef          	jal	10002964 <memcpy>
10009590:	00492703          	lw	a4,4(s2)
10009594:	0449a783          	lw	a5,68(s3)
10009598:	00271713          	slli	a4,a4,0x2
1000959c:	00e787b3          	add	a5,a5,a4
100095a0:	0007a703          	lw	a4,0(a5)
100095a4:	00e92023          	sw	a4,0(s2)
100095a8:	0127a023          	sw	s2,0(a5)
100095ac:	00448793          	addi	a5,s1,4
100095b0:	000a0913          	mv	s2,s4
100095b4:	00279793          	slli	a5,a5,0x2
100095b8:	00f907b3          	add	a5,s2,a5
100095bc:	00812a03          	lw	s4,8(sp)
100095c0:	00148493          	addi	s1,s1,1
100095c4:	0087a223          	sw	s0,4(a5)
100095c8:	00992823          	sw	s1,16(s2)
100095cc:	f71ff06f          	j	1000953c <__multadd+0x9c>
100095d0:	100116b7          	lui	a3,0x10011
100095d4:	10011537          	lui	a0,0x10011
100095d8:	1e468693          	addi	a3,a3,484 # 100111e4 <__extenddftf2+0x2b8>
100095dc:	00000613          	li	a2,0
100095e0:	0ba00593          	li	a1,186
100095e4:	1f850513          	addi	a0,a0,504 # 100111f8 <__extenddftf2+0x2cc>
100095e8:	4c0010ef          	jal	1000aaa8 <__assert_func>

100095ec <__hi0bits>:
100095ec:	00050793          	mv	a5,a0
100095f0:	00010737          	lui	a4,0x10
100095f4:	00000513          	li	a0,0
100095f8:	00e7f663          	bgeu	a5,a4,10009604 <__hi0bits+0x18>
100095fc:	01079793          	slli	a5,a5,0x10
10009600:	01000513          	li	a0,16
10009604:	01000737          	lui	a4,0x1000
10009608:	00e7f663          	bgeu	a5,a4,10009614 <__hi0bits+0x28>
1000960c:	00850513          	addi	a0,a0,8
10009610:	00879793          	slli	a5,a5,0x8
10009614:	10000737          	lui	a4,0x10000
10009618:	00e7f663          	bgeu	a5,a4,10009624 <__hi0bits+0x38>
1000961c:	00450513          	addi	a0,a0,4
10009620:	00479793          	slli	a5,a5,0x4
10009624:	40000737          	lui	a4,0x40000
10009628:	00e7ea63          	bltu	a5,a4,1000963c <__hi0bits+0x50>
1000962c:	fff7c793          	not	a5,a5
10009630:	01f7d793          	srli	a5,a5,0x1f
10009634:	00f50533          	add	a0,a0,a5
10009638:	00008067          	ret
1000963c:	00279793          	slli	a5,a5,0x2
10009640:	0007ca63          	bltz	a5,10009654 <__hi0bits+0x68>
10009644:	00179713          	slli	a4,a5,0x1
10009648:	00074a63          	bltz	a4,1000965c <__hi0bits+0x70>
1000964c:	02000513          	li	a0,32
10009650:	00008067          	ret
10009654:	00250513          	addi	a0,a0,2
10009658:	00008067          	ret
1000965c:	00350513          	addi	a0,a0,3
10009660:	00008067          	ret

10009664 <__lo0bits>:
10009664:	00052783          	lw	a5,0(a0)
10009668:	00050713          	mv	a4,a0
1000966c:	0077f693          	andi	a3,a5,7
10009670:	02068463          	beqz	a3,10009698 <__lo0bits+0x34>
10009674:	0017f693          	andi	a3,a5,1
10009678:	00000513          	li	a0,0
1000967c:	04069e63          	bnez	a3,100096d8 <__lo0bits+0x74>
10009680:	0027f693          	andi	a3,a5,2
10009684:	0a068863          	beqz	a3,10009734 <__lo0bits+0xd0>
10009688:	0017d793          	srli	a5,a5,0x1
1000968c:	00f72023          	sw	a5,0(a4) # 40000000 <_sp+0x2ffe2924>
10009690:	00100513          	li	a0,1
10009694:	00008067          	ret
10009698:	01079693          	slli	a3,a5,0x10
1000969c:	0106d693          	srli	a3,a3,0x10
100096a0:	00000513          	li	a0,0
100096a4:	06068e63          	beqz	a3,10009720 <__lo0bits+0xbc>
100096a8:	0ff7f693          	zext.b	a3,a5
100096ac:	06068063          	beqz	a3,1000970c <__lo0bits+0xa8>
100096b0:	00f7f693          	andi	a3,a5,15
100096b4:	04068263          	beqz	a3,100096f8 <__lo0bits+0x94>
100096b8:	0037f693          	andi	a3,a5,3
100096bc:	02068463          	beqz	a3,100096e4 <__lo0bits+0x80>
100096c0:	0017f693          	andi	a3,a5,1
100096c4:	00069c63          	bnez	a3,100096dc <__lo0bits+0x78>
100096c8:	0017d793          	srli	a5,a5,0x1
100096cc:	00150513          	addi	a0,a0,1
100096d0:	00079663          	bnez	a5,100096dc <__lo0bits+0x78>
100096d4:	02000513          	li	a0,32
100096d8:	00008067          	ret
100096dc:	00f72023          	sw	a5,0(a4)
100096e0:	00008067          	ret
100096e4:	0027d793          	srli	a5,a5,0x2
100096e8:	0017f693          	andi	a3,a5,1
100096ec:	00250513          	addi	a0,a0,2
100096f0:	fe0696e3          	bnez	a3,100096dc <__lo0bits+0x78>
100096f4:	fd5ff06f          	j	100096c8 <__lo0bits+0x64>
100096f8:	0047d793          	srli	a5,a5,0x4
100096fc:	0037f693          	andi	a3,a5,3
10009700:	00450513          	addi	a0,a0,4
10009704:	fa069ee3          	bnez	a3,100096c0 <__lo0bits+0x5c>
10009708:	fddff06f          	j	100096e4 <__lo0bits+0x80>
1000970c:	0087d793          	srli	a5,a5,0x8
10009710:	00f7f693          	andi	a3,a5,15
10009714:	00850513          	addi	a0,a0,8
10009718:	fa0690e3          	bnez	a3,100096b8 <__lo0bits+0x54>
1000971c:	fddff06f          	j	100096f8 <__lo0bits+0x94>
10009720:	0107d793          	srli	a5,a5,0x10
10009724:	0ff7f693          	zext.b	a3,a5
10009728:	01000513          	li	a0,16
1000972c:	f80692e3          	bnez	a3,100096b0 <__lo0bits+0x4c>
10009730:	fddff06f          	j	1000970c <__lo0bits+0xa8>
10009734:	0027d793          	srli	a5,a5,0x2
10009738:	00f72023          	sw	a5,0(a4)
1000973c:	00200513          	li	a0,2
10009740:	00008067          	ret

10009744 <__i2b>:
10009744:	04452783          	lw	a5,68(a0)
10009748:	ff010113          	addi	sp,sp,-16
1000974c:	00812423          	sw	s0,8(sp)
10009750:	00912223          	sw	s1,4(sp)
10009754:	00112623          	sw	ra,12(sp)
10009758:	00050413          	mv	s0,a0
1000975c:	00058493          	mv	s1,a1
10009760:	02078c63          	beqz	a5,10009798 <__i2b+0x54>
10009764:	0047a503          	lw	a0,4(a5)
10009768:	06050263          	beqz	a0,100097cc <__i2b+0x88>
1000976c:	00052703          	lw	a4,0(a0)
10009770:	00e7a223          	sw	a4,4(a5)
10009774:	00c12083          	lw	ra,12(sp)
10009778:	00812403          	lw	s0,8(sp)
1000977c:	00100793          	li	a5,1
10009780:	00952a23          	sw	s1,20(a0)
10009784:	00052623          	sw	zero,12(a0)
10009788:	00f52823          	sw	a5,16(a0)
1000978c:	00412483          	lw	s1,4(sp)
10009790:	01010113          	addi	sp,sp,16
10009794:	00008067          	ret
10009798:	02100613          	li	a2,33
1000979c:	00400593          	li	a1,4
100097a0:	35c010ef          	jal	1000aafc <_calloc_r>
100097a4:	04a42223          	sw	a0,68(s0)
100097a8:	00050793          	mv	a5,a0
100097ac:	fa051ce3          	bnez	a0,10009764 <__i2b+0x20>
100097b0:	100116b7          	lui	a3,0x10011
100097b4:	10011537          	lui	a0,0x10011
100097b8:	1e468693          	addi	a3,a3,484 # 100111e4 <__extenddftf2+0x2b8>
100097bc:	00000613          	li	a2,0
100097c0:	14500593          	li	a1,325
100097c4:	1f850513          	addi	a0,a0,504 # 100111f8 <__extenddftf2+0x2cc>
100097c8:	2e0010ef          	jal	1000aaa8 <__assert_func>
100097cc:	01c00613          	li	a2,28
100097d0:	00100593          	li	a1,1
100097d4:	00040513          	mv	a0,s0
100097d8:	324010ef          	jal	1000aafc <_calloc_r>
100097dc:	fc050ae3          	beqz	a0,100097b0 <__i2b+0x6c>
100097e0:	00100793          	li	a5,1
100097e4:	00f52223          	sw	a5,4(a0)
100097e8:	00200793          	li	a5,2
100097ec:	00f52423          	sw	a5,8(a0)
100097f0:	f85ff06f          	j	10009774 <__i2b+0x30>

100097f4 <__multiply>:
100097f4:	fe010113          	addi	sp,sp,-32
100097f8:	01212823          	sw	s2,16(sp)
100097fc:	01312623          	sw	s3,12(sp)
10009800:	0105a903          	lw	s2,16(a1)
10009804:	01062983          	lw	s3,16(a2)
10009808:	00912a23          	sw	s1,20(sp)
1000980c:	01412423          	sw	s4,8(sp)
10009810:	00112e23          	sw	ra,28(sp)
10009814:	00812c23          	sw	s0,24(sp)
10009818:	00058a13          	mv	s4,a1
1000981c:	00060493          	mv	s1,a2
10009820:	01394c63          	blt	s2,s3,10009838 <__multiply+0x44>
10009824:	00098713          	mv	a4,s3
10009828:	00058493          	mv	s1,a1
1000982c:	00090993          	mv	s3,s2
10009830:	00060a13          	mv	s4,a2
10009834:	00070913          	mv	s2,a4
10009838:	0084a783          	lw	a5,8(s1)
1000983c:	0044a583          	lw	a1,4(s1)
10009840:	01298433          	add	s0,s3,s2
10009844:	0087a7b3          	slt	a5,a5,s0
10009848:	00f585b3          	add	a1,a1,a5
1000984c:	b7dff0ef          	jal	100093c8 <_Balloc>
10009850:	1a050e63          	beqz	a0,10009a0c <__multiply+0x218>
10009854:	01450313          	addi	t1,a0,20
10009858:	00241893          	slli	a7,s0,0x2
1000985c:	011308b3          	add	a7,t1,a7
10009860:	00030793          	mv	a5,t1
10009864:	01137863          	bgeu	t1,a7,10009874 <__multiply+0x80>
10009868:	0007a023          	sw	zero,0(a5)
1000986c:	00478793          	addi	a5,a5,4
10009870:	ff17ece3          	bltu	a5,a7,10009868 <__multiply+0x74>
10009874:	014a0813          	addi	a6,s4,20
10009878:	00291e13          	slli	t3,s2,0x2
1000987c:	01448e93          	addi	t4,s1,20
10009880:	00299593          	slli	a1,s3,0x2
10009884:	01c80e33          	add	t3,a6,t3
10009888:	00be85b3          	add	a1,t4,a1
1000988c:	13c87663          	bgeu	a6,t3,100099b8 <__multiply+0x1c4>
10009890:	01548793          	addi	a5,s1,21
10009894:	00400f13          	li	t5,4
10009898:	16f5f063          	bgeu	a1,a5,100099f8 <__multiply+0x204>
1000989c:	000106b7          	lui	a3,0x10
100098a0:	fff68693          	addi	a3,a3,-1 # ffff <__heap_size+0xefff>
100098a4:	0180006f          	j	100098bc <__multiply+0xc8>
100098a8:	010fdf93          	srli	t6,t6,0x10
100098ac:	080f9863          	bnez	t6,1000993c <__multiply+0x148>
100098b0:	00480813          	addi	a6,a6,4
100098b4:	00430313          	addi	t1,t1,4
100098b8:	11c87063          	bgeu	a6,t3,100099b8 <__multiply+0x1c4>
100098bc:	00082f83          	lw	t6,0(a6)
100098c0:	00dff3b3          	and	t2,t6,a3
100098c4:	fe0382e3          	beqz	t2,100098a8 <__multiply+0xb4>
100098c8:	00030293          	mv	t0,t1
100098cc:	000e8f93          	mv	t6,t4
100098d0:	00000493          	li	s1,0
100098d4:	000fa783          	lw	a5,0(t6)
100098d8:	0002a603          	lw	a2,0(t0) # 1000293c <memset+0xb4>
100098dc:	00428293          	addi	t0,t0,4
100098e0:	00d7f733          	and	a4,a5,a3
100098e4:	02770733          	mul	a4,a4,t2
100098e8:	0107d793          	srli	a5,a5,0x10
100098ec:	00d67933          	and	s2,a2,a3
100098f0:	01065613          	srli	a2,a2,0x10
100098f4:	004f8f93          	addi	t6,t6,4
100098f8:	027787b3          	mul	a5,a5,t2
100098fc:	01270733          	add	a4,a4,s2
10009900:	00970733          	add	a4,a4,s1
10009904:	01075493          	srli	s1,a4,0x10
10009908:	00d77733          	and	a4,a4,a3
1000990c:	00c787b3          	add	a5,a5,a2
10009910:	009787b3          	add	a5,a5,s1
10009914:	01079613          	slli	a2,a5,0x10
10009918:	00e66733          	or	a4,a2,a4
1000991c:	fee2ae23          	sw	a4,-4(t0)
10009920:	0107d493          	srli	s1,a5,0x10
10009924:	fabfe8e3          	bltu	t6,a1,100098d4 <__multiply+0xe0>
10009928:	01e307b3          	add	a5,t1,t5
1000992c:	0097a023          	sw	s1,0(a5)
10009930:	00082f83          	lw	t6,0(a6)
10009934:	010fdf93          	srli	t6,t6,0x10
10009938:	f60f8ce3          	beqz	t6,100098b0 <__multiply+0xbc>
1000993c:	00032703          	lw	a4,0(t1)
10009940:	00030293          	mv	t0,t1
10009944:	000e8613          	mv	a2,t4
10009948:	00070493          	mv	s1,a4
1000994c:	00000393          	li	t2,0
10009950:	00062783          	lw	a5,0(a2)
10009954:	0104d993          	srli	s3,s1,0x10
10009958:	00d77733          	and	a4,a4,a3
1000995c:	00d7f7b3          	and	a5,a5,a3
10009960:	03f787b3          	mul	a5,a5,t6
10009964:	0042a483          	lw	s1,4(t0)
10009968:	00428293          	addi	t0,t0,4
1000996c:	00460613          	addi	a2,a2,4
10009970:	00d4f933          	and	s2,s1,a3
10009974:	007787b3          	add	a5,a5,t2
10009978:	013787b3          	add	a5,a5,s3
1000997c:	01079393          	slli	t2,a5,0x10
10009980:	00e3e733          	or	a4,t2,a4
10009984:	fee2ae23          	sw	a4,-4(t0)
10009988:	ffe65703          	lhu	a4,-2(a2)
1000998c:	0107d793          	srli	a5,a5,0x10
10009990:	03f70733          	mul	a4,a4,t6
10009994:	01270733          	add	a4,a4,s2
10009998:	00f70733          	add	a4,a4,a5
1000999c:	01075393          	srli	t2,a4,0x10
100099a0:	fab668e3          	bltu	a2,a1,10009950 <__multiply+0x15c>
100099a4:	01e307b3          	add	a5,t1,t5
100099a8:	00e7a023          	sw	a4,0(a5)
100099ac:	00480813          	addi	a6,a6,4
100099b0:	00430313          	addi	t1,t1,4
100099b4:	f1c864e3          	bltu	a6,t3,100098bc <__multiply+0xc8>
100099b8:	00804863          	bgtz	s0,100099c8 <__multiply+0x1d4>
100099bc:	0180006f          	j	100099d4 <__multiply+0x1e0>
100099c0:	fff40413          	addi	s0,s0,-1
100099c4:	00040863          	beqz	s0,100099d4 <__multiply+0x1e0>
100099c8:	ffc8a783          	lw	a5,-4(a7)
100099cc:	ffc88893          	addi	a7,a7,-4
100099d0:	fe0788e3          	beqz	a5,100099c0 <__multiply+0x1cc>
100099d4:	01c12083          	lw	ra,28(sp)
100099d8:	00852823          	sw	s0,16(a0)
100099dc:	01812403          	lw	s0,24(sp)
100099e0:	01412483          	lw	s1,20(sp)
100099e4:	01012903          	lw	s2,16(sp)
100099e8:	00c12983          	lw	s3,12(sp)
100099ec:	00812a03          	lw	s4,8(sp)
100099f0:	02010113          	addi	sp,sp,32
100099f4:	00008067          	ret
100099f8:	409587b3          	sub	a5,a1,s1
100099fc:	feb78793          	addi	a5,a5,-21
10009a00:	ffc7f793          	andi	a5,a5,-4
10009a04:	00478f13          	addi	t5,a5,4
10009a08:	e95ff06f          	j	1000989c <__multiply+0xa8>
10009a0c:	100116b7          	lui	a3,0x10011
10009a10:	10011537          	lui	a0,0x10011
10009a14:	1e468693          	addi	a3,a3,484 # 100111e4 <__extenddftf2+0x2b8>
10009a18:	00000613          	li	a2,0
10009a1c:	16200593          	li	a1,354
10009a20:	1f850513          	addi	a0,a0,504 # 100111f8 <__extenddftf2+0x2cc>
10009a24:	084010ef          	jal	1000aaa8 <__assert_func>

10009a28 <__pow5mult>:
10009a28:	fe010113          	addi	sp,sp,-32
10009a2c:	00812c23          	sw	s0,24(sp)
10009a30:	01212823          	sw	s2,16(sp)
10009a34:	01312623          	sw	s3,12(sp)
10009a38:	00112e23          	sw	ra,28(sp)
10009a3c:	00367793          	andi	a5,a2,3
10009a40:	00060413          	mv	s0,a2
10009a44:	00050993          	mv	s3,a0
10009a48:	00058913          	mv	s2,a1
10009a4c:	0a079c63          	bnez	a5,10009b04 <__pow5mult+0xdc>
10009a50:	40245413          	srai	s0,s0,0x2
10009a54:	06040a63          	beqz	s0,10009ac8 <__pow5mult+0xa0>
10009a58:	00912a23          	sw	s1,20(sp)
10009a5c:	0409a483          	lw	s1,64(s3)
10009a60:	0c048663          	beqz	s1,10009b2c <__pow5mult+0x104>
10009a64:	00147793          	andi	a5,s0,1
10009a68:	02079063          	bnez	a5,10009a88 <__pow5mult+0x60>
10009a6c:	40145413          	srai	s0,s0,0x1
10009a70:	04040a63          	beqz	s0,10009ac4 <__pow5mult+0x9c>
10009a74:	0004a503          	lw	a0,0(s1)
10009a78:	06050663          	beqz	a0,10009ae4 <__pow5mult+0xbc>
10009a7c:	00050493          	mv	s1,a0
10009a80:	00147793          	andi	a5,s0,1
10009a84:	fe0784e3          	beqz	a5,10009a6c <__pow5mult+0x44>
10009a88:	00048613          	mv	a2,s1
10009a8c:	00090593          	mv	a1,s2
10009a90:	00098513          	mv	a0,s3
10009a94:	d61ff0ef          	jal	100097f4 <__multiply>
10009a98:	02090063          	beqz	s2,10009ab8 <__pow5mult+0x90>
10009a9c:	00492703          	lw	a4,4(s2)
10009aa0:	0449a783          	lw	a5,68(s3)
10009aa4:	00271713          	slli	a4,a4,0x2
10009aa8:	00e787b3          	add	a5,a5,a4
10009aac:	0007a703          	lw	a4,0(a5)
10009ab0:	00e92023          	sw	a4,0(s2)
10009ab4:	0127a023          	sw	s2,0(a5)
10009ab8:	40145413          	srai	s0,s0,0x1
10009abc:	00050913          	mv	s2,a0
10009ac0:	fa041ae3          	bnez	s0,10009a74 <__pow5mult+0x4c>
10009ac4:	01412483          	lw	s1,20(sp)
10009ac8:	01c12083          	lw	ra,28(sp)
10009acc:	01812403          	lw	s0,24(sp)
10009ad0:	00c12983          	lw	s3,12(sp)
10009ad4:	00090513          	mv	a0,s2
10009ad8:	01012903          	lw	s2,16(sp)
10009adc:	02010113          	addi	sp,sp,32
10009ae0:	00008067          	ret
10009ae4:	00048613          	mv	a2,s1
10009ae8:	00048593          	mv	a1,s1
10009aec:	00098513          	mv	a0,s3
10009af0:	d05ff0ef          	jal	100097f4 <__multiply>
10009af4:	00a4a023          	sw	a0,0(s1)
10009af8:	00052023          	sw	zero,0(a0)
10009afc:	00050493          	mv	s1,a0
10009b00:	f81ff06f          	j	10009a80 <__pow5mult+0x58>
10009b04:	fff78793          	addi	a5,a5,-1
10009b08:	10011737          	lui	a4,0x10011
10009b0c:	5f470713          	addi	a4,a4,1524 # 100115f4 <p05.0>
10009b10:	00279793          	slli	a5,a5,0x2
10009b14:	00f707b3          	add	a5,a4,a5
10009b18:	0007a603          	lw	a2,0(a5)
10009b1c:	00000693          	li	a3,0
10009b20:	981ff0ef          	jal	100094a0 <__multadd>
10009b24:	00050913          	mv	s2,a0
10009b28:	f29ff06f          	j	10009a50 <__pow5mult+0x28>
10009b2c:	00100593          	li	a1,1
10009b30:	00098513          	mv	a0,s3
10009b34:	895ff0ef          	jal	100093c8 <_Balloc>
10009b38:	00050493          	mv	s1,a0
10009b3c:	02050063          	beqz	a0,10009b5c <__pow5mult+0x134>
10009b40:	27100793          	li	a5,625
10009b44:	00f52a23          	sw	a5,20(a0)
10009b48:	00100793          	li	a5,1
10009b4c:	00f52823          	sw	a5,16(a0)
10009b50:	04a9a023          	sw	a0,64(s3)
10009b54:	00052023          	sw	zero,0(a0)
10009b58:	f0dff06f          	j	10009a64 <__pow5mult+0x3c>
10009b5c:	100116b7          	lui	a3,0x10011
10009b60:	10011537          	lui	a0,0x10011
10009b64:	1e468693          	addi	a3,a3,484 # 100111e4 <__extenddftf2+0x2b8>
10009b68:	00000613          	li	a2,0
10009b6c:	14500593          	li	a1,325
10009b70:	1f850513          	addi	a0,a0,504 # 100111f8 <__extenddftf2+0x2cc>
10009b74:	735000ef          	jal	1000aaa8 <__assert_func>

10009b78 <__lshift>:
10009b78:	fe010113          	addi	sp,sp,-32
10009b7c:	01512223          	sw	s5,4(sp)
10009b80:	0105aa83          	lw	s5,16(a1)
10009b84:	0085a783          	lw	a5,8(a1)
10009b88:	01312623          	sw	s3,12(sp)
10009b8c:	40565993          	srai	s3,a2,0x5
10009b90:	01598ab3          	add	s5,s3,s5
10009b94:	00812c23          	sw	s0,24(sp)
10009b98:	00912a23          	sw	s1,20(sp)
10009b9c:	01212823          	sw	s2,16(sp)
10009ba0:	01412423          	sw	s4,8(sp)
10009ba4:	00112e23          	sw	ra,28(sp)
10009ba8:	001a8913          	addi	s2,s5,1
10009bac:	00058493          	mv	s1,a1
10009bb0:	00060413          	mv	s0,a2
10009bb4:	0045a583          	lw	a1,4(a1)
10009bb8:	00050a13          	mv	s4,a0
10009bbc:	0127d863          	bge	a5,s2,10009bcc <__lshift+0x54>
10009bc0:	00179793          	slli	a5,a5,0x1
10009bc4:	00158593          	addi	a1,a1,1
10009bc8:	ff27cce3          	blt	a5,s2,10009bc0 <__lshift+0x48>
10009bcc:	000a0513          	mv	a0,s4
10009bd0:	ff8ff0ef          	jal	100093c8 <_Balloc>
10009bd4:	10050c63          	beqz	a0,10009cec <__lshift+0x174>
10009bd8:	01450813          	addi	a6,a0,20
10009bdc:	03305463          	blez	s3,10009c04 <__lshift+0x8c>
10009be0:	00598993          	addi	s3,s3,5
10009be4:	00299993          	slli	s3,s3,0x2
10009be8:	01350733          	add	a4,a0,s3
10009bec:	00080793          	mv	a5,a6
10009bf0:	00478793          	addi	a5,a5,4
10009bf4:	fe07ae23          	sw	zero,-4(a5)
10009bf8:	fee79ce3          	bne	a5,a4,10009bf0 <__lshift+0x78>
10009bfc:	fec98993          	addi	s3,s3,-20
10009c00:	01380833          	add	a6,a6,s3
10009c04:	0104a883          	lw	a7,16(s1)
10009c08:	01448793          	addi	a5,s1,20
10009c0c:	01f47613          	andi	a2,s0,31
10009c10:	00289893          	slli	a7,a7,0x2
10009c14:	011788b3          	add	a7,a5,a7
10009c18:	0a060463          	beqz	a2,10009cc0 <__lshift+0x148>
10009c1c:	02000593          	li	a1,32
10009c20:	40c585b3          	sub	a1,a1,a2
10009c24:	00080313          	mv	t1,a6
10009c28:	00000693          	li	a3,0
10009c2c:	0007a703          	lw	a4,0(a5)
10009c30:	00430313          	addi	t1,t1,4
10009c34:	00478793          	addi	a5,a5,4
10009c38:	00c71733          	sll	a4,a4,a2
10009c3c:	00d76733          	or	a4,a4,a3
10009c40:	fee32e23          	sw	a4,-4(t1)
10009c44:	ffc7a683          	lw	a3,-4(a5)
10009c48:	00b6d6b3          	srl	a3,a3,a1
10009c4c:	ff17e0e3          	bltu	a5,a7,10009c2c <__lshift+0xb4>
10009c50:	01548793          	addi	a5,s1,21
10009c54:	00400713          	li	a4,4
10009c58:	00f8ea63          	bltu	a7,a5,10009c6c <__lshift+0xf4>
10009c5c:	409887b3          	sub	a5,a7,s1
10009c60:	feb78793          	addi	a5,a5,-21
10009c64:	ffc7f793          	andi	a5,a5,-4
10009c68:	00478713          	addi	a4,a5,4
10009c6c:	00e80833          	add	a6,a6,a4
10009c70:	00d82023          	sw	a3,0(a6)
10009c74:	00069463          	bnez	a3,10009c7c <__lshift+0x104>
10009c78:	000a8913          	mv	s2,s5
10009c7c:	0044a703          	lw	a4,4(s1)
10009c80:	044a2783          	lw	a5,68(s4)
10009c84:	01c12083          	lw	ra,28(sp)
10009c88:	00271713          	slli	a4,a4,0x2
10009c8c:	00e787b3          	add	a5,a5,a4
10009c90:	0007a703          	lw	a4,0(a5)
10009c94:	01252823          	sw	s2,16(a0)
10009c98:	01812403          	lw	s0,24(sp)
10009c9c:	00e4a023          	sw	a4,0(s1)
10009ca0:	0097a023          	sw	s1,0(a5)
10009ca4:	01012903          	lw	s2,16(sp)
10009ca8:	01412483          	lw	s1,20(sp)
10009cac:	00c12983          	lw	s3,12(sp)
10009cb0:	00812a03          	lw	s4,8(sp)
10009cb4:	00412a83          	lw	s5,4(sp)
10009cb8:	02010113          	addi	sp,sp,32
10009cbc:	00008067          	ret
10009cc0:	0007a703          	lw	a4,0(a5)
10009cc4:	00478793          	addi	a5,a5,4
10009cc8:	00480813          	addi	a6,a6,4
10009ccc:	fee82e23          	sw	a4,-4(a6)
10009cd0:	fb17f4e3          	bgeu	a5,a7,10009c78 <__lshift+0x100>
10009cd4:	0007a703          	lw	a4,0(a5)
10009cd8:	00478793          	addi	a5,a5,4
10009cdc:	00480813          	addi	a6,a6,4
10009ce0:	fee82e23          	sw	a4,-4(a6)
10009ce4:	fd17eee3          	bltu	a5,a7,10009cc0 <__lshift+0x148>
10009ce8:	f91ff06f          	j	10009c78 <__lshift+0x100>
10009cec:	100116b7          	lui	a3,0x10011
10009cf0:	10011537          	lui	a0,0x10011
10009cf4:	1e468693          	addi	a3,a3,484 # 100111e4 <__extenddftf2+0x2b8>
10009cf8:	00000613          	li	a2,0
10009cfc:	1de00593          	li	a1,478
10009d00:	1f850513          	addi	a0,a0,504 # 100111f8 <__extenddftf2+0x2cc>
10009d04:	5a5000ef          	jal	1000aaa8 <__assert_func>

10009d08 <__mcmp>:
10009d08:	01052703          	lw	a4,16(a0)
10009d0c:	0105a783          	lw	a5,16(a1)
10009d10:	00050813          	mv	a6,a0
10009d14:	40f70533          	sub	a0,a4,a5
10009d18:	04f71263          	bne	a4,a5,10009d5c <__mcmp+0x54>
10009d1c:	00279793          	slli	a5,a5,0x2
10009d20:	01480813          	addi	a6,a6,20
10009d24:	01458593          	addi	a1,a1,20
10009d28:	00f80733          	add	a4,a6,a5
10009d2c:	00f587b3          	add	a5,a1,a5
10009d30:	0080006f          	j	10009d38 <__mcmp+0x30>
10009d34:	02e87463          	bgeu	a6,a4,10009d5c <__mcmp+0x54>
10009d38:	ffc72603          	lw	a2,-4(a4)
10009d3c:	ffc7a683          	lw	a3,-4(a5)
10009d40:	ffc70713          	addi	a4,a4,-4
10009d44:	ffc78793          	addi	a5,a5,-4
10009d48:	fed606e3          	beq	a2,a3,10009d34 <__mcmp+0x2c>
10009d4c:	00100513          	li	a0,1
10009d50:	00d67663          	bgeu	a2,a3,10009d5c <__mcmp+0x54>
10009d54:	fff00513          	li	a0,-1
10009d58:	00008067          	ret
10009d5c:	00008067          	ret

10009d60 <__mdiff>:
10009d60:	0105a703          	lw	a4,16(a1)
10009d64:	01062783          	lw	a5,16(a2)
10009d68:	ff010113          	addi	sp,sp,-16
10009d6c:	00812423          	sw	s0,8(sp)
10009d70:	00912223          	sw	s1,4(sp)
10009d74:	00112623          	sw	ra,12(sp)
10009d78:	01212023          	sw	s2,0(sp)
10009d7c:	00058413          	mv	s0,a1
10009d80:	00060493          	mv	s1,a2
10009d84:	40f706b3          	sub	a3,a4,a5
10009d88:	18f71e63          	bne	a4,a5,10009f24 <__mdiff+0x1c4>
10009d8c:	00279693          	slli	a3,a5,0x2
10009d90:	01458613          	addi	a2,a1,20
10009d94:	01448713          	addi	a4,s1,20
10009d98:	00d607b3          	add	a5,a2,a3
10009d9c:	00d70733          	add	a4,a4,a3
10009da0:	0080006f          	j	10009da8 <__mdiff+0x48>
10009da4:	18f67c63          	bgeu	a2,a5,10009f3c <__mdiff+0x1dc>
10009da8:	ffc7a583          	lw	a1,-4(a5)
10009dac:	ffc72683          	lw	a3,-4(a4)
10009db0:	ffc78793          	addi	a5,a5,-4
10009db4:	ffc70713          	addi	a4,a4,-4
10009db8:	fed586e3          	beq	a1,a3,10009da4 <__mdiff+0x44>
10009dbc:	00100913          	li	s2,1
10009dc0:	00d5ea63          	bltu	a1,a3,10009dd4 <__mdiff+0x74>
10009dc4:	00048793          	mv	a5,s1
10009dc8:	00000913          	li	s2,0
10009dcc:	00040493          	mv	s1,s0
10009dd0:	00078413          	mv	s0,a5
10009dd4:	0044a583          	lw	a1,4(s1)
10009dd8:	df0ff0ef          	jal	100093c8 <_Balloc>
10009ddc:	1a050663          	beqz	a0,10009f88 <__mdiff+0x228>
10009de0:	0104a883          	lw	a7,16(s1)
10009de4:	01042283          	lw	t0,16(s0)
10009de8:	01448f93          	addi	t6,s1,20
10009dec:	00289313          	slli	t1,a7,0x2
10009df0:	01440813          	addi	a6,s0,20
10009df4:	00229293          	slli	t0,t0,0x2
10009df8:	01450593          	addi	a1,a0,20
10009dfc:	00010e37          	lui	t3,0x10
10009e00:	01252623          	sw	s2,12(a0)
10009e04:	006f8333          	add	t1,t6,t1
10009e08:	005802b3          	add	t0,a6,t0
10009e0c:	00058f13          	mv	t5,a1
10009e10:	000f8e93          	mv	t4,t6
10009e14:	00000693          	li	a3,0
10009e18:	fffe0e13          	addi	t3,t3,-1 # ffff <__heap_size+0xefff>
10009e1c:	000ea703          	lw	a4,0(t4)
10009e20:	00082603          	lw	a2,0(a6)
10009e24:	004f0f13          	addi	t5,t5,4
10009e28:	01c777b3          	and	a5,a4,t3
10009e2c:	01c673b3          	and	t2,a2,t3
10009e30:	407787b3          	sub	a5,a5,t2
10009e34:	00d787b3          	add	a5,a5,a3
10009e38:	01075713          	srli	a4,a4,0x10
10009e3c:	01065613          	srli	a2,a2,0x10
10009e40:	4107d693          	srai	a3,a5,0x10
10009e44:	40c70733          	sub	a4,a4,a2
10009e48:	00d70733          	add	a4,a4,a3
10009e4c:	01071693          	slli	a3,a4,0x10
10009e50:	01c7f7b3          	and	a5,a5,t3
10009e54:	00d7e7b3          	or	a5,a5,a3
10009e58:	00480813          	addi	a6,a6,4
10009e5c:	feff2e23          	sw	a5,-4(t5)
10009e60:	004e8e93          	addi	t4,t4,4
10009e64:	41075693          	srai	a3,a4,0x10
10009e68:	fa586ae3          	bltu	a6,t0,10009e1c <__mdiff+0xbc>
10009e6c:	01540713          	addi	a4,s0,21
10009e70:	40828433          	sub	s0,t0,s0
10009e74:	feb40413          	addi	s0,s0,-21
10009e78:	00e2b2b3          	sltu	t0,t0,a4
10009e7c:	0012cf13          	xori	t5,t0,1
10009e80:	00245413          	srli	s0,s0,0x2
10009e84:	00400713          	li	a4,4
10009e88:	0a028463          	beqz	t0,10009f30 <__mdiff+0x1d0>
10009e8c:	00ef8fb3          	add	t6,t6,a4
10009e90:	00e58833          	add	a6,a1,a4
10009e94:	00010eb7          	lui	t4,0x10
10009e98:	00080e13          	mv	t3,a6
10009e9c:	000f8613          	mv	a2,t6
10009ea0:	fffe8e93          	addi	t4,t4,-1 # ffff <__heap_size+0xefff>
10009ea4:	0c6ff463          	bgeu	t6,t1,10009f6c <__mdiff+0x20c>
10009ea8:	00062783          	lw	a5,0(a2)
10009eac:	004e0e13          	addi	t3,t3,4
10009eb0:	00460613          	addi	a2,a2,4
10009eb4:	01d7f733          	and	a4,a5,t4
10009eb8:	00d70733          	add	a4,a4,a3
10009ebc:	0107d593          	srli	a1,a5,0x10
10009ec0:	41075713          	srai	a4,a4,0x10
10009ec4:	00b70733          	add	a4,a4,a1
10009ec8:	00d787b3          	add	a5,a5,a3
10009ecc:	01d7f7b3          	and	a5,a5,t4
10009ed0:	01071693          	slli	a3,a4,0x10
10009ed4:	00d7e7b3          	or	a5,a5,a3
10009ed8:	fefe2e23          	sw	a5,-4(t3)
10009edc:	41075693          	srai	a3,a4,0x10
10009ee0:	fc6664e3          	bltu	a2,t1,10009ea8 <__mdiff+0x148>
10009ee4:	fff30313          	addi	t1,t1,-1
10009ee8:	41f30333          	sub	t1,t1,t6
10009eec:	ffc37313          	andi	t1,t1,-4
10009ef0:	00680733          	add	a4,a6,t1
10009ef4:	00079a63          	bnez	a5,10009f08 <__mdiff+0x1a8>
10009ef8:	ffc72783          	lw	a5,-4(a4)
10009efc:	fff88893          	addi	a7,a7,-1
10009f00:	ffc70713          	addi	a4,a4,-4
10009f04:	fe078ae3          	beqz	a5,10009ef8 <__mdiff+0x198>
10009f08:	00c12083          	lw	ra,12(sp)
10009f0c:	00812403          	lw	s0,8(sp)
10009f10:	01152823          	sw	a7,16(a0)
10009f14:	00412483          	lw	s1,4(sp)
10009f18:	00012903          	lw	s2,0(sp)
10009f1c:	01010113          	addi	sp,sp,16
10009f20:	00008067          	ret
10009f24:	00100913          	li	s2,1
10009f28:	e806dee3          	bgez	a3,10009dc4 <__mdiff+0x64>
10009f2c:	ea9ff06f          	j	10009dd4 <__mdiff+0x74>
10009f30:	00140713          	addi	a4,s0,1
10009f34:	00271713          	slli	a4,a4,0x2
10009f38:	f55ff06f          	j	10009e8c <__mdiff+0x12c>
10009f3c:	00000593          	li	a1,0
10009f40:	c88ff0ef          	jal	100093c8 <_Balloc>
10009f44:	06050063          	beqz	a0,10009fa4 <__mdiff+0x244>
10009f48:	00c12083          	lw	ra,12(sp)
10009f4c:	00812403          	lw	s0,8(sp)
10009f50:	00100793          	li	a5,1
10009f54:	00f52823          	sw	a5,16(a0)
10009f58:	00052a23          	sw	zero,20(a0)
10009f5c:	00412483          	lw	s1,4(sp)
10009f60:	00012903          	lw	s2,0(sp)
10009f64:	01010113          	addi	sp,sp,16
10009f68:	00008067          	ret
10009f6c:	00000713          	li	a4,0
10009f70:	000f1663          	bnez	t5,10009f7c <__mdiff+0x21c>
10009f74:	00e58733          	add	a4,a1,a4
10009f78:	f7dff06f          	j	10009ef4 <__mdiff+0x194>
10009f7c:	00241713          	slli	a4,s0,0x2
10009f80:	00e58733          	add	a4,a1,a4
10009f84:	f71ff06f          	j	10009ef4 <__mdiff+0x194>
10009f88:	100116b7          	lui	a3,0x10011
10009f8c:	10011537          	lui	a0,0x10011
10009f90:	1e468693          	addi	a3,a3,484 # 100111e4 <__extenddftf2+0x2b8>
10009f94:	00000613          	li	a2,0
10009f98:	24500593          	li	a1,581
10009f9c:	1f850513          	addi	a0,a0,504 # 100111f8 <__extenddftf2+0x2cc>
10009fa0:	309000ef          	jal	1000aaa8 <__assert_func>
10009fa4:	100116b7          	lui	a3,0x10011
10009fa8:	10011537          	lui	a0,0x10011
10009fac:	1e468693          	addi	a3,a3,484 # 100111e4 <__extenddftf2+0x2b8>
10009fb0:	00000613          	li	a2,0
10009fb4:	23700593          	li	a1,567
10009fb8:	1f850513          	addi	a0,a0,504 # 100111f8 <__extenddftf2+0x2cc>
10009fbc:	2ed000ef          	jal	1000aaa8 <__assert_func>

10009fc0 <__b2d>:
10009fc0:	fe010113          	addi	sp,sp,-32
10009fc4:	00912a23          	sw	s1,20(sp)
10009fc8:	01052483          	lw	s1,16(a0)
10009fcc:	00812c23          	sw	s0,24(sp)
10009fd0:	01450413          	addi	s0,a0,20
10009fd4:	00249493          	slli	s1,s1,0x2
10009fd8:	009404b3          	add	s1,s0,s1
10009fdc:	01212823          	sw	s2,16(sp)
10009fe0:	ffc4a903          	lw	s2,-4(s1)
10009fe4:	01312623          	sw	s3,12(sp)
10009fe8:	01412423          	sw	s4,8(sp)
10009fec:	00090513          	mv	a0,s2
10009ff0:	00058993          	mv	s3,a1
10009ff4:	00112e23          	sw	ra,28(sp)
10009ff8:	df4ff0ef          	jal	100095ec <__hi0bits>
10009ffc:	02000713          	li	a4,32
1000a000:	40a707b3          	sub	a5,a4,a0
1000a004:	00f9a023          	sw	a5,0(s3)
1000a008:	00a00793          	li	a5,10
1000a00c:	ffc48a13          	addi	s4,s1,-4
1000a010:	08a7dc63          	bge	a5,a0,1000a0a8 <__b2d+0xe8>
1000a014:	ff550613          	addi	a2,a0,-11
1000a018:	05447063          	bgeu	s0,s4,1000a058 <__b2d+0x98>
1000a01c:	ff84a783          	lw	a5,-8(s1)
1000a020:	04060c63          	beqz	a2,1000a078 <__b2d+0xb8>
1000a024:	40c706b3          	sub	a3,a4,a2
1000a028:	00d7d733          	srl	a4,a5,a3
1000a02c:	00c91933          	sll	s2,s2,a2
1000a030:	00e96933          	or	s2,s2,a4
1000a034:	ff848593          	addi	a1,s1,-8
1000a038:	3ff00737          	lui	a4,0x3ff00
1000a03c:	00e96733          	or	a4,s2,a4
1000a040:	00c797b3          	sll	a5,a5,a2
1000a044:	02b47e63          	bgeu	s0,a1,1000a080 <__b2d+0xc0>
1000a048:	ff44a603          	lw	a2,-12(s1)
1000a04c:	00d656b3          	srl	a3,a2,a3
1000a050:	00d7e7b3          	or	a5,a5,a3
1000a054:	02c0006f          	j	1000a080 <__b2d+0xc0>
1000a058:	00b00793          	li	a5,11
1000a05c:	00f50c63          	beq	a0,a5,1000a074 <__b2d+0xb4>
1000a060:	00c91933          	sll	s2,s2,a2
1000a064:	3ff00737          	lui	a4,0x3ff00
1000a068:	00e96733          	or	a4,s2,a4
1000a06c:	00000793          	li	a5,0
1000a070:	0100006f          	j	1000a080 <__b2d+0xc0>
1000a074:	00000793          	li	a5,0
1000a078:	3ff00737          	lui	a4,0x3ff00
1000a07c:	00e96733          	or	a4,s2,a4
1000a080:	01c12083          	lw	ra,28(sp)
1000a084:	01812403          	lw	s0,24(sp)
1000a088:	01412483          	lw	s1,20(sp)
1000a08c:	01012903          	lw	s2,16(sp)
1000a090:	00c12983          	lw	s3,12(sp)
1000a094:	00812a03          	lw	s4,8(sp)
1000a098:	00078513          	mv	a0,a5
1000a09c:	00070593          	mv	a1,a4
1000a0a0:	02010113          	addi	sp,sp,32
1000a0a4:	00008067          	ret
1000a0a8:	00b00693          	li	a3,11
1000a0ac:	40a686b3          	sub	a3,a3,a0
1000a0b0:	3ff007b7          	lui	a5,0x3ff00
1000a0b4:	00d95733          	srl	a4,s2,a3
1000a0b8:	00f76733          	or	a4,a4,a5
1000a0bc:	00000793          	li	a5,0
1000a0c0:	01447663          	bgeu	s0,s4,1000a0cc <__b2d+0x10c>
1000a0c4:	ff84a783          	lw	a5,-8(s1)
1000a0c8:	00d7d7b3          	srl	a5,a5,a3
1000a0cc:	01550513          	addi	a0,a0,21
1000a0d0:	00a91933          	sll	s2,s2,a0
1000a0d4:	00f967b3          	or	a5,s2,a5
1000a0d8:	fa9ff06f          	j	1000a080 <__b2d+0xc0>

1000a0dc <_realloc_r>:
1000a0dc:	fd010113          	addi	sp,sp,-48
1000a0e0:	02912223          	sw	s1,36(sp)
1000a0e4:	02112623          	sw	ra,44(sp)
1000a0e8:	00060493          	mv	s1,a2
1000a0ec:	1e058863          	beqz	a1,1000a2dc <_realloc_r+0x200>
1000a0f0:	02812423          	sw	s0,40(sp)
1000a0f4:	03212023          	sw	s2,32(sp)
1000a0f8:	00058413          	mv	s0,a1
1000a0fc:	01312e23          	sw	s3,28(sp)
1000a100:	01512a23          	sw	s5,20(sp)
1000a104:	01412c23          	sw	s4,24(sp)
1000a108:	00050913          	mv	s2,a0
1000a10c:	861f90ef          	jal	1000396c <__malloc_lock>
1000a110:	ffc42703          	lw	a4,-4(s0)
1000a114:	00b48793          	addi	a5,s1,11
1000a118:	01600693          	li	a3,22
1000a11c:	ff840a93          	addi	s5,s0,-8
1000a120:	ffc77993          	andi	s3,a4,-4
1000a124:	10f6f263          	bgeu	a3,a5,1000a228 <_realloc_r+0x14c>
1000a128:	ff87fa13          	andi	s4,a5,-8
1000a12c:	1007c263          	bltz	a5,1000a230 <_realloc_r+0x154>
1000a130:	109a6063          	bltu	s4,s1,1000a230 <_realloc_r+0x154>
1000a134:	1349d263          	bge	s3,s4,1000a258 <_realloc_r+0x17c>
1000a138:	100127b7          	lui	a5,0x10012
1000a13c:	01812423          	sw	s8,8(sp)
1000a140:	ac878c13          	addi	s8,a5,-1336 # 10011ac8 <__malloc_av_>
1000a144:	008c2603          	lw	a2,8(s8)
1000a148:	013a86b3          	add	a3,s5,s3
1000a14c:	0046a783          	lw	a5,4(a3)
1000a150:	1cd60863          	beq	a2,a3,1000a320 <_realloc_r+0x244>
1000a154:	ffe7f613          	andi	a2,a5,-2
1000a158:	00c68633          	add	a2,a3,a2
1000a15c:	00462603          	lw	a2,4(a2)
1000a160:	00167613          	andi	a2,a2,1
1000a164:	14061a63          	bnez	a2,1000a2b8 <_realloc_r+0x1dc>
1000a168:	ffc7f793          	andi	a5,a5,-4
1000a16c:	00f98633          	add	a2,s3,a5
1000a170:	0d465863          	bge	a2,s4,1000a240 <_realloc_r+0x164>
1000a174:	00177713          	andi	a4,a4,1
1000a178:	02071c63          	bnez	a4,1000a1b0 <_realloc_r+0xd4>
1000a17c:	01712623          	sw	s7,12(sp)
1000a180:	ff842b83          	lw	s7,-8(s0)
1000a184:	01612823          	sw	s6,16(sp)
1000a188:	417a8bb3          	sub	s7,s5,s7
1000a18c:	004ba703          	lw	a4,4(s7)
1000a190:	ffc77713          	andi	a4,a4,-4
1000a194:	00e787b3          	add	a5,a5,a4
1000a198:	01378b33          	add	s6,a5,s3
1000a19c:	334b5c63          	bge	s6,s4,1000a4d4 <_realloc_r+0x3f8>
1000a1a0:	00e98b33          	add	s6,s3,a4
1000a1a4:	294b5863          	bge	s6,s4,1000a434 <_realloc_r+0x358>
1000a1a8:	01012b03          	lw	s6,16(sp)
1000a1ac:	00c12b83          	lw	s7,12(sp)
1000a1b0:	00048593          	mv	a1,s1
1000a1b4:	00090513          	mv	a0,s2
1000a1b8:	ff1f80ef          	jal	100031a8 <_malloc_r>
1000a1bc:	00050493          	mv	s1,a0
1000a1c0:	40050863          	beqz	a0,1000a5d0 <_realloc_r+0x4f4>
1000a1c4:	ffc42783          	lw	a5,-4(s0)
1000a1c8:	ff850713          	addi	a4,a0,-8
1000a1cc:	ffe7f793          	andi	a5,a5,-2
1000a1d0:	00fa87b3          	add	a5,s5,a5
1000a1d4:	24e78663          	beq	a5,a4,1000a420 <_realloc_r+0x344>
1000a1d8:	ffc98613          	addi	a2,s3,-4
1000a1dc:	02400793          	li	a5,36
1000a1e0:	2ec7e463          	bltu	a5,a2,1000a4c8 <_realloc_r+0x3ec>
1000a1e4:	01300713          	li	a4,19
1000a1e8:	20c76a63          	bltu	a4,a2,1000a3fc <_realloc_r+0x320>
1000a1ec:	00050793          	mv	a5,a0
1000a1f0:	00040713          	mv	a4,s0
1000a1f4:	00072683          	lw	a3,0(a4) # 3ff00000 <_sp+0x2fee2924>
1000a1f8:	00d7a023          	sw	a3,0(a5)
1000a1fc:	00472683          	lw	a3,4(a4)
1000a200:	00d7a223          	sw	a3,4(a5)
1000a204:	00872703          	lw	a4,8(a4)
1000a208:	00e7a423          	sw	a4,8(a5)
1000a20c:	00040593          	mv	a1,s0
1000a210:	00090513          	mv	a0,s2
1000a214:	c91f80ef          	jal	10002ea4 <_free_r>
1000a218:	00090513          	mv	a0,s2
1000a21c:	f54f90ef          	jal	10003970 <__malloc_unlock>
1000a220:	00812c03          	lw	s8,8(sp)
1000a224:	06c0006f          	j	1000a290 <_realloc_r+0x1b4>
1000a228:	01000a13          	li	s4,16
1000a22c:	f09a74e3          	bgeu	s4,s1,1000a134 <_realloc_r+0x58>
1000a230:	00c00793          	li	a5,12
1000a234:	00f92023          	sw	a5,0(s2)
1000a238:	00000493          	li	s1,0
1000a23c:	0540006f          	j	1000a290 <_realloc_r+0x1b4>
1000a240:	00c6a783          	lw	a5,12(a3)
1000a244:	0086a703          	lw	a4,8(a3)
1000a248:	00812c03          	lw	s8,8(sp)
1000a24c:	00060993          	mv	s3,a2
1000a250:	00f72623          	sw	a5,12(a4)
1000a254:	00e7a423          	sw	a4,8(a5)
1000a258:	004aa783          	lw	a5,4(s5)
1000a25c:	414986b3          	sub	a3,s3,s4
1000a260:	00f00613          	li	a2,15
1000a264:	0017f793          	andi	a5,a5,1
1000a268:	013a8733          	add	a4,s5,s3
1000a26c:	08d66263          	bltu	a2,a3,1000a2f0 <_realloc_r+0x214>
1000a270:	0137e7b3          	or	a5,a5,s3
1000a274:	00faa223          	sw	a5,4(s5)
1000a278:	00472783          	lw	a5,4(a4)
1000a27c:	0017e793          	ori	a5,a5,1
1000a280:	00f72223          	sw	a5,4(a4)
1000a284:	00090513          	mv	a0,s2
1000a288:	ee8f90ef          	jal	10003970 <__malloc_unlock>
1000a28c:	00040493          	mv	s1,s0
1000a290:	02812403          	lw	s0,40(sp)
1000a294:	02c12083          	lw	ra,44(sp)
1000a298:	02012903          	lw	s2,32(sp)
1000a29c:	01c12983          	lw	s3,28(sp)
1000a2a0:	01812a03          	lw	s4,24(sp)
1000a2a4:	01412a83          	lw	s5,20(sp)
1000a2a8:	00048513          	mv	a0,s1
1000a2ac:	02412483          	lw	s1,36(sp)
1000a2b0:	03010113          	addi	sp,sp,48
1000a2b4:	00008067          	ret
1000a2b8:	00177713          	andi	a4,a4,1
1000a2bc:	ee071ae3          	bnez	a4,1000a1b0 <_realloc_r+0xd4>
1000a2c0:	01712623          	sw	s7,12(sp)
1000a2c4:	ff842b83          	lw	s7,-8(s0)
1000a2c8:	01612823          	sw	s6,16(sp)
1000a2cc:	417a8bb3          	sub	s7,s5,s7
1000a2d0:	004ba703          	lw	a4,4(s7)
1000a2d4:	ffc77713          	andi	a4,a4,-4
1000a2d8:	ec9ff06f          	j	1000a1a0 <_realloc_r+0xc4>
1000a2dc:	02c12083          	lw	ra,44(sp)
1000a2e0:	02412483          	lw	s1,36(sp)
1000a2e4:	00060593          	mv	a1,a2
1000a2e8:	03010113          	addi	sp,sp,48
1000a2ec:	ebdf806f          	j	100031a8 <_malloc_r>
1000a2f0:	0147e7b3          	or	a5,a5,s4
1000a2f4:	00faa223          	sw	a5,4(s5)
1000a2f8:	014a85b3          	add	a1,s5,s4
1000a2fc:	0016e693          	ori	a3,a3,1
1000a300:	00d5a223          	sw	a3,4(a1)
1000a304:	00472783          	lw	a5,4(a4)
1000a308:	00858593          	addi	a1,a1,8
1000a30c:	00090513          	mv	a0,s2
1000a310:	0017e793          	ori	a5,a5,1
1000a314:	00f72223          	sw	a5,4(a4)
1000a318:	b8df80ef          	jal	10002ea4 <_free_r>
1000a31c:	f69ff06f          	j	1000a284 <_realloc_r+0x1a8>
1000a320:	ffc7f793          	andi	a5,a5,-4
1000a324:	013786b3          	add	a3,a5,s3
1000a328:	010a0613          	addi	a2,s4,16
1000a32c:	26c6d063          	bge	a3,a2,1000a58c <_realloc_r+0x4b0>
1000a330:	00177713          	andi	a4,a4,1
1000a334:	e6071ee3          	bnez	a4,1000a1b0 <_realloc_r+0xd4>
1000a338:	01712623          	sw	s7,12(sp)
1000a33c:	ff842b83          	lw	s7,-8(s0)
1000a340:	01612823          	sw	s6,16(sp)
1000a344:	417a8bb3          	sub	s7,s5,s7
1000a348:	004ba703          	lw	a4,4(s7)
1000a34c:	ffc77713          	andi	a4,a4,-4
1000a350:	00e787b3          	add	a5,a5,a4
1000a354:	01378b33          	add	s6,a5,s3
1000a358:	e4cb44e3          	blt	s6,a2,1000a1a0 <_realloc_r+0xc4>
1000a35c:	00cba783          	lw	a5,12(s7)
1000a360:	008ba703          	lw	a4,8(s7)
1000a364:	ffc98613          	addi	a2,s3,-4
1000a368:	02400693          	li	a3,36
1000a36c:	00f72623          	sw	a5,12(a4)
1000a370:	00e7a423          	sw	a4,8(a5)
1000a374:	008b8493          	addi	s1,s7,8
1000a378:	28c6e463          	bltu	a3,a2,1000a600 <_realloc_r+0x524>
1000a37c:	01300713          	li	a4,19
1000a380:	00048793          	mv	a5,s1
1000a384:	02c77263          	bgeu	a4,a2,1000a3a8 <_realloc_r+0x2cc>
1000a388:	00042703          	lw	a4,0(s0)
1000a38c:	01b00793          	li	a5,27
1000a390:	00eba423          	sw	a4,8(s7)
1000a394:	00442703          	lw	a4,4(s0)
1000a398:	00eba623          	sw	a4,12(s7)
1000a39c:	26c7ea63          	bltu	a5,a2,1000a610 <_realloc_r+0x534>
1000a3a0:	00840413          	addi	s0,s0,8
1000a3a4:	010b8793          	addi	a5,s7,16
1000a3a8:	00042703          	lw	a4,0(s0)
1000a3ac:	00e7a023          	sw	a4,0(a5)
1000a3b0:	00442703          	lw	a4,4(s0)
1000a3b4:	00e7a223          	sw	a4,4(a5)
1000a3b8:	00842703          	lw	a4,8(s0)
1000a3bc:	00e7a423          	sw	a4,8(a5)
1000a3c0:	014b8733          	add	a4,s7,s4
1000a3c4:	414b0b33          	sub	s6,s6,s4
1000a3c8:	00ec2423          	sw	a4,8(s8)
1000a3cc:	001b6793          	ori	a5,s6,1
1000a3d0:	00f72223          	sw	a5,4(a4)
1000a3d4:	004ba783          	lw	a5,4(s7)
1000a3d8:	00090513          	mv	a0,s2
1000a3dc:	0017f793          	andi	a5,a5,1
1000a3e0:	0147e7b3          	or	a5,a5,s4
1000a3e4:	00fba223          	sw	a5,4(s7)
1000a3e8:	d88f90ef          	jal	10003970 <__malloc_unlock>
1000a3ec:	01012b03          	lw	s6,16(sp)
1000a3f0:	00c12b83          	lw	s7,12(sp)
1000a3f4:	00812c03          	lw	s8,8(sp)
1000a3f8:	e99ff06f          	j	1000a290 <_realloc_r+0x1b4>
1000a3fc:	00042683          	lw	a3,0(s0)
1000a400:	01b00713          	li	a4,27
1000a404:	00d52023          	sw	a3,0(a0)
1000a408:	00442683          	lw	a3,4(s0)
1000a40c:	00d52223          	sw	a3,4(a0)
1000a410:	14c76e63          	bltu	a4,a2,1000a56c <_realloc_r+0x490>
1000a414:	00840713          	addi	a4,s0,8
1000a418:	00850793          	addi	a5,a0,8
1000a41c:	dd9ff06f          	j	1000a1f4 <_realloc_r+0x118>
1000a420:	ffc52783          	lw	a5,-4(a0)
1000a424:	00812c03          	lw	s8,8(sp)
1000a428:	ffc7f793          	andi	a5,a5,-4
1000a42c:	00f989b3          	add	s3,s3,a5
1000a430:	e29ff06f          	j	1000a258 <_realloc_r+0x17c>
1000a434:	00cba783          	lw	a5,12(s7)
1000a438:	008ba703          	lw	a4,8(s7)
1000a43c:	ffc98613          	addi	a2,s3,-4
1000a440:	02400693          	li	a3,36
1000a444:	00f72623          	sw	a5,12(a4)
1000a448:	00e7a423          	sw	a4,8(a5)
1000a44c:	008b8493          	addi	s1,s7,8
1000a450:	10c6e663          	bltu	a3,a2,1000a55c <_realloc_r+0x480>
1000a454:	01300713          	li	a4,19
1000a458:	00048793          	mv	a5,s1
1000a45c:	02c77c63          	bgeu	a4,a2,1000a494 <_realloc_r+0x3b8>
1000a460:	00042703          	lw	a4,0(s0)
1000a464:	01b00793          	li	a5,27
1000a468:	00eba423          	sw	a4,8(s7)
1000a46c:	00442703          	lw	a4,4(s0)
1000a470:	00eba623          	sw	a4,12(s7)
1000a474:	14c7f863          	bgeu	a5,a2,1000a5c4 <_realloc_r+0x4e8>
1000a478:	00842783          	lw	a5,8(s0)
1000a47c:	00fba823          	sw	a5,16(s7)
1000a480:	00c42783          	lw	a5,12(s0)
1000a484:	00fbaa23          	sw	a5,20(s7)
1000a488:	0ad60c63          	beq	a2,a3,1000a540 <_realloc_r+0x464>
1000a48c:	01040413          	addi	s0,s0,16
1000a490:	018b8793          	addi	a5,s7,24
1000a494:	00042703          	lw	a4,0(s0)
1000a498:	00e7a023          	sw	a4,0(a5)
1000a49c:	00442703          	lw	a4,4(s0)
1000a4a0:	00e7a223          	sw	a4,4(a5)
1000a4a4:	00842703          	lw	a4,8(s0)
1000a4a8:	00e7a423          	sw	a4,8(a5)
1000a4ac:	000b0993          	mv	s3,s6
1000a4b0:	000b8a93          	mv	s5,s7
1000a4b4:	01012b03          	lw	s6,16(sp)
1000a4b8:	00c12b83          	lw	s7,12(sp)
1000a4bc:	00812c03          	lw	s8,8(sp)
1000a4c0:	00048413          	mv	s0,s1
1000a4c4:	d95ff06f          	j	1000a258 <_realloc_r+0x17c>
1000a4c8:	00040593          	mv	a1,s0
1000a4cc:	8e5fc0ef          	jal	10006db0 <memmove>
1000a4d0:	d3dff06f          	j	1000a20c <_realloc_r+0x130>
1000a4d4:	00c6a783          	lw	a5,12(a3)
1000a4d8:	0086a703          	lw	a4,8(a3)
1000a4dc:	ffc98613          	addi	a2,s3,-4
1000a4e0:	02400693          	li	a3,36
1000a4e4:	00f72623          	sw	a5,12(a4)
1000a4e8:	00e7a423          	sw	a4,8(a5)
1000a4ec:	008ba703          	lw	a4,8(s7)
1000a4f0:	00cba783          	lw	a5,12(s7)
1000a4f4:	008b8493          	addi	s1,s7,8
1000a4f8:	00f72623          	sw	a5,12(a4)
1000a4fc:	00e7a423          	sw	a4,8(a5)
1000a500:	04c6ee63          	bltu	a3,a2,1000a55c <_realloc_r+0x480>
1000a504:	01300713          	li	a4,19
1000a508:	00048793          	mv	a5,s1
1000a50c:	f8c774e3          	bgeu	a4,a2,1000a494 <_realloc_r+0x3b8>
1000a510:	00042703          	lw	a4,0(s0)
1000a514:	01b00793          	li	a5,27
1000a518:	00eba423          	sw	a4,8(s7)
1000a51c:	00442703          	lw	a4,4(s0)
1000a520:	00eba623          	sw	a4,12(s7)
1000a524:	0ac7f063          	bgeu	a5,a2,1000a5c4 <_realloc_r+0x4e8>
1000a528:	00842703          	lw	a4,8(s0)
1000a52c:	02400793          	li	a5,36
1000a530:	00eba823          	sw	a4,16(s7)
1000a534:	00c42703          	lw	a4,12(s0)
1000a538:	00ebaa23          	sw	a4,20(s7)
1000a53c:	f4f618e3          	bne	a2,a5,1000a48c <_realloc_r+0x3b0>
1000a540:	01042703          	lw	a4,16(s0)
1000a544:	020b8793          	addi	a5,s7,32
1000a548:	01840413          	addi	s0,s0,24
1000a54c:	00ebac23          	sw	a4,24(s7)
1000a550:	ffc42703          	lw	a4,-4(s0)
1000a554:	00ebae23          	sw	a4,28(s7)
1000a558:	f3dff06f          	j	1000a494 <_realloc_r+0x3b8>
1000a55c:	00040593          	mv	a1,s0
1000a560:	00048513          	mv	a0,s1
1000a564:	84dfc0ef          	jal	10006db0 <memmove>
1000a568:	f45ff06f          	j	1000a4ac <_realloc_r+0x3d0>
1000a56c:	00842703          	lw	a4,8(s0)
1000a570:	00e52423          	sw	a4,8(a0)
1000a574:	00c42703          	lw	a4,12(s0)
1000a578:	00e52623          	sw	a4,12(a0)
1000a57c:	06f60463          	beq	a2,a5,1000a5e4 <_realloc_r+0x508>
1000a580:	01040713          	addi	a4,s0,16
1000a584:	01050793          	addi	a5,a0,16
1000a588:	c6dff06f          	j	1000a1f4 <_realloc_r+0x118>
1000a58c:	014a8ab3          	add	s5,s5,s4
1000a590:	414686b3          	sub	a3,a3,s4
1000a594:	015c2423          	sw	s5,8(s8)
1000a598:	0016e793          	ori	a5,a3,1
1000a59c:	00faa223          	sw	a5,4(s5)
1000a5a0:	ffc42783          	lw	a5,-4(s0)
1000a5a4:	00090513          	mv	a0,s2
1000a5a8:	00040493          	mv	s1,s0
1000a5ac:	0017f793          	andi	a5,a5,1
1000a5b0:	0147e7b3          	or	a5,a5,s4
1000a5b4:	fef42e23          	sw	a5,-4(s0)
1000a5b8:	bb8f90ef          	jal	10003970 <__malloc_unlock>
1000a5bc:	00812c03          	lw	s8,8(sp)
1000a5c0:	cd1ff06f          	j	1000a290 <_realloc_r+0x1b4>
1000a5c4:	00840413          	addi	s0,s0,8
1000a5c8:	010b8793          	addi	a5,s7,16
1000a5cc:	ec9ff06f          	j	1000a494 <_realloc_r+0x3b8>
1000a5d0:	00090513          	mv	a0,s2
1000a5d4:	b9cf90ef          	jal	10003970 <__malloc_unlock>
1000a5d8:	00000493          	li	s1,0
1000a5dc:	00812c03          	lw	s8,8(sp)
1000a5e0:	cb1ff06f          	j	1000a290 <_realloc_r+0x1b4>
1000a5e4:	01042683          	lw	a3,16(s0)
1000a5e8:	01840713          	addi	a4,s0,24
1000a5ec:	01850793          	addi	a5,a0,24
1000a5f0:	00d52823          	sw	a3,16(a0)
1000a5f4:	01442683          	lw	a3,20(s0)
1000a5f8:	00d52a23          	sw	a3,20(a0)
1000a5fc:	bf9ff06f          	j	1000a1f4 <_realloc_r+0x118>
1000a600:	00040593          	mv	a1,s0
1000a604:	00048513          	mv	a0,s1
1000a608:	fa8fc0ef          	jal	10006db0 <memmove>
1000a60c:	db5ff06f          	j	1000a3c0 <_realloc_r+0x2e4>
1000a610:	00842783          	lw	a5,8(s0)
1000a614:	00fba823          	sw	a5,16(s7)
1000a618:	00c42783          	lw	a5,12(s0)
1000a61c:	00fbaa23          	sw	a5,20(s7)
1000a620:	00d60863          	beq	a2,a3,1000a630 <_realloc_r+0x554>
1000a624:	01040413          	addi	s0,s0,16
1000a628:	018b8793          	addi	a5,s7,24
1000a62c:	d7dff06f          	j	1000a3a8 <_realloc_r+0x2cc>
1000a630:	01042703          	lw	a4,16(s0)
1000a634:	020b8793          	addi	a5,s7,32
1000a638:	01840413          	addi	s0,s0,24
1000a63c:	00ebac23          	sw	a4,24(s7)
1000a640:	ffc42703          	lw	a4,-4(s0)
1000a644:	00ebae23          	sw	a4,28(s7)
1000a648:	d61ff06f          	j	1000a3a8 <_realloc_r+0x2cc>

1000a64c <__ssprint_r>:
1000a64c:	00862783          	lw	a5,8(a2)
1000a650:	fd010113          	addi	sp,sp,-48
1000a654:	01312e23          	sw	s3,28(sp)
1000a658:	01412c23          	sw	s4,24(sp)
1000a65c:	02112623          	sw	ra,44(sp)
1000a660:	00062983          	lw	s3,0(a2)
1000a664:	00060a13          	mv	s4,a2
1000a668:	1c078063          	beqz	a5,1000a828 <__ssprint_r+0x1dc>
1000a66c:	02912223          	sw	s1,36(sp)
1000a670:	03212023          	sw	s2,32(sp)
1000a674:	01512a23          	sw	s5,20(sp)
1000a678:	01712623          	sw	s7,12(sp)
1000a67c:	0085a703          	lw	a4,8(a1)
1000a680:	0005a783          	lw	a5,0(a1)
1000a684:	02812423          	sw	s0,40(sp)
1000a688:	01612823          	sw	s6,16(sp)
1000a68c:	01812423          	sw	s8,8(sp)
1000a690:	00050a93          	mv	s5,a0
1000a694:	00058493          	mv	s1,a1
1000a698:	00000b93          	li	s7,0
1000a69c:	00000913          	li	s2,0
1000a6a0:	0e00006f          	j	1000a780 <__ssprint_r+0x134>
1000a6a4:	00c49703          	lh	a4,12(s1)
1000a6a8:	48077693          	andi	a3,a4,1152
1000a6ac:	08068a63          	beqz	a3,1000a740 <__ssprint_r+0xf4>
1000a6b0:	0144a603          	lw	a2,20(s1)
1000a6b4:	0104a583          	lw	a1,16(s1)
1000a6b8:	00161693          	slli	a3,a2,0x1
1000a6bc:	00c686b3          	add	a3,a3,a2
1000a6c0:	40b78433          	sub	s0,a5,a1
1000a6c4:	01f6db13          	srli	s6,a3,0x1f
1000a6c8:	00db0b33          	add	s6,s6,a3
1000a6cc:	00140793          	addi	a5,s0,1
1000a6d0:	401b5b13          	srai	s6,s6,0x1
1000a6d4:	012787b3          	add	a5,a5,s2
1000a6d8:	000b0613          	mv	a2,s6
1000a6dc:	00fb7663          	bgeu	s6,a5,1000a6e8 <__ssprint_r+0x9c>
1000a6e0:	00078b13          	mv	s6,a5
1000a6e4:	00078613          	mv	a2,a5
1000a6e8:	40077713          	andi	a4,a4,1024
1000a6ec:	0a070a63          	beqz	a4,1000a7a0 <__ssprint_r+0x154>
1000a6f0:	00060593          	mv	a1,a2
1000a6f4:	000a8513          	mv	a0,s5
1000a6f8:	ab1f80ef          	jal	100031a8 <_malloc_r>
1000a6fc:	00050c13          	mv	s8,a0
1000a700:	0a050e63          	beqz	a0,1000a7bc <__ssprint_r+0x170>
1000a704:	0104a583          	lw	a1,16(s1)
1000a708:	00040613          	mv	a2,s0
1000a70c:	a58f80ef          	jal	10002964 <memcpy>
1000a710:	00c4d783          	lhu	a5,12(s1)
1000a714:	b7f7f793          	andi	a5,a5,-1153
1000a718:	0807e793          	ori	a5,a5,128
1000a71c:	00f49623          	sh	a5,12(s1)
1000a720:	408b07b3          	sub	a5,s6,s0
1000a724:	008c0533          	add	a0,s8,s0
1000a728:	0164aa23          	sw	s6,20(s1)
1000a72c:	0184a823          	sw	s8,16(s1)
1000a730:	00a4a023          	sw	a0,0(s1)
1000a734:	00090b13          	mv	s6,s2
1000a738:	00f4a423          	sw	a5,8(s1)
1000a73c:	00090413          	mv	s0,s2
1000a740:	00040613          	mv	a2,s0
1000a744:	000b8593          	mv	a1,s7
1000a748:	e68fc0ef          	jal	10006db0 <memmove>
1000a74c:	0084a703          	lw	a4,8(s1)
1000a750:	0004a783          	lw	a5,0(s1)
1000a754:	008a2683          	lw	a3,8(s4)
1000a758:	41670733          	sub	a4,a4,s6
1000a75c:	008787b3          	add	a5,a5,s0
1000a760:	00e4a423          	sw	a4,8(s1)
1000a764:	00f4a023          	sw	a5,0(s1)
1000a768:	412686b3          	sub	a3,a3,s2
1000a76c:	00da2423          	sw	a3,8(s4)
1000a770:	08068e63          	beqz	a3,1000a80c <__ssprint_r+0x1c0>
1000a774:	0009ab83          	lw	s7,0(s3)
1000a778:	0049a903          	lw	s2,4(s3)
1000a77c:	00898993          	addi	s3,s3,8
1000a780:	00070b13          	mv	s6,a4
1000a784:	00078513          	mv	a0,a5
1000a788:	fe0906e3          	beqz	s2,1000a774 <__ssprint_r+0x128>
1000a78c:	00070413          	mv	s0,a4
1000a790:	f0e97ae3          	bgeu	s2,a4,1000a6a4 <__ssprint_r+0x58>
1000a794:	00090b13          	mv	s6,s2
1000a798:	00090413          	mv	s0,s2
1000a79c:	fa5ff06f          	j	1000a740 <__ssprint_r+0xf4>
1000a7a0:	000a8513          	mv	a0,s5
1000a7a4:	939ff0ef          	jal	1000a0dc <_realloc_r>
1000a7a8:	00050c13          	mv	s8,a0
1000a7ac:	f6051ae3          	bnez	a0,1000a720 <__ssprint_r+0xd4>
1000a7b0:	0104a583          	lw	a1,16(s1)
1000a7b4:	000a8513          	mv	a0,s5
1000a7b8:	eecf80ef          	jal	10002ea4 <_free_r>
1000a7bc:	00c4d783          	lhu	a5,12(s1)
1000a7c0:	00c00713          	li	a4,12
1000a7c4:	00eaa023          	sw	a4,0(s5)
1000a7c8:	02812403          	lw	s0,40(sp)
1000a7cc:	02c12083          	lw	ra,44(sp)
1000a7d0:	0407e793          	ori	a5,a5,64
1000a7d4:	00f49623          	sh	a5,12(s1)
1000a7d8:	02012903          	lw	s2,32(sp)
1000a7dc:	02412483          	lw	s1,36(sp)
1000a7e0:	01412a83          	lw	s5,20(sp)
1000a7e4:	01012b03          	lw	s6,16(sp)
1000a7e8:	00c12b83          	lw	s7,12(sp)
1000a7ec:	00812c03          	lw	s8,8(sp)
1000a7f0:	000a2423          	sw	zero,8(s4)
1000a7f4:	000a2223          	sw	zero,4(s4)
1000a7f8:	01c12983          	lw	s3,28(sp)
1000a7fc:	01812a03          	lw	s4,24(sp)
1000a800:	fff00513          	li	a0,-1
1000a804:	03010113          	addi	sp,sp,48
1000a808:	00008067          	ret
1000a80c:	02812403          	lw	s0,40(sp)
1000a810:	02412483          	lw	s1,36(sp)
1000a814:	02012903          	lw	s2,32(sp)
1000a818:	01412a83          	lw	s5,20(sp)
1000a81c:	01012b03          	lw	s6,16(sp)
1000a820:	00c12b83          	lw	s7,12(sp)
1000a824:	00812c03          	lw	s8,8(sp)
1000a828:	02c12083          	lw	ra,44(sp)
1000a82c:	000a2223          	sw	zero,4(s4)
1000a830:	01c12983          	lw	s3,28(sp)
1000a834:	01812a03          	lw	s4,24(sp)
1000a838:	00000513          	li	a0,0
1000a83c:	03010113          	addi	sp,sp,48
1000a840:	00008067          	ret

1000a844 <__smakebuf_r>:
1000a844:	00c59783          	lh	a5,12(a1)
1000a848:	f8010113          	addi	sp,sp,-128
1000a84c:	06812c23          	sw	s0,120(sp)
1000a850:	06112e23          	sw	ra,124(sp)
1000a854:	0027f713          	andi	a4,a5,2
1000a858:	00058413          	mv	s0,a1
1000a85c:	02070463          	beqz	a4,1000a884 <__smakebuf_r+0x40>
1000a860:	04358793          	addi	a5,a1,67
1000a864:	00f5a023          	sw	a5,0(a1)
1000a868:	00f5a823          	sw	a5,16(a1)
1000a86c:	00100793          	li	a5,1
1000a870:	00f5aa23          	sw	a5,20(a1)
1000a874:	07c12083          	lw	ra,124(sp)
1000a878:	07812403          	lw	s0,120(sp)
1000a87c:	08010113          	addi	sp,sp,128
1000a880:	00008067          	ret
1000a884:	00e59583          	lh	a1,14(a1)
1000a888:	06912a23          	sw	s1,116(sp)
1000a88c:	07212823          	sw	s2,112(sp)
1000a890:	07312623          	sw	s3,108(sp)
1000a894:	07412423          	sw	s4,104(sp)
1000a898:	00050493          	mv	s1,a0
1000a89c:	0805c663          	bltz	a1,1000a928 <__smakebuf_r+0xe4>
1000a8a0:	00810613          	addi	a2,sp,8
1000a8a4:	144000ef          	jal	1000a9e8 <_fstat_r>
1000a8a8:	06054e63          	bltz	a0,1000a924 <__smakebuf_r+0xe0>
1000a8ac:	00c12783          	lw	a5,12(sp)
1000a8b0:	0000f937          	lui	s2,0xf
1000a8b4:	000019b7          	lui	s3,0x1
1000a8b8:	00f97933          	and	s2,s2,a5
1000a8bc:	ffffe7b7          	lui	a5,0xffffe
1000a8c0:	00f90933          	add	s2,s2,a5
1000a8c4:	00193913          	seqz	s2,s2
1000a8c8:	40000a13          	li	s4,1024
1000a8cc:	80098993          	addi	s3,s3,-2048 # 800 <__stack_size+0x6d4>
1000a8d0:	000a0593          	mv	a1,s4
1000a8d4:	00048513          	mv	a0,s1
1000a8d8:	8d1f80ef          	jal	100031a8 <_malloc_r>
1000a8dc:	00c41783          	lh	a5,12(s0)
1000a8e0:	06050863          	beqz	a0,1000a950 <__smakebuf_r+0x10c>
1000a8e4:	0807e793          	ori	a5,a5,128
1000a8e8:	00a42023          	sw	a0,0(s0)
1000a8ec:	00a42823          	sw	a0,16(s0)
1000a8f0:	00f41623          	sh	a5,12(s0)
1000a8f4:	01442a23          	sw	s4,20(s0)
1000a8f8:	0a091063          	bnez	s2,1000a998 <__smakebuf_r+0x154>
1000a8fc:	0137e7b3          	or	a5,a5,s3
1000a900:	07c12083          	lw	ra,124(sp)
1000a904:	00f41623          	sh	a5,12(s0)
1000a908:	07812403          	lw	s0,120(sp)
1000a90c:	07412483          	lw	s1,116(sp)
1000a910:	07012903          	lw	s2,112(sp)
1000a914:	06c12983          	lw	s3,108(sp)
1000a918:	06812a03          	lw	s4,104(sp)
1000a91c:	08010113          	addi	sp,sp,128
1000a920:	00008067          	ret
1000a924:	00c41783          	lh	a5,12(s0)
1000a928:	0807f793          	andi	a5,a5,128
1000a92c:	00000913          	li	s2,0
1000a930:	04078e63          	beqz	a5,1000a98c <__smakebuf_r+0x148>
1000a934:	04000a13          	li	s4,64
1000a938:	000a0593          	mv	a1,s4
1000a93c:	00048513          	mv	a0,s1
1000a940:	869f80ef          	jal	100031a8 <_malloc_r>
1000a944:	00c41783          	lh	a5,12(s0)
1000a948:	00000993          	li	s3,0
1000a94c:	f8051ce3          	bnez	a0,1000a8e4 <__smakebuf_r+0xa0>
1000a950:	2007f713          	andi	a4,a5,512
1000a954:	04071e63          	bnez	a4,1000a9b0 <__smakebuf_r+0x16c>
1000a958:	ffc7f793          	andi	a5,a5,-4
1000a95c:	0027e793          	ori	a5,a5,2
1000a960:	04340713          	addi	a4,s0,67
1000a964:	00f41623          	sh	a5,12(s0)
1000a968:	00100793          	li	a5,1
1000a96c:	07412483          	lw	s1,116(sp)
1000a970:	07012903          	lw	s2,112(sp)
1000a974:	06c12983          	lw	s3,108(sp)
1000a978:	06812a03          	lw	s4,104(sp)
1000a97c:	00e42023          	sw	a4,0(s0)
1000a980:	00e42823          	sw	a4,16(s0)
1000a984:	00f42a23          	sw	a5,20(s0)
1000a988:	eedff06f          	j	1000a874 <__smakebuf_r+0x30>
1000a98c:	40000a13          	li	s4,1024
1000a990:	00000993          	li	s3,0
1000a994:	f3dff06f          	j	1000a8d0 <__smakebuf_r+0x8c>
1000a998:	00e41583          	lh	a1,14(s0)
1000a99c:	00048513          	mv	a0,s1
1000a9a0:	0ac000ef          	jal	1000aa4c <_isatty_r>
1000a9a4:	02051063          	bnez	a0,1000a9c4 <__smakebuf_r+0x180>
1000a9a8:	00c41783          	lh	a5,12(s0)
1000a9ac:	f51ff06f          	j	1000a8fc <__smakebuf_r+0xb8>
1000a9b0:	07412483          	lw	s1,116(sp)
1000a9b4:	07012903          	lw	s2,112(sp)
1000a9b8:	06c12983          	lw	s3,108(sp)
1000a9bc:	06812a03          	lw	s4,104(sp)
1000a9c0:	eb5ff06f          	j	1000a874 <__smakebuf_r+0x30>
1000a9c4:	00c45783          	lhu	a5,12(s0)
1000a9c8:	ffc7f793          	andi	a5,a5,-4
1000a9cc:	0017e793          	ori	a5,a5,1
1000a9d0:	01079793          	slli	a5,a5,0x10
1000a9d4:	4107d793          	srai	a5,a5,0x10
1000a9d8:	f25ff06f          	j	1000a8fc <__smakebuf_r+0xb8>

1000a9dc <__locale_mb_cur_max>:
1000a9dc:	100127b7          	lui	a5,0x10012
1000a9e0:	ff87c503          	lbu	a0,-8(a5) # 10011ff8 <__global_locale+0x128>
1000a9e4:	00008067          	ret

1000a9e8 <_fstat_r>:
1000a9e8:	ff010113          	addi	sp,sp,-16
1000a9ec:	00058713          	mv	a4,a1
1000a9f0:	00812423          	sw	s0,8(sp)
1000a9f4:	00912223          	sw	s1,4(sp)
1000a9f8:	00050413          	mv	s0,a0
1000a9fc:	00060593          	mv	a1,a2
1000aa00:	00070513          	mv	a0,a4
1000aa04:	00112623          	sw	ra,12(sp)
1000aa08:	9001a623          	sw	zero,-1780(gp) # 1001214c <errno>
1000aa0c:	99ff50ef          	jal	100003aa <_fstat>
1000aa10:	fff00793          	li	a5,-1
1000aa14:	00f50c63          	beq	a0,a5,1000aa2c <_fstat_r+0x44>
1000aa18:	00c12083          	lw	ra,12(sp)
1000aa1c:	00812403          	lw	s0,8(sp)
1000aa20:	00412483          	lw	s1,4(sp)
1000aa24:	01010113          	addi	sp,sp,16
1000aa28:	00008067          	ret
1000aa2c:	90c1a783          	lw	a5,-1780(gp) # 1001214c <errno>
1000aa30:	fe0784e3          	beqz	a5,1000aa18 <_fstat_r+0x30>
1000aa34:	00c12083          	lw	ra,12(sp)
1000aa38:	00f42023          	sw	a5,0(s0)
1000aa3c:	00812403          	lw	s0,8(sp)
1000aa40:	00412483          	lw	s1,4(sp)
1000aa44:	01010113          	addi	sp,sp,16
1000aa48:	00008067          	ret

1000aa4c <_isatty_r>:
1000aa4c:	ff010113          	addi	sp,sp,-16
1000aa50:	00812423          	sw	s0,8(sp)
1000aa54:	00912223          	sw	s1,4(sp)
1000aa58:	00050413          	mv	s0,a0
1000aa5c:	00058513          	mv	a0,a1
1000aa60:	00112623          	sw	ra,12(sp)
1000aa64:	9001a623          	sw	zero,-1780(gp) # 1001214c <errno>
1000aa68:	94ff50ef          	jal	100003b6 <_isatty>
1000aa6c:	fff00793          	li	a5,-1
1000aa70:	00f50c63          	beq	a0,a5,1000aa88 <_isatty_r+0x3c>
1000aa74:	00c12083          	lw	ra,12(sp)
1000aa78:	00812403          	lw	s0,8(sp)
1000aa7c:	00412483          	lw	s1,4(sp)
1000aa80:	01010113          	addi	sp,sp,16
1000aa84:	00008067          	ret
1000aa88:	90c1a783          	lw	a5,-1780(gp) # 1001214c <errno>
1000aa8c:	fe0784e3          	beqz	a5,1000aa74 <_isatty_r+0x28>
1000aa90:	00c12083          	lw	ra,12(sp)
1000aa94:	00f42023          	sw	a5,0(s0)
1000aa98:	00812403          	lw	s0,8(sp)
1000aa9c:	00412483          	lw	s1,4(sp)
1000aaa0:	01010113          	addi	sp,sp,16
1000aaa4:	00008067          	ret

1000aaa8 <__assert_func>:
1000aaa8:	87c1a703          	lw	a4,-1924(gp) # 100120bc <_impure_ptr>
1000aaac:	ff010113          	addi	sp,sp,-16
1000aab0:	00068793          	mv	a5,a3
1000aab4:	00060813          	mv	a6,a2
1000aab8:	00112623          	sw	ra,12(sp)
1000aabc:	00c72883          	lw	a7,12(a4)
1000aac0:	00050693          	mv	a3,a0
1000aac4:	00058713          	mv	a4,a1
1000aac8:	00078613          	mv	a2,a5
1000aacc:	02080063          	beqz	a6,1000aaec <__assert_func+0x44>
1000aad0:	100117b7          	lui	a5,0x10011
1000aad4:	25478793          	addi	a5,a5,596 # 10011254 <__extenddftf2+0x328>
1000aad8:	100115b7          	lui	a1,0x10011
1000aadc:	26458593          	addi	a1,a1,612 # 10011264 <__extenddftf2+0x338>
1000aae0:	00088513          	mv	a0,a7
1000aae4:	198000ef          	jal	1000ac7c <fiprintf>
1000aae8:	c30f70ef          	jal	10001f18 <abort>
1000aaec:	10011837          	lui	a6,0x10011
1000aaf0:	26080793          	addi	a5,a6,608 # 10011260 <__extenddftf2+0x334>
1000aaf4:	26080813          	addi	a6,a6,608
1000aaf8:	fe1ff06f          	j	1000aad8 <__assert_func+0x30>

1000aafc <_calloc_r>:
1000aafc:	02c5b7b3          	mulhu	a5,a1,a2
1000ab00:	ff010113          	addi	sp,sp,-16
1000ab04:	00112623          	sw	ra,12(sp)
1000ab08:	00812423          	sw	s0,8(sp)
1000ab0c:	02c585b3          	mul	a1,a1,a2
1000ab10:	0a079063          	bnez	a5,1000abb0 <_calloc_r+0xb4>
1000ab14:	e94f80ef          	jal	100031a8 <_malloc_r>
1000ab18:	00050413          	mv	s0,a0
1000ab1c:	0a050063          	beqz	a0,1000abbc <_calloc_r+0xc0>
1000ab20:	ffc52603          	lw	a2,-4(a0)
1000ab24:	02400713          	li	a4,36
1000ab28:	ffc67613          	andi	a2,a2,-4
1000ab2c:	ffc60613          	addi	a2,a2,-4
1000ab30:	04c76863          	bltu	a4,a2,1000ab80 <_calloc_r+0x84>
1000ab34:	01300693          	li	a3,19
1000ab38:	00050793          	mv	a5,a0
1000ab3c:	02c6f263          	bgeu	a3,a2,1000ab60 <_calloc_r+0x64>
1000ab40:	00052023          	sw	zero,0(a0)
1000ab44:	00052223          	sw	zero,4(a0)
1000ab48:	01b00793          	li	a5,27
1000ab4c:	04c7f863          	bgeu	a5,a2,1000ab9c <_calloc_r+0xa0>
1000ab50:	00052423          	sw	zero,8(a0)
1000ab54:	00052623          	sw	zero,12(a0)
1000ab58:	01050793          	addi	a5,a0,16
1000ab5c:	06e60c63          	beq	a2,a4,1000abd4 <_calloc_r+0xd8>
1000ab60:	0007a023          	sw	zero,0(a5)
1000ab64:	0007a223          	sw	zero,4(a5)
1000ab68:	0007a423          	sw	zero,8(a5)
1000ab6c:	00c12083          	lw	ra,12(sp)
1000ab70:	00040513          	mv	a0,s0
1000ab74:	00812403          	lw	s0,8(sp)
1000ab78:	01010113          	addi	sp,sp,16
1000ab7c:	00008067          	ret
1000ab80:	00000593          	li	a1,0
1000ab84:	d05f70ef          	jal	10002888 <memset>
1000ab88:	00c12083          	lw	ra,12(sp)
1000ab8c:	00040513          	mv	a0,s0
1000ab90:	00812403          	lw	s0,8(sp)
1000ab94:	01010113          	addi	sp,sp,16
1000ab98:	00008067          	ret
1000ab9c:	00850793          	addi	a5,a0,8
1000aba0:	0007a023          	sw	zero,0(a5)
1000aba4:	0007a223          	sw	zero,4(a5)
1000aba8:	0007a423          	sw	zero,8(a5)
1000abac:	fc1ff06f          	j	1000ab6c <_calloc_r+0x70>
1000abb0:	760010ef          	jal	1000c310 <__errno>
1000abb4:	00c00793          	li	a5,12
1000abb8:	00f52023          	sw	a5,0(a0)
1000abbc:	00000413          	li	s0,0
1000abc0:	00c12083          	lw	ra,12(sp)
1000abc4:	00040513          	mv	a0,s0
1000abc8:	00812403          	lw	s0,8(sp)
1000abcc:	01010113          	addi	sp,sp,16
1000abd0:	00008067          	ret
1000abd4:	00052823          	sw	zero,16(a0)
1000abd8:	01850793          	addi	a5,a0,24
1000abdc:	00052a23          	sw	zero,20(a0)
1000abe0:	f81ff06f          	j	1000ab60 <_calloc_r+0x64>

1000abe4 <__ascii_mbtowc>:
1000abe4:	02058063          	beqz	a1,1000ac04 <__ascii_mbtowc+0x20>
1000abe8:	04060263          	beqz	a2,1000ac2c <__ascii_mbtowc+0x48>
1000abec:	04068863          	beqz	a3,1000ac3c <__ascii_mbtowc+0x58>
1000abf0:	00064783          	lbu	a5,0(a2)
1000abf4:	00f5a023          	sw	a5,0(a1)
1000abf8:	00064503          	lbu	a0,0(a2)
1000abfc:	00a03533          	snez	a0,a0
1000ac00:	00008067          	ret
1000ac04:	ff010113          	addi	sp,sp,-16
1000ac08:	00c10593          	addi	a1,sp,12
1000ac0c:	02060463          	beqz	a2,1000ac34 <__ascii_mbtowc+0x50>
1000ac10:	02068a63          	beqz	a3,1000ac44 <__ascii_mbtowc+0x60>
1000ac14:	00064783          	lbu	a5,0(a2)
1000ac18:	00f5a023          	sw	a5,0(a1)
1000ac1c:	00064503          	lbu	a0,0(a2)
1000ac20:	00a03533          	snez	a0,a0
1000ac24:	01010113          	addi	sp,sp,16
1000ac28:	00008067          	ret
1000ac2c:	00000513          	li	a0,0
1000ac30:	00008067          	ret
1000ac34:	00000513          	li	a0,0
1000ac38:	fedff06f          	j	1000ac24 <__ascii_mbtowc+0x40>
1000ac3c:	ffe00513          	li	a0,-2
1000ac40:	00008067          	ret
1000ac44:	ffe00513          	li	a0,-2
1000ac48:	fddff06f          	j	1000ac24 <__ascii_mbtowc+0x40>

1000ac4c <__ascii_wctomb>:
1000ac4c:	02058463          	beqz	a1,1000ac74 <__ascii_wctomb+0x28>
1000ac50:	0ff00793          	li	a5,255
1000ac54:	00c7e863          	bltu	a5,a2,1000ac64 <__ascii_wctomb+0x18>
1000ac58:	00c58023          	sb	a2,0(a1)
1000ac5c:	00100513          	li	a0,1
1000ac60:	00008067          	ret
1000ac64:	08a00793          	li	a5,138
1000ac68:	00f52023          	sw	a5,0(a0)
1000ac6c:	fff00513          	li	a0,-1
1000ac70:	00008067          	ret
1000ac74:	00000513          	li	a0,0
1000ac78:	00008067          	ret

1000ac7c <fiprintf>:
1000ac7c:	00050e13          	mv	t3,a0
1000ac80:	fc010113          	addi	sp,sp,-64
1000ac84:	87c1a503          	lw	a0,-1924(gp) # 100120bc <_impure_ptr>
1000ac88:	02810313          	addi	t1,sp,40
1000ac8c:	02c12423          	sw	a2,40(sp)
1000ac90:	02d12623          	sw	a3,44(sp)
1000ac94:	00058613          	mv	a2,a1
1000ac98:	00030693          	mv	a3,t1
1000ac9c:	000e0593          	mv	a1,t3
1000aca0:	00112e23          	sw	ra,28(sp)
1000aca4:	02e12823          	sw	a4,48(sp)
1000aca8:	02f12a23          	sw	a5,52(sp)
1000acac:	03012c23          	sw	a6,56(sp)
1000acb0:	03112e23          	sw	a7,60(sp)
1000acb4:	00612623          	sw	t1,12(sp)
1000acb8:	134000ef          	jal	1000adec <_vfiprintf_r>
1000acbc:	01c12083          	lw	ra,28(sp)
1000acc0:	04010113          	addi	sp,sp,64
1000acc4:	00008067          	ret

1000acc8 <__sprint_r.part.0>:
1000acc8:	0645a783          	lw	a5,100(a1)
1000accc:	fd010113          	addi	sp,sp,-48
1000acd0:	01612823          	sw	s6,16(sp)
1000acd4:	02112623          	sw	ra,44(sp)
1000acd8:	01279713          	slli	a4,a5,0x12
1000acdc:	00060b13          	mv	s6,a2
1000ace0:	0e075863          	bgez	a4,1000add0 <__sprint_r.part.0+0x108>
1000ace4:	00862783          	lw	a5,8(a2)
1000ace8:	03212023          	sw	s2,32(sp)
1000acec:	01312e23          	sw	s3,28(sp)
1000acf0:	01512a23          	sw	s5,20(sp)
1000acf4:	01712623          	sw	s7,12(sp)
1000acf8:	00058913          	mv	s2,a1
1000acfc:	00062b83          	lw	s7,0(a2)
1000ad00:	00050993          	mv	s3,a0
1000ad04:	fff00a93          	li	s5,-1
1000ad08:	0a078863          	beqz	a5,1000adb8 <__sprint_r.part.0+0xf0>
1000ad0c:	02812423          	sw	s0,40(sp)
1000ad10:	02912223          	sw	s1,36(sp)
1000ad14:	01412c23          	sw	s4,24(sp)
1000ad18:	01812423          	sw	s8,8(sp)
1000ad1c:	004bac03          	lw	s8,4(s7)
1000ad20:	000ba403          	lw	s0,0(s7)
1000ad24:	002c5a13          	srli	s4,s8,0x2
1000ad28:	060a0663          	beqz	s4,1000ad94 <__sprint_r.part.0+0xcc>
1000ad2c:	00000493          	li	s1,0
1000ad30:	00c0006f          	j	1000ad3c <__sprint_r.part.0+0x74>
1000ad34:	00440413          	addi	s0,s0,4
1000ad38:	049a0c63          	beq	s4,s1,1000ad90 <__sprint_r.part.0+0xc8>
1000ad3c:	00042583          	lw	a1,0(s0)
1000ad40:	00090613          	mv	a2,s2
1000ad44:	00098513          	mv	a0,s3
1000ad48:	59c010ef          	jal	1000c2e4 <_fputwc_r>
1000ad4c:	00148493          	addi	s1,s1,1
1000ad50:	ff5512e3          	bne	a0,s5,1000ad34 <__sprint_r.part.0+0x6c>
1000ad54:	02812403          	lw	s0,40(sp)
1000ad58:	02412483          	lw	s1,36(sp)
1000ad5c:	02012903          	lw	s2,32(sp)
1000ad60:	01c12983          	lw	s3,28(sp)
1000ad64:	01812a03          	lw	s4,24(sp)
1000ad68:	01412a83          	lw	s5,20(sp)
1000ad6c:	00c12b83          	lw	s7,12(sp)
1000ad70:	00812c03          	lw	s8,8(sp)
1000ad74:	fff00513          	li	a0,-1
1000ad78:	02c12083          	lw	ra,44(sp)
1000ad7c:	000b2423          	sw	zero,8(s6)
1000ad80:	000b2223          	sw	zero,4(s6)
1000ad84:	01012b03          	lw	s6,16(sp)
1000ad88:	03010113          	addi	sp,sp,48
1000ad8c:	00008067          	ret
1000ad90:	008b2783          	lw	a5,8(s6)
1000ad94:	ffcc7c13          	andi	s8,s8,-4
1000ad98:	418787b3          	sub	a5,a5,s8
1000ad9c:	00fb2423          	sw	a5,8(s6)
1000ada0:	008b8b93          	addi	s7,s7,8
1000ada4:	f6079ce3          	bnez	a5,1000ad1c <__sprint_r.part.0+0x54>
1000ada8:	02812403          	lw	s0,40(sp)
1000adac:	02412483          	lw	s1,36(sp)
1000adb0:	01812a03          	lw	s4,24(sp)
1000adb4:	00812c03          	lw	s8,8(sp)
1000adb8:	02012903          	lw	s2,32(sp)
1000adbc:	01c12983          	lw	s3,28(sp)
1000adc0:	01412a83          	lw	s5,20(sp)
1000adc4:	00c12b83          	lw	s7,12(sp)
1000adc8:	00000513          	li	a0,0
1000adcc:	fadff06f          	j	1000ad78 <__sprint_r.part.0+0xb0>
1000add0:	fb8fb0ef          	jal	10006588 <__sfvwrite_r>
1000add4:	02c12083          	lw	ra,44(sp)
1000add8:	000b2423          	sw	zero,8(s6)
1000addc:	000b2223          	sw	zero,4(s6)
1000ade0:	01012b03          	lw	s6,16(sp)
1000ade4:	03010113          	addi	sp,sp,48
1000ade8:	00008067          	ret

1000adec <_vfiprintf_r>:
1000adec:	ed010113          	addi	sp,sp,-304
1000adf0:	11312e23          	sw	s3,284(sp)
1000adf4:	11612823          	sw	s6,272(sp)
1000adf8:	11712623          	sw	s7,268(sp)
1000adfc:	11812423          	sw	s8,264(sp)
1000ae00:	12112623          	sw	ra,300(sp)
1000ae04:	11a12023          	sw	s10,256(sp)
1000ae08:	00050c13          	mv	s8,a0
1000ae0c:	00058b13          	mv	s6,a1
1000ae10:	00060993          	mv	s3,a2
1000ae14:	00068b93          	mv	s7,a3
1000ae18:	00050863          	beqz	a0,1000ae28 <_vfiprintf_r+0x3c>
1000ae1c:	03452783          	lw	a5,52(a0)
1000ae20:	00079463          	bnez	a5,1000ae28 <_vfiprintf_r+0x3c>
1000ae24:	1c40106f          	j	1000bfe8 <_vfiprintf_r+0x11fc>
1000ae28:	00cb1783          	lh	a5,12(s6)
1000ae2c:	01279713          	slli	a4,a5,0x12
1000ae30:	02074663          	bltz	a4,1000ae5c <_vfiprintf_r+0x70>
1000ae34:	064b2703          	lw	a4,100(s6)
1000ae38:	00002637          	lui	a2,0x2
1000ae3c:	ffffe6b7          	lui	a3,0xffffe
1000ae40:	00c7e7b3          	or	a5,a5,a2
1000ae44:	fff68693          	addi	a3,a3,-1 # ffffdfff <_sp+0xeffe0923>
1000ae48:	01079793          	slli	a5,a5,0x10
1000ae4c:	4107d793          	srai	a5,a5,0x10
1000ae50:	00d77733          	and	a4,a4,a3
1000ae54:	00fb1623          	sh	a5,12(s6)
1000ae58:	06eb2223          	sw	a4,100(s6)
1000ae5c:	0087f713          	andi	a4,a5,8
1000ae60:	12070c63          	beqz	a4,1000af98 <_vfiprintf_r+0x1ac>
1000ae64:	010b2703          	lw	a4,16(s6)
1000ae68:	12070863          	beqz	a4,1000af98 <_vfiprintf_r+0x1ac>
1000ae6c:	01a7f793          	andi	a5,a5,26
1000ae70:	00a00713          	li	a4,10
1000ae74:	14e78463          	beq	a5,a4,1000afbc <_vfiprintf_r+0x1d0>
1000ae78:	100117b7          	lui	a5,0x10011
1000ae7c:	00000d13          	li	s10,0
1000ae80:	11512a23          	sw	s5,276(sp)
1000ae84:	11912223          	sw	s9,260(sp)
1000ae88:	04c10a93          	addi	s5,sp,76
1000ae8c:	7cc78793          	addi	a5,a5,1996 # 100117cc <_ctype_+0x104>
1000ae90:	10012cb7          	lui	s9,0x10012
1000ae94:	12812423          	sw	s0,296(sp)
1000ae98:	13212023          	sw	s2,288(sp)
1000ae9c:	11412c23          	sw	s4,280(sp)
1000aea0:	000d0913          	mv	s2,s10
1000aea4:	12912223          	sw	s1,292(sp)
1000aea8:	0fb12e23          	sw	s11,252(sp)
1000aeac:	05512023          	sw	s5,64(sp)
1000aeb0:	04012423          	sw	zero,72(sp)
1000aeb4:	04012223          	sw	zero,68(sp)
1000aeb8:	000a8413          	mv	s0,s5
1000aebc:	00012223          	sw	zero,4(sp)
1000aec0:	00012a23          	sw	zero,20(sp)
1000aec4:	00012c23          	sw	zero,24(sp)
1000aec8:	00012e23          	sw	zero,28(sp)
1000aecc:	00f12023          	sw	a5,0(sp)
1000aed0:	01000a13          	li	s4,16
1000aed4:	938c8c93          	addi	s9,s9,-1736 # 10011938 <zeroes.0>
1000aed8:	000b8d13          	mv	s10,s7
1000aedc:	0009c783          	lbu	a5,0(s3)
1000aee0:	32078263          	beqz	a5,1000b204 <_vfiprintf_r+0x418>
1000aee4:	00098493          	mv	s1,s3
1000aee8:	02500713          	li	a4,37
1000aeec:	3ce78063          	beq	a5,a4,1000b2ac <_vfiprintf_r+0x4c0>
1000aef0:	0014c783          	lbu	a5,1(s1)
1000aef4:	00148493          	addi	s1,s1,1
1000aef8:	fe079ae3          	bnez	a5,1000aeec <_vfiprintf_r+0x100>
1000aefc:	41348bb3          	sub	s7,s1,s3
1000af00:	31348263          	beq	s1,s3,1000b204 <_vfiprintf_r+0x418>
1000af04:	04812703          	lw	a4,72(sp)
1000af08:	04412783          	lw	a5,68(sp)
1000af0c:	01342023          	sw	s3,0(s0)
1000af10:	00eb8733          	add	a4,s7,a4
1000af14:	00178793          	addi	a5,a5,1
1000af18:	01742223          	sw	s7,4(s0)
1000af1c:	04e12423          	sw	a4,72(sp)
1000af20:	04f12223          	sw	a5,68(sp)
1000af24:	00700693          	li	a3,7
1000af28:	00840413          	addi	s0,s0,8
1000af2c:	02f6d063          	bge	a3,a5,1000af4c <_vfiprintf_r+0x160>
1000af30:	4c070ae3          	beqz	a4,1000bc04 <_vfiprintf_r+0xe18>
1000af34:	04010613          	addi	a2,sp,64
1000af38:	000b0593          	mv	a1,s6
1000af3c:	000c0513          	mv	a0,s8
1000af40:	d89ff0ef          	jal	1000acc8 <__sprint_r.part.0>
1000af44:	0c051263          	bnez	a0,1000b008 <_vfiprintf_r+0x21c>
1000af48:	000a8413          	mv	s0,s5
1000af4c:	0004c783          	lbu	a5,0(s1)
1000af50:	01790933          	add	s2,s2,s7
1000af54:	2a078863          	beqz	a5,1000b204 <_vfiprintf_r+0x418>
1000af58:	0014c783          	lbu	a5,1(s1)
1000af5c:	00148993          	addi	s3,s1,1
1000af60:	02010da3          	sb	zero,59(sp)
1000af64:	fff00d93          	li	s11,-1
1000af68:	00000b93          	li	s7,0
1000af6c:	00000893          	li	a7,0
1000af70:	05a00493          	li	s1,90
1000af74:	00198993          	addi	s3,s3,1
1000af78:	00078693          	mv	a3,a5
1000af7c:	fe068713          	addi	a4,a3,-32
1000af80:	10e4e863          	bltu	s1,a4,1000b090 <_vfiprintf_r+0x2a4>
1000af84:	00012783          	lw	a5,0(sp)
1000af88:	00271713          	slli	a4,a4,0x2
1000af8c:	00f70733          	add	a4,a4,a5
1000af90:	00072783          	lw	a5,0(a4)
1000af94:	00078067          	jr	a5
1000af98:	000b0593          	mv	a1,s6
1000af9c:	000c0513          	mv	a0,s8
1000afa0:	af9fb0ef          	jal	10006a98 <__swsetup_r>
1000afa4:	00050463          	beqz	a0,1000afac <_vfiprintf_r+0x1c0>
1000afa8:	1480106f          	j	1000c0f0 <_vfiprintf_r+0x1304>
1000afac:	00cb1783          	lh	a5,12(s6)
1000afb0:	00a00713          	li	a4,10
1000afb4:	01a7f793          	andi	a5,a5,26
1000afb8:	ece790e3          	bne	a5,a4,1000ae78 <_vfiprintf_r+0x8c>
1000afbc:	00eb1783          	lh	a5,14(s6)
1000afc0:	ea07cce3          	bltz	a5,1000ae78 <_vfiprintf_r+0x8c>
1000afc4:	12c12083          	lw	ra,300(sp)
1000afc8:	10012d03          	lw	s10,256(sp)
1000afcc:	000b8693          	mv	a3,s7
1000afd0:	00098613          	mv	a2,s3
1000afd4:	10c12b83          	lw	s7,268(sp)
1000afd8:	11c12983          	lw	s3,284(sp)
1000afdc:	000b0593          	mv	a1,s6
1000afe0:	000c0513          	mv	a0,s8
1000afe4:	11012b03          	lw	s6,272(sp)
1000afe8:	10812c03          	lw	s8,264(sp)
1000afec:	13010113          	addi	sp,sp,304
1000aff0:	1340106f          	j	1000c124 <__sbprintf>
1000aff4:	04010613          	addi	a2,sp,64
1000aff8:	000b0593          	mv	a1,s6
1000affc:	000c0513          	mv	a0,s8
1000b000:	cc9ff0ef          	jal	1000acc8 <__sprint_r.part.0>
1000b004:	1e050863          	beqz	a0,1000b1f4 <_vfiprintf_r+0x408>
1000b008:	00090d13          	mv	s10,s2
1000b00c:	00cb5783          	lhu	a5,12(s6)
1000b010:	12812403          	lw	s0,296(sp)
1000b014:	12412483          	lw	s1,292(sp)
1000b018:	0407f793          	andi	a5,a5,64
1000b01c:	12012903          	lw	s2,288(sp)
1000b020:	11812a03          	lw	s4,280(sp)
1000b024:	11412a83          	lw	s5,276(sp)
1000b028:	10412c83          	lw	s9,260(sp)
1000b02c:	0fc12d83          	lw	s11,252(sp)
1000b030:	00078463          	beqz	a5,1000b038 <_vfiprintf_r+0x24c>
1000b034:	0bc0106f          	j	1000c0f0 <_vfiprintf_r+0x1304>
1000b038:	12c12083          	lw	ra,300(sp)
1000b03c:	11c12983          	lw	s3,284(sp)
1000b040:	11012b03          	lw	s6,272(sp)
1000b044:	10c12b83          	lw	s7,268(sp)
1000b048:	10812c03          	lw	s8,264(sp)
1000b04c:	000d0513          	mv	a0,s10
1000b050:	10012d03          	lw	s10,256(sp)
1000b054:	13010113          	addi	sp,sp,304
1000b058:	00008067          	ret
1000b05c:	00000b93          	li	s7,0
1000b060:	fd068793          	addi	a5,a3,-48
1000b064:	00900613          	li	a2,9
1000b068:	0009c683          	lbu	a3,0(s3)
1000b06c:	002b9713          	slli	a4,s7,0x2
1000b070:	01770bb3          	add	s7,a4,s7
1000b074:	001b9b93          	slli	s7,s7,0x1
1000b078:	01778bb3          	add	s7,a5,s7
1000b07c:	fd068793          	addi	a5,a3,-48
1000b080:	00198993          	addi	s3,s3,1
1000b084:	fef672e3          	bgeu	a2,a5,1000b068 <_vfiprintf_r+0x27c>
1000b088:	fe068713          	addi	a4,a3,-32
1000b08c:	eee4fce3          	bgeu	s1,a4,1000af84 <_vfiprintf_r+0x198>
1000b090:	16068a63          	beqz	a3,1000b204 <_vfiprintf_r+0x418>
1000b094:	08d10623          	sb	a3,140(sp)
1000b098:	02010da3          	sb	zero,59(sp)
1000b09c:	00100313          	li	t1,1
1000b0a0:	00100e93          	li	t4,1
1000b0a4:	08c10493          	addi	s1,sp,140
1000b0a8:	00000d93          	li	s11,0
1000b0ac:	00000f93          	li	t6,0
1000b0b0:	04412703          	lw	a4,68(sp)
1000b0b4:	0848f293          	andi	t0,a7,132
1000b0b8:	04812783          	lw	a5,72(sp)
1000b0bc:	00170613          	addi	a2,a4,1
1000b0c0:	00060593          	mv	a1,a2
1000b0c4:	00029663          	bnez	t0,1000b0d0 <_vfiprintf_r+0x2e4>
1000b0c8:	406b86b3          	sub	a3,s7,t1
1000b0cc:	1cd04ee3          	bgtz	a3,1000baa8 <_vfiprintf_r+0xcbc>
1000b0d0:	03b14683          	lbu	a3,59(sp)
1000b0d4:	02068a63          	beqz	a3,1000b108 <_vfiprintf_r+0x31c>
1000b0d8:	03b10713          	addi	a4,sp,59
1000b0dc:	00178793          	addi	a5,a5,1
1000b0e0:	00e42023          	sw	a4,0(s0)
1000b0e4:	00100713          	li	a4,1
1000b0e8:	00e42223          	sw	a4,4(s0)
1000b0ec:	04f12423          	sw	a5,72(sp)
1000b0f0:	04b12223          	sw	a1,68(sp)
1000b0f4:	00700713          	li	a4,7
1000b0f8:	0cb74ce3          	blt	a4,a1,1000b9d0 <_vfiprintf_r+0xbe4>
1000b0fc:	00058713          	mv	a4,a1
1000b100:	00840413          	addi	s0,s0,8
1000b104:	00158593          	addi	a1,a1,1
1000b108:	060f8863          	beqz	t6,1000b178 <_vfiprintf_r+0x38c>
1000b10c:	03c10713          	addi	a4,sp,60
1000b110:	00278793          	addi	a5,a5,2
1000b114:	00e42023          	sw	a4,0(s0)
1000b118:	00200713          	li	a4,2
1000b11c:	00e42223          	sw	a4,4(s0)
1000b120:	04f12423          	sw	a5,72(sp)
1000b124:	04b12223          	sw	a1,68(sp)
1000b128:	00700713          	li	a4,7
1000b12c:	10b75ae3          	bge	a4,a1,1000ba40 <_vfiprintf_r+0xc54>
1000b130:	340780e3          	beqz	a5,1000bc70 <_vfiprintf_r+0xe84>
1000b134:	04010613          	addi	a2,sp,64
1000b138:	000b0593          	mv	a1,s6
1000b13c:	000c0513          	mv	a0,s8
1000b140:	02612023          	sw	t1,32(sp)
1000b144:	01d12823          	sw	t4,16(sp)
1000b148:	00512623          	sw	t0,12(sp)
1000b14c:	01112423          	sw	a7,8(sp)
1000b150:	b79ff0ef          	jal	1000acc8 <__sprint_r.part.0>
1000b154:	ea051ae3          	bnez	a0,1000b008 <_vfiprintf_r+0x21c>
1000b158:	04412703          	lw	a4,68(sp)
1000b15c:	04812783          	lw	a5,72(sp)
1000b160:	02012303          	lw	t1,32(sp)
1000b164:	01012e83          	lw	t4,16(sp)
1000b168:	00c12283          	lw	t0,12(sp)
1000b16c:	00812883          	lw	a7,8(sp)
1000b170:	000a8413          	mv	s0,s5
1000b174:	00170593          	addi	a1,a4,1
1000b178:	08000693          	li	a3,128
1000b17c:	62d28e63          	beq	t0,a3,1000b7b8 <_vfiprintf_r+0x9cc>
1000b180:	41dd8db3          	sub	s11,s11,t4
1000b184:	75b04e63          	bgtz	s11,1000b8e0 <_vfiprintf_r+0xaf4>
1000b188:	00fe87b3          	add	a5,t4,a5
1000b18c:	00942023          	sw	s1,0(s0)
1000b190:	01d42223          	sw	t4,4(s0)
1000b194:	04f12423          	sw	a5,72(sp)
1000b198:	04b12223          	sw	a1,68(sp)
1000b19c:	00700713          	li	a4,7
1000b1a0:	60b75063          	bge	a4,a1,1000b7a0 <_vfiprintf_r+0x9b4>
1000b1a4:	10078c63          	beqz	a5,1000b2bc <_vfiprintf_r+0x4d0>
1000b1a8:	04010613          	addi	a2,sp,64
1000b1ac:	000b0593          	mv	a1,s6
1000b1b0:	000c0513          	mv	a0,s8
1000b1b4:	00612623          	sw	t1,12(sp)
1000b1b8:	01112423          	sw	a7,8(sp)
1000b1bc:	b0dff0ef          	jal	1000acc8 <__sprint_r.part.0>
1000b1c0:	e40514e3          	bnez	a0,1000b008 <_vfiprintf_r+0x21c>
1000b1c4:	04812783          	lw	a5,72(sp)
1000b1c8:	00c12303          	lw	t1,12(sp)
1000b1cc:	00812883          	lw	a7,8(sp)
1000b1d0:	000a8413          	mv	s0,s5
1000b1d4:	0048f893          	andi	a7,a7,4
1000b1d8:	00088663          	beqz	a7,1000b1e4 <_vfiprintf_r+0x3f8>
1000b1dc:	406b84b3          	sub	s1,s7,t1
1000b1e0:	0e904a63          	bgtz	s1,1000b2d4 <_vfiprintf_r+0x4e8>
1000b1e4:	006bd463          	bge	s7,t1,1000b1ec <_vfiprintf_r+0x400>
1000b1e8:	00030b93          	mv	s7,t1
1000b1ec:	01790933          	add	s2,s2,s7
1000b1f0:	e00792e3          	bnez	a5,1000aff4 <_vfiprintf_r+0x208>
1000b1f4:	0009c783          	lbu	a5,0(s3)
1000b1f8:	04012223          	sw	zero,68(sp)
1000b1fc:	000a8413          	mv	s0,s5
1000b200:	ce0792e3          	bnez	a5,1000aee4 <_vfiprintf_r+0xf8>
1000b204:	04812783          	lw	a5,72(sp)
1000b208:	00090d13          	mv	s10,s2
1000b20c:	e00780e3          	beqz	a5,1000b00c <_vfiprintf_r+0x220>
1000b210:	04010613          	addi	a2,sp,64
1000b214:	000b0593          	mv	a1,s6
1000b218:	000c0513          	mv	a0,s8
1000b21c:	aadff0ef          	jal	1000acc8 <__sprint_r.part.0>
1000b220:	dedff06f          	j	1000b00c <_vfiprintf_r+0x220>
1000b224:	000d2b83          	lw	s7,0(s10)
1000b228:	004d0d13          	addi	s10,s10,4
1000b22c:	280bcc63          	bltz	s7,1000b4c4 <_vfiprintf_r+0x6d8>
1000b230:	0009c783          	lbu	a5,0(s3)
1000b234:	d41ff06f          	j	1000af74 <_vfiprintf_r+0x188>
1000b238:	0009c783          	lbu	a5,0(s3)
1000b23c:	0208e893          	ori	a7,a7,32
1000b240:	d35ff06f          	j	1000af74 <_vfiprintf_r+0x188>
1000b244:	0108e893          	ori	a7,a7,16
1000b248:	0208f793          	andi	a5,a7,32
1000b24c:	16078463          	beqz	a5,1000b3b4 <_vfiprintf_r+0x5c8>
1000b250:	007d0d13          	addi	s10,s10,7
1000b254:	ff8d7d13          	andi	s10,s10,-8
1000b258:	004d2703          	lw	a4,4(s10)
1000b25c:	000d2783          	lw	a5,0(s10)
1000b260:	008d0d13          	addi	s10,s10,8
1000b264:	00070313          	mv	t1,a4
1000b268:	16074c63          	bltz	a4,1000b3e0 <_vfiprintf_r+0x5f4>
1000b26c:	180dca63          	bltz	s11,1000b400 <_vfiprintf_r+0x614>
1000b270:	0067e733          	or	a4,a5,t1
1000b274:	f7f8f893          	andi	a7,a7,-129
1000b278:	18071463          	bnez	a4,1000b400 <_vfiprintf_r+0x614>
1000b27c:	640d96e3          	bnez	s11,1000c0c8 <_vfiprintf_r+0x12dc>
1000b280:	03b14783          	lbu	a5,59(sp)
1000b284:	00000313          	li	t1,0
1000b288:	00000e93          	li	t4,0
1000b28c:	0f010493          	addi	s1,sp,240
1000b290:	00078463          	beqz	a5,1000b298 <_vfiprintf_r+0x4ac>
1000b294:	00130313          	addi	t1,t1,1
1000b298:	0028ff93          	andi	t6,a7,2
1000b29c:	e00f8ae3          	beqz	t6,1000b0b0 <_vfiprintf_r+0x2c4>
1000b2a0:	00230313          	addi	t1,t1,2
1000b2a4:	00200f93          	li	t6,2
1000b2a8:	e09ff06f          	j	1000b0b0 <_vfiprintf_r+0x2c4>
1000b2ac:	41348bb3          	sub	s7,s1,s3
1000b2b0:	c5349ae3          	bne	s1,s3,1000af04 <_vfiprintf_r+0x118>
1000b2b4:	0004c783          	lbu	a5,0(s1)
1000b2b8:	c9dff06f          	j	1000af54 <_vfiprintf_r+0x168>
1000b2bc:	04012223          	sw	zero,68(sp)
1000b2c0:	0048f893          	andi	a7,a7,4
1000b2c4:	0e0886e3          	beqz	a7,1000bbb0 <_vfiprintf_r+0xdc4>
1000b2c8:	406b84b3          	sub	s1,s7,t1
1000b2cc:	0e9052e3          	blez	s1,1000bbb0 <_vfiprintf_r+0xdc4>
1000b2d0:	000a8413          	mv	s0,s5
1000b2d4:	01000713          	li	a4,16
1000b2d8:	04412683          	lw	a3,68(sp)
1000b2dc:	609752e3          	bge	a4,s1,1000c0e0 <_vfiprintf_r+0x12f4>
1000b2e0:	10012e37          	lui	t3,0x10012
1000b2e4:	948e0e13          	addi	t3,t3,-1720 # 10011948 <blanks.1>
1000b2e8:	00040593          	mv	a1,s0
1000b2ec:	01000d93          	li	s11,16
1000b2f0:	00700893          	li	a7,7
1000b2f4:	00612423          	sw	t1,8(sp)
1000b2f8:	000e0413          	mv	s0,t3
1000b2fc:	0180006f          	j	1000b314 <_vfiprintf_r+0x528>
1000b300:	00268613          	addi	a2,a3,2
1000b304:	00858593          	addi	a1,a1,8
1000b308:	00070693          	mv	a3,a4
1000b30c:	ff048493          	addi	s1,s1,-16
1000b310:	049dda63          	bge	s11,s1,1000b364 <_vfiprintf_r+0x578>
1000b314:	01078793          	addi	a5,a5,16
1000b318:	00168713          	addi	a4,a3,1
1000b31c:	0085a023          	sw	s0,0(a1)
1000b320:	01b5a223          	sw	s11,4(a1)
1000b324:	04f12423          	sw	a5,72(sp)
1000b328:	04e12223          	sw	a4,68(sp)
1000b32c:	fce8dae3          	bge	a7,a4,1000b300 <_vfiprintf_r+0x514>
1000b330:	46078c63          	beqz	a5,1000b7a8 <_vfiprintf_r+0x9bc>
1000b334:	04010613          	addi	a2,sp,64
1000b338:	000b0593          	mv	a1,s6
1000b33c:	000c0513          	mv	a0,s8
1000b340:	989ff0ef          	jal	1000acc8 <__sprint_r.part.0>
1000b344:	cc0512e3          	bnez	a0,1000b008 <_vfiprintf_r+0x21c>
1000b348:	04412683          	lw	a3,68(sp)
1000b34c:	ff048493          	addi	s1,s1,-16
1000b350:	04812783          	lw	a5,72(sp)
1000b354:	000a8593          	mv	a1,s5
1000b358:	00168613          	addi	a2,a3,1
1000b35c:	00700893          	li	a7,7
1000b360:	fa9dcae3          	blt	s11,s1,1000b314 <_vfiprintf_r+0x528>
1000b364:	00812303          	lw	t1,8(sp)
1000b368:	00040e13          	mv	t3,s0
1000b36c:	00058413          	mv	s0,a1
1000b370:	009787b3          	add	a5,a5,s1
1000b374:	01c42023          	sw	t3,0(s0)
1000b378:	00942223          	sw	s1,4(s0)
1000b37c:	04f12423          	sw	a5,72(sp)
1000b380:	04c12223          	sw	a2,68(sp)
1000b384:	00700713          	li	a4,7
1000b388:	e4c75ee3          	bge	a4,a2,1000b1e4 <_vfiprintf_r+0x3f8>
1000b38c:	020782e3          	beqz	a5,1000bbb0 <_vfiprintf_r+0xdc4>
1000b390:	04010613          	addi	a2,sp,64
1000b394:	000b0593          	mv	a1,s6
1000b398:	000c0513          	mv	a0,s8
1000b39c:	00612423          	sw	t1,8(sp)
1000b3a0:	929ff0ef          	jal	1000acc8 <__sprint_r.part.0>
1000b3a4:	c60512e3          	bnez	a0,1000b008 <_vfiprintf_r+0x21c>
1000b3a8:	04812783          	lw	a5,72(sp)
1000b3ac:	00812303          	lw	t1,8(sp)
1000b3b0:	e35ff06f          	j	1000b1e4 <_vfiprintf_r+0x3f8>
1000b3b4:	0108f713          	andi	a4,a7,16
1000b3b8:	000d2783          	lw	a5,0(s10)
1000b3bc:	004d0d13          	addi	s10,s10,4
1000b3c0:	0e071c63          	bnez	a4,1000b4b8 <_vfiprintf_r+0x6cc>
1000b3c4:	0408f713          	andi	a4,a7,64
1000b3c8:	0e070463          	beqz	a4,1000b4b0 <_vfiprintf_r+0x6c4>
1000b3cc:	01079793          	slli	a5,a5,0x10
1000b3d0:	4107d793          	srai	a5,a5,0x10
1000b3d4:	41f7d313          	srai	t1,a5,0x1f
1000b3d8:	00030713          	mv	a4,t1
1000b3dc:	e80758e3          	bgez	a4,1000b26c <_vfiprintf_r+0x480>
1000b3e0:	02d00693          	li	a3,45
1000b3e4:	00f03733          	snez	a4,a5
1000b3e8:	40600333          	neg	t1,t1
1000b3ec:	02d10da3          	sb	a3,59(sp)
1000b3f0:	40e30333          	sub	t1,t1,a4
1000b3f4:	40f007b3          	neg	a5,a5
1000b3f8:	000dc463          	bltz	s11,1000b400 <_vfiprintf_r+0x614>
1000b3fc:	f7f8f893          	andi	a7,a7,-129
1000b400:	0c031ae3          	bnez	t1,1000bcd4 <_vfiprintf_r+0xee8>
1000b404:	00900713          	li	a4,9
1000b408:	0cf766e3          	bltu	a4,a5,1000bcd4 <_vfiprintf_r+0xee8>
1000b40c:	03078793          	addi	a5,a5,48
1000b410:	0ff7f793          	zext.b	a5,a5
1000b414:	0ef107a3          	sb	a5,239(sp)
1000b418:	000d8313          	mv	t1,s11
1000b41c:	01b04463          	bgtz	s11,1000b424 <_vfiprintf_r+0x638>
1000b420:	00100313          	li	t1,1
1000b424:	00100e93          	li	t4,1
1000b428:	0ef10493          	addi	s1,sp,239
1000b42c:	03b14783          	lbu	a5,59(sp)
1000b430:	e60792e3          	bnez	a5,1000b294 <_vfiprintf_r+0x4a8>
1000b434:	e65ff06f          	j	1000b298 <_vfiprintf_r+0x4ac>
1000b438:	000d2483          	lw	s1,0(s10)
1000b43c:	02010da3          	sb	zero,59(sp)
1000b440:	004d0d13          	addi	s10,s10,4
1000b444:	3c048ee3          	beqz	s1,1000c020 <_vfiprintf_r+0x1234>
1000b448:	01112423          	sw	a7,8(sp)
1000b44c:	260dcee3          	bltz	s11,1000bec8 <_vfiprintf_r+0x10dc>
1000b450:	000d8613          	mv	a2,s11
1000b454:	00000593          	li	a1,0
1000b458:	00048513          	mv	a0,s1
1000b45c:	f7cfb0ef          	jal	10006bd8 <memchr>
1000b460:	00812883          	lw	a7,8(sp)
1000b464:	000d8e93          	mv	t4,s11
1000b468:	00050463          	beqz	a0,1000b470 <_vfiprintf_r+0x684>
1000b46c:	40950eb3          	sub	t4,a0,s1
1000b470:	03b14783          	lbu	a5,59(sp)
1000b474:	fffec313          	not	t1,t4
1000b478:	41f35313          	srai	t1,t1,0x1f
1000b47c:	006ef333          	and	t1,t4,t1
1000b480:	00000d93          	li	s11,0
1000b484:	00000f93          	li	t6,0
1000b488:	e00796e3          	bnez	a5,1000b294 <_vfiprintf_r+0x4a8>
1000b48c:	c25ff06f          	j	1000b0b0 <_vfiprintf_r+0x2c4>
1000b490:	000d2783          	lw	a5,0(s10)
1000b494:	02010da3          	sb	zero,59(sp)
1000b498:	004d0d13          	addi	s10,s10,4
1000b49c:	08f10623          	sb	a5,140(sp)
1000b4a0:	00100313          	li	t1,1
1000b4a4:	00100e93          	li	t4,1
1000b4a8:	08c10493          	addi	s1,sp,140
1000b4ac:	bfdff06f          	j	1000b0a8 <_vfiprintf_r+0x2bc>
1000b4b0:	2008f713          	andi	a4,a7,512
1000b4b4:	3e0714e3          	bnez	a4,1000c09c <_vfiprintf_r+0x12b0>
1000b4b8:	41f7d313          	srai	t1,a5,0x1f
1000b4bc:	00030713          	mv	a4,t1
1000b4c0:	da9ff06f          	j	1000b268 <_vfiprintf_r+0x47c>
1000b4c4:	41700bb3          	neg	s7,s7
1000b4c8:	0009c783          	lbu	a5,0(s3)
1000b4cc:	0048e893          	ori	a7,a7,4
1000b4d0:	aa5ff06f          	j	1000af74 <_vfiprintf_r+0x188>
1000b4d4:	02b00713          	li	a4,43
1000b4d8:	0009c783          	lbu	a5,0(s3)
1000b4dc:	02e10da3          	sb	a4,59(sp)
1000b4e0:	a95ff06f          	j	1000af74 <_vfiprintf_r+0x188>
1000b4e4:	0009c783          	lbu	a5,0(s3)
1000b4e8:	0808e893          	ori	a7,a7,128
1000b4ec:	a89ff06f          	j	1000af74 <_vfiprintf_r+0x188>
1000b4f0:	0009c683          	lbu	a3,0(s3)
1000b4f4:	02a00793          	li	a5,42
1000b4f8:	00198613          	addi	a2,s3,1
1000b4fc:	40f686e3          	beq	a3,a5,1000c108 <_vfiprintf_r+0x131c>
1000b500:	fd068793          	addi	a5,a3,-48
1000b504:	00900713          	li	a4,9
1000b508:	00000d93          	li	s11,0
1000b50c:	00900593          	li	a1,9
1000b510:	02f76463          	bltu	a4,a5,1000b538 <_vfiprintf_r+0x74c>
1000b514:	00064683          	lbu	a3,0(a2) # 2000 <__heap_size+0x1000>
1000b518:	002d9713          	slli	a4,s11,0x2
1000b51c:	01b70db3          	add	s11,a4,s11
1000b520:	001d9d93          	slli	s11,s11,0x1
1000b524:	00fd8db3          	add	s11,s11,a5
1000b528:	fd068793          	addi	a5,a3,-48
1000b52c:	00160613          	addi	a2,a2,1
1000b530:	fef5f2e3          	bgeu	a1,a5,1000b514 <_vfiprintf_r+0x728>
1000b534:	0e0dc6e3          	bltz	s11,1000be20 <_vfiprintf_r+0x1034>
1000b538:	00060993          	mv	s3,a2
1000b53c:	a41ff06f          	j	1000af7c <_vfiprintf_r+0x190>
1000b540:	000c0513          	mv	a0,s8
1000b544:	01112423          	sw	a7,8(sp)
1000b548:	801fb0ef          	jal	10006d48 <_localeconv_r>
1000b54c:	00452783          	lw	a5,4(a0)
1000b550:	00078513          	mv	a0,a5
1000b554:	00f12e23          	sw	a5,28(sp)
1000b558:	db0f70ef          	jal	10002b08 <strlen>
1000b55c:	00050793          	mv	a5,a0
1000b560:	000c0513          	mv	a0,s8
1000b564:	00f12c23          	sw	a5,24(sp)
1000b568:	fe0fb0ef          	jal	10006d48 <_localeconv_r>
1000b56c:	00852703          	lw	a4,8(a0)
1000b570:	01812783          	lw	a5,24(sp)
1000b574:	00812883          	lw	a7,8(sp)
1000b578:	00e12a23          	sw	a4,20(sp)
1000b57c:	ca078ae3          	beqz	a5,1000b230 <_vfiprintf_r+0x444>
1000b580:	01412703          	lw	a4,20(sp)
1000b584:	0009c783          	lbu	a5,0(s3)
1000b588:	9e0706e3          	beqz	a4,1000af74 <_vfiprintf_r+0x188>
1000b58c:	00074703          	lbu	a4,0(a4)
1000b590:	9e0702e3          	beqz	a4,1000af74 <_vfiprintf_r+0x188>
1000b594:	4008e893          	ori	a7,a7,1024
1000b598:	9ddff06f          	j	1000af74 <_vfiprintf_r+0x188>
1000b59c:	0009c783          	lbu	a5,0(s3)
1000b5a0:	0018e893          	ori	a7,a7,1
1000b5a4:	9d1ff06f          	j	1000af74 <_vfiprintf_r+0x188>
1000b5a8:	03b14703          	lbu	a4,59(sp)
1000b5ac:	0009c783          	lbu	a5,0(s3)
1000b5b0:	9c0712e3          	bnez	a4,1000af74 <_vfiprintf_r+0x188>
1000b5b4:	02000713          	li	a4,32
1000b5b8:	02e10da3          	sb	a4,59(sp)
1000b5bc:	9b9ff06f          	j	1000af74 <_vfiprintf_r+0x188>
1000b5c0:	0108e713          	ori	a4,a7,16
1000b5c4:	02077793          	andi	a5,a4,32
1000b5c8:	66078863          	beqz	a5,1000bc38 <_vfiprintf_r+0xe4c>
1000b5cc:	007d0d13          	addi	s10,s10,7
1000b5d0:	ff8d7d13          	andi	s10,s10,-8
1000b5d4:	000d2783          	lw	a5,0(s10)
1000b5d8:	004d2603          	lw	a2,4(s10)
1000b5dc:	008d0d13          	addi	s10,s10,8
1000b5e0:	02010da3          	sb	zero,59(sp)
1000b5e4:	bff77893          	andi	a7,a4,-1025
1000b5e8:	0c0dc063          	bltz	s11,1000b6a8 <_vfiprintf_r+0x8bc>
1000b5ec:	00c7e6b3          	or	a3,a5,a2
1000b5f0:	b7f77713          	andi	a4,a4,-1153
1000b5f4:	1e0692e3          	bnez	a3,1000bfd8 <_vfiprintf_r+0x11ec>
1000b5f8:	00088e93          	mv	t4,a7
1000b5fc:	00000793          	li	a5,0
1000b600:	00070893          	mv	a7,a4
1000b604:	080d9663          	bnez	s11,1000b690 <_vfiprintf_r+0x8a4>
1000b608:	c6079ce3          	bnez	a5,1000b280 <_vfiprintf_r+0x494>
1000b60c:	001efe93          	andi	t4,t4,1
1000b610:	7c0e8063          	beqz	t4,1000bdd0 <_vfiprintf_r+0xfe4>
1000b614:	03000793          	li	a5,48
1000b618:	0ef107a3          	sb	a5,239(sp)
1000b61c:	000e8313          	mv	t1,t4
1000b620:	0ef10493          	addi	s1,sp,239
1000b624:	e09ff06f          	j	1000b42c <_vfiprintf_r+0x640>
1000b628:	0009c783          	lbu	a5,0(s3)
1000b62c:	06c00713          	li	a4,108
1000b630:	1ce788e3          	beq	a5,a4,1000c000 <_vfiprintf_r+0x1214>
1000b634:	0108e893          	ori	a7,a7,16
1000b638:	93dff06f          	j	1000af74 <_vfiprintf_r+0x188>
1000b63c:	0009c783          	lbu	a5,0(s3)
1000b640:	06800713          	li	a4,104
1000b644:	1ae786e3          	beq	a5,a4,1000bff0 <_vfiprintf_r+0x1204>
1000b648:	0408e893          	ori	a7,a7,64
1000b64c:	929ff06f          	j	1000af74 <_vfiprintf_r+0x188>
1000b650:	0108ee93          	ori	t4,a7,16
1000b654:	020ef793          	andi	a5,t4,32
1000b658:	5a078c63          	beqz	a5,1000bc10 <_vfiprintf_r+0xe24>
1000b65c:	007d0d13          	addi	s10,s10,7
1000b660:	ff8d7d13          	andi	s10,s10,-8
1000b664:	000d2783          	lw	a5,0(s10)
1000b668:	004d2303          	lw	t1,4(s10)
1000b66c:	008d0d13          	addi	s10,s10,8
1000b670:	02010da3          	sb	zero,59(sp)
1000b674:	000e8893          	mv	a7,t4
1000b678:	d80dc4e3          	bltz	s11,1000b400 <_vfiprintf_r+0x614>
1000b67c:	0067e733          	or	a4,a5,t1
1000b680:	f7fef893          	andi	a7,t4,-129
1000b684:	d6071ee3          	bnez	a4,1000b400 <_vfiprintf_r+0x614>
1000b688:	00100793          	li	a5,1
1000b68c:	f60d8ee3          	beqz	s11,1000b608 <_vfiprintf_r+0x81c>
1000b690:	00100713          	li	a4,1
1000b694:	22e78ae3          	beq	a5,a4,1000c0c8 <_vfiprintf_r+0x12dc>
1000b698:	00200713          	li	a4,2
1000b69c:	1ae78ae3          	beq	a5,a4,1000c050 <_vfiprintf_r+0x1264>
1000b6a0:	00000793          	li	a5,0
1000b6a4:	00000613          	li	a2,0
1000b6a8:	0f010493          	addi	s1,sp,240
1000b6ac:	01d61693          	slli	a3,a2,0x1d
1000b6b0:	0077f713          	andi	a4,a5,7
1000b6b4:	0037d793          	srli	a5,a5,0x3
1000b6b8:	03070713          	addi	a4,a4,48
1000b6bc:	00f6e7b3          	or	a5,a3,a5
1000b6c0:	00365613          	srli	a2,a2,0x3
1000b6c4:	fee48fa3          	sb	a4,-1(s1)
1000b6c8:	00c7e6b3          	or	a3,a5,a2
1000b6cc:	00048593          	mv	a1,s1
1000b6d0:	fff48493          	addi	s1,s1,-1
1000b6d4:	fc069ce3          	bnez	a3,1000b6ac <_vfiprintf_r+0x8c0>
1000b6d8:	0018f793          	andi	a5,a7,1
1000b6dc:	3a078a63          	beqz	a5,1000ba90 <_vfiprintf_r+0xca4>
1000b6e0:	03000793          	li	a5,48
1000b6e4:	3af70663          	beq	a4,a5,1000ba90 <_vfiprintf_r+0xca4>
1000b6e8:	ffe58593          	addi	a1,a1,-2
1000b6ec:	fef48fa3          	sb	a5,-1(s1)
1000b6f0:	0f010793          	addi	a5,sp,240
1000b6f4:	40b78eb3          	sub	t4,a5,a1
1000b6f8:	000d8313          	mv	t1,s11
1000b6fc:	71ddcc63          	blt	s11,t4,1000be14 <_vfiprintf_r+0x1028>
1000b700:	00058493          	mv	s1,a1
1000b704:	d29ff06f          	j	1000b42c <_vfiprintf_r+0x640>
1000b708:	00008737          	lui	a4,0x8
1000b70c:	83070713          	addi	a4,a4,-2000 # 7830 <__heap_size+0x6830>
1000b710:	02e11e23          	sh	a4,60(sp)
1000b714:	10011737          	lui	a4,0x10011
1000b718:	1a070713          	addi	a4,a4,416 # 100111a0 <__extenddftf2+0x274>
1000b71c:	000d2783          	lw	a5,0(s10)
1000b720:	00000613          	li	a2,0
1000b724:	0028e893          	ori	a7,a7,2
1000b728:	004d0d13          	addi	s10,s10,4
1000b72c:	00e12223          	sw	a4,4(sp)
1000b730:	02010da3          	sb	zero,59(sp)
1000b734:	320dc463          	bltz	s11,1000ba5c <_vfiprintf_r+0xc70>
1000b738:	00c7e733          	or	a4,a5,a2
1000b73c:	f7f8f693          	andi	a3,a7,-129
1000b740:	30071863          	bnez	a4,1000ba50 <_vfiprintf_r+0xc64>
1000b744:	00088e93          	mv	t4,a7
1000b748:	00200793          	li	a5,2
1000b74c:	00068893          	mv	a7,a3
1000b750:	eb5ff06f          	j	1000b604 <_vfiprintf_r+0x818>
1000b754:	0208f793          	andi	a5,a7,32
1000b758:	68079a63          	bnez	a5,1000bdec <_vfiprintf_r+0x1000>
1000b75c:	0108f793          	andi	a5,a7,16
1000b760:	0a0798e3          	bnez	a5,1000c010 <_vfiprintf_r+0x1224>
1000b764:	0408f793          	andi	a5,a7,64
1000b768:	120792e3          	bnez	a5,1000c08c <_vfiprintf_r+0x12a0>
1000b76c:	2008f893          	andi	a7,a7,512
1000b770:	0a0880e3          	beqz	a7,1000c010 <_vfiprintf_r+0x1224>
1000b774:	000d2783          	lw	a5,0(s10)
1000b778:	004d0d13          	addi	s10,s10,4
1000b77c:	01278023          	sb	s2,0(a5)
1000b780:	f5cff06f          	j	1000aedc <_vfiprintf_r+0xf0>
1000b784:	00100713          	li	a4,1
1000b788:	000e8793          	mv	a5,t4
1000b78c:	04912623          	sw	s1,76(sp)
1000b790:	05d12823          	sw	t4,80(sp)
1000b794:	05d12423          	sw	t4,72(sp)
1000b798:	04e12223          	sw	a4,68(sp)
1000b79c:	000a8413          	mv	s0,s5
1000b7a0:	00840413          	addi	s0,s0,8
1000b7a4:	a31ff06f          	j	1000b1d4 <_vfiprintf_r+0x3e8>
1000b7a8:	00100613          	li	a2,1
1000b7ac:	00000693          	li	a3,0
1000b7b0:	000a8593          	mv	a1,s5
1000b7b4:	b59ff06f          	j	1000b30c <_vfiprintf_r+0x520>
1000b7b8:	406b8e33          	sub	t3,s7,t1
1000b7bc:	9dc052e3          	blez	t3,1000b180 <_vfiprintf_r+0x394>
1000b7c0:	01000693          	li	a3,16
1000b7c4:	13c6dae3          	bge	a3,t3,1000c0f8 <_vfiprintf_r+0x130c>
1000b7c8:	10012f37          	lui	t5,0x10012
1000b7cc:	938f0f13          	addi	t5,t5,-1736 # 10011938 <zeroes.0>
1000b7d0:	00912823          	sw	s1,16(sp)
1000b7d4:	00040593          	mv	a1,s0
1000b7d8:	01000f93          	li	t6,16
1000b7dc:	00700293          	li	t0,7
1000b7e0:	01112423          	sw	a7,8(sp)
1000b7e4:	01d12623          	sw	t4,12(sp)
1000b7e8:	02612023          	sw	t1,32(sp)
1000b7ec:	000e0413          	mv	s0,t3
1000b7f0:	000f0493          	mv	s1,t5
1000b7f4:	0180006f          	j	1000b80c <_vfiprintf_r+0xa20>
1000b7f8:	00270613          	addi	a2,a4,2
1000b7fc:	00858593          	addi	a1,a1,8
1000b800:	00068713          	mv	a4,a3
1000b804:	ff040413          	addi	s0,s0,-16
1000b808:	048fdc63          	bge	t6,s0,1000b860 <_vfiprintf_r+0xa74>
1000b80c:	01078793          	addi	a5,a5,16
1000b810:	00170693          	addi	a3,a4,1
1000b814:	0095a023          	sw	s1,0(a1)
1000b818:	01f5a223          	sw	t6,4(a1)
1000b81c:	04f12423          	sw	a5,72(sp)
1000b820:	04d12223          	sw	a3,68(sp)
1000b824:	fcd2dae3          	bge	t0,a3,1000b7f8 <_vfiprintf_r+0xa0c>
1000b828:	18078c63          	beqz	a5,1000b9c0 <_vfiprintf_r+0xbd4>
1000b82c:	04010613          	addi	a2,sp,64
1000b830:	000b0593          	mv	a1,s6
1000b834:	000c0513          	mv	a0,s8
1000b838:	c90ff0ef          	jal	1000acc8 <__sprint_r.part.0>
1000b83c:	fc051663          	bnez	a0,1000b008 <_vfiprintf_r+0x21c>
1000b840:	04412703          	lw	a4,68(sp)
1000b844:	01000f93          	li	t6,16
1000b848:	ff040413          	addi	s0,s0,-16
1000b84c:	04812783          	lw	a5,72(sp)
1000b850:	000a8593          	mv	a1,s5
1000b854:	00170613          	addi	a2,a4,1
1000b858:	00700293          	li	t0,7
1000b85c:	fa8fc8e3          	blt	t6,s0,1000b80c <_vfiprintf_r+0xa20>
1000b860:	00048f13          	mv	t5,s1
1000b864:	00812883          	lw	a7,8(sp)
1000b868:	00c12e83          	lw	t4,12(sp)
1000b86c:	02012303          	lw	t1,32(sp)
1000b870:	01012483          	lw	s1,16(sp)
1000b874:	00040e13          	mv	t3,s0
1000b878:	00058413          	mv	s0,a1
1000b87c:	01c787b3          	add	a5,a5,t3
1000b880:	01e42023          	sw	t5,0(s0)
1000b884:	01c42223          	sw	t3,4(s0)
1000b888:	04f12423          	sw	a5,72(sp)
1000b88c:	04c12223          	sw	a2,68(sp)
1000b890:	00700713          	li	a4,7
1000b894:	54c75463          	bge	a4,a2,1000bddc <_vfiprintf_r+0xff0>
1000b898:	7c078263          	beqz	a5,1000c05c <_vfiprintf_r+0x1270>
1000b89c:	04010613          	addi	a2,sp,64
1000b8a0:	000b0593          	mv	a1,s6
1000b8a4:	000c0513          	mv	a0,s8
1000b8a8:	00612823          	sw	t1,16(sp)
1000b8ac:	01d12623          	sw	t4,12(sp)
1000b8b0:	01112423          	sw	a7,8(sp)
1000b8b4:	c14ff0ef          	jal	1000acc8 <__sprint_r.part.0>
1000b8b8:	f4051863          	bnez	a0,1000b008 <_vfiprintf_r+0x21c>
1000b8bc:	00c12e83          	lw	t4,12(sp)
1000b8c0:	04412703          	lw	a4,68(sp)
1000b8c4:	04812783          	lw	a5,72(sp)
1000b8c8:	41dd8db3          	sub	s11,s11,t4
1000b8cc:	01012303          	lw	t1,16(sp)
1000b8d0:	00812883          	lw	a7,8(sp)
1000b8d4:	000a8413          	mv	s0,s5
1000b8d8:	00170593          	addi	a1,a4,1
1000b8dc:	8bb056e3          	blez	s11,1000b188 <_vfiprintf_r+0x39c>
1000b8e0:	10012f37          	lui	t5,0x10012
1000b8e4:	938f0f13          	addi	t5,t5,-1736 # 10011938 <zeroes.0>
1000b8e8:	0bba5063          	bge	s4,s11,1000b988 <_vfiprintf_r+0xb9c>
1000b8ec:	00040613          	mv	a2,s0
1000b8f0:	00700e13          	li	t3,7
1000b8f4:	000d8413          	mv	s0,s11
1000b8f8:	01112423          	sw	a7,8(sp)
1000b8fc:	01d12623          	sw	t4,12(sp)
1000b900:	00612823          	sw	t1,16(sp)
1000b904:	000c8d93          	mv	s11,s9
1000b908:	0180006f          	j	1000b920 <_vfiprintf_r+0xb34>
1000b90c:	00270593          	addi	a1,a4,2
1000b910:	00860613          	addi	a2,a2,8
1000b914:	00068713          	mv	a4,a3
1000b918:	ff040413          	addi	s0,s0,-16
1000b91c:	048a5a63          	bge	s4,s0,1000b970 <_vfiprintf_r+0xb84>
1000b920:	01078793          	addi	a5,a5,16
1000b924:	00170693          	addi	a3,a4,1
1000b928:	01962023          	sw	s9,0(a2)
1000b92c:	01462223          	sw	s4,4(a2)
1000b930:	04f12423          	sw	a5,72(sp)
1000b934:	04d12223          	sw	a3,68(sp)
1000b938:	fcde5ae3          	bge	t3,a3,1000b90c <_vfiprintf_r+0xb20>
1000b93c:	06078a63          	beqz	a5,1000b9b0 <_vfiprintf_r+0xbc4>
1000b940:	04010613          	addi	a2,sp,64
1000b944:	000b0593          	mv	a1,s6
1000b948:	000c0513          	mv	a0,s8
1000b94c:	b7cff0ef          	jal	1000acc8 <__sprint_r.part.0>
1000b950:	ea051c63          	bnez	a0,1000b008 <_vfiprintf_r+0x21c>
1000b954:	04412703          	lw	a4,68(sp)
1000b958:	ff040413          	addi	s0,s0,-16
1000b95c:	04812783          	lw	a5,72(sp)
1000b960:	000a8613          	mv	a2,s5
1000b964:	00170593          	addi	a1,a4,1
1000b968:	00700e13          	li	t3,7
1000b96c:	fa8a4ae3          	blt	s4,s0,1000b920 <_vfiprintf_r+0xb34>
1000b970:	00812883          	lw	a7,8(sp)
1000b974:	00c12e83          	lw	t4,12(sp)
1000b978:	01012303          	lw	t1,16(sp)
1000b97c:	000d8f13          	mv	t5,s11
1000b980:	00040d93          	mv	s11,s0
1000b984:	00060413          	mv	s0,a2
1000b988:	01b787b3          	add	a5,a5,s11
1000b98c:	01e42023          	sw	t5,0(s0)
1000b990:	01b42223          	sw	s11,4(s0)
1000b994:	04f12423          	sw	a5,72(sp)
1000b998:	04b12223          	sw	a1,68(sp)
1000b99c:	00700713          	li	a4,7
1000b9a0:	22b74063          	blt	a4,a1,1000bbc0 <_vfiprintf_r+0xdd4>
1000b9a4:	00840413          	addi	s0,s0,8
1000b9a8:	00158593          	addi	a1,a1,1
1000b9ac:	fdcff06f          	j	1000b188 <_vfiprintf_r+0x39c>
1000b9b0:	00100593          	li	a1,1
1000b9b4:	00000713          	li	a4,0
1000b9b8:	000a8613          	mv	a2,s5
1000b9bc:	f5dff06f          	j	1000b918 <_vfiprintf_r+0xb2c>
1000b9c0:	00100613          	li	a2,1
1000b9c4:	00000713          	li	a4,0
1000b9c8:	000a8593          	mv	a1,s5
1000b9cc:	e39ff06f          	j	1000b804 <_vfiprintf_r+0xa18>
1000b9d0:	04078a63          	beqz	a5,1000ba24 <_vfiprintf_r+0xc38>
1000b9d4:	04010613          	addi	a2,sp,64
1000b9d8:	000b0593          	mv	a1,s6
1000b9dc:	000c0513          	mv	a0,s8
1000b9e0:	02612223          	sw	t1,36(sp)
1000b9e4:	03d12023          	sw	t4,32(sp)
1000b9e8:	00512823          	sw	t0,16(sp)
1000b9ec:	01f12623          	sw	t6,12(sp)
1000b9f0:	01112423          	sw	a7,8(sp)
1000b9f4:	ad4ff0ef          	jal	1000acc8 <__sprint_r.part.0>
1000b9f8:	e0051863          	bnez	a0,1000b008 <_vfiprintf_r+0x21c>
1000b9fc:	04412703          	lw	a4,68(sp)
1000ba00:	04812783          	lw	a5,72(sp)
1000ba04:	02412303          	lw	t1,36(sp)
1000ba08:	02012e83          	lw	t4,32(sp)
1000ba0c:	01012283          	lw	t0,16(sp)
1000ba10:	00c12f83          	lw	t6,12(sp)
1000ba14:	00812883          	lw	a7,8(sp)
1000ba18:	000a8413          	mv	s0,s5
1000ba1c:	00170593          	addi	a1,a4,1
1000ba20:	ee8ff06f          	j	1000b108 <_vfiprintf_r+0x31c>
1000ba24:	3e0f8063          	beqz	t6,1000be04 <_vfiprintf_r+0x1018>
1000ba28:	03c10793          	addi	a5,sp,60
1000ba2c:	04f12623          	sw	a5,76(sp)
1000ba30:	00200793          	li	a5,2
1000ba34:	04f12823          	sw	a5,80(sp)
1000ba38:	00100593          	li	a1,1
1000ba3c:	000a8413          	mv	s0,s5
1000ba40:	00058713          	mv	a4,a1
1000ba44:	00840413          	addi	s0,s0,8
1000ba48:	00158593          	addi	a1,a1,1
1000ba4c:	f2cff06f          	j	1000b178 <_vfiprintf_r+0x38c>
1000ba50:	00200713          	li	a4,2
1000ba54:	00068893          	mv	a7,a3
1000ba58:	c40708e3          	beqz	a4,1000b6a8 <_vfiprintf_r+0x8bc>
1000ba5c:	00412583          	lw	a1,4(sp)
1000ba60:	0f010493          	addi	s1,sp,240
1000ba64:	00f7f713          	andi	a4,a5,15
1000ba68:	00e58733          	add	a4,a1,a4
1000ba6c:	00074683          	lbu	a3,0(a4)
1000ba70:	0047d793          	srli	a5,a5,0x4
1000ba74:	01c61713          	slli	a4,a2,0x1c
1000ba78:	00f767b3          	or	a5,a4,a5
1000ba7c:	00465613          	srli	a2,a2,0x4
1000ba80:	fed48fa3          	sb	a3,-1(s1)
1000ba84:	00c7e733          	or	a4,a5,a2
1000ba88:	fff48493          	addi	s1,s1,-1
1000ba8c:	fc071ce3          	bnez	a4,1000ba64 <_vfiprintf_r+0xc78>
1000ba90:	0f010793          	addi	a5,sp,240
1000ba94:	40978eb3          	sub	t4,a5,s1
1000ba98:	000d8313          	mv	t1,s11
1000ba9c:	99ddd8e3          	bge	s11,t4,1000b42c <_vfiprintf_r+0x640>
1000baa0:	000e8313          	mv	t1,t4
1000baa4:	989ff06f          	j	1000b42c <_vfiprintf_r+0x640>
1000baa8:	01000593          	li	a1,16
1000baac:	62d5d263          	bge	a1,a3,1000c0d0 <_vfiprintf_r+0x12e4>
1000bab0:	10012e37          	lui	t3,0x10012
1000bab4:	948e0e13          	addi	t3,t3,-1720 # 10011948 <blanks.1>
1000bab8:	02912223          	sw	s1,36(sp)
1000babc:	00040593          	mv	a1,s0
1000bac0:	01000f13          	li	t5,16
1000bac4:	00700393          	li	t2,7
1000bac8:	01112423          	sw	a7,8(sp)
1000bacc:	01f12623          	sw	t6,12(sp)
1000bad0:	00512823          	sw	t0,16(sp)
1000bad4:	03d12023          	sw	t4,32(sp)
1000bad8:	02612423          	sw	t1,40(sp)
1000badc:	00068413          	mv	s0,a3
1000bae0:	000e0493          	mv	s1,t3
1000bae4:	01c0006f          	j	1000bb00 <_vfiprintf_r+0xd14>
1000bae8:	00270513          	addi	a0,a4,2
1000baec:	00858593          	addi	a1,a1,8
1000baf0:	00060713          	mv	a4,a2
1000baf4:	ff040413          	addi	s0,s0,-16
1000baf8:	048f5c63          	bge	t5,s0,1000bb50 <_vfiprintf_r+0xd64>
1000bafc:	00170613          	addi	a2,a4,1
1000bb00:	01078793          	addi	a5,a5,16
1000bb04:	0095a023          	sw	s1,0(a1)
1000bb08:	01e5a223          	sw	t5,4(a1)
1000bb0c:	04f12423          	sw	a5,72(sp)
1000bb10:	04c12223          	sw	a2,68(sp)
1000bb14:	fcc3dae3          	bge	t2,a2,1000bae8 <_vfiprintf_r+0xcfc>
1000bb18:	08078463          	beqz	a5,1000bba0 <_vfiprintf_r+0xdb4>
1000bb1c:	04010613          	addi	a2,sp,64
1000bb20:	000b0593          	mv	a1,s6
1000bb24:	000c0513          	mv	a0,s8
1000bb28:	9a0ff0ef          	jal	1000acc8 <__sprint_r.part.0>
1000bb2c:	cc051e63          	bnez	a0,1000b008 <_vfiprintf_r+0x21c>
1000bb30:	04412703          	lw	a4,68(sp)
1000bb34:	01000f13          	li	t5,16
1000bb38:	ff040413          	addi	s0,s0,-16
1000bb3c:	04812783          	lw	a5,72(sp)
1000bb40:	000a8593          	mv	a1,s5
1000bb44:	00170513          	addi	a0,a4,1
1000bb48:	00700393          	li	t2,7
1000bb4c:	fa8f48e3          	blt	t5,s0,1000bafc <_vfiprintf_r+0xd10>
1000bb50:	00048e13          	mv	t3,s1
1000bb54:	00812883          	lw	a7,8(sp)
1000bb58:	00c12f83          	lw	t6,12(sp)
1000bb5c:	01012283          	lw	t0,16(sp)
1000bb60:	02012e83          	lw	t4,32(sp)
1000bb64:	02812303          	lw	t1,40(sp)
1000bb68:	02412483          	lw	s1,36(sp)
1000bb6c:	00040693          	mv	a3,s0
1000bb70:	00058413          	mv	s0,a1
1000bb74:	00d787b3          	add	a5,a5,a3
1000bb78:	01c42023          	sw	t3,0(s0)
1000bb7c:	00d42223          	sw	a3,4(s0)
1000bb80:	04f12423          	sw	a5,72(sp)
1000bb84:	04a12223          	sw	a0,68(sp)
1000bb88:	00700713          	li	a4,7
1000bb8c:	0ea74a63          	blt	a4,a0,1000bc80 <_vfiprintf_r+0xe94>
1000bb90:	00840413          	addi	s0,s0,8
1000bb94:	00150593          	addi	a1,a0,1
1000bb98:	00050713          	mv	a4,a0
1000bb9c:	d34ff06f          	j	1000b0d0 <_vfiprintf_r+0x2e4>
1000bba0:	00000713          	li	a4,0
1000bba4:	00100513          	li	a0,1
1000bba8:	000a8593          	mv	a1,s5
1000bbac:	f49ff06f          	j	1000baf4 <_vfiprintf_r+0xd08>
1000bbb0:	006bd463          	bge	s7,t1,1000bbb8 <_vfiprintf_r+0xdcc>
1000bbb4:	00030b93          	mv	s7,t1
1000bbb8:	01790933          	add	s2,s2,s7
1000bbbc:	e38ff06f          	j	1000b1f4 <_vfiprintf_r+0x408>
1000bbc0:	bc0782e3          	beqz	a5,1000b784 <_vfiprintf_r+0x998>
1000bbc4:	04010613          	addi	a2,sp,64
1000bbc8:	000b0593          	mv	a1,s6
1000bbcc:	000c0513          	mv	a0,s8
1000bbd0:	00612823          	sw	t1,16(sp)
1000bbd4:	01d12623          	sw	t4,12(sp)
1000bbd8:	01112423          	sw	a7,8(sp)
1000bbdc:	8ecff0ef          	jal	1000acc8 <__sprint_r.part.0>
1000bbe0:	c2051463          	bnez	a0,1000b008 <_vfiprintf_r+0x21c>
1000bbe4:	04412583          	lw	a1,68(sp)
1000bbe8:	04812783          	lw	a5,72(sp)
1000bbec:	01012303          	lw	t1,16(sp)
1000bbf0:	00c12e83          	lw	t4,12(sp)
1000bbf4:	00812883          	lw	a7,8(sp)
1000bbf8:	000a8413          	mv	s0,s5
1000bbfc:	00158593          	addi	a1,a1,1
1000bc00:	d88ff06f          	j	1000b188 <_vfiprintf_r+0x39c>
1000bc04:	04012223          	sw	zero,68(sp)
1000bc08:	000a8413          	mv	s0,s5
1000bc0c:	b40ff06f          	j	1000af4c <_vfiprintf_r+0x160>
1000bc10:	010ef713          	andi	a4,t4,16
1000bc14:	000d2783          	lw	a5,0(s10)
1000bc18:	004d0d13          	addi	s10,s10,4
1000bc1c:	00071a63          	bnez	a4,1000bc30 <_vfiprintf_r+0xe44>
1000bc20:	040ef713          	andi	a4,t4,64
1000bc24:	40070c63          	beqz	a4,1000c03c <_vfiprintf_r+0x1250>
1000bc28:	01079793          	slli	a5,a5,0x10
1000bc2c:	0107d793          	srli	a5,a5,0x10
1000bc30:	00000313          	li	t1,0
1000bc34:	a3dff06f          	j	1000b670 <_vfiprintf_r+0x884>
1000bc38:	01077693          	andi	a3,a4,16
1000bc3c:	000d2783          	lw	a5,0(s10)
1000bc40:	004d0d13          	addi	s10,s10,4
1000bc44:	02069263          	bnez	a3,1000bc68 <_vfiprintf_r+0xe7c>
1000bc48:	04077693          	andi	a3,a4,64
1000bc4c:	00068a63          	beqz	a3,1000bc60 <_vfiprintf_r+0xe74>
1000bc50:	01079793          	slli	a5,a5,0x10
1000bc54:	0107d793          	srli	a5,a5,0x10
1000bc58:	00000613          	li	a2,0
1000bc5c:	985ff06f          	j	1000b5e0 <_vfiprintf_r+0x7f4>
1000bc60:	20077693          	andi	a3,a4,512
1000bc64:	44069663          	bnez	a3,1000c0b0 <_vfiprintf_r+0x12c4>
1000bc68:	00000613          	li	a2,0
1000bc6c:	975ff06f          	j	1000b5e0 <_vfiprintf_r+0x7f4>
1000bc70:	00100593          	li	a1,1
1000bc74:	00000713          	li	a4,0
1000bc78:	000a8413          	mv	s0,s5
1000bc7c:	cfcff06f          	j	1000b178 <_vfiprintf_r+0x38c>
1000bc80:	24078e63          	beqz	a5,1000bedc <_vfiprintf_r+0x10f0>
1000bc84:	04010613          	addi	a2,sp,64
1000bc88:	000b0593          	mv	a1,s6
1000bc8c:	000c0513          	mv	a0,s8
1000bc90:	02612223          	sw	t1,36(sp)
1000bc94:	03d12023          	sw	t4,32(sp)
1000bc98:	00512823          	sw	t0,16(sp)
1000bc9c:	01f12623          	sw	t6,12(sp)
1000bca0:	01112423          	sw	a7,8(sp)
1000bca4:	824ff0ef          	jal	1000acc8 <__sprint_r.part.0>
1000bca8:	b6051063          	bnez	a0,1000b008 <_vfiprintf_r+0x21c>
1000bcac:	04412703          	lw	a4,68(sp)
1000bcb0:	04812783          	lw	a5,72(sp)
1000bcb4:	02412303          	lw	t1,36(sp)
1000bcb8:	02012e83          	lw	t4,32(sp)
1000bcbc:	01012283          	lw	t0,16(sp)
1000bcc0:	00c12f83          	lw	t6,12(sp)
1000bcc4:	00812883          	lw	a7,8(sp)
1000bcc8:	000a8413          	mv	s0,s5
1000bccc:	00170593          	addi	a1,a4,1
1000bcd0:	c00ff06f          	j	1000b0d0 <_vfiprintf_r+0x2e4>
1000bcd4:	ccccdfb7          	lui	t6,0xccccd
1000bcd8:	ccccd2b7          	lui	t0,0xccccd
1000bcdc:	01412803          	lw	a6,20(sp)
1000bce0:	4008fe93          	andi	t4,a7,1024
1000bce4:	00000613          	li	a2,0
1000bce8:	0f010593          	addi	a1,sp,240
1000bcec:	00500e13          	li	t3,5
1000bcf0:	ccdf8f93          	addi	t6,t6,-819 # cccccccd <_sp+0xbccaf5f1>
1000bcf4:	ccc28293          	addi	t0,t0,-820 # cccccccc <_sp+0xbccaf5f0>
1000bcf8:	0ff00f13          	li	t5,255
1000bcfc:	0540006f          	j	1000bd50 <_vfiprintf_r+0xf64>
1000bd00:	00f4b733          	sltu	a4,s1,a5
1000bd04:	00e48733          	add	a4,s1,a4
1000bd08:	03c77733          	remu	a4,a4,t3
1000bd0c:	40e78733          	sub	a4,a5,a4
1000bd10:	00e7b5b3          	sltu	a1,a5,a4
1000bd14:	40b305b3          	sub	a1,t1,a1
1000bd18:	025703b3          	mul	t2,a4,t0
1000bd1c:	03f585b3          	mul	a1,a1,t6
1000bd20:	03f73533          	mulhu	a0,a4,t6
1000bd24:	007585b3          	add	a1,a1,t2
1000bd28:	03f70733          	mul	a4,a4,t6
1000bd2c:	00a585b3          	add	a1,a1,a0
1000bd30:	01f59513          	slli	a0,a1,0x1f
1000bd34:	0015d593          	srli	a1,a1,0x1
1000bd38:	00175713          	srli	a4,a4,0x1
1000bd3c:	00e56733          	or	a4,a0,a4
1000bd40:	32030663          	beqz	t1,1000c06c <_vfiprintf_r+0x1280>
1000bd44:	00058313          	mv	t1,a1
1000bd48:	00070793          	mv	a5,a4
1000bd4c:	00068593          	mv	a1,a3
1000bd50:	006784b3          	add	s1,a5,t1
1000bd54:	00f4b733          	sltu	a4,s1,a5
1000bd58:	00e48733          	add	a4,s1,a4
1000bd5c:	03c77733          	remu	a4,a4,t3
1000bd60:	fff58693          	addi	a3,a1,-1
1000bd64:	00160613          	addi	a2,a2,1
1000bd68:	40e78733          	sub	a4,a5,a4
1000bd6c:	00e7b3b3          	sltu	t2,a5,a4
1000bd70:	407303b3          	sub	t2,t1,t2
1000bd74:	03f73533          	mulhu	a0,a4,t6
1000bd78:	03f383b3          	mul	t2,t2,t6
1000bd7c:	03f70733          	mul	a4,a4,t6
1000bd80:	00a383b3          	add	t2,t2,a0
1000bd84:	01f39393          	slli	t2,t2,0x1f
1000bd88:	00175513          	srli	a0,a4,0x1
1000bd8c:	00a3e533          	or	a0,t2,a0
1000bd90:	00251713          	slli	a4,a0,0x2
1000bd94:	00a70733          	add	a4,a4,a0
1000bd98:	00171713          	slli	a4,a4,0x1
1000bd9c:	40e78733          	sub	a4,a5,a4
1000bda0:	03070713          	addi	a4,a4,48
1000bda4:	fee58fa3          	sb	a4,-1(a1)
1000bda8:	f40e8ce3          	beqz	t4,1000bd00 <_vfiprintf_r+0xf14>
1000bdac:	00084703          	lbu	a4,0(a6)
1000bdb0:	f4c718e3          	bne	a4,a2,1000bd00 <_vfiprintf_r+0xf14>
1000bdb4:	f5e606e3          	beq	a2,t5,1000bd00 <_vfiprintf_r+0xf14>
1000bdb8:	14031463          	bnez	t1,1000bf00 <_vfiprintf_r+0x1114>
1000bdbc:	00900713          	li	a4,9
1000bdc0:	14f76063          	bltu	a4,a5,1000bf00 <_vfiprintf_r+0x1114>
1000bdc4:	01012a23          	sw	a6,20(sp)
1000bdc8:	00068493          	mv	s1,a3
1000bdcc:	cc5ff06f          	j	1000ba90 <_vfiprintf_r+0xca4>
1000bdd0:	00000313          	li	t1,0
1000bdd4:	0f010493          	addi	s1,sp,240
1000bdd8:	e54ff06f          	j	1000b42c <_vfiprintf_r+0x640>
1000bddc:	00840413          	addi	s0,s0,8
1000bde0:	00160593          	addi	a1,a2,1
1000bde4:	00060713          	mv	a4,a2
1000bde8:	b98ff06f          	j	1000b180 <_vfiprintf_r+0x394>
1000bdec:	000d2783          	lw	a5,0(s10)
1000bdf0:	41f95713          	srai	a4,s2,0x1f
1000bdf4:	004d0d13          	addi	s10,s10,4
1000bdf8:	0127a023          	sw	s2,0(a5)
1000bdfc:	00e7a223          	sw	a4,4(a5)
1000be00:	8dcff06f          	j	1000aedc <_vfiprintf_r+0xf0>
1000be04:	00000713          	li	a4,0
1000be08:	00100593          	li	a1,1
1000be0c:	000a8413          	mv	s0,s5
1000be10:	b68ff06f          	j	1000b178 <_vfiprintf_r+0x38c>
1000be14:	000e8313          	mv	t1,t4
1000be18:	00058493          	mv	s1,a1
1000be1c:	e10ff06f          	j	1000b42c <_vfiprintf_r+0x640>
1000be20:	fff00d93          	li	s11,-1
1000be24:	00060993          	mv	s3,a2
1000be28:	954ff06f          	j	1000af7c <_vfiprintf_r+0x190>
1000be2c:	00088e93          	mv	t4,a7
1000be30:	825ff06f          	j	1000b654 <_vfiprintf_r+0x868>
1000be34:	00088713          	mv	a4,a7
1000be38:	f8cff06f          	j	1000b5c4 <_vfiprintf_r+0x7d8>
1000be3c:	100117b7          	lui	a5,0x10011
1000be40:	1b478793          	addi	a5,a5,436 # 100111b4 <__extenddftf2+0x288>
1000be44:	00f12223          	sw	a5,4(sp)
1000be48:	0208f793          	andi	a5,a7,32
1000be4c:	04078a63          	beqz	a5,1000bea0 <_vfiprintf_r+0x10b4>
1000be50:	007d0d13          	addi	s10,s10,7
1000be54:	ff8d7d13          	andi	s10,s10,-8
1000be58:	000d2783          	lw	a5,0(s10)
1000be5c:	004d2603          	lw	a2,4(s10)
1000be60:	008d0d13          	addi	s10,s10,8
1000be64:	0018f713          	andi	a4,a7,1
1000be68:	00070e63          	beqz	a4,1000be84 <_vfiprintf_r+0x1098>
1000be6c:	00c7e733          	or	a4,a5,a2
1000be70:	00070a63          	beqz	a4,1000be84 <_vfiprintf_r+0x1098>
1000be74:	03000713          	li	a4,48
1000be78:	02e10e23          	sb	a4,60(sp)
1000be7c:	02d10ea3          	sb	a3,61(sp)
1000be80:	0028e893          	ori	a7,a7,2
1000be84:	bff8f893          	andi	a7,a7,-1025
1000be88:	8a9ff06f          	j	1000b730 <_vfiprintf_r+0x944>
1000be8c:	100117b7          	lui	a5,0x10011
1000be90:	1a078793          	addi	a5,a5,416 # 100111a0 <__extenddftf2+0x274>
1000be94:	00f12223          	sw	a5,4(sp)
1000be98:	0208f793          	andi	a5,a7,32
1000be9c:	fa079ae3          	bnez	a5,1000be50 <_vfiprintf_r+0x1064>
1000bea0:	0108f713          	andi	a4,a7,16
1000bea4:	000d2783          	lw	a5,0(s10)
1000bea8:	004d0d13          	addi	s10,s10,4
1000beac:	12071263          	bnez	a4,1000bfd0 <_vfiprintf_r+0x11e4>
1000beb0:	0408f713          	andi	a4,a7,64
1000beb4:	10070a63          	beqz	a4,1000bfc8 <_vfiprintf_r+0x11dc>
1000beb8:	01079793          	slli	a5,a5,0x10
1000bebc:	0107d793          	srli	a5,a5,0x10
1000bec0:	00000613          	li	a2,0
1000bec4:	fa1ff06f          	j	1000be64 <_vfiprintf_r+0x1078>
1000bec8:	00048513          	mv	a0,s1
1000becc:	c3df60ef          	jal	10002b08 <strlen>
1000bed0:	00812883          	lw	a7,8(sp)
1000bed4:	00050e93          	mv	t4,a0
1000bed8:	d98ff06f          	j	1000b470 <_vfiprintf_r+0x684>
1000bedc:	03b14703          	lbu	a4,59(sp)
1000bee0:	1a070063          	beqz	a4,1000c080 <_vfiprintf_r+0x1294>
1000bee4:	03b10793          	addi	a5,sp,59
1000bee8:	04f12623          	sw	a5,76(sp)
1000beec:	00100793          	li	a5,1
1000bef0:	04f12823          	sw	a5,80(sp)
1000bef4:	00100593          	li	a1,1
1000bef8:	000a8413          	mv	s0,s5
1000befc:	a00ff06f          	j	1000b0fc <_vfiprintf_r+0x310>
1000bf00:	02f12423          	sw	a5,40(sp)
1000bf04:	01812783          	lw	a5,24(sp)
1000bf08:	01c12583          	lw	a1,28(sp)
1000bf0c:	02612623          	sw	t1,44(sp)
1000bf10:	40f686b3          	sub	a3,a3,a5
1000bf14:	00078613          	mv	a2,a5
1000bf18:	00068513          	mv	a0,a3
1000bf1c:	02512223          	sw	t0,36(sp)
1000bf20:	03f12023          	sw	t6,32(sp)
1000bf24:	01d12a23          	sw	t4,20(sp)
1000bf28:	01012823          	sw	a6,16(sp)
1000bf2c:	01112623          	sw	a7,12(sp)
1000bf30:	00d12423          	sw	a3,8(sp)
1000bf34:	d69fa0ef          	jal	10006c9c <strncpy>
1000bf38:	02812783          	lw	a5,40(sp)
1000bf3c:	00500613          	li	a2,5
1000bf40:	01012803          	lw	a6,16(sp)
1000bf44:	00f4b733          	sltu	a4,s1,a5
1000bf48:	00e48733          	add	a4,s1,a4
1000bf4c:	02c77733          	remu	a4,a4,a2
1000bf50:	00184583          	lbu	a1,1(a6)
1000bf54:	02c12303          	lw	t1,44(sp)
1000bf58:	ccccd537          	lui	a0,0xccccd
1000bf5c:	00b035b3          	snez	a1,a1
1000bf60:	ccccd3b7          	lui	t2,0xccccd
1000bf64:	00b80833          	add	a6,a6,a1
1000bf68:	ccd50513          	addi	a0,a0,-819 # cccccccd <_sp+0xbccaf5f1>
1000bf6c:	ccc38393          	addi	t2,t2,-820 # cccccccc <_sp+0xbccaf5f0>
1000bf70:	00812683          	lw	a3,8(sp)
1000bf74:	00c12883          	lw	a7,12(sp)
1000bf78:	01412e83          	lw	t4,20(sp)
1000bf7c:	02012f83          	lw	t6,32(sp)
1000bf80:	02412283          	lw	t0,36(sp)
1000bf84:	00000613          	li	a2,0
1000bf88:	00500e13          	li	t3,5
1000bf8c:	0ff00f13          	li	t5,255
1000bf90:	40e78733          	sub	a4,a5,a4
1000bf94:	00e7b5b3          	sltu	a1,a5,a4
1000bf98:	40b305b3          	sub	a1,t1,a1
1000bf9c:	027703b3          	mul	t2,a4,t2
1000bfa0:	02a585b3          	mul	a1,a1,a0
1000bfa4:	02a73333          	mulhu	t1,a4,a0
1000bfa8:	007585b3          	add	a1,a1,t2
1000bfac:	02a707b3          	mul	a5,a4,a0
1000bfb0:	006585b3          	add	a1,a1,t1
1000bfb4:	01f59713          	slli	a4,a1,0x1f
1000bfb8:	0015d593          	srli	a1,a1,0x1
1000bfbc:	0017d793          	srli	a5,a5,0x1
1000bfc0:	00f76733          	or	a4,a4,a5
1000bfc4:	d81ff06f          	j	1000bd44 <_vfiprintf_r+0xf58>
1000bfc8:	2008f713          	andi	a4,a7,512
1000bfcc:	0e071863          	bnez	a4,1000c0bc <_vfiprintf_r+0x12d0>
1000bfd0:	00000613          	li	a2,0
1000bfd4:	e91ff06f          	j	1000be64 <_vfiprintf_r+0x1078>
1000bfd8:	00070893          	mv	a7,a4
1000bfdc:	00000713          	li	a4,0
1000bfe0:	ec070463          	beqz	a4,1000b6a8 <_vfiprintf_r+0x8bc>
1000bfe4:	a79ff06f          	j	1000ba5c <_vfiprintf_r+0xc70>
1000bfe8:	954f60ef          	jal	1000213c <__sinit>
1000bfec:	e3dfe06f          	j	1000ae28 <_vfiprintf_r+0x3c>
1000bff0:	0019c783          	lbu	a5,1(s3)
1000bff4:	2008e893          	ori	a7,a7,512
1000bff8:	00198993          	addi	s3,s3,1
1000bffc:	f79fe06f          	j	1000af74 <_vfiprintf_r+0x188>
1000c000:	0019c783          	lbu	a5,1(s3)
1000c004:	0208e893          	ori	a7,a7,32
1000c008:	00198993          	addi	s3,s3,1
1000c00c:	f69fe06f          	j	1000af74 <_vfiprintf_r+0x188>
1000c010:	000d2783          	lw	a5,0(s10)
1000c014:	004d0d13          	addi	s10,s10,4
1000c018:	0127a023          	sw	s2,0(a5)
1000c01c:	ec1fe06f          	j	1000aedc <_vfiprintf_r+0xf0>
1000c020:	00600793          	li	a5,6
1000c024:	000d8e93          	mv	t4,s11
1000c028:	05b7e863          	bltu	a5,s11,1000c078 <_vfiprintf_r+0x128c>
1000c02c:	100114b7          	lui	s1,0x10011
1000c030:	000e8313          	mv	t1,t4
1000c034:	1c848493          	addi	s1,s1,456 # 100111c8 <__extenddftf2+0x29c>
1000c038:	870ff06f          	j	1000b0a8 <_vfiprintf_r+0x2bc>
1000c03c:	200ef713          	andi	a4,t4,512
1000c040:	be0708e3          	beqz	a4,1000bc30 <_vfiprintf_r+0xe44>
1000c044:	0ff7f793          	zext.b	a5,a5
1000c048:	00000313          	li	t1,0
1000c04c:	e24ff06f          	j	1000b670 <_vfiprintf_r+0x884>
1000c050:	00000793          	li	a5,0
1000c054:	00000613          	li	a2,0
1000c058:	a05ff06f          	j	1000ba5c <_vfiprintf_r+0xc70>
1000c05c:	00100593          	li	a1,1
1000c060:	00000713          	li	a4,0
1000c064:	000a8413          	mv	s0,s5
1000c068:	918ff06f          	j	1000b180 <_vfiprintf_r+0x394>
1000c06c:	00900513          	li	a0,9
1000c070:	ccf56ae3          	bltu	a0,a5,1000bd44 <_vfiprintf_r+0xf58>
1000c074:	d51ff06f          	j	1000bdc4 <_vfiprintf_r+0xfd8>
1000c078:	00600e93          	li	t4,6
1000c07c:	fb1ff06f          	j	1000c02c <_vfiprintf_r+0x1240>
1000c080:	00100593          	li	a1,1
1000c084:	000a8413          	mv	s0,s5
1000c088:	880ff06f          	j	1000b108 <_vfiprintf_r+0x31c>
1000c08c:	000d2783          	lw	a5,0(s10)
1000c090:	004d0d13          	addi	s10,s10,4
1000c094:	01279023          	sh	s2,0(a5)
1000c098:	e45fe06f          	j	1000aedc <_vfiprintf_r+0xf0>
1000c09c:	01879793          	slli	a5,a5,0x18
1000c0a0:	4187d793          	srai	a5,a5,0x18
1000c0a4:	41f7d313          	srai	t1,a5,0x1f
1000c0a8:	00030713          	mv	a4,t1
1000c0ac:	9bcff06f          	j	1000b268 <_vfiprintf_r+0x47c>
1000c0b0:	0ff7f793          	zext.b	a5,a5
1000c0b4:	00000613          	li	a2,0
1000c0b8:	d28ff06f          	j	1000b5e0 <_vfiprintf_r+0x7f4>
1000c0bc:	0ff7f793          	zext.b	a5,a5
1000c0c0:	00000613          	li	a2,0
1000c0c4:	da1ff06f          	j	1000be64 <_vfiprintf_r+0x1078>
1000c0c8:	03000793          	li	a5,48
1000c0cc:	b48ff06f          	j	1000b414 <_vfiprintf_r+0x628>
1000c0d0:	10012e37          	lui	t3,0x10012
1000c0d4:	00060513          	mv	a0,a2
1000c0d8:	948e0e13          	addi	t3,t3,-1720 # 10011948 <blanks.1>
1000c0dc:	a99ff06f          	j	1000bb74 <_vfiprintf_r+0xd88>
1000c0e0:	10012e37          	lui	t3,0x10012
1000c0e4:	00168613          	addi	a2,a3,1
1000c0e8:	948e0e13          	addi	t3,t3,-1720 # 10011948 <blanks.1>
1000c0ec:	a84ff06f          	j	1000b370 <_vfiprintf_r+0x584>
1000c0f0:	fff00d13          	li	s10,-1
1000c0f4:	f45fe06f          	j	1000b038 <_vfiprintf_r+0x24c>
1000c0f8:	10012f37          	lui	t5,0x10012
1000c0fc:	00058613          	mv	a2,a1
1000c100:	938f0f13          	addi	t5,t5,-1736 # 10011938 <zeroes.0>
1000c104:	f78ff06f          	j	1000b87c <_vfiprintf_r+0xa90>
1000c108:	000d2d83          	lw	s11,0(s10)
1000c10c:	004d0d13          	addi	s10,s10,4
1000c110:	000dd463          	bgez	s11,1000c118 <_vfiprintf_r+0x132c>
1000c114:	fff00d93          	li	s11,-1
1000c118:	0019c783          	lbu	a5,1(s3)
1000c11c:	00060993          	mv	s3,a2
1000c120:	e55fe06f          	j	1000af74 <_vfiprintf_r+0x188>

1000c124 <__sbprintf>:
1000c124:	b8010113          	addi	sp,sp,-1152
1000c128:	00c59783          	lh	a5,12(a1)
1000c12c:	00e5d703          	lhu	a4,14(a1)
1000c130:	46812c23          	sw	s0,1144(sp)
1000c134:	00058413          	mv	s0,a1
1000c138:	000105b7          	lui	a1,0x10
1000c13c:	ffd58593          	addi	a1,a1,-3 # fffd <__heap_size+0xeffd>
1000c140:	06442e03          	lw	t3,100(s0)
1000c144:	01c42303          	lw	t1,28(s0)
1000c148:	02442883          	lw	a7,36(s0)
1000c14c:	01071713          	slli	a4,a4,0x10
1000c150:	00b7f7b3          	and	a5,a5,a1
1000c154:	00e7e7b3          	or	a5,a5,a4
1000c158:	40000813          	li	a6,1024
1000c15c:	00f12a23          	sw	a5,20(sp)
1000c160:	00810593          	addi	a1,sp,8
1000c164:	07010793          	addi	a5,sp,112
1000c168:	46912a23          	sw	s1,1140(sp)
1000c16c:	47212823          	sw	s2,1136(sp)
1000c170:	46112e23          	sw	ra,1148(sp)
1000c174:	00050913          	mv	s2,a0
1000c178:	07c12623          	sw	t3,108(sp)
1000c17c:	02612223          	sw	t1,36(sp)
1000c180:	03112623          	sw	a7,44(sp)
1000c184:	00f12423          	sw	a5,8(sp)
1000c188:	00f12c23          	sw	a5,24(sp)
1000c18c:	01012823          	sw	a6,16(sp)
1000c190:	01012e23          	sw	a6,28(sp)
1000c194:	02012023          	sw	zero,32(sp)
1000c198:	c55fe0ef          	jal	1000adec <_vfiprintf_r>
1000c19c:	00050493          	mv	s1,a0
1000c1a0:	02055c63          	bgez	a0,1000c1d8 <__sbprintf+0xb4>
1000c1a4:	01415783          	lhu	a5,20(sp)
1000c1a8:	0407f793          	andi	a5,a5,64
1000c1ac:	00078863          	beqz	a5,1000c1bc <__sbprintf+0x98>
1000c1b0:	00c45783          	lhu	a5,12(s0)
1000c1b4:	0407e793          	ori	a5,a5,64
1000c1b8:	00f41623          	sh	a5,12(s0)
1000c1bc:	47c12083          	lw	ra,1148(sp)
1000c1c0:	47812403          	lw	s0,1144(sp)
1000c1c4:	47012903          	lw	s2,1136(sp)
1000c1c8:	00048513          	mv	a0,s1
1000c1cc:	47412483          	lw	s1,1140(sp)
1000c1d0:	48010113          	addi	sp,sp,1152
1000c1d4:	00008067          	ret
1000c1d8:	00810593          	addi	a1,sp,8
1000c1dc:	00090513          	mv	a0,s2
1000c1e0:	b4cfa0ef          	jal	1000652c <_fflush_r>
1000c1e4:	fc0500e3          	beqz	a0,1000c1a4 <__sbprintf+0x80>
1000c1e8:	fff00493          	li	s1,-1
1000c1ec:	fb9ff06f          	j	1000c1a4 <__sbprintf+0x80>

1000c1f0 <__fputwc>:
1000c1f0:	fe010113          	addi	sp,sp,-32
1000c1f4:	00812c23          	sw	s0,24(sp)
1000c1f8:	00912a23          	sw	s1,20(sp)
1000c1fc:	01212823          	sw	s2,16(sp)
1000c200:	00112e23          	sw	ra,28(sp)
1000c204:	00050913          	mv	s2,a0
1000c208:	00058493          	mv	s1,a1
1000c20c:	00060413          	mv	s0,a2
1000c210:	fccfe0ef          	jal	1000a9dc <__locale_mb_cur_max>
1000c214:	00100793          	li	a5,1
1000c218:	00f51c63          	bne	a0,a5,1000c230 <__fputwc+0x40>
1000c21c:	fff48793          	addi	a5,s1,-1
1000c220:	0fe00713          	li	a4,254
1000c224:	00f76663          	bltu	a4,a5,1000c230 <__fputwc+0x40>
1000c228:	00910623          	sb	s1,12(sp)
1000c22c:	0240006f          	j	1000c250 <__fputwc+0x60>
1000c230:	05c40693          	addi	a3,s0,92
1000c234:	00048613          	mv	a2,s1
1000c238:	00c10593          	addi	a1,sp,12
1000c23c:	00090513          	mv	a0,s2
1000c240:	0d8000ef          	jal	1000c318 <_wcrtomb_r>
1000c244:	fff00793          	li	a5,-1
1000c248:	08f50463          	beq	a0,a5,1000c2d0 <__fputwc+0xe0>
1000c24c:	02050c63          	beqz	a0,1000c284 <__fputwc+0x94>
1000c250:	00842783          	lw	a5,8(s0)
1000c254:	00c14583          	lbu	a1,12(sp)
1000c258:	fff78793          	addi	a5,a5,-1
1000c25c:	00f42423          	sw	a5,8(s0)
1000c260:	0007da63          	bgez	a5,1000c274 <__fputwc+0x84>
1000c264:	01842703          	lw	a4,24(s0)
1000c268:	02e7cc63          	blt	a5,a4,1000c2a0 <__fputwc+0xb0>
1000c26c:	00a00793          	li	a5,10
1000c270:	02f58863          	beq	a1,a5,1000c2a0 <__fputwc+0xb0>
1000c274:	00042783          	lw	a5,0(s0)
1000c278:	00178713          	addi	a4,a5,1
1000c27c:	00e42023          	sw	a4,0(s0)
1000c280:	00b78023          	sb	a1,0(a5)
1000c284:	01c12083          	lw	ra,28(sp)
1000c288:	01812403          	lw	s0,24(sp)
1000c28c:	01012903          	lw	s2,16(sp)
1000c290:	00048513          	mv	a0,s1
1000c294:	01412483          	lw	s1,20(sp)
1000c298:	02010113          	addi	sp,sp,32
1000c29c:	00008067          	ret
1000c2a0:	00040613          	mv	a2,s0
1000c2a4:	00090513          	mv	a0,s2
1000c2a8:	0e8000ef          	jal	1000c390 <__swbuf_r>
1000c2ac:	fff00793          	li	a5,-1
1000c2b0:	fcf51ae3          	bne	a0,a5,1000c284 <__fputwc+0x94>
1000c2b4:	fff00513          	li	a0,-1
1000c2b8:	01c12083          	lw	ra,28(sp)
1000c2bc:	01812403          	lw	s0,24(sp)
1000c2c0:	01412483          	lw	s1,20(sp)
1000c2c4:	01012903          	lw	s2,16(sp)
1000c2c8:	02010113          	addi	sp,sp,32
1000c2cc:	00008067          	ret
1000c2d0:	00c45783          	lhu	a5,12(s0)
1000c2d4:	fff00513          	li	a0,-1
1000c2d8:	0407e793          	ori	a5,a5,64
1000c2dc:	00f41623          	sh	a5,12(s0)
1000c2e0:	fd9ff06f          	j	1000c2b8 <__fputwc+0xc8>

1000c2e4 <_fputwc_r>:
1000c2e4:	00c61783          	lh	a5,12(a2)
1000c2e8:	01279713          	slli	a4,a5,0x12
1000c2ec:	02074063          	bltz	a4,1000c30c <_fputwc_r+0x28>
1000c2f0:	06462703          	lw	a4,100(a2)
1000c2f4:	000026b7          	lui	a3,0x2
1000c2f8:	00d7e7b3          	or	a5,a5,a3
1000c2fc:	000026b7          	lui	a3,0x2
1000c300:	00d76733          	or	a4,a4,a3
1000c304:	00f61623          	sh	a5,12(a2)
1000c308:	06e62223          	sw	a4,100(a2)
1000c30c:	ee5ff06f          	j	1000c1f0 <__fputwc>

1000c310 <__errno>:
1000c310:	87c1a503          	lw	a0,-1924(gp) # 100120bc <_impure_ptr>
1000c314:	00008067          	ret

1000c318 <_wcrtomb_r>:
1000c318:	fe010113          	addi	sp,sp,-32
1000c31c:	00812c23          	sw	s0,24(sp)
1000c320:	00912a23          	sw	s1,20(sp)
1000c324:	100127b7          	lui	a5,0x10012
1000c328:	00112e23          	sw	ra,28(sp)
1000c32c:	fb07a783          	lw	a5,-80(a5) # 10011fb0 <__global_locale+0xe0>
1000c330:	00050413          	mv	s0,a0
1000c334:	00068493          	mv	s1,a3
1000c338:	02058263          	beqz	a1,1000c35c <_wcrtomb_r+0x44>
1000c33c:	000780e7          	jalr	a5
1000c340:	fff00793          	li	a5,-1
1000c344:	02f50663          	beq	a0,a5,1000c370 <_wcrtomb_r+0x58>
1000c348:	01c12083          	lw	ra,28(sp)
1000c34c:	01812403          	lw	s0,24(sp)
1000c350:	01412483          	lw	s1,20(sp)
1000c354:	02010113          	addi	sp,sp,32
1000c358:	00008067          	ret
1000c35c:	00000613          	li	a2,0
1000c360:	00410593          	addi	a1,sp,4
1000c364:	000780e7          	jalr	a5
1000c368:	fff00793          	li	a5,-1
1000c36c:	fcf51ee3          	bne	a0,a5,1000c348 <_wcrtomb_r+0x30>
1000c370:	0004a023          	sw	zero,0(s1)
1000c374:	08a00793          	li	a5,138
1000c378:	01c12083          	lw	ra,28(sp)
1000c37c:	00f42023          	sw	a5,0(s0)
1000c380:	01812403          	lw	s0,24(sp)
1000c384:	01412483          	lw	s1,20(sp)
1000c388:	02010113          	addi	sp,sp,32
1000c38c:	00008067          	ret

1000c390 <__swbuf_r>:
1000c390:	fe010113          	addi	sp,sp,-32
1000c394:	00812c23          	sw	s0,24(sp)
1000c398:	00912a23          	sw	s1,20(sp)
1000c39c:	01212823          	sw	s2,16(sp)
1000c3a0:	00112e23          	sw	ra,28(sp)
1000c3a4:	00050913          	mv	s2,a0
1000c3a8:	00058493          	mv	s1,a1
1000c3ac:	00060413          	mv	s0,a2
1000c3b0:	00050663          	beqz	a0,1000c3bc <__swbuf_r+0x2c>
1000c3b4:	03452783          	lw	a5,52(a0)
1000c3b8:	16078063          	beqz	a5,1000c518 <__swbuf_r+0x188>
1000c3bc:	01842783          	lw	a5,24(s0)
1000c3c0:	00c41703          	lh	a4,12(s0)
1000c3c4:	00f42423          	sw	a5,8(s0)
1000c3c8:	00877793          	andi	a5,a4,8
1000c3cc:	08078063          	beqz	a5,1000c44c <__swbuf_r+0xbc>
1000c3d0:	01042783          	lw	a5,16(s0)
1000c3d4:	06078c63          	beqz	a5,1000c44c <__swbuf_r+0xbc>
1000c3d8:	01312623          	sw	s3,12(sp)
1000c3dc:	01271693          	slli	a3,a4,0x12
1000c3e0:	0ff4f993          	zext.b	s3,s1
1000c3e4:	0ff4f493          	zext.b	s1,s1
1000c3e8:	0806d863          	bgez	a3,1000c478 <__swbuf_r+0xe8>
1000c3ec:	00042703          	lw	a4,0(s0)
1000c3f0:	01442683          	lw	a3,20(s0)
1000c3f4:	40f707b3          	sub	a5,a4,a5
1000c3f8:	0ad7d863          	bge	a5,a3,1000c4a8 <__swbuf_r+0x118>
1000c3fc:	00842683          	lw	a3,8(s0)
1000c400:	00170613          	addi	a2,a4,1
1000c404:	00c42023          	sw	a2,0(s0)
1000c408:	fff68693          	addi	a3,a3,-1 # 1fff <__heap_size+0xfff>
1000c40c:	00d42423          	sw	a3,8(s0)
1000c410:	01370023          	sb	s3,0(a4)
1000c414:	01442703          	lw	a4,20(s0)
1000c418:	00178793          	addi	a5,a5,1
1000c41c:	0cf70263          	beq	a4,a5,1000c4e0 <__swbuf_r+0x150>
1000c420:	00c45783          	lhu	a5,12(s0)
1000c424:	0017f793          	andi	a5,a5,1
1000c428:	0c079a63          	bnez	a5,1000c4fc <__swbuf_r+0x16c>
1000c42c:	00c12983          	lw	s3,12(sp)
1000c430:	01c12083          	lw	ra,28(sp)
1000c434:	01812403          	lw	s0,24(sp)
1000c438:	01012903          	lw	s2,16(sp)
1000c43c:	00048513          	mv	a0,s1
1000c440:	01412483          	lw	s1,20(sp)
1000c444:	02010113          	addi	sp,sp,32
1000c448:	00008067          	ret
1000c44c:	00040593          	mv	a1,s0
1000c450:	00090513          	mv	a0,s2
1000c454:	e44fa0ef          	jal	10006a98 <__swsetup_r>
1000c458:	08051e63          	bnez	a0,1000c4f4 <__swbuf_r+0x164>
1000c45c:	00c41703          	lh	a4,12(s0)
1000c460:	01312623          	sw	s3,12(sp)
1000c464:	01042783          	lw	a5,16(s0)
1000c468:	01271693          	slli	a3,a4,0x12
1000c46c:	0ff4f993          	zext.b	s3,s1
1000c470:	0ff4f493          	zext.b	s1,s1
1000c474:	f606cce3          	bltz	a3,1000c3ec <__swbuf_r+0x5c>
1000c478:	06442683          	lw	a3,100(s0)
1000c47c:	ffffe637          	lui	a2,0xffffe
1000c480:	000025b7          	lui	a1,0x2
1000c484:	00b76733          	or	a4,a4,a1
1000c488:	fff60613          	addi	a2,a2,-1 # ffffdfff <_sp+0xeffe0923>
1000c48c:	00c6f6b3          	and	a3,a3,a2
1000c490:	00e41623          	sh	a4,12(s0)
1000c494:	00042703          	lw	a4,0(s0)
1000c498:	06d42223          	sw	a3,100(s0)
1000c49c:	01442683          	lw	a3,20(s0)
1000c4a0:	40f707b3          	sub	a5,a4,a5
1000c4a4:	f4d7cce3          	blt	a5,a3,1000c3fc <__swbuf_r+0x6c>
1000c4a8:	00040593          	mv	a1,s0
1000c4ac:	00090513          	mv	a0,s2
1000c4b0:	87cfa0ef          	jal	1000652c <_fflush_r>
1000c4b4:	02051e63          	bnez	a0,1000c4f0 <__swbuf_r+0x160>
1000c4b8:	00042703          	lw	a4,0(s0)
1000c4bc:	00842683          	lw	a3,8(s0)
1000c4c0:	00100793          	li	a5,1
1000c4c4:	00170613          	addi	a2,a4,1
1000c4c8:	fff68693          	addi	a3,a3,-1
1000c4cc:	00c42023          	sw	a2,0(s0)
1000c4d0:	00d42423          	sw	a3,8(s0)
1000c4d4:	01370023          	sb	s3,0(a4)
1000c4d8:	01442703          	lw	a4,20(s0)
1000c4dc:	f4f712e3          	bne	a4,a5,1000c420 <__swbuf_r+0x90>
1000c4e0:	00040593          	mv	a1,s0
1000c4e4:	00090513          	mv	a0,s2
1000c4e8:	844fa0ef          	jal	1000652c <_fflush_r>
1000c4ec:	f40500e3          	beqz	a0,1000c42c <__swbuf_r+0x9c>
1000c4f0:	00c12983          	lw	s3,12(sp)
1000c4f4:	fff00493          	li	s1,-1
1000c4f8:	f39ff06f          	j	1000c430 <__swbuf_r+0xa0>
1000c4fc:	00a00793          	li	a5,10
1000c500:	f2f496e3          	bne	s1,a5,1000c42c <__swbuf_r+0x9c>
1000c504:	00040593          	mv	a1,s0
1000c508:	00090513          	mv	a0,s2
1000c50c:	820fa0ef          	jal	1000652c <_fflush_r>
1000c510:	f0050ee3          	beqz	a0,1000c42c <__swbuf_r+0x9c>
1000c514:	fddff06f          	j	1000c4f0 <__swbuf_r+0x160>
1000c518:	c25f50ef          	jal	1000213c <__sinit>
1000c51c:	ea1ff06f          	j	1000c3bc <__swbuf_r+0x2c>

1000c520 <__adddf3>:
1000c520:	00100837          	lui	a6,0x100
1000c524:	fff80813          	addi	a6,a6,-1 # fffff <__heap_size+0xfefff>
1000c528:	fe010113          	addi	sp,sp,-32
1000c52c:	00b878b3          	and	a7,a6,a1
1000c530:	0145d713          	srli	a4,a1,0x14
1000c534:	01d55793          	srli	a5,a0,0x1d
1000c538:	00d87833          	and	a6,a6,a3
1000c53c:	00912a23          	sw	s1,20(sp)
1000c540:	7ff77493          	andi	s1,a4,2047
1000c544:	00389713          	slli	a4,a7,0x3
1000c548:	0146d893          	srli	a7,a3,0x14
1000c54c:	00381813          	slli	a6,a6,0x3
1000c550:	01212823          	sw	s2,16(sp)
1000c554:	00e7e7b3          	or	a5,a5,a4
1000c558:	7ff8f893          	andi	a7,a7,2047
1000c55c:	01d65713          	srli	a4,a2,0x1d
1000c560:	00112e23          	sw	ra,28(sp)
1000c564:	00812c23          	sw	s0,24(sp)
1000c568:	01312623          	sw	s3,12(sp)
1000c56c:	01f5d913          	srli	s2,a1,0x1f
1000c570:	01f6d693          	srli	a3,a3,0x1f
1000c574:	01076733          	or	a4,a4,a6
1000c578:	00351513          	slli	a0,a0,0x3
1000c57c:	00361613          	slli	a2,a2,0x3
1000c580:	41148833          	sub	a6,s1,a7
1000c584:	2ad91a63          	bne	s2,a3,1000c838 <__adddf3+0x318>
1000c588:	11005c63          	blez	a6,1000c6a0 <__adddf3+0x180>
1000c58c:	04089063          	bnez	a7,1000c5cc <__adddf3+0xac>
1000c590:	00c766b3          	or	a3,a4,a2
1000c594:	66068063          	beqz	a3,1000cbf4 <__adddf3+0x6d4>
1000c598:	fff80593          	addi	a1,a6,-1
1000c59c:	02059063          	bnez	a1,1000c5bc <__adddf3+0x9c>
1000c5a0:	00c50633          	add	a2,a0,a2
1000c5a4:	00a636b3          	sltu	a3,a2,a0
1000c5a8:	00e78733          	add	a4,a5,a4
1000c5ac:	00060513          	mv	a0,a2
1000c5b0:	00d707b3          	add	a5,a4,a3
1000c5b4:	00100493          	li	s1,1
1000c5b8:	06c0006f          	j	1000c624 <__adddf3+0x104>
1000c5bc:	7ff00693          	li	a3,2047
1000c5c0:	02d81063          	bne	a6,a3,1000c5e0 <__adddf3+0xc0>
1000c5c4:	7ff00493          	li	s1,2047
1000c5c8:	1f80006f          	j	1000c7c0 <__adddf3+0x2a0>
1000c5cc:	7ff00693          	li	a3,2047
1000c5d0:	1ed48863          	beq	s1,a3,1000c7c0 <__adddf3+0x2a0>
1000c5d4:	008006b7          	lui	a3,0x800
1000c5d8:	00d76733          	or	a4,a4,a3
1000c5dc:	00080593          	mv	a1,a6
1000c5e0:	03800693          	li	a3,56
1000c5e4:	0ab6c863          	blt	a3,a1,1000c694 <__adddf3+0x174>
1000c5e8:	01f00693          	li	a3,31
1000c5ec:	06b6ca63          	blt	a3,a1,1000c660 <__adddf3+0x140>
1000c5f0:	02000813          	li	a6,32
1000c5f4:	40b80833          	sub	a6,a6,a1
1000c5f8:	010716b3          	sll	a3,a4,a6
1000c5fc:	00b658b3          	srl	a7,a2,a1
1000c600:	01061833          	sll	a6,a2,a6
1000c604:	0116e6b3          	or	a3,a3,a7
1000c608:	01003833          	snez	a6,a6
1000c60c:	0106e6b3          	or	a3,a3,a6
1000c610:	00b755b3          	srl	a1,a4,a1
1000c614:	00a68533          	add	a0,a3,a0
1000c618:	00f585b3          	add	a1,a1,a5
1000c61c:	00d536b3          	sltu	a3,a0,a3
1000c620:	00d587b3          	add	a5,a1,a3
1000c624:	00879713          	slli	a4,a5,0x8
1000c628:	18075c63          	bgez	a4,1000c7c0 <__adddf3+0x2a0>
1000c62c:	00148493          	addi	s1,s1,1
1000c630:	7ff00713          	li	a4,2047
1000c634:	5ae48a63          	beq	s1,a4,1000cbe8 <__adddf3+0x6c8>
1000c638:	ff800737          	lui	a4,0xff800
1000c63c:	fff70713          	addi	a4,a4,-1 # ff7fffff <_sp+0xef7e2923>
1000c640:	00e7f733          	and	a4,a5,a4
1000c644:	00155793          	srli	a5,a0,0x1
1000c648:	00157513          	andi	a0,a0,1
1000c64c:	00a7e7b3          	or	a5,a5,a0
1000c650:	01f71513          	slli	a0,a4,0x1f
1000c654:	00f56533          	or	a0,a0,a5
1000c658:	00175793          	srli	a5,a4,0x1
1000c65c:	1640006f          	j	1000c7c0 <__adddf3+0x2a0>
1000c660:	fe058693          	addi	a3,a1,-32 # 1fe0 <__heap_size+0xfe0>
1000c664:	02000893          	li	a7,32
1000c668:	00d756b3          	srl	a3,a4,a3
1000c66c:	00000813          	li	a6,0
1000c670:	01158863          	beq	a1,a7,1000c680 <__adddf3+0x160>
1000c674:	04000813          	li	a6,64
1000c678:	40b80833          	sub	a6,a6,a1
1000c67c:	01071833          	sll	a6,a4,a6
1000c680:	00c86833          	or	a6,a6,a2
1000c684:	01003833          	snez	a6,a6
1000c688:	0106e6b3          	or	a3,a3,a6
1000c68c:	00000593          	li	a1,0
1000c690:	f85ff06f          	j	1000c614 <__adddf3+0xf4>
1000c694:	00c766b3          	or	a3,a4,a2
1000c698:	00d036b3          	snez	a3,a3
1000c69c:	ff1ff06f          	j	1000c68c <__adddf3+0x16c>
1000c6a0:	0c080a63          	beqz	a6,1000c774 <__adddf3+0x254>
1000c6a4:	409886b3          	sub	a3,a7,s1
1000c6a8:	02049463          	bnez	s1,1000c6d0 <__adddf3+0x1b0>
1000c6ac:	00a7e5b3          	or	a1,a5,a0
1000c6b0:	50058e63          	beqz	a1,1000cbcc <__adddf3+0x6ac>
1000c6b4:	fff68593          	addi	a1,a3,-1 # 7fffff <__heap_size+0x7fefff>
1000c6b8:	ee0584e3          	beqz	a1,1000c5a0 <__adddf3+0x80>
1000c6bc:	7ff00813          	li	a6,2047
1000c6c0:	03069263          	bne	a3,a6,1000c6e4 <__adddf3+0x1c4>
1000c6c4:	00070793          	mv	a5,a4
1000c6c8:	00060513          	mv	a0,a2
1000c6cc:	ef9ff06f          	j	1000c5c4 <__adddf3+0xa4>
1000c6d0:	7ff00593          	li	a1,2047
1000c6d4:	feb888e3          	beq	a7,a1,1000c6c4 <__adddf3+0x1a4>
1000c6d8:	008005b7          	lui	a1,0x800
1000c6dc:	00b7e7b3          	or	a5,a5,a1
1000c6e0:	00068593          	mv	a1,a3
1000c6e4:	03800693          	li	a3,56
1000c6e8:	08b6c063          	blt	a3,a1,1000c768 <__adddf3+0x248>
1000c6ec:	01f00693          	li	a3,31
1000c6f0:	04b6c263          	blt	a3,a1,1000c734 <__adddf3+0x214>
1000c6f4:	02000813          	li	a6,32
1000c6f8:	40b80833          	sub	a6,a6,a1
1000c6fc:	010796b3          	sll	a3,a5,a6
1000c700:	00b55333          	srl	t1,a0,a1
1000c704:	01051833          	sll	a6,a0,a6
1000c708:	0066e6b3          	or	a3,a3,t1
1000c70c:	01003833          	snez	a6,a6
1000c710:	0106e6b3          	or	a3,a3,a6
1000c714:	00b7d5b3          	srl	a1,a5,a1
1000c718:	00c68633          	add	a2,a3,a2
1000c71c:	00e585b3          	add	a1,a1,a4
1000c720:	00d636b3          	sltu	a3,a2,a3
1000c724:	00060513          	mv	a0,a2
1000c728:	00d587b3          	add	a5,a1,a3
1000c72c:	00088493          	mv	s1,a7
1000c730:	ef5ff06f          	j	1000c624 <__adddf3+0x104>
1000c734:	fe058693          	addi	a3,a1,-32 # 7fffe0 <__heap_size+0x7fefe0>
1000c738:	02000313          	li	t1,32
1000c73c:	00d7d6b3          	srl	a3,a5,a3
1000c740:	00000813          	li	a6,0
1000c744:	00658863          	beq	a1,t1,1000c754 <__adddf3+0x234>
1000c748:	04000813          	li	a6,64
1000c74c:	40b80833          	sub	a6,a6,a1
1000c750:	01079833          	sll	a6,a5,a6
1000c754:	00a86833          	or	a6,a6,a0
1000c758:	01003833          	snez	a6,a6
1000c75c:	0106e6b3          	or	a3,a3,a6
1000c760:	00000593          	li	a1,0
1000c764:	fb5ff06f          	j	1000c718 <__adddf3+0x1f8>
1000c768:	00a7e6b3          	or	a3,a5,a0
1000c76c:	00d036b3          	snez	a3,a3
1000c770:	ff1ff06f          	j	1000c760 <__adddf3+0x240>
1000c774:	00148693          	addi	a3,s1,1
1000c778:	7fe6f593          	andi	a1,a3,2046
1000c77c:	08059663          	bnez	a1,1000c808 <__adddf3+0x2e8>
1000c780:	00a7e6b3          	or	a3,a5,a0
1000c784:	06049263          	bnez	s1,1000c7e8 <__adddf3+0x2c8>
1000c788:	44068863          	beqz	a3,1000cbd8 <__adddf3+0x6b8>
1000c78c:	00c766b3          	or	a3,a4,a2
1000c790:	02068863          	beqz	a3,1000c7c0 <__adddf3+0x2a0>
1000c794:	00c50633          	add	a2,a0,a2
1000c798:	00a636b3          	sltu	a3,a2,a0
1000c79c:	00e78733          	add	a4,a5,a4
1000c7a0:	00d707b3          	add	a5,a4,a3
1000c7a4:	00879713          	slli	a4,a5,0x8
1000c7a8:	00060513          	mv	a0,a2
1000c7ac:	00075a63          	bgez	a4,1000c7c0 <__adddf3+0x2a0>
1000c7b0:	ff800737          	lui	a4,0xff800
1000c7b4:	fff70713          	addi	a4,a4,-1 # ff7fffff <_sp+0xef7e2923>
1000c7b8:	00e7f7b3          	and	a5,a5,a4
1000c7bc:	00100493          	li	s1,1
1000c7c0:	00757713          	andi	a4,a0,7
1000c7c4:	44070863          	beqz	a4,1000cc14 <__adddf3+0x6f4>
1000c7c8:	00f57713          	andi	a4,a0,15
1000c7cc:	00400693          	li	a3,4
1000c7d0:	44d70263          	beq	a4,a3,1000cc14 <__adddf3+0x6f4>
1000c7d4:	00450713          	addi	a4,a0,4
1000c7d8:	00a736b3          	sltu	a3,a4,a0
1000c7dc:	00d787b3          	add	a5,a5,a3
1000c7e0:	00070513          	mv	a0,a4
1000c7e4:	4300006f          	j	1000cc14 <__adddf3+0x6f4>
1000c7e8:	ec068ee3          	beqz	a3,1000c6c4 <__adddf3+0x1a4>
1000c7ec:	00c76633          	or	a2,a4,a2
1000c7f0:	dc060ae3          	beqz	a2,1000c5c4 <__adddf3+0xa4>
1000c7f4:	00000913          	li	s2,0
1000c7f8:	004007b7          	lui	a5,0x400
1000c7fc:	00000513          	li	a0,0
1000c800:	7ff00493          	li	s1,2047
1000c804:	4100006f          	j	1000cc14 <__adddf3+0x6f4>
1000c808:	7ff00593          	li	a1,2047
1000c80c:	3cb68c63          	beq	a3,a1,1000cbe4 <__adddf3+0x6c4>
1000c810:	00c50633          	add	a2,a0,a2
1000c814:	00a63533          	sltu	a0,a2,a0
1000c818:	00e78733          	add	a4,a5,a4
1000c81c:	00a70733          	add	a4,a4,a0
1000c820:	01f71513          	slli	a0,a4,0x1f
1000c824:	00165613          	srli	a2,a2,0x1
1000c828:	00c56533          	or	a0,a0,a2
1000c82c:	00175793          	srli	a5,a4,0x1
1000c830:	00068493          	mv	s1,a3
1000c834:	f8dff06f          	j	1000c7c0 <__adddf3+0x2a0>
1000c838:	0f005c63          	blez	a6,1000c930 <__adddf3+0x410>
1000c83c:	08089e63          	bnez	a7,1000c8d8 <__adddf3+0x3b8>
1000c840:	00c766b3          	or	a3,a4,a2
1000c844:	3a068863          	beqz	a3,1000cbf4 <__adddf3+0x6d4>
1000c848:	fff80693          	addi	a3,a6,-1
1000c84c:	02069063          	bnez	a3,1000c86c <__adddf3+0x34c>
1000c850:	40c50633          	sub	a2,a0,a2
1000c854:	00c536b3          	sltu	a3,a0,a2
1000c858:	40e78733          	sub	a4,a5,a4
1000c85c:	00060513          	mv	a0,a2
1000c860:	40d707b3          	sub	a5,a4,a3
1000c864:	00100493          	li	s1,1
1000c868:	0540006f          	j	1000c8bc <__adddf3+0x39c>
1000c86c:	7ff00593          	li	a1,2047
1000c870:	d4b80ae3          	beq	a6,a1,1000c5c4 <__adddf3+0xa4>
1000c874:	03800593          	li	a1,56
1000c878:	0ad5c663          	blt	a1,a3,1000c924 <__adddf3+0x404>
1000c87c:	01f00593          	li	a1,31
1000c880:	06d5c863          	blt	a1,a3,1000c8f0 <__adddf3+0x3d0>
1000c884:	02000813          	li	a6,32
1000c888:	40d80833          	sub	a6,a6,a3
1000c88c:	00d658b3          	srl	a7,a2,a3
1000c890:	010715b3          	sll	a1,a4,a6
1000c894:	01061833          	sll	a6,a2,a6
1000c898:	0115e5b3          	or	a1,a1,a7
1000c89c:	01003833          	snez	a6,a6
1000c8a0:	0105e633          	or	a2,a1,a6
1000c8a4:	00d756b3          	srl	a3,a4,a3
1000c8a8:	40c50633          	sub	a2,a0,a2
1000c8ac:	00c53733          	sltu	a4,a0,a2
1000c8b0:	40d786b3          	sub	a3,a5,a3
1000c8b4:	00060513          	mv	a0,a2
1000c8b8:	40e687b3          	sub	a5,a3,a4
1000c8bc:	00879713          	slli	a4,a5,0x8
1000c8c0:	f00750e3          	bgez	a4,1000c7c0 <__adddf3+0x2a0>
1000c8c4:	00800437          	lui	s0,0x800
1000c8c8:	fff40413          	addi	s0,s0,-1 # 7fffff <__heap_size+0x7fefff>
1000c8cc:	0087f433          	and	s0,a5,s0
1000c8d0:	00050993          	mv	s3,a0
1000c8d4:	2100006f          	j	1000cae4 <__adddf3+0x5c4>
1000c8d8:	7ff00693          	li	a3,2047
1000c8dc:	eed482e3          	beq	s1,a3,1000c7c0 <__adddf3+0x2a0>
1000c8e0:	008006b7          	lui	a3,0x800
1000c8e4:	00d76733          	or	a4,a4,a3
1000c8e8:	00080693          	mv	a3,a6
1000c8ec:	f89ff06f          	j	1000c874 <__adddf3+0x354>
1000c8f0:	fe068593          	addi	a1,a3,-32 # 7fffe0 <__heap_size+0x7fefe0>
1000c8f4:	02000893          	li	a7,32
1000c8f8:	00b755b3          	srl	a1,a4,a1
1000c8fc:	00000813          	li	a6,0
1000c900:	01168863          	beq	a3,a7,1000c910 <__adddf3+0x3f0>
1000c904:	04000813          	li	a6,64
1000c908:	40d80833          	sub	a6,a6,a3
1000c90c:	01071833          	sll	a6,a4,a6
1000c910:	00c86833          	or	a6,a6,a2
1000c914:	01003833          	snez	a6,a6
1000c918:	0105e633          	or	a2,a1,a6
1000c91c:	00000693          	li	a3,0
1000c920:	f89ff06f          	j	1000c8a8 <__adddf3+0x388>
1000c924:	00c76633          	or	a2,a4,a2
1000c928:	00c03633          	snez	a2,a2
1000c92c:	ff1ff06f          	j	1000c91c <__adddf3+0x3fc>
1000c930:	0e080863          	beqz	a6,1000ca20 <__adddf3+0x500>
1000c934:	40988833          	sub	a6,a7,s1
1000c938:	04049263          	bnez	s1,1000c97c <__adddf3+0x45c>
1000c93c:	00a7e5b3          	or	a1,a5,a0
1000c940:	2a058e63          	beqz	a1,1000cbfc <__adddf3+0x6dc>
1000c944:	fff80593          	addi	a1,a6,-1
1000c948:	00059e63          	bnez	a1,1000c964 <__adddf3+0x444>
1000c94c:	40a60533          	sub	a0,a2,a0
1000c950:	40f70733          	sub	a4,a4,a5
1000c954:	00a63633          	sltu	a2,a2,a0
1000c958:	40c707b3          	sub	a5,a4,a2
1000c95c:	00068913          	mv	s2,a3
1000c960:	f05ff06f          	j	1000c864 <__adddf3+0x344>
1000c964:	7ff00313          	li	t1,2047
1000c968:	02681463          	bne	a6,t1,1000c990 <__adddf3+0x470>
1000c96c:	00070793          	mv	a5,a4
1000c970:	00060513          	mv	a0,a2
1000c974:	7ff00493          	li	s1,2047
1000c978:	0d00006f          	j	1000ca48 <__adddf3+0x528>
1000c97c:	7ff00593          	li	a1,2047
1000c980:	feb886e3          	beq	a7,a1,1000c96c <__adddf3+0x44c>
1000c984:	008005b7          	lui	a1,0x800
1000c988:	00b7e7b3          	or	a5,a5,a1
1000c98c:	00080593          	mv	a1,a6
1000c990:	03800813          	li	a6,56
1000c994:	08b84063          	blt	a6,a1,1000ca14 <__adddf3+0x4f4>
1000c998:	01f00813          	li	a6,31
1000c99c:	04b84263          	blt	a6,a1,1000c9e0 <__adddf3+0x4c0>
1000c9a0:	02000313          	li	t1,32
1000c9a4:	40b30333          	sub	t1,t1,a1
1000c9a8:	00b55e33          	srl	t3,a0,a1
1000c9ac:	00679833          	sll	a6,a5,t1
1000c9b0:	00651333          	sll	t1,a0,t1
1000c9b4:	01c86833          	or	a6,a6,t3
1000c9b8:	00603333          	snez	t1,t1
1000c9bc:	00686533          	or	a0,a6,t1
1000c9c0:	00b7d5b3          	srl	a1,a5,a1
1000c9c4:	40a60533          	sub	a0,a2,a0
1000c9c8:	40b705b3          	sub	a1,a4,a1
1000c9cc:	00a63633          	sltu	a2,a2,a0
1000c9d0:	40c587b3          	sub	a5,a1,a2
1000c9d4:	00088493          	mv	s1,a7
1000c9d8:	00068913          	mv	s2,a3
1000c9dc:	ee1ff06f          	j	1000c8bc <__adddf3+0x39c>
1000c9e0:	fe058813          	addi	a6,a1,-32 # 7fffe0 <__heap_size+0x7fefe0>
1000c9e4:	02000e13          	li	t3,32
1000c9e8:	0107d833          	srl	a6,a5,a6
1000c9ec:	00000313          	li	t1,0
1000c9f0:	01c58863          	beq	a1,t3,1000ca00 <__adddf3+0x4e0>
1000c9f4:	04000313          	li	t1,64
1000c9f8:	40b30333          	sub	t1,t1,a1
1000c9fc:	00679333          	sll	t1,a5,t1
1000ca00:	00a36333          	or	t1,t1,a0
1000ca04:	00603333          	snez	t1,t1
1000ca08:	00686533          	or	a0,a6,t1
1000ca0c:	00000593          	li	a1,0
1000ca10:	fb5ff06f          	j	1000c9c4 <__adddf3+0x4a4>
1000ca14:	00a7e533          	or	a0,a5,a0
1000ca18:	00a03533          	snez	a0,a0
1000ca1c:	ff1ff06f          	j	1000ca0c <__adddf3+0x4ec>
1000ca20:	00148593          	addi	a1,s1,1
1000ca24:	7fe5f593          	andi	a1,a1,2046
1000ca28:	08059663          	bnez	a1,1000cab4 <__adddf3+0x594>
1000ca2c:	00a7e833          	or	a6,a5,a0
1000ca30:	00c765b3          	or	a1,a4,a2
1000ca34:	06049063          	bnez	s1,1000ca94 <__adddf3+0x574>
1000ca38:	00081c63          	bnez	a6,1000ca50 <__adddf3+0x530>
1000ca3c:	10058e63          	beqz	a1,1000cb58 <__adddf3+0x638>
1000ca40:	00070793          	mv	a5,a4
1000ca44:	00060513          	mv	a0,a2
1000ca48:	00068913          	mv	s2,a3
1000ca4c:	d75ff06f          	j	1000c7c0 <__adddf3+0x2a0>
1000ca50:	d60588e3          	beqz	a1,1000c7c0 <__adddf3+0x2a0>
1000ca54:	40c50833          	sub	a6,a0,a2
1000ca58:	010538b3          	sltu	a7,a0,a6
1000ca5c:	40e785b3          	sub	a1,a5,a4
1000ca60:	411585b3          	sub	a1,a1,a7
1000ca64:	00859893          	slli	a7,a1,0x8
1000ca68:	0008dc63          	bgez	a7,1000ca80 <__adddf3+0x560>
1000ca6c:	40a60533          	sub	a0,a2,a0
1000ca70:	40f70733          	sub	a4,a4,a5
1000ca74:	00a63633          	sltu	a2,a2,a0
1000ca78:	40c707b3          	sub	a5,a4,a2
1000ca7c:	fcdff06f          	j	1000ca48 <__adddf3+0x528>
1000ca80:	00b86533          	or	a0,a6,a1
1000ca84:	18050463          	beqz	a0,1000cc0c <__adddf3+0x6ec>
1000ca88:	00058793          	mv	a5,a1
1000ca8c:	00080513          	mv	a0,a6
1000ca90:	d31ff06f          	j	1000c7c0 <__adddf3+0x2a0>
1000ca94:	00081c63          	bnez	a6,1000caac <__adddf3+0x58c>
1000ca98:	d4058ee3          	beqz	a1,1000c7f4 <__adddf3+0x2d4>
1000ca9c:	00070793          	mv	a5,a4
1000caa0:	00060513          	mv	a0,a2
1000caa4:	00068913          	mv	s2,a3
1000caa8:	b1dff06f          	j	1000c5c4 <__adddf3+0xa4>
1000caac:	b0058ce3          	beqz	a1,1000c5c4 <__adddf3+0xa4>
1000cab0:	d45ff06f          	j	1000c7f4 <__adddf3+0x2d4>
1000cab4:	40c505b3          	sub	a1,a0,a2
1000cab8:	00b53833          	sltu	a6,a0,a1
1000cabc:	40e78433          	sub	s0,a5,a4
1000cac0:	41040433          	sub	s0,s0,a6
1000cac4:	00841813          	slli	a6,s0,0x8
1000cac8:	00058993          	mv	s3,a1
1000cacc:	08085063          	bgez	a6,1000cb4c <__adddf3+0x62c>
1000cad0:	40a609b3          	sub	s3,a2,a0
1000cad4:	40f70433          	sub	s0,a4,a5
1000cad8:	01363633          	sltu	a2,a2,s3
1000cadc:	40c40433          	sub	s0,s0,a2
1000cae0:	00068913          	mv	s2,a3
1000cae4:	06040e63          	beqz	s0,1000cb60 <__adddf3+0x640>
1000cae8:	00040513          	mv	a0,s0
1000caec:	be0f50ef          	jal	10001ecc <__clzsi2>
1000caf0:	ff850693          	addi	a3,a0,-8
1000caf4:	02000793          	li	a5,32
1000caf8:	40d787b3          	sub	a5,a5,a3
1000cafc:	00d41433          	sll	s0,s0,a3
1000cb00:	00f9d7b3          	srl	a5,s3,a5
1000cb04:	0087e7b3          	or	a5,a5,s0
1000cb08:	00d99433          	sll	s0,s3,a3
1000cb0c:	0a96c463          	blt	a3,s1,1000cbb4 <__adddf3+0x694>
1000cb10:	409686b3          	sub	a3,a3,s1
1000cb14:	00168613          	addi	a2,a3,1
1000cb18:	01f00713          	li	a4,31
1000cb1c:	06c74263          	blt	a4,a2,1000cb80 <__adddf3+0x660>
1000cb20:	02000713          	li	a4,32
1000cb24:	40c70733          	sub	a4,a4,a2
1000cb28:	00e79533          	sll	a0,a5,a4
1000cb2c:	00c456b3          	srl	a3,s0,a2
1000cb30:	00e41733          	sll	a4,s0,a4
1000cb34:	00d56533          	or	a0,a0,a3
1000cb38:	00e03733          	snez	a4,a4
1000cb3c:	00e56533          	or	a0,a0,a4
1000cb40:	00c7d7b3          	srl	a5,a5,a2
1000cb44:	00000493          	li	s1,0
1000cb48:	c79ff06f          	j	1000c7c0 <__adddf3+0x2a0>
1000cb4c:	0085e5b3          	or	a1,a1,s0
1000cb50:	f8059ae3          	bnez	a1,1000cae4 <__adddf3+0x5c4>
1000cb54:	00000493          	li	s1,0
1000cb58:	00000913          	li	s2,0
1000cb5c:	08c0006f          	j	1000cbe8 <__adddf3+0x6c8>
1000cb60:	00098513          	mv	a0,s3
1000cb64:	b68f50ef          	jal	10001ecc <__clzsi2>
1000cb68:	01850693          	addi	a3,a0,24
1000cb6c:	01f00793          	li	a5,31
1000cb70:	f8d7d2e3          	bge	a5,a3,1000caf4 <__adddf3+0x5d4>
1000cb74:	ff850793          	addi	a5,a0,-8
1000cb78:	00f997b3          	sll	a5,s3,a5
1000cb7c:	f91ff06f          	j	1000cb0c <__adddf3+0x5ec>
1000cb80:	fe168693          	addi	a3,a3,-31
1000cb84:	00d7d533          	srl	a0,a5,a3
1000cb88:	02000693          	li	a3,32
1000cb8c:	00000713          	li	a4,0
1000cb90:	00d60863          	beq	a2,a3,1000cba0 <__adddf3+0x680>
1000cb94:	04000713          	li	a4,64
1000cb98:	40c70733          	sub	a4,a4,a2
1000cb9c:	00e79733          	sll	a4,a5,a4
1000cba0:	00e46733          	or	a4,s0,a4
1000cba4:	00e03733          	snez	a4,a4
1000cba8:	00e56533          	or	a0,a0,a4
1000cbac:	00000793          	li	a5,0
1000cbb0:	f95ff06f          	j	1000cb44 <__adddf3+0x624>
1000cbb4:	ff800737          	lui	a4,0xff800
1000cbb8:	fff70713          	addi	a4,a4,-1 # ff7fffff <_sp+0xef7e2923>
1000cbbc:	40d484b3          	sub	s1,s1,a3
1000cbc0:	00e7f7b3          	and	a5,a5,a4
1000cbc4:	00040513          	mv	a0,s0
1000cbc8:	bf9ff06f          	j	1000c7c0 <__adddf3+0x2a0>
1000cbcc:	00070793          	mv	a5,a4
1000cbd0:	00060513          	mv	a0,a2
1000cbd4:	c5dff06f          	j	1000c830 <__adddf3+0x310>
1000cbd8:	00070793          	mv	a5,a4
1000cbdc:	00060513          	mv	a0,a2
1000cbe0:	be1ff06f          	j	1000c7c0 <__adddf3+0x2a0>
1000cbe4:	7ff00493          	li	s1,2047
1000cbe8:	00000793          	li	a5,0
1000cbec:	00000513          	li	a0,0
1000cbf0:	0240006f          	j	1000cc14 <__adddf3+0x6f4>
1000cbf4:	00080493          	mv	s1,a6
1000cbf8:	bc9ff06f          	j	1000c7c0 <__adddf3+0x2a0>
1000cbfc:	00070793          	mv	a5,a4
1000cc00:	00060513          	mv	a0,a2
1000cc04:	00080493          	mv	s1,a6
1000cc08:	e41ff06f          	j	1000ca48 <__adddf3+0x528>
1000cc0c:	00000793          	li	a5,0
1000cc10:	00000913          	li	s2,0
1000cc14:	00879713          	slli	a4,a5,0x8
1000cc18:	00075e63          	bgez	a4,1000cc34 <__adddf3+0x714>
1000cc1c:	00148493          	addi	s1,s1,1
1000cc20:	7ff00713          	li	a4,2047
1000cc24:	08e48263          	beq	s1,a4,1000cca8 <__adddf3+0x788>
1000cc28:	ff800737          	lui	a4,0xff800
1000cc2c:	fff70713          	addi	a4,a4,-1 # ff7fffff <_sp+0xef7e2923>
1000cc30:	00e7f7b3          	and	a5,a5,a4
1000cc34:	01d79693          	slli	a3,a5,0x1d
1000cc38:	00355513          	srli	a0,a0,0x3
1000cc3c:	7ff00713          	li	a4,2047
1000cc40:	00a6e6b3          	or	a3,a3,a0
1000cc44:	0037d793          	srli	a5,a5,0x3
1000cc48:	00e49e63          	bne	s1,a4,1000cc64 <__adddf3+0x744>
1000cc4c:	00f6e6b3          	or	a3,a3,a5
1000cc50:	00000793          	li	a5,0
1000cc54:	00068863          	beqz	a3,1000cc64 <__adddf3+0x744>
1000cc58:	000807b7          	lui	a5,0x80
1000cc5c:	00000693          	li	a3,0
1000cc60:	00000913          	li	s2,0
1000cc64:	01449713          	slli	a4,s1,0x14
1000cc68:	7ff00637          	lui	a2,0x7ff00
1000cc6c:	00c79793          	slli	a5,a5,0xc
1000cc70:	00c77733          	and	a4,a4,a2
1000cc74:	01c12083          	lw	ra,28(sp)
1000cc78:	01812403          	lw	s0,24(sp)
1000cc7c:	00c7d793          	srli	a5,a5,0xc
1000cc80:	00f767b3          	or	a5,a4,a5
1000cc84:	01f91713          	slli	a4,s2,0x1f
1000cc88:	00e7e633          	or	a2,a5,a4
1000cc8c:	01412483          	lw	s1,20(sp)
1000cc90:	01012903          	lw	s2,16(sp)
1000cc94:	00c12983          	lw	s3,12(sp)
1000cc98:	00068513          	mv	a0,a3
1000cc9c:	00060593          	mv	a1,a2
1000cca0:	02010113          	addi	sp,sp,32
1000cca4:	00008067          	ret
1000cca8:	00000793          	li	a5,0
1000ccac:	00000513          	li	a0,0
1000ccb0:	f85ff06f          	j	1000cc34 <__adddf3+0x714>

1000ccb4 <__divdf3>:
1000ccb4:	fd010113          	addi	sp,sp,-48
1000ccb8:	0145d813          	srli	a6,a1,0x14
1000ccbc:	02912223          	sw	s1,36(sp)
1000ccc0:	03212023          	sw	s2,32(sp)
1000ccc4:	01312e23          	sw	s3,28(sp)
1000ccc8:	01612823          	sw	s6,16(sp)
1000cccc:	01712623          	sw	s7,12(sp)
1000ccd0:	00c59493          	slli	s1,a1,0xc
1000ccd4:	02112623          	sw	ra,44(sp)
1000ccd8:	02812423          	sw	s0,40(sp)
1000ccdc:	01412c23          	sw	s4,24(sp)
1000cce0:	01512a23          	sw	s5,20(sp)
1000cce4:	7ff87813          	andi	a6,a6,2047
1000cce8:	00050b13          	mv	s6,a0
1000ccec:	00060b93          	mv	s7,a2
1000ccf0:	00068913          	mv	s2,a3
1000ccf4:	00c4d493          	srli	s1,s1,0xc
1000ccf8:	01f5d993          	srli	s3,a1,0x1f
1000ccfc:	0a080063          	beqz	a6,1000cd9c <__divdf3+0xe8>
1000cd00:	7ff00793          	li	a5,2047
1000cd04:	10f80063          	beq	a6,a5,1000ce04 <__divdf3+0x150>
1000cd08:	01d55a13          	srli	s4,a0,0x1d
1000cd0c:	00349493          	slli	s1,s1,0x3
1000cd10:	009a6a33          	or	s4,s4,s1
1000cd14:	008007b7          	lui	a5,0x800
1000cd18:	00fa6a33          	or	s4,s4,a5
1000cd1c:	00351413          	slli	s0,a0,0x3
1000cd20:	c0180a93          	addi	s5,a6,-1023
1000cd24:	00000b13          	li	s6,0
1000cd28:	01495713          	srli	a4,s2,0x14
1000cd2c:	00c91493          	slli	s1,s2,0xc
1000cd30:	7ff77713          	andi	a4,a4,2047
1000cd34:	00c4d493          	srli	s1,s1,0xc
1000cd38:	01f95913          	srli	s2,s2,0x1f
1000cd3c:	10070263          	beqz	a4,1000ce40 <__divdf3+0x18c>
1000cd40:	7ff00793          	li	a5,2047
1000cd44:	16f70663          	beq	a4,a5,1000ceb0 <__divdf3+0x1fc>
1000cd48:	00349493          	slli	s1,s1,0x3
1000cd4c:	01dbd793          	srli	a5,s7,0x1d
1000cd50:	0097e7b3          	or	a5,a5,s1
1000cd54:	008004b7          	lui	s1,0x800
1000cd58:	0097e4b3          	or	s1,a5,s1
1000cd5c:	003b9f13          	slli	t5,s7,0x3
1000cd60:	c0170713          	addi	a4,a4,-1023
1000cd64:	00000793          	li	a5,0
1000cd68:	40ea8833          	sub	a6,s5,a4
1000cd6c:	002b1713          	slli	a4,s6,0x2
1000cd70:	00f76733          	or	a4,a4,a5
1000cd74:	fff70713          	addi	a4,a4,-1
1000cd78:	00e00693          	li	a3,14
1000cd7c:	0129c633          	xor	a2,s3,s2
1000cd80:	16e6e463          	bltu	a3,a4,1000cee8 <__divdf3+0x234>
1000cd84:	100126b7          	lui	a3,0x10012
1000cd88:	00271713          	slli	a4,a4,0x2
1000cd8c:	95868693          	addi	a3,a3,-1704 # 10011958 <blanks.1+0x10>
1000cd90:	00d70733          	add	a4,a4,a3
1000cd94:	00072703          	lw	a4,0(a4)
1000cd98:	00070067          	jr	a4
1000cd9c:	00a4ea33          	or	s4,s1,a0
1000cda0:	060a0e63          	beqz	s4,1000ce1c <__divdf3+0x168>
1000cda4:	02048e63          	beqz	s1,1000cde0 <__divdf3+0x12c>
1000cda8:	00048513          	mv	a0,s1
1000cdac:	920f50ef          	jal	10001ecc <__clzsi2>
1000cdb0:	ff550793          	addi	a5,a0,-11
1000cdb4:	01d00a13          	li	s4,29
1000cdb8:	ff850713          	addi	a4,a0,-8
1000cdbc:	40fa0a33          	sub	s4,s4,a5
1000cdc0:	00e494b3          	sll	s1,s1,a4
1000cdc4:	014b5a33          	srl	s4,s6,s4
1000cdc8:	009a6a33          	or	s4,s4,s1
1000cdcc:	00eb14b3          	sll	s1,s6,a4
1000cdd0:	c0d00813          	li	a6,-1011
1000cdd4:	40a80ab3          	sub	s5,a6,a0
1000cdd8:	00048413          	mv	s0,s1
1000cddc:	f49ff06f          	j	1000cd24 <__divdf3+0x70>
1000cde0:	8ecf50ef          	jal	10001ecc <__clzsi2>
1000cde4:	00050a13          	mv	s4,a0
1000cde8:	015a0793          	addi	a5,s4,21
1000cdec:	01c00713          	li	a4,28
1000cdf0:	02050513          	addi	a0,a0,32
1000cdf4:	fcf750e3          	bge	a4,a5,1000cdb4 <__divdf3+0x100>
1000cdf8:	ff8a0a13          	addi	s4,s4,-8
1000cdfc:	014b1a33          	sll	s4,s6,s4
1000ce00:	fd1ff06f          	j	1000cdd0 <__divdf3+0x11c>
1000ce04:	00a4ea33          	or	s4,s1,a0
1000ce08:	020a1263          	bnez	s4,1000ce2c <__divdf3+0x178>
1000ce0c:	00000413          	li	s0,0
1000ce10:	7ff00a93          	li	s5,2047
1000ce14:	00200b13          	li	s6,2
1000ce18:	f11ff06f          	j	1000cd28 <__divdf3+0x74>
1000ce1c:	00000413          	li	s0,0
1000ce20:	00000a93          	li	s5,0
1000ce24:	00100b13          	li	s6,1
1000ce28:	f01ff06f          	j	1000cd28 <__divdf3+0x74>
1000ce2c:	00050413          	mv	s0,a0
1000ce30:	00048a13          	mv	s4,s1
1000ce34:	7ff00a93          	li	s5,2047
1000ce38:	00300b13          	li	s6,3
1000ce3c:	eedff06f          	j	1000cd28 <__divdf3+0x74>
1000ce40:	0174ef33          	or	t5,s1,s7
1000ce44:	080f0263          	beqz	t5,1000cec8 <__divdf3+0x214>
1000ce48:	04048063          	beqz	s1,1000ce88 <__divdf3+0x1d4>
1000ce4c:	00048513          	mv	a0,s1
1000ce50:	87cf50ef          	jal	10001ecc <__clzsi2>
1000ce54:	ff550713          	addi	a4,a0,-11
1000ce58:	01d00793          	li	a5,29
1000ce5c:	ff850693          	addi	a3,a0,-8
1000ce60:	40e787b3          	sub	a5,a5,a4
1000ce64:	00d494b3          	sll	s1,s1,a3
1000ce68:	00fbd7b3          	srl	a5,s7,a5
1000ce6c:	0097e7b3          	or	a5,a5,s1
1000ce70:	00db94b3          	sll	s1,s7,a3
1000ce74:	c0d00713          	li	a4,-1011
1000ce78:	00048f13          	mv	t5,s1
1000ce7c:	40a70733          	sub	a4,a4,a0
1000ce80:	00078493          	mv	s1,a5
1000ce84:	ee1ff06f          	j	1000cd64 <__divdf3+0xb0>
1000ce88:	000b8513          	mv	a0,s7
1000ce8c:	840f50ef          	jal	10001ecc <__clzsi2>
1000ce90:	00050793          	mv	a5,a0
1000ce94:	01578713          	addi	a4,a5,21 # 800015 <__heap_size+0x7ff015>
1000ce98:	01c00693          	li	a3,28
1000ce9c:	02050513          	addi	a0,a0,32
1000cea0:	fae6dce3          	bge	a3,a4,1000ce58 <__divdf3+0x1a4>
1000cea4:	ff878793          	addi	a5,a5,-8
1000cea8:	00fb97b3          	sll	a5,s7,a5
1000ceac:	fc9ff06f          	j	1000ce74 <__divdf3+0x1c0>
1000ceb0:	0174ef33          	or	t5,s1,s7
1000ceb4:	020f1263          	bnez	t5,1000ced8 <__divdf3+0x224>
1000ceb8:	00000493          	li	s1,0
1000cebc:	7ff00713          	li	a4,2047
1000cec0:	00200793          	li	a5,2
1000cec4:	ea5ff06f          	j	1000cd68 <__divdf3+0xb4>
1000cec8:	00000493          	li	s1,0
1000cecc:	00000713          	li	a4,0
1000ced0:	00100793          	li	a5,1
1000ced4:	e95ff06f          	j	1000cd68 <__divdf3+0xb4>
1000ced8:	000b8f13          	mv	t5,s7
1000cedc:	7ff00713          	li	a4,2047
1000cee0:	00300793          	li	a5,3
1000cee4:	e85ff06f          	j	1000cd68 <__divdf3+0xb4>
1000cee8:	0144e663          	bltu	s1,s4,1000cef4 <__divdf3+0x240>
1000ceec:	349a1c63          	bne	s4,s1,1000d244 <__divdf3+0x590>
1000cef0:	35e46a63          	bltu	s0,t5,1000d244 <__divdf3+0x590>
1000cef4:	01fa1693          	slli	a3,s4,0x1f
1000cef8:	00145793          	srli	a5,s0,0x1
1000cefc:	01f41713          	slli	a4,s0,0x1f
1000cf00:	001a5a13          	srli	s4,s4,0x1
1000cf04:	00f6e433          	or	s0,a3,a5
1000cf08:	00849893          	slli	a7,s1,0x8
1000cf0c:	018f5593          	srli	a1,t5,0x18
1000cf10:	0115e5b3          	or	a1,a1,a7
1000cf14:	0108d893          	srli	a7,a7,0x10
1000cf18:	031a5eb3          	divu	t4,s4,a7
1000cf1c:	01059313          	slli	t1,a1,0x10
1000cf20:	01035313          	srli	t1,t1,0x10
1000cf24:	01045793          	srli	a5,s0,0x10
1000cf28:	008f1513          	slli	a0,t5,0x8
1000cf2c:	031a7a33          	remu	s4,s4,a7
1000cf30:	000e8693          	mv	a3,t4
1000cf34:	03d30e33          	mul	t3,t1,t4
1000cf38:	010a1a13          	slli	s4,s4,0x10
1000cf3c:	0147e7b3          	or	a5,a5,s4
1000cf40:	01c7fe63          	bgeu	a5,t3,1000cf5c <__divdf3+0x2a8>
1000cf44:	00f587b3          	add	a5,a1,a5
1000cf48:	fffe8693          	addi	a3,t4,-1
1000cf4c:	00b7e863          	bltu	a5,a1,1000cf5c <__divdf3+0x2a8>
1000cf50:	01c7f663          	bgeu	a5,t3,1000cf5c <__divdf3+0x2a8>
1000cf54:	ffee8693          	addi	a3,t4,-2
1000cf58:	00b787b3          	add	a5,a5,a1
1000cf5c:	41c787b3          	sub	a5,a5,t3
1000cf60:	0317df33          	divu	t5,a5,a7
1000cf64:	01041413          	slli	s0,s0,0x10
1000cf68:	01045413          	srli	s0,s0,0x10
1000cf6c:	0317f7b3          	remu	a5,a5,a7
1000cf70:	000f0e13          	mv	t3,t5
1000cf74:	03e30eb3          	mul	t4,t1,t5
1000cf78:	01079793          	slli	a5,a5,0x10
1000cf7c:	00f467b3          	or	a5,s0,a5
1000cf80:	01d7fe63          	bgeu	a5,t4,1000cf9c <__divdf3+0x2e8>
1000cf84:	00f587b3          	add	a5,a1,a5
1000cf88:	ffff0e13          	addi	t3,t5,-1
1000cf8c:	00b7e863          	bltu	a5,a1,1000cf9c <__divdf3+0x2e8>
1000cf90:	01d7f663          	bgeu	a5,t4,1000cf9c <__divdf3+0x2e8>
1000cf94:	ffef0e13          	addi	t3,t5,-2
1000cf98:	00b787b3          	add	a5,a5,a1
1000cf9c:	01069693          	slli	a3,a3,0x10
1000cfa0:	00010437          	lui	s0,0x10
1000cfa4:	01c6e2b3          	or	t0,a3,t3
1000cfa8:	fff40e13          	addi	t3,s0,-1 # ffff <__heap_size+0xefff>
1000cfac:	01c2f6b3          	and	a3,t0,t3
1000cfb0:	0102df93          	srli	t6,t0,0x10
1000cfb4:	01c57e33          	and	t3,a0,t3
1000cfb8:	41d787b3          	sub	a5,a5,t4
1000cfbc:	01055e93          	srli	t4,a0,0x10
1000cfc0:	02de03b3          	mul	t2,t3,a3
1000cfc4:	03cf84b3          	mul	s1,t6,t3
1000cfc8:	02de86b3          	mul	a3,t4,a3
1000cfcc:	00968f33          	add	t5,a3,s1
1000cfd0:	0103d693          	srli	a3,t2,0x10
1000cfd4:	01e686b3          	add	a3,a3,t5
1000cfd8:	03df8fb3          	mul	t6,t6,t4
1000cfdc:	0096f463          	bgeu	a3,s1,1000cfe4 <__divdf3+0x330>
1000cfe0:	008f8fb3          	add	t6,t6,s0
1000cfe4:	0106df13          	srli	t5,a3,0x10
1000cfe8:	01ff0f33          	add	t5,t5,t6
1000cfec:	00010fb7          	lui	t6,0x10
1000cff0:	ffff8f93          	addi	t6,t6,-1 # ffff <__heap_size+0xefff>
1000cff4:	01f6f6b3          	and	a3,a3,t6
1000cff8:	01069693          	slli	a3,a3,0x10
1000cffc:	01f3f3b3          	and	t2,t2,t6
1000d000:	007686b3          	add	a3,a3,t2
1000d004:	01e7e863          	bltu	a5,t5,1000d014 <__divdf3+0x360>
1000d008:	00028493          	mv	s1,t0
1000d00c:	05e79863          	bne	a5,t5,1000d05c <__divdf3+0x3a8>
1000d010:	04d77663          	bgeu	a4,a3,1000d05c <__divdf3+0x3a8>
1000d014:	00a70fb3          	add	t6,a4,a0
1000d018:	00efb3b3          	sltu	t2,t6,a4
1000d01c:	00b38433          	add	s0,t2,a1
1000d020:	008787b3          	add	a5,a5,s0
1000d024:	fff28493          	addi	s1,t0,-1
1000d028:	000f8713          	mv	a4,t6
1000d02c:	00f5e663          	bltu	a1,a5,1000d038 <__divdf3+0x384>
1000d030:	02f59663          	bne	a1,a5,1000d05c <__divdf3+0x3a8>
1000d034:	02039463          	bnez	t2,1000d05c <__divdf3+0x3a8>
1000d038:	01e7e663          	bltu	a5,t5,1000d044 <__divdf3+0x390>
1000d03c:	02ff1063          	bne	t5,a5,1000d05c <__divdf3+0x3a8>
1000d040:	00dffe63          	bgeu	t6,a3,1000d05c <__divdf3+0x3a8>
1000d044:	01f50fb3          	add	t6,a0,t6
1000d048:	000f8713          	mv	a4,t6
1000d04c:	00afbfb3          	sltu	t6,t6,a0
1000d050:	00bf8fb3          	add	t6,t6,a1
1000d054:	ffe28493          	addi	s1,t0,-2
1000d058:	01f787b3          	add	a5,a5,t6
1000d05c:	40d706b3          	sub	a3,a4,a3
1000d060:	41e787b3          	sub	a5,a5,t5
1000d064:	00d73733          	sltu	a4,a4,a3
1000d068:	40e787b3          	sub	a5,a5,a4
1000d06c:	fff00f13          	li	t5,-1
1000d070:	12f58663          	beq	a1,a5,1000d19c <__divdf3+0x4e8>
1000d074:	0317dfb3          	divu	t6,a5,a7
1000d078:	0106d713          	srli	a4,a3,0x10
1000d07c:	0317f7b3          	remu	a5,a5,a7
1000d080:	03f30f33          	mul	t5,t1,t6
1000d084:	01079793          	slli	a5,a5,0x10
1000d088:	00f767b3          	or	a5,a4,a5
1000d08c:	000f8713          	mv	a4,t6
1000d090:	01e7fe63          	bgeu	a5,t5,1000d0ac <__divdf3+0x3f8>
1000d094:	00f587b3          	add	a5,a1,a5
1000d098:	ffff8713          	addi	a4,t6,-1
1000d09c:	00b7e863          	bltu	a5,a1,1000d0ac <__divdf3+0x3f8>
1000d0a0:	01e7f663          	bgeu	a5,t5,1000d0ac <__divdf3+0x3f8>
1000d0a4:	ffef8713          	addi	a4,t6,-2
1000d0a8:	00b787b3          	add	a5,a5,a1
1000d0ac:	41e787b3          	sub	a5,a5,t5
1000d0b0:	0317df33          	divu	t5,a5,a7
1000d0b4:	01069693          	slli	a3,a3,0x10
1000d0b8:	0106d693          	srli	a3,a3,0x10
1000d0bc:	0317f7b3          	remu	a5,a5,a7
1000d0c0:	000f0893          	mv	a7,t5
1000d0c4:	03e30333          	mul	t1,t1,t5
1000d0c8:	01079793          	slli	a5,a5,0x10
1000d0cc:	00f6e7b3          	or	a5,a3,a5
1000d0d0:	0067fe63          	bgeu	a5,t1,1000d0ec <__divdf3+0x438>
1000d0d4:	00f587b3          	add	a5,a1,a5
1000d0d8:	ffff0893          	addi	a7,t5,-1
1000d0dc:	00b7e863          	bltu	a5,a1,1000d0ec <__divdf3+0x438>
1000d0e0:	0067f663          	bgeu	a5,t1,1000d0ec <__divdf3+0x438>
1000d0e4:	ffef0893          	addi	a7,t5,-2
1000d0e8:	00b787b3          	add	a5,a5,a1
1000d0ec:	01071693          	slli	a3,a4,0x10
1000d0f0:	0116e6b3          	or	a3,a3,a7
1000d0f4:	01069713          	slli	a4,a3,0x10
1000d0f8:	01075713          	srli	a4,a4,0x10
1000d0fc:	406787b3          	sub	a5,a5,t1
1000d100:	0106d313          	srli	t1,a3,0x10
1000d104:	03c70f33          	mul	t5,a4,t3
1000d108:	03c30e33          	mul	t3,t1,t3
1000d10c:	026e8333          	mul	t1,t4,t1
1000d110:	02ee8eb3          	mul	t4,t4,a4
1000d114:	010f5713          	srli	a4,t5,0x10
1000d118:	01ce8eb3          	add	t4,t4,t3
1000d11c:	01d70733          	add	a4,a4,t4
1000d120:	01c77663          	bgeu	a4,t3,1000d12c <__divdf3+0x478>
1000d124:	000108b7          	lui	a7,0x10
1000d128:	01130333          	add	t1,t1,a7
1000d12c:	01075893          	srli	a7,a4,0x10
1000d130:	006888b3          	add	a7,a7,t1
1000d134:	00010337          	lui	t1,0x10
1000d138:	fff30313          	addi	t1,t1,-1 # ffff <__heap_size+0xefff>
1000d13c:	00677733          	and	a4,a4,t1
1000d140:	01071713          	slli	a4,a4,0x10
1000d144:	006f7f33          	and	t5,t5,t1
1000d148:	01e70733          	add	a4,a4,t5
1000d14c:	0117e863          	bltu	a5,a7,1000d15c <__divdf3+0x4a8>
1000d150:	23179c63          	bne	a5,a7,1000d388 <__divdf3+0x6d4>
1000d154:	00068f13          	mv	t5,a3
1000d158:	04070263          	beqz	a4,1000d19c <__divdf3+0x4e8>
1000d15c:	00f587b3          	add	a5,a1,a5
1000d160:	fff68f13          	addi	t5,a3,-1
1000d164:	00078313          	mv	t1,a5
1000d168:	02b7e463          	bltu	a5,a1,1000d190 <__divdf3+0x4dc>
1000d16c:	0117e663          	bltu	a5,a7,1000d178 <__divdf3+0x4c4>
1000d170:	21179a63          	bne	a5,a7,1000d384 <__divdf3+0x6d0>
1000d174:	02e57063          	bgeu	a0,a4,1000d194 <__divdf3+0x4e0>
1000d178:	ffe68f13          	addi	t5,a3,-2
1000d17c:	00151693          	slli	a3,a0,0x1
1000d180:	00a6b333          	sltu	t1,a3,a0
1000d184:	00b30333          	add	t1,t1,a1
1000d188:	00678333          	add	t1,a5,t1
1000d18c:	00068513          	mv	a0,a3
1000d190:	01131463          	bne	t1,a7,1000d198 <__divdf3+0x4e4>
1000d194:	00a70463          	beq	a4,a0,1000d19c <__divdf3+0x4e8>
1000d198:	001f6f13          	ori	t5,t5,1
1000d19c:	3ff80713          	addi	a4,a6,1023
1000d1a0:	10e05263          	blez	a4,1000d2a4 <__divdf3+0x5f0>
1000d1a4:	007f7793          	andi	a5,t5,7
1000d1a8:	02078063          	beqz	a5,1000d1c8 <__divdf3+0x514>
1000d1ac:	00ff7793          	andi	a5,t5,15
1000d1b0:	00400693          	li	a3,4
1000d1b4:	00d78a63          	beq	a5,a3,1000d1c8 <__divdf3+0x514>
1000d1b8:	004f0793          	addi	a5,t5,4
1000d1bc:	01e7b6b3          	sltu	a3,a5,t5
1000d1c0:	00d484b3          	add	s1,s1,a3
1000d1c4:	00078f13          	mv	t5,a5
1000d1c8:	00749793          	slli	a5,s1,0x7
1000d1cc:	0007da63          	bgez	a5,1000d1e0 <__divdf3+0x52c>
1000d1d0:	ff0007b7          	lui	a5,0xff000
1000d1d4:	fff78793          	addi	a5,a5,-1 # feffffff <_sp+0xeefe2923>
1000d1d8:	00f4f4b3          	and	s1,s1,a5
1000d1dc:	40080713          	addi	a4,a6,1024
1000d1e0:	7fe00793          	li	a5,2046
1000d1e4:	08e7ca63          	blt	a5,a4,1000d278 <__divdf3+0x5c4>
1000d1e8:	003f5f13          	srli	t5,t5,0x3
1000d1ec:	01d49793          	slli	a5,s1,0x1d
1000d1f0:	01e7ef33          	or	t5,a5,t5
1000d1f4:	0034d513          	srli	a0,s1,0x3
1000d1f8:	00c51513          	slli	a0,a0,0xc
1000d1fc:	02c12083          	lw	ra,44(sp)
1000d200:	02812403          	lw	s0,40(sp)
1000d204:	00c55513          	srli	a0,a0,0xc
1000d208:	01471713          	slli	a4,a4,0x14
1000d20c:	00a76733          	or	a4,a4,a0
1000d210:	01f61613          	slli	a2,a2,0x1f
1000d214:	00c767b3          	or	a5,a4,a2
1000d218:	02412483          	lw	s1,36(sp)
1000d21c:	02012903          	lw	s2,32(sp)
1000d220:	01c12983          	lw	s3,28(sp)
1000d224:	01812a03          	lw	s4,24(sp)
1000d228:	01412a83          	lw	s5,20(sp)
1000d22c:	01012b03          	lw	s6,16(sp)
1000d230:	00c12b83          	lw	s7,12(sp)
1000d234:	000f0513          	mv	a0,t5
1000d238:	00078593          	mv	a1,a5
1000d23c:	03010113          	addi	sp,sp,48
1000d240:	00008067          	ret
1000d244:	fff80813          	addi	a6,a6,-1
1000d248:	00000713          	li	a4,0
1000d24c:	cbdff06f          	j	1000cf08 <__divdf3+0x254>
1000d250:	00098613          	mv	a2,s3
1000d254:	000a0493          	mv	s1,s4
1000d258:	00040f13          	mv	t5,s0
1000d25c:	000b0793          	mv	a5,s6
1000d260:	00300713          	li	a4,3
1000d264:	0ee78863          	beq	a5,a4,1000d354 <__divdf3+0x6a0>
1000d268:	00100713          	li	a4,1
1000d26c:	0ee78e63          	beq	a5,a4,1000d368 <__divdf3+0x6b4>
1000d270:	00200713          	li	a4,2
1000d274:	f2e794e3          	bne	a5,a4,1000d19c <__divdf3+0x4e8>
1000d278:	00000513          	li	a0,0
1000d27c:	00000f13          	li	t5,0
1000d280:	7ff00713          	li	a4,2047
1000d284:	f75ff06f          	j	1000d1f8 <__divdf3+0x544>
1000d288:	00090613          	mv	a2,s2
1000d28c:	fd5ff06f          	j	1000d260 <__divdf3+0x5ac>
1000d290:	000804b7          	lui	s1,0x80
1000d294:	00000f13          	li	t5,0
1000d298:	00000613          	li	a2,0
1000d29c:	00300793          	li	a5,3
1000d2a0:	fc1ff06f          	j	1000d260 <__divdf3+0x5ac>
1000d2a4:	00100513          	li	a0,1
1000d2a8:	40e50533          	sub	a0,a0,a4
1000d2ac:	03800793          	li	a5,56
1000d2b0:	0aa7cc63          	blt	a5,a0,1000d368 <__divdf3+0x6b4>
1000d2b4:	01f00793          	li	a5,31
1000d2b8:	06a7c463          	blt	a5,a0,1000d320 <__divdf3+0x66c>
1000d2bc:	41e80813          	addi	a6,a6,1054
1000d2c0:	010497b3          	sll	a5,s1,a6
1000d2c4:	00af5733          	srl	a4,t5,a0
1000d2c8:	010f1833          	sll	a6,t5,a6
1000d2cc:	00e7e7b3          	or	a5,a5,a4
1000d2d0:	01003833          	snez	a6,a6
1000d2d4:	0107e7b3          	or	a5,a5,a6
1000d2d8:	00a4d533          	srl	a0,s1,a0
1000d2dc:	0077f713          	andi	a4,a5,7
1000d2e0:	02070063          	beqz	a4,1000d300 <__divdf3+0x64c>
1000d2e4:	00f7f713          	andi	a4,a5,15
1000d2e8:	00400693          	li	a3,4
1000d2ec:	00d70a63          	beq	a4,a3,1000d300 <__divdf3+0x64c>
1000d2f0:	00478713          	addi	a4,a5,4
1000d2f4:	00f736b3          	sltu	a3,a4,a5
1000d2f8:	00d50533          	add	a0,a0,a3
1000d2fc:	00070793          	mv	a5,a4
1000d300:	00851713          	slli	a4,a0,0x8
1000d304:	06074863          	bltz	a4,1000d374 <__divdf3+0x6c0>
1000d308:	01d51f13          	slli	t5,a0,0x1d
1000d30c:	0037d793          	srli	a5,a5,0x3
1000d310:	00ff6f33          	or	t5,t5,a5
1000d314:	00355513          	srli	a0,a0,0x3
1000d318:	00000713          	li	a4,0
1000d31c:	eddff06f          	j	1000d1f8 <__divdf3+0x544>
1000d320:	fe100793          	li	a5,-31
1000d324:	40e787b3          	sub	a5,a5,a4
1000d328:	02000693          	li	a3,32
1000d32c:	00f4d7b3          	srl	a5,s1,a5
1000d330:	00000713          	li	a4,0
1000d334:	00d50663          	beq	a0,a3,1000d340 <__divdf3+0x68c>
1000d338:	43e80713          	addi	a4,a6,1086
1000d33c:	00e49733          	sll	a4,s1,a4
1000d340:	01e76733          	or	a4,a4,t5
1000d344:	00e03733          	snez	a4,a4
1000d348:	00e7e7b3          	or	a5,a5,a4
1000d34c:	00000513          	li	a0,0
1000d350:	f8dff06f          	j	1000d2dc <__divdf3+0x628>
1000d354:	00080537          	lui	a0,0x80
1000d358:	00000f13          	li	t5,0
1000d35c:	7ff00713          	li	a4,2047
1000d360:	00000613          	li	a2,0
1000d364:	e95ff06f          	j	1000d1f8 <__divdf3+0x544>
1000d368:	00000513          	li	a0,0
1000d36c:	00000f13          	li	t5,0
1000d370:	fa9ff06f          	j	1000d318 <__divdf3+0x664>
1000d374:	00000513          	li	a0,0
1000d378:	00000f13          	li	t5,0
1000d37c:	00100713          	li	a4,1
1000d380:	e79ff06f          	j	1000d1f8 <__divdf3+0x544>
1000d384:	000f0693          	mv	a3,t5
1000d388:	00068f13          	mv	t5,a3
1000d38c:	e0dff06f          	j	1000d198 <__divdf3+0x4e4>

1000d390 <__eqdf2>:
1000d390:	0145d713          	srli	a4,a1,0x14
1000d394:	001007b7          	lui	a5,0x100
1000d398:	fff78793          	addi	a5,a5,-1 # fffff <__heap_size+0xfefff>
1000d39c:	0146d813          	srli	a6,a3,0x14
1000d3a0:	00050313          	mv	t1,a0
1000d3a4:	00050e93          	mv	t4,a0
1000d3a8:	7ff77713          	andi	a4,a4,2047
1000d3ac:	7ff00513          	li	a0,2047
1000d3b0:	00b7f8b3          	and	a7,a5,a1
1000d3b4:	00060f13          	mv	t5,a2
1000d3b8:	00d7f7b3          	and	a5,a5,a3
1000d3bc:	01f5d593          	srli	a1,a1,0x1f
1000d3c0:	7ff87813          	andi	a6,a6,2047
1000d3c4:	01f6d693          	srli	a3,a3,0x1f
1000d3c8:	00a71c63          	bne	a4,a0,1000d3e0 <__eqdf2+0x50>
1000d3cc:	0068ee33          	or	t3,a7,t1
1000d3d0:	00100513          	li	a0,1
1000d3d4:	000e1463          	bnez	t3,1000d3dc <__eqdf2+0x4c>
1000d3d8:	00e80663          	beq	a6,a4,1000d3e4 <__eqdf2+0x54>
1000d3dc:	00008067          	ret
1000d3e0:	00a81863          	bne	a6,a0,1000d3f0 <__eqdf2+0x60>
1000d3e4:	00c7e633          	or	a2,a5,a2
1000d3e8:	00100513          	li	a0,1
1000d3ec:	fe0618e3          	bnez	a2,1000d3dc <__eqdf2+0x4c>
1000d3f0:	00100513          	li	a0,1
1000d3f4:	ff0714e3          	bne	a4,a6,1000d3dc <__eqdf2+0x4c>
1000d3f8:	fef892e3          	bne	a7,a5,1000d3dc <__eqdf2+0x4c>
1000d3fc:	ffee90e3          	bne	t4,t5,1000d3dc <__eqdf2+0x4c>
1000d400:	00d58a63          	beq	a1,a3,1000d414 <__eqdf2+0x84>
1000d404:	fc071ce3          	bnez	a4,1000d3dc <__eqdf2+0x4c>
1000d408:	0068e8b3          	or	a7,a7,t1
1000d40c:	01103533          	snez	a0,a7
1000d410:	00008067          	ret
1000d414:	00000513          	li	a0,0
1000d418:	00008067          	ret

1000d41c <__gedf2>:
1000d41c:	0146d793          	srli	a5,a3,0x14
1000d420:	0145d893          	srli	a7,a1,0x14
1000d424:	00100737          	lui	a4,0x100
1000d428:	fff70713          	addi	a4,a4,-1 # fffff <__heap_size+0xfefff>
1000d42c:	00050813          	mv	a6,a0
1000d430:	00050e13          	mv	t3,a0
1000d434:	7ff8f893          	andi	a7,a7,2047
1000d438:	7ff7f513          	andi	a0,a5,2047
1000d43c:	7ff00793          	li	a5,2047
1000d440:	00b77333          	and	t1,a4,a1
1000d444:	00060e93          	mv	t4,a2
1000d448:	00d77733          	and	a4,a4,a3
1000d44c:	01f5d593          	srli	a1,a1,0x1f
1000d450:	01f6d693          	srli	a3,a3,0x1f
1000d454:	00f89663          	bne	a7,a5,1000d460 <__gedf2+0x44>
1000d458:	010367b3          	or	a5,t1,a6
1000d45c:	06079c63          	bnez	a5,1000d4d4 <__gedf2+0xb8>
1000d460:	7ff00793          	li	a5,2047
1000d464:	00f51663          	bne	a0,a5,1000d470 <__gedf2+0x54>
1000d468:	00c767b3          	or	a5,a4,a2
1000d46c:	06079463          	bnez	a5,1000d4d4 <__gedf2+0xb8>
1000d470:	00000793          	li	a5,0
1000d474:	00089663          	bnez	a7,1000d480 <__gedf2+0x64>
1000d478:	01036833          	or	a6,t1,a6
1000d47c:	00183793          	seqz	a5,a6
1000d480:	04051e63          	bnez	a0,1000d4dc <__gedf2+0xc0>
1000d484:	00c76633          	or	a2,a4,a2
1000d488:	00078c63          	beqz	a5,1000d4a0 <__gedf2+0x84>
1000d48c:	02060063          	beqz	a2,1000d4ac <__gedf2+0x90>
1000d490:	00100513          	li	a0,1
1000d494:	00069c63          	bnez	a3,1000d4ac <__gedf2+0x90>
1000d498:	fff00513          	li	a0,-1
1000d49c:	00008067          	ret
1000d4a0:	04061063          	bnez	a2,1000d4e0 <__gedf2+0xc4>
1000d4a4:	fff00513          	li	a0,-1
1000d4a8:	04058463          	beqz	a1,1000d4f0 <__gedf2+0xd4>
1000d4ac:	00008067          	ret
1000d4b0:	fea8c0e3          	blt	a7,a0,1000d490 <__gedf2+0x74>
1000d4b4:	fe6768e3          	bltu	a4,t1,1000d4a4 <__gedf2+0x88>
1000d4b8:	00e31863          	bne	t1,a4,1000d4c8 <__gedf2+0xac>
1000d4bc:	ffcee4e3          	bltu	t4,t3,1000d4a4 <__gedf2+0x88>
1000d4c0:	00000513          	li	a0,0
1000d4c4:	ffde74e3          	bgeu	t3,t4,1000d4ac <__gedf2+0x90>
1000d4c8:	00100513          	li	a0,1
1000d4cc:	fe0590e3          	bnez	a1,1000d4ac <__gedf2+0x90>
1000d4d0:	fc9ff06f          	j	1000d498 <__gedf2+0x7c>
1000d4d4:	ffe00513          	li	a0,-2
1000d4d8:	00008067          	ret
1000d4dc:	fa079ae3          	bnez	a5,1000d490 <__gedf2+0x74>
1000d4e0:	fcb692e3          	bne	a3,a1,1000d4a4 <__gedf2+0x88>
1000d4e4:	fd1556e3          	bge	a0,a7,1000d4b0 <__gedf2+0x94>
1000d4e8:	fff00513          	li	a0,-1
1000d4ec:	fc0690e3          	bnez	a3,1000d4ac <__gedf2+0x90>
1000d4f0:	00100513          	li	a0,1
1000d4f4:	00008067          	ret

1000d4f8 <__ledf2>:
1000d4f8:	0146d793          	srli	a5,a3,0x14
1000d4fc:	0145d893          	srli	a7,a1,0x14
1000d500:	00100737          	lui	a4,0x100
1000d504:	fff70713          	addi	a4,a4,-1 # fffff <__heap_size+0xfefff>
1000d508:	00050813          	mv	a6,a0
1000d50c:	00050e13          	mv	t3,a0
1000d510:	7ff8f893          	andi	a7,a7,2047
1000d514:	7ff7f513          	andi	a0,a5,2047
1000d518:	7ff00793          	li	a5,2047
1000d51c:	00b77333          	and	t1,a4,a1
1000d520:	00060e93          	mv	t4,a2
1000d524:	00d77733          	and	a4,a4,a3
1000d528:	01f5d593          	srli	a1,a1,0x1f
1000d52c:	01f6d693          	srli	a3,a3,0x1f
1000d530:	00f89663          	bne	a7,a5,1000d53c <__ledf2+0x44>
1000d534:	010367b3          	or	a5,t1,a6
1000d538:	06079c63          	bnez	a5,1000d5b0 <__ledf2+0xb8>
1000d53c:	7ff00793          	li	a5,2047
1000d540:	00f51663          	bne	a0,a5,1000d54c <__ledf2+0x54>
1000d544:	00c767b3          	or	a5,a4,a2
1000d548:	06079463          	bnez	a5,1000d5b0 <__ledf2+0xb8>
1000d54c:	00000793          	li	a5,0
1000d550:	00089663          	bnez	a7,1000d55c <__ledf2+0x64>
1000d554:	01036833          	or	a6,t1,a6
1000d558:	00183793          	seqz	a5,a6
1000d55c:	04051e63          	bnez	a0,1000d5b8 <__ledf2+0xc0>
1000d560:	00c76633          	or	a2,a4,a2
1000d564:	00078c63          	beqz	a5,1000d57c <__ledf2+0x84>
1000d568:	02060063          	beqz	a2,1000d588 <__ledf2+0x90>
1000d56c:	00100513          	li	a0,1
1000d570:	00069c63          	bnez	a3,1000d588 <__ledf2+0x90>
1000d574:	fff00513          	li	a0,-1
1000d578:	00008067          	ret
1000d57c:	04061063          	bnez	a2,1000d5bc <__ledf2+0xc4>
1000d580:	fff00513          	li	a0,-1
1000d584:	04058463          	beqz	a1,1000d5cc <__ledf2+0xd4>
1000d588:	00008067          	ret
1000d58c:	fea8c0e3          	blt	a7,a0,1000d56c <__ledf2+0x74>
1000d590:	fe6768e3          	bltu	a4,t1,1000d580 <__ledf2+0x88>
1000d594:	00e31863          	bne	t1,a4,1000d5a4 <__ledf2+0xac>
1000d598:	ffcee4e3          	bltu	t4,t3,1000d580 <__ledf2+0x88>
1000d59c:	00000513          	li	a0,0
1000d5a0:	ffde74e3          	bgeu	t3,t4,1000d588 <__ledf2+0x90>
1000d5a4:	00100513          	li	a0,1
1000d5a8:	fe0590e3          	bnez	a1,1000d588 <__ledf2+0x90>
1000d5ac:	fc9ff06f          	j	1000d574 <__ledf2+0x7c>
1000d5b0:	00200513          	li	a0,2
1000d5b4:	00008067          	ret
1000d5b8:	fa079ae3          	bnez	a5,1000d56c <__ledf2+0x74>
1000d5bc:	fcb692e3          	bne	a3,a1,1000d580 <__ledf2+0x88>
1000d5c0:	fd1556e3          	bge	a0,a7,1000d58c <__ledf2+0x94>
1000d5c4:	fff00513          	li	a0,-1
1000d5c8:	fc0690e3          	bnez	a3,1000d588 <__ledf2+0x90>
1000d5cc:	00100513          	li	a0,1
1000d5d0:	00008067          	ret

1000d5d4 <__muldf3>:
1000d5d4:	fd010113          	addi	sp,sp,-48
1000d5d8:	01512a23          	sw	s5,20(sp)
1000d5dc:	0145da93          	srli	s5,a1,0x14
1000d5e0:	02812423          	sw	s0,40(sp)
1000d5e4:	02912223          	sw	s1,36(sp)
1000d5e8:	01312e23          	sw	s3,28(sp)
1000d5ec:	01412c23          	sw	s4,24(sp)
1000d5f0:	01612823          	sw	s6,16(sp)
1000d5f4:	00c59493          	slli	s1,a1,0xc
1000d5f8:	02112623          	sw	ra,44(sp)
1000d5fc:	03212023          	sw	s2,32(sp)
1000d600:	01712623          	sw	s7,12(sp)
1000d604:	7ffafa93          	andi	s5,s5,2047
1000d608:	00050413          	mv	s0,a0
1000d60c:	00060b13          	mv	s6,a2
1000d610:	00068993          	mv	s3,a3
1000d614:	00c4d493          	srli	s1,s1,0xc
1000d618:	01f5da13          	srli	s4,a1,0x1f
1000d61c:	240a8e63          	beqz	s5,1000d878 <__muldf3+0x2a4>
1000d620:	7ff00793          	li	a5,2047
1000d624:	2cfa8063          	beq	s5,a5,1000d8e4 <__muldf3+0x310>
1000d628:	00349493          	slli	s1,s1,0x3
1000d62c:	01d55793          	srli	a5,a0,0x1d
1000d630:	0097e7b3          	or	a5,a5,s1
1000d634:	008004b7          	lui	s1,0x800
1000d638:	0097e4b3          	or	s1,a5,s1
1000d63c:	00351913          	slli	s2,a0,0x3
1000d640:	c01a8a93          	addi	s5,s5,-1023
1000d644:	00000b93          	li	s7,0
1000d648:	0149d713          	srli	a4,s3,0x14
1000d64c:	00c99413          	slli	s0,s3,0xc
1000d650:	7ff77713          	andi	a4,a4,2047
1000d654:	00c45413          	srli	s0,s0,0xc
1000d658:	01f9d993          	srli	s3,s3,0x1f
1000d65c:	2c070063          	beqz	a4,1000d91c <__muldf3+0x348>
1000d660:	7ff00793          	li	a5,2047
1000d664:	32f70463          	beq	a4,a5,1000d98c <__muldf3+0x3b8>
1000d668:	00341413          	slli	s0,s0,0x3
1000d66c:	01db5793          	srli	a5,s6,0x1d
1000d670:	0087e7b3          	or	a5,a5,s0
1000d674:	00800437          	lui	s0,0x800
1000d678:	0087e433          	or	s0,a5,s0
1000d67c:	c0170693          	addi	a3,a4,-1023
1000d680:	003b1793          	slli	a5,s6,0x3
1000d684:	00000713          	li	a4,0
1000d688:	00da8ab3          	add	s5,s5,a3
1000d68c:	002b9693          	slli	a3,s7,0x2
1000d690:	00e6e6b3          	or	a3,a3,a4
1000d694:	00a00613          	li	a2,10
1000d698:	001a8513          	addi	a0,s5,1
1000d69c:	40d64663          	blt	a2,a3,1000daa8 <__muldf3+0x4d4>
1000d6a0:	00200613          	li	a2,2
1000d6a4:	013a45b3          	xor	a1,s4,s3
1000d6a8:	30d64e63          	blt	a2,a3,1000d9c4 <__muldf3+0x3f0>
1000d6ac:	fff68693          	addi	a3,a3,-1
1000d6b0:	00100613          	li	a2,1
1000d6b4:	32d67a63          	bgeu	a2,a3,1000d9e8 <__muldf3+0x414>
1000d6b8:	00010337          	lui	t1,0x10
1000d6bc:	fff30e13          	addi	t3,t1,-1 # ffff <__heap_size+0xefff>
1000d6c0:	01095713          	srli	a4,s2,0x10
1000d6c4:	0107d893          	srli	a7,a5,0x10
1000d6c8:	01c97933          	and	s2,s2,t3
1000d6cc:	01c7ff33          	and	t5,a5,t3
1000d6d0:	03e907b3          	mul	a5,s2,t5
1000d6d4:	03e70eb3          	mul	t4,a4,t5
1000d6d8:	0107d813          	srli	a6,a5,0x10
1000d6dc:	03288633          	mul	a2,a7,s2
1000d6e0:	01d60633          	add	a2,a2,t4
1000d6e4:	00c80833          	add	a6,a6,a2
1000d6e8:	031706b3          	mul	a3,a4,a7
1000d6ec:	01d87463          	bgeu	a6,t4,1000d6f4 <__muldf3+0x120>
1000d6f0:	006686b3          	add	a3,a3,t1
1000d6f4:	01085293          	srli	t0,a6,0x10
1000d6f8:	01c87833          	and	a6,a6,t3
1000d6fc:	01c7f7b3          	and	a5,a5,t3
1000d700:	01045613          	srli	a2,s0,0x10
1000d704:	01c47e33          	and	t3,s0,t3
1000d708:	01081813          	slli	a6,a6,0x10
1000d70c:	00f80833          	add	a6,a6,a5
1000d710:	03c90eb3          	mul	t4,s2,t3
1000d714:	03c707b3          	mul	a5,a4,t3
1000d718:	03260933          	mul	s2,a2,s2
1000d71c:	02c70333          	mul	t1,a4,a2
1000d720:	00f90933          	add	s2,s2,a5
1000d724:	010ed713          	srli	a4,t4,0x10
1000d728:	01270733          	add	a4,a4,s2
1000d72c:	00f77663          	bgeu	a4,a5,1000d738 <__muldf3+0x164>
1000d730:	000107b7          	lui	a5,0x10
1000d734:	00f30333          	add	t1,t1,a5
1000d738:	00010437          	lui	s0,0x10
1000d73c:	01075793          	srli	a5,a4,0x10
1000d740:	fff40f93          	addi	t6,s0,-1 # ffff <__heap_size+0xefff>
1000d744:	00678333          	add	t1,a5,t1
1000d748:	01f777b3          	and	a5,a4,t6
1000d74c:	01fefeb3          	and	t4,t4,t6
1000d750:	01079793          	slli	a5,a5,0x10
1000d754:	01f4ffb3          	and	t6,s1,t6
1000d758:	01d787b3          	add	a5,a5,t4
1000d75c:	0104de93          	srli	t4,s1,0x10
1000d760:	03ff03b3          	mul	t2,t5,t6
1000d764:	00f282b3          	add	t0,t0,a5
1000d768:	03ee8f33          	mul	t5,t4,t5
1000d76c:	0103d713          	srli	a4,t2,0x10
1000d770:	03d884b3          	mul	s1,a7,t4
1000d774:	03f888b3          	mul	a7,a7,t6
1000d778:	01e888b3          	add	a7,a7,t5
1000d77c:	01170733          	add	a4,a4,a7
1000d780:	01e77463          	bgeu	a4,t5,1000d788 <__muldf3+0x1b4>
1000d784:	008484b3          	add	s1,s1,s0
1000d788:	01075f13          	srli	t5,a4,0x10
1000d78c:	009f0f33          	add	t5,t5,s1
1000d790:	000104b7          	lui	s1,0x10
1000d794:	fff48413          	addi	s0,s1,-1 # ffff <__heap_size+0xefff>
1000d798:	00877733          	and	a4,a4,s0
1000d79c:	0083f3b3          	and	t2,t2,s0
1000d7a0:	01071713          	slli	a4,a4,0x10
1000d7a4:	007708b3          	add	a7,a4,t2
1000d7a8:	03fe03b3          	mul	t2,t3,t6
1000d7ac:	03ce8e33          	mul	t3,t4,t3
1000d7b0:	03d60eb3          	mul	t4,a2,t4
1000d7b4:	03f60633          	mul	a2,a2,t6
1000d7b8:	0103df93          	srli	t6,t2,0x10
1000d7bc:	01c60633          	add	a2,a2,t3
1000d7c0:	00cf8fb3          	add	t6,t6,a2
1000d7c4:	01cff463          	bgeu	t6,t3,1000d7cc <__muldf3+0x1f8>
1000d7c8:	009e8eb3          	add	t4,t4,s1
1000d7cc:	008ff733          	and	a4,t6,s0
1000d7d0:	0083f3b3          	and	t2,t2,s0
1000d7d4:	01071713          	slli	a4,a4,0x10
1000d7d8:	005686b3          	add	a3,a3,t0
1000d7dc:	00770733          	add	a4,a4,t2
1000d7e0:	00670333          	add	t1,a4,t1
1000d7e4:	00f6b7b3          	sltu	a5,a3,a5
1000d7e8:	00f307b3          	add	a5,t1,a5
1000d7ec:	00e33633          	sltu	a2,t1,a4
1000d7f0:	011688b3          	add	a7,a3,a7
1000d7f4:	0067b333          	sltu	t1,a5,t1
1000d7f8:	00666633          	or	a2,a2,t1
1000d7fc:	00d8b6b3          	sltu	a3,a7,a3
1000d800:	01e78333          	add	t1,a5,t5
1000d804:	00d306b3          	add	a3,t1,a3
1000d808:	00f33733          	sltu	a4,t1,a5
1000d80c:	010fdf93          	srli	t6,t6,0x10
1000d810:	0066b333          	sltu	t1,a3,t1
1000d814:	00989793          	slli	a5,a7,0x9
1000d818:	01f60633          	add	a2,a2,t6
1000d81c:	00676733          	or	a4,a4,t1
1000d820:	00c70733          	add	a4,a4,a2
1000d824:	0107e7b3          	or	a5,a5,a6
1000d828:	01d70733          	add	a4,a4,t4
1000d82c:	00f037b3          	snez	a5,a5
1000d830:	0178d893          	srli	a7,a7,0x17
1000d834:	00971713          	slli	a4,a4,0x9
1000d838:	0176d413          	srli	s0,a3,0x17
1000d83c:	0117e7b3          	or	a5,a5,a7
1000d840:	00969693          	slli	a3,a3,0x9
1000d844:	00d7e7b3          	or	a5,a5,a3
1000d848:	00771693          	slli	a3,a4,0x7
1000d84c:	00876433          	or	s0,a4,s0
1000d850:	0206d063          	bgez	a3,1000d870 <__muldf3+0x29c>
1000d854:	0017d713          	srli	a4,a5,0x1
1000d858:	0017f793          	andi	a5,a5,1
1000d85c:	00f76733          	or	a4,a4,a5
1000d860:	01f41793          	slli	a5,s0,0x1f
1000d864:	00f767b3          	or	a5,a4,a5
1000d868:	00145413          	srli	s0,s0,0x1
1000d86c:	00050a93          	mv	s5,a0
1000d870:	000a8513          	mv	a0,s5
1000d874:	18c0006f          	j	1000da00 <__muldf3+0x42c>
1000d878:	00a4e933          	or	s2,s1,a0
1000d87c:	08090063          	beqz	s2,1000d8fc <__muldf3+0x328>
1000d880:	04048063          	beqz	s1,1000d8c0 <__muldf3+0x2ec>
1000d884:	00048513          	mv	a0,s1
1000d888:	e44f40ef          	jal	10001ecc <__clzsi2>
1000d88c:	ff550713          	addi	a4,a0,-11 # 7fff5 <__heap_size+0x7eff5>
1000d890:	01d00793          	li	a5,29
1000d894:	ff850693          	addi	a3,a0,-8
1000d898:	40e787b3          	sub	a5,a5,a4
1000d89c:	00d494b3          	sll	s1,s1,a3
1000d8a0:	00f457b3          	srl	a5,s0,a5
1000d8a4:	0097e7b3          	or	a5,a5,s1
1000d8a8:	00d414b3          	sll	s1,s0,a3
1000d8ac:	c0d00a93          	li	s5,-1011
1000d8b0:	00048913          	mv	s2,s1
1000d8b4:	40aa8ab3          	sub	s5,s5,a0
1000d8b8:	00078493          	mv	s1,a5
1000d8bc:	d89ff06f          	j	1000d644 <__muldf3+0x70>
1000d8c0:	e0cf40ef          	jal	10001ecc <__clzsi2>
1000d8c4:	00050793          	mv	a5,a0
1000d8c8:	01578713          	addi	a4,a5,21 # 10015 <__heap_size+0xf015>
1000d8cc:	01c00693          	li	a3,28
1000d8d0:	02050513          	addi	a0,a0,32
1000d8d4:	fae6dee3          	bge	a3,a4,1000d890 <__muldf3+0x2bc>
1000d8d8:	ff878793          	addi	a5,a5,-8
1000d8dc:	00f417b3          	sll	a5,s0,a5
1000d8e0:	fcdff06f          	j	1000d8ac <__muldf3+0x2d8>
1000d8e4:	00a4e933          	or	s2,s1,a0
1000d8e8:	02091263          	bnez	s2,1000d90c <__muldf3+0x338>
1000d8ec:	00000493          	li	s1,0
1000d8f0:	7ff00a93          	li	s5,2047
1000d8f4:	00200b93          	li	s7,2
1000d8f8:	d51ff06f          	j	1000d648 <__muldf3+0x74>
1000d8fc:	00000493          	li	s1,0
1000d900:	00000a93          	li	s5,0
1000d904:	00100b93          	li	s7,1
1000d908:	d41ff06f          	j	1000d648 <__muldf3+0x74>
1000d90c:	00050913          	mv	s2,a0
1000d910:	7ff00a93          	li	s5,2047
1000d914:	00300b93          	li	s7,3
1000d918:	d31ff06f          	j	1000d648 <__muldf3+0x74>
1000d91c:	016467b3          	or	a5,s0,s6
1000d920:	08078263          	beqz	a5,1000d9a4 <__muldf3+0x3d0>
1000d924:	04040063          	beqz	s0,1000d964 <__muldf3+0x390>
1000d928:	00040513          	mv	a0,s0
1000d92c:	da0f40ef          	jal	10001ecc <__clzsi2>
1000d930:	ff550693          	addi	a3,a0,-11
1000d934:	01d00713          	li	a4,29
1000d938:	ff850793          	addi	a5,a0,-8
1000d93c:	40d70733          	sub	a4,a4,a3
1000d940:	00f41433          	sll	s0,s0,a5
1000d944:	00eb5733          	srl	a4,s6,a4
1000d948:	00876733          	or	a4,a4,s0
1000d94c:	00fb1433          	sll	s0,s6,a5
1000d950:	c0d00693          	li	a3,-1011
1000d954:	00040793          	mv	a5,s0
1000d958:	40a686b3          	sub	a3,a3,a0
1000d95c:	00070413          	mv	s0,a4
1000d960:	d25ff06f          	j	1000d684 <__muldf3+0xb0>
1000d964:	000b0513          	mv	a0,s6
1000d968:	d64f40ef          	jal	10001ecc <__clzsi2>
1000d96c:	00050793          	mv	a5,a0
1000d970:	01578693          	addi	a3,a5,21
1000d974:	01c00713          	li	a4,28
1000d978:	02050513          	addi	a0,a0,32
1000d97c:	fad75ce3          	bge	a4,a3,1000d934 <__muldf3+0x360>
1000d980:	ff878793          	addi	a5,a5,-8
1000d984:	00fb1733          	sll	a4,s6,a5
1000d988:	fc9ff06f          	j	1000d950 <__muldf3+0x37c>
1000d98c:	016467b3          	or	a5,s0,s6
1000d990:	02079263          	bnez	a5,1000d9b4 <__muldf3+0x3e0>
1000d994:	00000413          	li	s0,0
1000d998:	7ff00693          	li	a3,2047
1000d99c:	00200713          	li	a4,2
1000d9a0:	ce9ff06f          	j	1000d688 <__muldf3+0xb4>
1000d9a4:	00000413          	li	s0,0
1000d9a8:	00000693          	li	a3,0
1000d9ac:	00100713          	li	a4,1
1000d9b0:	cd9ff06f          	j	1000d688 <__muldf3+0xb4>
1000d9b4:	000b0793          	mv	a5,s6
1000d9b8:	7ff00693          	li	a3,2047
1000d9bc:	00300713          	li	a4,3
1000d9c0:	cc9ff06f          	j	1000d688 <__muldf3+0xb4>
1000d9c4:	00100613          	li	a2,1
1000d9c8:	00d61633          	sll	a2,a2,a3
1000d9cc:	53067693          	andi	a3,a2,1328
1000d9d0:	0e069663          	bnez	a3,1000dabc <__muldf3+0x4e8>
1000d9d4:	24067813          	andi	a6,a2,576
1000d9d8:	1a081a63          	bnez	a6,1000db8c <__muldf3+0x5b8>
1000d9dc:	08867613          	andi	a2,a2,136
1000d9e0:	cc060ce3          	beqz	a2,1000d6b8 <__muldf3+0xe4>
1000d9e4:	00098593          	mv	a1,s3
1000d9e8:	00200693          	li	a3,2
1000d9ec:	18d70863          	beq	a4,a3,1000db7c <__muldf3+0x5a8>
1000d9f0:	00300693          	li	a3,3
1000d9f4:	1ad70463          	beq	a4,a3,1000db9c <__muldf3+0x5c8>
1000d9f8:	00100693          	li	a3,1
1000d9fc:	1ad70663          	beq	a4,a3,1000dba8 <__muldf3+0x5d4>
1000da00:	3ff50613          	addi	a2,a0,1023
1000da04:	0cc05463          	blez	a2,1000dacc <__muldf3+0x4f8>
1000da08:	0077f713          	andi	a4,a5,7
1000da0c:	02070063          	beqz	a4,1000da2c <__muldf3+0x458>
1000da10:	00f7f713          	andi	a4,a5,15
1000da14:	00400693          	li	a3,4
1000da18:	00d70a63          	beq	a4,a3,1000da2c <__muldf3+0x458>
1000da1c:	00478713          	addi	a4,a5,4
1000da20:	00f736b3          	sltu	a3,a4,a5
1000da24:	00d40433          	add	s0,s0,a3
1000da28:	00070793          	mv	a5,a4
1000da2c:	00741713          	slli	a4,s0,0x7
1000da30:	00075a63          	bgez	a4,1000da44 <__muldf3+0x470>
1000da34:	ff000737          	lui	a4,0xff000
1000da38:	fff70713          	addi	a4,a4,-1 # feffffff <_sp+0xeefe2923>
1000da3c:	00e47433          	and	s0,s0,a4
1000da40:	40050613          	addi	a2,a0,1024
1000da44:	7fe00713          	li	a4,2046
1000da48:	12c74a63          	blt	a4,a2,1000db7c <__muldf3+0x5a8>
1000da4c:	0037d793          	srli	a5,a5,0x3
1000da50:	01d41693          	slli	a3,s0,0x1d
1000da54:	00f6e6b3          	or	a3,a3,a5
1000da58:	00345713          	srli	a4,s0,0x3
1000da5c:	00c71713          	slli	a4,a4,0xc
1000da60:	02c12083          	lw	ra,44(sp)
1000da64:	02812403          	lw	s0,40(sp)
1000da68:	01461613          	slli	a2,a2,0x14
1000da6c:	00c75713          	srli	a4,a4,0xc
1000da70:	01f59593          	slli	a1,a1,0x1f
1000da74:	00e66633          	or	a2,a2,a4
1000da78:	00b667b3          	or	a5,a2,a1
1000da7c:	02412483          	lw	s1,36(sp)
1000da80:	02012903          	lw	s2,32(sp)
1000da84:	01c12983          	lw	s3,28(sp)
1000da88:	01812a03          	lw	s4,24(sp)
1000da8c:	01412a83          	lw	s5,20(sp)
1000da90:	01012b03          	lw	s6,16(sp)
1000da94:	00c12b83          	lw	s7,12(sp)
1000da98:	00068513          	mv	a0,a3
1000da9c:	00078593          	mv	a1,a5
1000daa0:	03010113          	addi	sp,sp,48
1000daa4:	00008067          	ret
1000daa8:	00f00613          	li	a2,15
1000daac:	0ec68863          	beq	a3,a2,1000db9c <__muldf3+0x5c8>
1000dab0:	00b00613          	li	a2,11
1000dab4:	000a0593          	mv	a1,s4
1000dab8:	f2c686e3          	beq	a3,a2,1000d9e4 <__muldf3+0x410>
1000dabc:	00048413          	mv	s0,s1
1000dac0:	00090793          	mv	a5,s2
1000dac4:	000b8713          	mv	a4,s7
1000dac8:	f21ff06f          	j	1000d9e8 <__muldf3+0x414>
1000dacc:	00100713          	li	a4,1
1000dad0:	40c70733          	sub	a4,a4,a2
1000dad4:	03800693          	li	a3,56
1000dad8:	0ce6c863          	blt	a3,a4,1000dba8 <__muldf3+0x5d4>
1000dadc:	01f00693          	li	a3,31
1000dae0:	06e6c463          	blt	a3,a4,1000db48 <__muldf3+0x574>
1000dae4:	41e50513          	addi	a0,a0,1054
1000dae8:	00e7d633          	srl	a2,a5,a4
1000daec:	00a416b3          	sll	a3,s0,a0
1000daf0:	00a79533          	sll	a0,a5,a0
1000daf4:	00c6e6b3          	or	a3,a3,a2
1000daf8:	00a03533          	snez	a0,a0
1000dafc:	00a6e7b3          	or	a5,a3,a0
1000db00:	00e45733          	srl	a4,s0,a4
1000db04:	0077f693          	andi	a3,a5,7
1000db08:	02068063          	beqz	a3,1000db28 <__muldf3+0x554>
1000db0c:	00f7f693          	andi	a3,a5,15
1000db10:	00400613          	li	a2,4
1000db14:	00c68a63          	beq	a3,a2,1000db28 <__muldf3+0x554>
1000db18:	00478693          	addi	a3,a5,4
1000db1c:	00f6b633          	sltu	a2,a3,a5
1000db20:	00c70733          	add	a4,a4,a2
1000db24:	00068793          	mv	a5,a3
1000db28:	00871693          	slli	a3,a4,0x8
1000db2c:	0806c463          	bltz	a3,1000dbb4 <__muldf3+0x5e0>
1000db30:	01d71693          	slli	a3,a4,0x1d
1000db34:	0037d793          	srli	a5,a5,0x3
1000db38:	00f6e6b3          	or	a3,a3,a5
1000db3c:	00375713          	srli	a4,a4,0x3
1000db40:	00000613          	li	a2,0
1000db44:	f19ff06f          	j	1000da5c <__muldf3+0x488>
1000db48:	fe100693          	li	a3,-31
1000db4c:	40c686b3          	sub	a3,a3,a2
1000db50:	02000813          	li	a6,32
1000db54:	00d456b3          	srl	a3,s0,a3
1000db58:	00000613          	li	a2,0
1000db5c:	01070663          	beq	a4,a6,1000db68 <__muldf3+0x594>
1000db60:	43e50613          	addi	a2,a0,1086
1000db64:	00c41633          	sll	a2,s0,a2
1000db68:	00f66633          	or	a2,a2,a5
1000db6c:	00c03633          	snez	a2,a2
1000db70:	00c6e7b3          	or	a5,a3,a2
1000db74:	00000713          	li	a4,0
1000db78:	f8dff06f          	j	1000db04 <__muldf3+0x530>
1000db7c:	00000713          	li	a4,0
1000db80:	00000693          	li	a3,0
1000db84:	7ff00613          	li	a2,2047
1000db88:	ed5ff06f          	j	1000da5c <__muldf3+0x488>
1000db8c:	00080737          	lui	a4,0x80
1000db90:	7ff00613          	li	a2,2047
1000db94:	00000593          	li	a1,0
1000db98:	ec5ff06f          	j	1000da5c <__muldf3+0x488>
1000db9c:	00080737          	lui	a4,0x80
1000dba0:	00000693          	li	a3,0
1000dba4:	fedff06f          	j	1000db90 <__muldf3+0x5bc>
1000dba8:	00000713          	li	a4,0
1000dbac:	00000693          	li	a3,0
1000dbb0:	f91ff06f          	j	1000db40 <__muldf3+0x56c>
1000dbb4:	00000713          	li	a4,0
1000dbb8:	00000693          	li	a3,0
1000dbbc:	00100613          	li	a2,1
1000dbc0:	e9dff06f          	j	1000da5c <__muldf3+0x488>

1000dbc4 <__subdf3>:
1000dbc4:	00100837          	lui	a6,0x100
1000dbc8:	fff80813          	addi	a6,a6,-1 # fffff <__heap_size+0xfefff>
1000dbcc:	fe010113          	addi	sp,sp,-32
1000dbd0:	00b878b3          	and	a7,a6,a1
1000dbd4:	0145d713          	srli	a4,a1,0x14
1000dbd8:	01d55793          	srli	a5,a0,0x1d
1000dbdc:	00d87833          	and	a6,a6,a3
1000dbe0:	01212823          	sw	s2,16(sp)
1000dbe4:	7ff77913          	andi	s2,a4,2047
1000dbe8:	00389713          	slli	a4,a7,0x3
1000dbec:	0146d893          	srli	a7,a3,0x14
1000dbf0:	00912a23          	sw	s1,20(sp)
1000dbf4:	00e7e7b3          	or	a5,a5,a4
1000dbf8:	01f5d493          	srli	s1,a1,0x1f
1000dbfc:	01d65713          	srli	a4,a2,0x1d
1000dc00:	00381813          	slli	a6,a6,0x3
1000dc04:	00112e23          	sw	ra,28(sp)
1000dc08:	00812c23          	sw	s0,24(sp)
1000dc0c:	01312623          	sw	s3,12(sp)
1000dc10:	7ff8f893          	andi	a7,a7,2047
1000dc14:	7ff00593          	li	a1,2047
1000dc18:	00351513          	slli	a0,a0,0x3
1000dc1c:	01f6d693          	srli	a3,a3,0x1f
1000dc20:	01076733          	or	a4,a4,a6
1000dc24:	00361613          	slli	a2,a2,0x3
1000dc28:	00b89663          	bne	a7,a1,1000dc34 <__subdf3+0x70>
1000dc2c:	00c765b3          	or	a1,a4,a2
1000dc30:	00059463          	bnez	a1,1000dc38 <__subdf3+0x74>
1000dc34:	0016c693          	xori	a3,a3,1
1000dc38:	41190833          	sub	a6,s2,a7
1000dc3c:	2a969a63          	bne	a3,s1,1000def0 <__subdf3+0x32c>
1000dc40:	11005c63          	blez	a6,1000dd58 <__subdf3+0x194>
1000dc44:	04089063          	bnez	a7,1000dc84 <__subdf3+0xc0>
1000dc48:	00c766b3          	or	a3,a4,a2
1000dc4c:	66068063          	beqz	a3,1000e2ac <__subdf3+0x6e8>
1000dc50:	fff80593          	addi	a1,a6,-1
1000dc54:	02059063          	bnez	a1,1000dc74 <__subdf3+0xb0>
1000dc58:	00c50633          	add	a2,a0,a2
1000dc5c:	00a636b3          	sltu	a3,a2,a0
1000dc60:	00e78733          	add	a4,a5,a4
1000dc64:	00060513          	mv	a0,a2
1000dc68:	00d707b3          	add	a5,a4,a3
1000dc6c:	00100913          	li	s2,1
1000dc70:	06c0006f          	j	1000dcdc <__subdf3+0x118>
1000dc74:	7ff00693          	li	a3,2047
1000dc78:	02d81063          	bne	a6,a3,1000dc98 <__subdf3+0xd4>
1000dc7c:	7ff00913          	li	s2,2047
1000dc80:	1f80006f          	j	1000de78 <__subdf3+0x2b4>
1000dc84:	7ff00693          	li	a3,2047
1000dc88:	1ed90863          	beq	s2,a3,1000de78 <__subdf3+0x2b4>
1000dc8c:	008006b7          	lui	a3,0x800
1000dc90:	00d76733          	or	a4,a4,a3
1000dc94:	00080593          	mv	a1,a6
1000dc98:	03800693          	li	a3,56
1000dc9c:	0ab6c863          	blt	a3,a1,1000dd4c <__subdf3+0x188>
1000dca0:	01f00693          	li	a3,31
1000dca4:	06b6ca63          	blt	a3,a1,1000dd18 <__subdf3+0x154>
1000dca8:	02000813          	li	a6,32
1000dcac:	40b80833          	sub	a6,a6,a1
1000dcb0:	010716b3          	sll	a3,a4,a6
1000dcb4:	00b658b3          	srl	a7,a2,a1
1000dcb8:	01061833          	sll	a6,a2,a6
1000dcbc:	0116e6b3          	or	a3,a3,a7
1000dcc0:	01003833          	snez	a6,a6
1000dcc4:	0106e6b3          	or	a3,a3,a6
1000dcc8:	00b755b3          	srl	a1,a4,a1
1000dccc:	00a68533          	add	a0,a3,a0
1000dcd0:	00f585b3          	add	a1,a1,a5
1000dcd4:	00d536b3          	sltu	a3,a0,a3
1000dcd8:	00d587b3          	add	a5,a1,a3
1000dcdc:	00879713          	slli	a4,a5,0x8
1000dce0:	18075c63          	bgez	a4,1000de78 <__subdf3+0x2b4>
1000dce4:	00190913          	addi	s2,s2,1 # f001 <__heap_size+0xe001>
1000dce8:	7ff00713          	li	a4,2047
1000dcec:	5ae90a63          	beq	s2,a4,1000e2a0 <__subdf3+0x6dc>
1000dcf0:	ff800737          	lui	a4,0xff800
1000dcf4:	fff70713          	addi	a4,a4,-1 # ff7fffff <_sp+0xef7e2923>
1000dcf8:	00e7f733          	and	a4,a5,a4
1000dcfc:	00155793          	srli	a5,a0,0x1
1000dd00:	00157513          	andi	a0,a0,1
1000dd04:	00a7e7b3          	or	a5,a5,a0
1000dd08:	01f71513          	slli	a0,a4,0x1f
1000dd0c:	00f56533          	or	a0,a0,a5
1000dd10:	00175793          	srli	a5,a4,0x1
1000dd14:	1640006f          	j	1000de78 <__subdf3+0x2b4>
1000dd18:	fe058693          	addi	a3,a1,-32
1000dd1c:	02000893          	li	a7,32
1000dd20:	00d756b3          	srl	a3,a4,a3
1000dd24:	00000813          	li	a6,0
1000dd28:	01158863          	beq	a1,a7,1000dd38 <__subdf3+0x174>
1000dd2c:	04000813          	li	a6,64
1000dd30:	40b80833          	sub	a6,a6,a1
1000dd34:	01071833          	sll	a6,a4,a6
1000dd38:	00c86833          	or	a6,a6,a2
1000dd3c:	01003833          	snez	a6,a6
1000dd40:	0106e6b3          	or	a3,a3,a6
1000dd44:	00000593          	li	a1,0
1000dd48:	f85ff06f          	j	1000dccc <__subdf3+0x108>
1000dd4c:	00c766b3          	or	a3,a4,a2
1000dd50:	00d036b3          	snez	a3,a3
1000dd54:	ff1ff06f          	j	1000dd44 <__subdf3+0x180>
1000dd58:	0c080a63          	beqz	a6,1000de2c <__subdf3+0x268>
1000dd5c:	412886b3          	sub	a3,a7,s2
1000dd60:	02091463          	bnez	s2,1000dd88 <__subdf3+0x1c4>
1000dd64:	00a7e5b3          	or	a1,a5,a0
1000dd68:	50058e63          	beqz	a1,1000e284 <__subdf3+0x6c0>
1000dd6c:	fff68593          	addi	a1,a3,-1 # 7fffff <__heap_size+0x7fefff>
1000dd70:	ee0584e3          	beqz	a1,1000dc58 <__subdf3+0x94>
1000dd74:	7ff00813          	li	a6,2047
1000dd78:	03069263          	bne	a3,a6,1000dd9c <__subdf3+0x1d8>
1000dd7c:	00070793          	mv	a5,a4
1000dd80:	00060513          	mv	a0,a2
1000dd84:	ef9ff06f          	j	1000dc7c <__subdf3+0xb8>
1000dd88:	7ff00593          	li	a1,2047
1000dd8c:	feb888e3          	beq	a7,a1,1000dd7c <__subdf3+0x1b8>
1000dd90:	008005b7          	lui	a1,0x800
1000dd94:	00b7e7b3          	or	a5,a5,a1
1000dd98:	00068593          	mv	a1,a3
1000dd9c:	03800693          	li	a3,56
1000dda0:	08b6c063          	blt	a3,a1,1000de20 <__subdf3+0x25c>
1000dda4:	01f00693          	li	a3,31
1000dda8:	04b6c263          	blt	a3,a1,1000ddec <__subdf3+0x228>
1000ddac:	02000813          	li	a6,32
1000ddb0:	40b80833          	sub	a6,a6,a1
1000ddb4:	010796b3          	sll	a3,a5,a6
1000ddb8:	00b55333          	srl	t1,a0,a1
1000ddbc:	01051833          	sll	a6,a0,a6
1000ddc0:	0066e6b3          	or	a3,a3,t1
1000ddc4:	01003833          	snez	a6,a6
1000ddc8:	0106e6b3          	or	a3,a3,a6
1000ddcc:	00b7d5b3          	srl	a1,a5,a1
1000ddd0:	00c68633          	add	a2,a3,a2
1000ddd4:	00e585b3          	add	a1,a1,a4
1000ddd8:	00d636b3          	sltu	a3,a2,a3
1000dddc:	00060513          	mv	a0,a2
1000dde0:	00d587b3          	add	a5,a1,a3
1000dde4:	00088913          	mv	s2,a7
1000dde8:	ef5ff06f          	j	1000dcdc <__subdf3+0x118>
1000ddec:	fe058693          	addi	a3,a1,-32 # 7fffe0 <__heap_size+0x7fefe0>
1000ddf0:	02000313          	li	t1,32
1000ddf4:	00d7d6b3          	srl	a3,a5,a3
1000ddf8:	00000813          	li	a6,0
1000ddfc:	00658863          	beq	a1,t1,1000de0c <__subdf3+0x248>
1000de00:	04000813          	li	a6,64
1000de04:	40b80833          	sub	a6,a6,a1
1000de08:	01079833          	sll	a6,a5,a6
1000de0c:	00a86833          	or	a6,a6,a0
1000de10:	01003833          	snez	a6,a6
1000de14:	0106e6b3          	or	a3,a3,a6
1000de18:	00000593          	li	a1,0
1000de1c:	fb5ff06f          	j	1000ddd0 <__subdf3+0x20c>
1000de20:	00a7e6b3          	or	a3,a5,a0
1000de24:	00d036b3          	snez	a3,a3
1000de28:	ff1ff06f          	j	1000de18 <__subdf3+0x254>
1000de2c:	00190693          	addi	a3,s2,1
1000de30:	7fe6f593          	andi	a1,a3,2046
1000de34:	08059663          	bnez	a1,1000dec0 <__subdf3+0x2fc>
1000de38:	00a7e6b3          	or	a3,a5,a0
1000de3c:	06091263          	bnez	s2,1000dea0 <__subdf3+0x2dc>
1000de40:	44068863          	beqz	a3,1000e290 <__subdf3+0x6cc>
1000de44:	00c766b3          	or	a3,a4,a2
1000de48:	02068863          	beqz	a3,1000de78 <__subdf3+0x2b4>
1000de4c:	00c50633          	add	a2,a0,a2
1000de50:	00a636b3          	sltu	a3,a2,a0
1000de54:	00e78733          	add	a4,a5,a4
1000de58:	00d707b3          	add	a5,a4,a3
1000de5c:	00879713          	slli	a4,a5,0x8
1000de60:	00060513          	mv	a0,a2
1000de64:	00075a63          	bgez	a4,1000de78 <__subdf3+0x2b4>
1000de68:	ff800737          	lui	a4,0xff800
1000de6c:	fff70713          	addi	a4,a4,-1 # ff7fffff <_sp+0xef7e2923>
1000de70:	00e7f7b3          	and	a5,a5,a4
1000de74:	00100913          	li	s2,1
1000de78:	00757713          	andi	a4,a0,7
1000de7c:	44070863          	beqz	a4,1000e2cc <__subdf3+0x708>
1000de80:	00f57713          	andi	a4,a0,15
1000de84:	00400693          	li	a3,4
1000de88:	44d70263          	beq	a4,a3,1000e2cc <__subdf3+0x708>
1000de8c:	00450713          	addi	a4,a0,4
1000de90:	00a736b3          	sltu	a3,a4,a0
1000de94:	00d787b3          	add	a5,a5,a3
1000de98:	00070513          	mv	a0,a4
1000de9c:	4300006f          	j	1000e2cc <__subdf3+0x708>
1000dea0:	ec068ee3          	beqz	a3,1000dd7c <__subdf3+0x1b8>
1000dea4:	00c76633          	or	a2,a4,a2
1000dea8:	dc060ae3          	beqz	a2,1000dc7c <__subdf3+0xb8>
1000deac:	00000493          	li	s1,0
1000deb0:	004007b7          	lui	a5,0x400
1000deb4:	00000513          	li	a0,0
1000deb8:	7ff00913          	li	s2,2047
1000debc:	4100006f          	j	1000e2cc <__subdf3+0x708>
1000dec0:	7ff00593          	li	a1,2047
1000dec4:	3cb68c63          	beq	a3,a1,1000e29c <__subdf3+0x6d8>
1000dec8:	00c50633          	add	a2,a0,a2
1000decc:	00a63533          	sltu	a0,a2,a0
1000ded0:	00e78733          	add	a4,a5,a4
1000ded4:	00a70733          	add	a4,a4,a0
1000ded8:	01f71513          	slli	a0,a4,0x1f
1000dedc:	00165613          	srli	a2,a2,0x1
1000dee0:	00c56533          	or	a0,a0,a2
1000dee4:	00175793          	srli	a5,a4,0x1
1000dee8:	00068913          	mv	s2,a3
1000deec:	f8dff06f          	j	1000de78 <__subdf3+0x2b4>
1000def0:	0f005c63          	blez	a6,1000dfe8 <__subdf3+0x424>
1000def4:	08089e63          	bnez	a7,1000df90 <__subdf3+0x3cc>
1000def8:	00c766b3          	or	a3,a4,a2
1000defc:	3a068863          	beqz	a3,1000e2ac <__subdf3+0x6e8>
1000df00:	fff80693          	addi	a3,a6,-1
1000df04:	02069063          	bnez	a3,1000df24 <__subdf3+0x360>
1000df08:	40c50633          	sub	a2,a0,a2
1000df0c:	00c536b3          	sltu	a3,a0,a2
1000df10:	40e78733          	sub	a4,a5,a4
1000df14:	00060513          	mv	a0,a2
1000df18:	40d707b3          	sub	a5,a4,a3
1000df1c:	00100913          	li	s2,1
1000df20:	0540006f          	j	1000df74 <__subdf3+0x3b0>
1000df24:	7ff00593          	li	a1,2047
1000df28:	d4b80ae3          	beq	a6,a1,1000dc7c <__subdf3+0xb8>
1000df2c:	03800593          	li	a1,56
1000df30:	0ad5c663          	blt	a1,a3,1000dfdc <__subdf3+0x418>
1000df34:	01f00593          	li	a1,31
1000df38:	06d5c863          	blt	a1,a3,1000dfa8 <__subdf3+0x3e4>
1000df3c:	02000813          	li	a6,32
1000df40:	40d80833          	sub	a6,a6,a3
1000df44:	00d658b3          	srl	a7,a2,a3
1000df48:	010715b3          	sll	a1,a4,a6
1000df4c:	01061833          	sll	a6,a2,a6
1000df50:	0115e5b3          	or	a1,a1,a7
1000df54:	01003833          	snez	a6,a6
1000df58:	0105e633          	or	a2,a1,a6
1000df5c:	00d756b3          	srl	a3,a4,a3
1000df60:	40c50633          	sub	a2,a0,a2
1000df64:	00c53733          	sltu	a4,a0,a2
1000df68:	40d786b3          	sub	a3,a5,a3
1000df6c:	00060513          	mv	a0,a2
1000df70:	40e687b3          	sub	a5,a3,a4
1000df74:	00879713          	slli	a4,a5,0x8
1000df78:	f00750e3          	bgez	a4,1000de78 <__subdf3+0x2b4>
1000df7c:	00800437          	lui	s0,0x800
1000df80:	fff40413          	addi	s0,s0,-1 # 7fffff <__heap_size+0x7fefff>
1000df84:	0087f433          	and	s0,a5,s0
1000df88:	00050993          	mv	s3,a0
1000df8c:	2100006f          	j	1000e19c <__subdf3+0x5d8>
1000df90:	7ff00693          	li	a3,2047
1000df94:	eed902e3          	beq	s2,a3,1000de78 <__subdf3+0x2b4>
1000df98:	008006b7          	lui	a3,0x800
1000df9c:	00d76733          	or	a4,a4,a3
1000dfa0:	00080693          	mv	a3,a6
1000dfa4:	f89ff06f          	j	1000df2c <__subdf3+0x368>
1000dfa8:	fe068593          	addi	a1,a3,-32 # 7fffe0 <__heap_size+0x7fefe0>
1000dfac:	02000893          	li	a7,32
1000dfb0:	00b755b3          	srl	a1,a4,a1
1000dfb4:	00000813          	li	a6,0
1000dfb8:	01168863          	beq	a3,a7,1000dfc8 <__subdf3+0x404>
1000dfbc:	04000813          	li	a6,64
1000dfc0:	40d80833          	sub	a6,a6,a3
1000dfc4:	01071833          	sll	a6,a4,a6
1000dfc8:	00c86833          	or	a6,a6,a2
1000dfcc:	01003833          	snez	a6,a6
1000dfd0:	0105e633          	or	a2,a1,a6
1000dfd4:	00000693          	li	a3,0
1000dfd8:	f89ff06f          	j	1000df60 <__subdf3+0x39c>
1000dfdc:	00c76633          	or	a2,a4,a2
1000dfe0:	00c03633          	snez	a2,a2
1000dfe4:	ff1ff06f          	j	1000dfd4 <__subdf3+0x410>
1000dfe8:	0e080863          	beqz	a6,1000e0d8 <__subdf3+0x514>
1000dfec:	41288833          	sub	a6,a7,s2
1000dff0:	04091263          	bnez	s2,1000e034 <__subdf3+0x470>
1000dff4:	00a7e5b3          	or	a1,a5,a0
1000dff8:	2a058e63          	beqz	a1,1000e2b4 <__subdf3+0x6f0>
1000dffc:	fff80593          	addi	a1,a6,-1
1000e000:	00059e63          	bnez	a1,1000e01c <__subdf3+0x458>
1000e004:	40a60533          	sub	a0,a2,a0
1000e008:	40f70733          	sub	a4,a4,a5
1000e00c:	00a63633          	sltu	a2,a2,a0
1000e010:	40c707b3          	sub	a5,a4,a2
1000e014:	00068493          	mv	s1,a3
1000e018:	f05ff06f          	j	1000df1c <__subdf3+0x358>
1000e01c:	7ff00313          	li	t1,2047
1000e020:	02681463          	bne	a6,t1,1000e048 <__subdf3+0x484>
1000e024:	00070793          	mv	a5,a4
1000e028:	00060513          	mv	a0,a2
1000e02c:	7ff00913          	li	s2,2047
1000e030:	0d00006f          	j	1000e100 <__subdf3+0x53c>
1000e034:	7ff00593          	li	a1,2047
1000e038:	feb886e3          	beq	a7,a1,1000e024 <__subdf3+0x460>
1000e03c:	008005b7          	lui	a1,0x800
1000e040:	00b7e7b3          	or	a5,a5,a1
1000e044:	00080593          	mv	a1,a6
1000e048:	03800813          	li	a6,56
1000e04c:	08b84063          	blt	a6,a1,1000e0cc <__subdf3+0x508>
1000e050:	01f00813          	li	a6,31
1000e054:	04b84263          	blt	a6,a1,1000e098 <__subdf3+0x4d4>
1000e058:	02000313          	li	t1,32
1000e05c:	40b30333          	sub	t1,t1,a1
1000e060:	00b55e33          	srl	t3,a0,a1
1000e064:	00679833          	sll	a6,a5,t1
1000e068:	00651333          	sll	t1,a0,t1
1000e06c:	01c86833          	or	a6,a6,t3
1000e070:	00603333          	snez	t1,t1
1000e074:	00686533          	or	a0,a6,t1
1000e078:	00b7d5b3          	srl	a1,a5,a1
1000e07c:	40a60533          	sub	a0,a2,a0
1000e080:	40b705b3          	sub	a1,a4,a1
1000e084:	00a63633          	sltu	a2,a2,a0
1000e088:	40c587b3          	sub	a5,a1,a2
1000e08c:	00088913          	mv	s2,a7
1000e090:	00068493          	mv	s1,a3
1000e094:	ee1ff06f          	j	1000df74 <__subdf3+0x3b0>
1000e098:	fe058813          	addi	a6,a1,-32 # 7fffe0 <__heap_size+0x7fefe0>
1000e09c:	02000e13          	li	t3,32
1000e0a0:	0107d833          	srl	a6,a5,a6
1000e0a4:	00000313          	li	t1,0
1000e0a8:	01c58863          	beq	a1,t3,1000e0b8 <__subdf3+0x4f4>
1000e0ac:	04000313          	li	t1,64
1000e0b0:	40b30333          	sub	t1,t1,a1
1000e0b4:	00679333          	sll	t1,a5,t1
1000e0b8:	00a36333          	or	t1,t1,a0
1000e0bc:	00603333          	snez	t1,t1
1000e0c0:	00686533          	or	a0,a6,t1
1000e0c4:	00000593          	li	a1,0
1000e0c8:	fb5ff06f          	j	1000e07c <__subdf3+0x4b8>
1000e0cc:	00a7e533          	or	a0,a5,a0
1000e0d0:	00a03533          	snez	a0,a0
1000e0d4:	ff1ff06f          	j	1000e0c4 <__subdf3+0x500>
1000e0d8:	00190593          	addi	a1,s2,1
1000e0dc:	7fe5f593          	andi	a1,a1,2046
1000e0e0:	08059663          	bnez	a1,1000e16c <__subdf3+0x5a8>
1000e0e4:	00c765b3          	or	a1,a4,a2
1000e0e8:	00a7e833          	or	a6,a5,a0
1000e0ec:	06091063          	bnez	s2,1000e14c <__subdf3+0x588>
1000e0f0:	00081c63          	bnez	a6,1000e108 <__subdf3+0x544>
1000e0f4:	10058e63          	beqz	a1,1000e210 <__subdf3+0x64c>
1000e0f8:	00070793          	mv	a5,a4
1000e0fc:	00060513          	mv	a0,a2
1000e100:	00068493          	mv	s1,a3
1000e104:	d75ff06f          	j	1000de78 <__subdf3+0x2b4>
1000e108:	d60588e3          	beqz	a1,1000de78 <__subdf3+0x2b4>
1000e10c:	40c50833          	sub	a6,a0,a2
1000e110:	010538b3          	sltu	a7,a0,a6
1000e114:	40e785b3          	sub	a1,a5,a4
1000e118:	411585b3          	sub	a1,a1,a7
1000e11c:	00859893          	slli	a7,a1,0x8
1000e120:	0008dc63          	bgez	a7,1000e138 <__subdf3+0x574>
1000e124:	40a60533          	sub	a0,a2,a0
1000e128:	40f70733          	sub	a4,a4,a5
1000e12c:	00a63633          	sltu	a2,a2,a0
1000e130:	40c707b3          	sub	a5,a4,a2
1000e134:	fcdff06f          	j	1000e100 <__subdf3+0x53c>
1000e138:	00b86533          	or	a0,a6,a1
1000e13c:	18050463          	beqz	a0,1000e2c4 <__subdf3+0x700>
1000e140:	00058793          	mv	a5,a1
1000e144:	00080513          	mv	a0,a6
1000e148:	d31ff06f          	j	1000de78 <__subdf3+0x2b4>
1000e14c:	00081c63          	bnez	a6,1000e164 <__subdf3+0x5a0>
1000e150:	d4058ee3          	beqz	a1,1000deac <__subdf3+0x2e8>
1000e154:	00070793          	mv	a5,a4
1000e158:	00060513          	mv	a0,a2
1000e15c:	00068493          	mv	s1,a3
1000e160:	b1dff06f          	j	1000dc7c <__subdf3+0xb8>
1000e164:	b0058ce3          	beqz	a1,1000dc7c <__subdf3+0xb8>
1000e168:	d45ff06f          	j	1000deac <__subdf3+0x2e8>
1000e16c:	40c505b3          	sub	a1,a0,a2
1000e170:	00b53833          	sltu	a6,a0,a1
1000e174:	40e78433          	sub	s0,a5,a4
1000e178:	41040433          	sub	s0,s0,a6
1000e17c:	00841813          	slli	a6,s0,0x8
1000e180:	00058993          	mv	s3,a1
1000e184:	08085063          	bgez	a6,1000e204 <__subdf3+0x640>
1000e188:	40a609b3          	sub	s3,a2,a0
1000e18c:	40f70433          	sub	s0,a4,a5
1000e190:	01363633          	sltu	a2,a2,s3
1000e194:	40c40433          	sub	s0,s0,a2
1000e198:	00068493          	mv	s1,a3
1000e19c:	06040e63          	beqz	s0,1000e218 <__subdf3+0x654>
1000e1a0:	00040513          	mv	a0,s0
1000e1a4:	d29f30ef          	jal	10001ecc <__clzsi2>
1000e1a8:	ff850693          	addi	a3,a0,-8
1000e1ac:	02000793          	li	a5,32
1000e1b0:	40d787b3          	sub	a5,a5,a3
1000e1b4:	00d41433          	sll	s0,s0,a3
1000e1b8:	00f9d7b3          	srl	a5,s3,a5
1000e1bc:	0087e7b3          	or	a5,a5,s0
1000e1c0:	00d99433          	sll	s0,s3,a3
1000e1c4:	0b26c463          	blt	a3,s2,1000e26c <__subdf3+0x6a8>
1000e1c8:	412686b3          	sub	a3,a3,s2
1000e1cc:	00168613          	addi	a2,a3,1
1000e1d0:	01f00713          	li	a4,31
1000e1d4:	06c74263          	blt	a4,a2,1000e238 <__subdf3+0x674>
1000e1d8:	02000713          	li	a4,32
1000e1dc:	40c70733          	sub	a4,a4,a2
1000e1e0:	00e79533          	sll	a0,a5,a4
1000e1e4:	00c456b3          	srl	a3,s0,a2
1000e1e8:	00e41733          	sll	a4,s0,a4
1000e1ec:	00d56533          	or	a0,a0,a3
1000e1f0:	00e03733          	snez	a4,a4
1000e1f4:	00e56533          	or	a0,a0,a4
1000e1f8:	00c7d7b3          	srl	a5,a5,a2
1000e1fc:	00000913          	li	s2,0
1000e200:	c79ff06f          	j	1000de78 <__subdf3+0x2b4>
1000e204:	0085e5b3          	or	a1,a1,s0
1000e208:	f8059ae3          	bnez	a1,1000e19c <__subdf3+0x5d8>
1000e20c:	00000913          	li	s2,0
1000e210:	00000493          	li	s1,0
1000e214:	08c0006f          	j	1000e2a0 <__subdf3+0x6dc>
1000e218:	00098513          	mv	a0,s3
1000e21c:	cb1f30ef          	jal	10001ecc <__clzsi2>
1000e220:	01850693          	addi	a3,a0,24
1000e224:	01f00793          	li	a5,31
1000e228:	f8d7d2e3          	bge	a5,a3,1000e1ac <__subdf3+0x5e8>
1000e22c:	ff850793          	addi	a5,a0,-8
1000e230:	00f997b3          	sll	a5,s3,a5
1000e234:	f91ff06f          	j	1000e1c4 <__subdf3+0x600>
1000e238:	fe168693          	addi	a3,a3,-31
1000e23c:	00d7d533          	srl	a0,a5,a3
1000e240:	02000693          	li	a3,32
1000e244:	00000713          	li	a4,0
1000e248:	00d60863          	beq	a2,a3,1000e258 <__subdf3+0x694>
1000e24c:	04000713          	li	a4,64
1000e250:	40c70733          	sub	a4,a4,a2
1000e254:	00e79733          	sll	a4,a5,a4
1000e258:	00e46733          	or	a4,s0,a4
1000e25c:	00e03733          	snez	a4,a4
1000e260:	00e56533          	or	a0,a0,a4
1000e264:	00000793          	li	a5,0
1000e268:	f95ff06f          	j	1000e1fc <__subdf3+0x638>
1000e26c:	ff800737          	lui	a4,0xff800
1000e270:	fff70713          	addi	a4,a4,-1 # ff7fffff <_sp+0xef7e2923>
1000e274:	40d90933          	sub	s2,s2,a3
1000e278:	00e7f7b3          	and	a5,a5,a4
1000e27c:	00040513          	mv	a0,s0
1000e280:	bf9ff06f          	j	1000de78 <__subdf3+0x2b4>
1000e284:	00070793          	mv	a5,a4
1000e288:	00060513          	mv	a0,a2
1000e28c:	c5dff06f          	j	1000dee8 <__subdf3+0x324>
1000e290:	00070793          	mv	a5,a4
1000e294:	00060513          	mv	a0,a2
1000e298:	be1ff06f          	j	1000de78 <__subdf3+0x2b4>
1000e29c:	7ff00913          	li	s2,2047
1000e2a0:	00000793          	li	a5,0
1000e2a4:	00000513          	li	a0,0
1000e2a8:	0240006f          	j	1000e2cc <__subdf3+0x708>
1000e2ac:	00080913          	mv	s2,a6
1000e2b0:	bc9ff06f          	j	1000de78 <__subdf3+0x2b4>
1000e2b4:	00070793          	mv	a5,a4
1000e2b8:	00060513          	mv	a0,a2
1000e2bc:	00080913          	mv	s2,a6
1000e2c0:	e41ff06f          	j	1000e100 <__subdf3+0x53c>
1000e2c4:	00000793          	li	a5,0
1000e2c8:	00000493          	li	s1,0
1000e2cc:	00879713          	slli	a4,a5,0x8
1000e2d0:	00075e63          	bgez	a4,1000e2ec <__subdf3+0x728>
1000e2d4:	00190913          	addi	s2,s2,1
1000e2d8:	7ff00713          	li	a4,2047
1000e2dc:	08e90263          	beq	s2,a4,1000e360 <__subdf3+0x79c>
1000e2e0:	ff800737          	lui	a4,0xff800
1000e2e4:	fff70713          	addi	a4,a4,-1 # ff7fffff <_sp+0xef7e2923>
1000e2e8:	00e7f7b3          	and	a5,a5,a4
1000e2ec:	01d79693          	slli	a3,a5,0x1d
1000e2f0:	00355513          	srli	a0,a0,0x3
1000e2f4:	7ff00713          	li	a4,2047
1000e2f8:	00a6e6b3          	or	a3,a3,a0
1000e2fc:	0037d793          	srli	a5,a5,0x3
1000e300:	00e91e63          	bne	s2,a4,1000e31c <__subdf3+0x758>
1000e304:	00f6e6b3          	or	a3,a3,a5
1000e308:	00000793          	li	a5,0
1000e30c:	00068863          	beqz	a3,1000e31c <__subdf3+0x758>
1000e310:	000807b7          	lui	a5,0x80
1000e314:	00000693          	li	a3,0
1000e318:	00000493          	li	s1,0
1000e31c:	01491713          	slli	a4,s2,0x14
1000e320:	7ff00637          	lui	a2,0x7ff00
1000e324:	00c79793          	slli	a5,a5,0xc
1000e328:	00c77733          	and	a4,a4,a2
1000e32c:	01c12083          	lw	ra,28(sp)
1000e330:	01812403          	lw	s0,24(sp)
1000e334:	00c7d793          	srli	a5,a5,0xc
1000e338:	00f767b3          	or	a5,a4,a5
1000e33c:	01f49713          	slli	a4,s1,0x1f
1000e340:	00e7e633          	or	a2,a5,a4
1000e344:	01412483          	lw	s1,20(sp)
1000e348:	01012903          	lw	s2,16(sp)
1000e34c:	00c12983          	lw	s3,12(sp)
1000e350:	00068513          	mv	a0,a3
1000e354:	00060593          	mv	a1,a2
1000e358:	02010113          	addi	sp,sp,32
1000e35c:	00008067          	ret
1000e360:	00000793          	li	a5,0
1000e364:	00000513          	li	a0,0
1000e368:	f85ff06f          	j	1000e2ec <__subdf3+0x728>

1000e36c <__fixdfsi>:
1000e36c:	0145d713          	srli	a4,a1,0x14
1000e370:	001006b7          	lui	a3,0x100
1000e374:	fff68793          	addi	a5,a3,-1 # fffff <__heap_size+0xfefff>
1000e378:	7ff77713          	andi	a4,a4,2047
1000e37c:	3fe00613          	li	a2,1022
1000e380:	00b7f7b3          	and	a5,a5,a1
1000e384:	01f5d593          	srli	a1,a1,0x1f
1000e388:	04e65e63          	bge	a2,a4,1000e3e4 <__fixdfsi+0x78>
1000e38c:	41d00613          	li	a2,1053
1000e390:	00e65a63          	bge	a2,a4,1000e3a4 <__fixdfsi+0x38>
1000e394:	80000537          	lui	a0,0x80000
1000e398:	fff50513          	addi	a0,a0,-1 # 7fffffff <_sp+0x6ffe2923>
1000e39c:	00a58533          	add	a0,a1,a0
1000e3a0:	00008067          	ret
1000e3a4:	00d7e7b3          	or	a5,a5,a3
1000e3a8:	43300693          	li	a3,1075
1000e3ac:	40e686b3          	sub	a3,a3,a4
1000e3b0:	01f00613          	li	a2,31
1000e3b4:	02d64063          	blt	a2,a3,1000e3d4 <__fixdfsi+0x68>
1000e3b8:	bed70713          	addi	a4,a4,-1043
1000e3bc:	00e797b3          	sll	a5,a5,a4
1000e3c0:	00d55533          	srl	a0,a0,a3
1000e3c4:	00a7e533          	or	a0,a5,a0
1000e3c8:	02058063          	beqz	a1,1000e3e8 <__fixdfsi+0x7c>
1000e3cc:	40a00533          	neg	a0,a0
1000e3d0:	00008067          	ret
1000e3d4:	41300693          	li	a3,1043
1000e3d8:	40e68733          	sub	a4,a3,a4
1000e3dc:	00e7d533          	srl	a0,a5,a4
1000e3e0:	fe9ff06f          	j	1000e3c8 <__fixdfsi+0x5c>
1000e3e4:	00000513          	li	a0,0
1000e3e8:	00008067          	ret

1000e3ec <__floatsidf>:
1000e3ec:	ff010113          	addi	sp,sp,-16
1000e3f0:	00112623          	sw	ra,12(sp)
1000e3f4:	00812423          	sw	s0,8(sp)
1000e3f8:	00912223          	sw	s1,4(sp)
1000e3fc:	08050663          	beqz	a0,1000e488 <__floatsidf+0x9c>
1000e400:	41f55793          	srai	a5,a0,0x1f
1000e404:	00a7c433          	xor	s0,a5,a0
1000e408:	40f40433          	sub	s0,s0,a5
1000e40c:	01f55493          	srli	s1,a0,0x1f
1000e410:	00040513          	mv	a0,s0
1000e414:	ab9f30ef          	jal	10001ecc <__clzsi2>
1000e418:	41e00713          	li	a4,1054
1000e41c:	00a00793          	li	a5,10
1000e420:	40a70733          	sub	a4,a4,a0
1000e424:	04a7c863          	blt	a5,a0,1000e474 <__floatsidf+0x88>
1000e428:	00b00793          	li	a5,11
1000e42c:	40a787b3          	sub	a5,a5,a0
1000e430:	01550513          	addi	a0,a0,21
1000e434:	00f457b3          	srl	a5,s0,a5
1000e438:	00a41433          	sll	s0,s0,a0
1000e43c:	00048513          	mv	a0,s1
1000e440:	00c79793          	slli	a5,a5,0xc
1000e444:	00c7d793          	srli	a5,a5,0xc
1000e448:	01471713          	slli	a4,a4,0x14
1000e44c:	01f51513          	slli	a0,a0,0x1f
1000e450:	00f76733          	or	a4,a4,a5
1000e454:	00c12083          	lw	ra,12(sp)
1000e458:	00a767b3          	or	a5,a4,a0
1000e45c:	00040513          	mv	a0,s0
1000e460:	00812403          	lw	s0,8(sp)
1000e464:	00412483          	lw	s1,4(sp)
1000e468:	00078593          	mv	a1,a5
1000e46c:	01010113          	addi	sp,sp,16
1000e470:	00008067          	ret
1000e474:	ff550513          	addi	a0,a0,-11
1000e478:	00a417b3          	sll	a5,s0,a0
1000e47c:	00048513          	mv	a0,s1
1000e480:	00000413          	li	s0,0
1000e484:	fbdff06f          	j	1000e440 <__floatsidf+0x54>
1000e488:	00000713          	li	a4,0
1000e48c:	00000793          	li	a5,0
1000e490:	ff1ff06f          	j	1000e480 <__floatsidf+0x94>

1000e494 <__eqtf2>:
1000e494:	00c52783          	lw	a5,12(a0)
1000e498:	0005af03          	lw	t5,0(a1)
1000e49c:	0045af83          	lw	t6,4(a1)
1000e4a0:	0085a283          	lw	t0,8(a1)
1000e4a4:	00c5a583          	lw	a1,12(a1)
1000e4a8:	00008737          	lui	a4,0x8
1000e4ac:	0107d693          	srli	a3,a5,0x10
1000e4b0:	fff70713          	addi	a4,a4,-1 # 7fff <__heap_size+0x6fff>
1000e4b4:	01079813          	slli	a6,a5,0x10
1000e4b8:	01059e93          	slli	t4,a1,0x10
1000e4bc:	01f7d613          	srli	a2,a5,0x1f
1000e4c0:	00e6f6b3          	and	a3,a3,a4
1000e4c4:	0105d793          	srli	a5,a1,0x10
1000e4c8:	00052883          	lw	a7,0(a0)
1000e4cc:	00452303          	lw	t1,4(a0)
1000e4d0:	00852e03          	lw	t3,8(a0)
1000e4d4:	ff010113          	addi	sp,sp,-16
1000e4d8:	01085813          	srli	a6,a6,0x10
1000e4dc:	010ede93          	srli	t4,t4,0x10
1000e4e0:	00e7f7b3          	and	a5,a5,a4
1000e4e4:	01f5d593          	srli	a1,a1,0x1f
1000e4e8:	02e69063          	bne	a3,a4,1000e508 <__eqtf2+0x74>
1000e4ec:	0068e733          	or	a4,a7,t1
1000e4f0:	01c76733          	or	a4,a4,t3
1000e4f4:	01076733          	or	a4,a4,a6
1000e4f8:	00100513          	li	a0,1
1000e4fc:	04071a63          	bnez	a4,1000e550 <__eqtf2+0xbc>
1000e500:	04d79863          	bne	a5,a3,1000e550 <__eqtf2+0xbc>
1000e504:	0080006f          	j	1000e50c <__eqtf2+0x78>
1000e508:	00e79c63          	bne	a5,a4,1000e520 <__eqtf2+0x8c>
1000e50c:	01ff6733          	or	a4,t5,t6
1000e510:	00576733          	or	a4,a4,t0
1000e514:	01d76733          	or	a4,a4,t4
1000e518:	00100513          	li	a0,1
1000e51c:	02071a63          	bnez	a4,1000e550 <__eqtf2+0xbc>
1000e520:	00100513          	li	a0,1
1000e524:	02d79663          	bne	a5,a3,1000e550 <__eqtf2+0xbc>
1000e528:	03e89463          	bne	a7,t5,1000e550 <__eqtf2+0xbc>
1000e52c:	03f31263          	bne	t1,t6,1000e550 <__eqtf2+0xbc>
1000e530:	025e1063          	bne	t3,t0,1000e550 <__eqtf2+0xbc>
1000e534:	01d81e63          	bne	a6,t4,1000e550 <__eqtf2+0xbc>
1000e538:	02b60063          	beq	a2,a1,1000e558 <__eqtf2+0xc4>
1000e53c:	00079a63          	bnez	a5,1000e550 <__eqtf2+0xbc>
1000e540:	0068e533          	or	a0,a7,t1
1000e544:	01c56533          	or	a0,a0,t3
1000e548:	01056533          	or	a0,a0,a6
1000e54c:	00a03533          	snez	a0,a0
1000e550:	01010113          	addi	sp,sp,16
1000e554:	00008067          	ret
1000e558:	00000513          	li	a0,0
1000e55c:	ff5ff06f          	j	1000e550 <__eqtf2+0xbc>

1000e560 <__getf2>:
1000e560:	00c52783          	lw	a5,12(a0)
1000e564:	00c5a683          	lw	a3,12(a1)
1000e568:	00008737          	lui	a4,0x8
1000e56c:	0107d613          	srli	a2,a5,0x10
1000e570:	fff70713          	addi	a4,a4,-1 # 7fff <__heap_size+0x6fff>
1000e574:	01079813          	slli	a6,a5,0x10
1000e578:	01069293          	slli	t0,a3,0x10
1000e57c:	00052883          	lw	a7,0(a0)
1000e580:	00452303          	lw	t1,4(a0)
1000e584:	00852e03          	lw	t3,8(a0)
1000e588:	00e67633          	and	a2,a2,a4
1000e58c:	0106d513          	srli	a0,a3,0x10
1000e590:	0005ae83          	lw	t4,0(a1)
1000e594:	0045af03          	lw	t5,4(a1)
1000e598:	0085af83          	lw	t6,8(a1)
1000e59c:	ff010113          	addi	sp,sp,-16
1000e5a0:	01085813          	srli	a6,a6,0x10
1000e5a4:	01f7d793          	srli	a5,a5,0x1f
1000e5a8:	0102d293          	srli	t0,t0,0x10
1000e5ac:	00e57533          	and	a0,a0,a4
1000e5b0:	01f6d693          	srli	a3,a3,0x1f
1000e5b4:	00e61a63          	bne	a2,a4,1000e5c8 <__getf2+0x68>
1000e5b8:	01136733          	or	a4,t1,a7
1000e5bc:	01c76733          	or	a4,a4,t3
1000e5c0:	01076733          	or	a4,a4,a6
1000e5c4:	0a071463          	bnez	a4,1000e66c <__getf2+0x10c>
1000e5c8:	00008737          	lui	a4,0x8
1000e5cc:	fff70713          	addi	a4,a4,-1 # 7fff <__heap_size+0x6fff>
1000e5d0:	00e51a63          	bne	a0,a4,1000e5e4 <__getf2+0x84>
1000e5d4:	01eee733          	or	a4,t4,t5
1000e5d8:	01f76733          	or	a4,a4,t6
1000e5dc:	00576733          	or	a4,a4,t0
1000e5e0:	08071663          	bnez	a4,1000e66c <__getf2+0x10c>
1000e5e4:	00000713          	li	a4,0
1000e5e8:	00061a63          	bnez	a2,1000e5fc <__getf2+0x9c>
1000e5ec:	01136733          	or	a4,t1,a7
1000e5f0:	01c76733          	or	a4,a4,t3
1000e5f4:	01076733          	or	a4,a4,a6
1000e5f8:	00173713          	seqz	a4,a4
1000e5fc:	06051c63          	bnez	a0,1000e674 <__getf2+0x114>
1000e600:	01eee5b3          	or	a1,t4,t5
1000e604:	01f5e5b3          	or	a1,a1,t6
1000e608:	0055e5b3          	or	a1,a1,t0
1000e60c:	00070c63          	beqz	a4,1000e624 <__getf2+0xc4>
1000e610:	02058063          	beqz	a1,1000e630 <__getf2+0xd0>
1000e614:	00100513          	li	a0,1
1000e618:	00069c63          	bnez	a3,1000e630 <__getf2+0xd0>
1000e61c:	fff00513          	li	a0,-1
1000e620:	0100006f          	j	1000e630 <__getf2+0xd0>
1000e624:	04059a63          	bnez	a1,1000e678 <__getf2+0x118>
1000e628:	fff00513          	li	a0,-1
1000e62c:	04078e63          	beqz	a5,1000e688 <__getf2+0x128>
1000e630:	01010113          	addi	sp,sp,16
1000e634:	00008067          	ret
1000e638:	fca64ee3          	blt	a2,a0,1000e614 <__getf2+0xb4>
1000e63c:	ff02e6e3          	bltu	t0,a6,1000e628 <__getf2+0xc8>
1000e640:	02581063          	bne	a6,t0,1000e660 <__getf2+0x100>
1000e644:	ffcfe2e3          	bltu	t6,t3,1000e628 <__getf2+0xc8>
1000e648:	01fe1c63          	bne	t3,t6,1000e660 <__getf2+0x100>
1000e64c:	fc6f6ee3          	bltu	t5,t1,1000e628 <__getf2+0xc8>
1000e650:	01e31863          	bne	t1,t5,1000e660 <__getf2+0x100>
1000e654:	fd1eeae3          	bltu	t4,a7,1000e628 <__getf2+0xc8>
1000e658:	00000513          	li	a0,0
1000e65c:	fdd8fae3          	bgeu	a7,t4,1000e630 <__getf2+0xd0>
1000e660:	00100513          	li	a0,1
1000e664:	fc0796e3          	bnez	a5,1000e630 <__getf2+0xd0>
1000e668:	fb5ff06f          	j	1000e61c <__getf2+0xbc>
1000e66c:	ffe00513          	li	a0,-2
1000e670:	fc1ff06f          	j	1000e630 <__getf2+0xd0>
1000e674:	fa0710e3          	bnez	a4,1000e614 <__getf2+0xb4>
1000e678:	faf698e3          	bne	a3,a5,1000e628 <__getf2+0xc8>
1000e67c:	fac55ee3          	bge	a0,a2,1000e638 <__getf2+0xd8>
1000e680:	fff00513          	li	a0,-1
1000e684:	fa0696e3          	bnez	a3,1000e630 <__getf2+0xd0>
1000e688:	00100513          	li	a0,1
1000e68c:	fa5ff06f          	j	1000e630 <__getf2+0xd0>

1000e690 <__letf2>:
1000e690:	00c52783          	lw	a5,12(a0)
1000e694:	00c5a683          	lw	a3,12(a1)
1000e698:	00008737          	lui	a4,0x8
1000e69c:	0107d613          	srli	a2,a5,0x10
1000e6a0:	fff70713          	addi	a4,a4,-1 # 7fff <__heap_size+0x6fff>
1000e6a4:	01079813          	slli	a6,a5,0x10
1000e6a8:	01069293          	slli	t0,a3,0x10
1000e6ac:	00052883          	lw	a7,0(a0)
1000e6b0:	00452303          	lw	t1,4(a0)
1000e6b4:	00852e03          	lw	t3,8(a0)
1000e6b8:	00e67633          	and	a2,a2,a4
1000e6bc:	0106d513          	srli	a0,a3,0x10
1000e6c0:	0005ae83          	lw	t4,0(a1)
1000e6c4:	0045af03          	lw	t5,4(a1)
1000e6c8:	0085af83          	lw	t6,8(a1)
1000e6cc:	ff010113          	addi	sp,sp,-16
1000e6d0:	01085813          	srli	a6,a6,0x10
1000e6d4:	01f7d793          	srli	a5,a5,0x1f
1000e6d8:	0102d293          	srli	t0,t0,0x10
1000e6dc:	00e57533          	and	a0,a0,a4
1000e6e0:	01f6d693          	srli	a3,a3,0x1f
1000e6e4:	00e61a63          	bne	a2,a4,1000e6f8 <__letf2+0x68>
1000e6e8:	01136733          	or	a4,t1,a7
1000e6ec:	01c76733          	or	a4,a4,t3
1000e6f0:	01076733          	or	a4,a4,a6
1000e6f4:	0a071463          	bnez	a4,1000e79c <__letf2+0x10c>
1000e6f8:	00008737          	lui	a4,0x8
1000e6fc:	fff70713          	addi	a4,a4,-1 # 7fff <__heap_size+0x6fff>
1000e700:	00e51a63          	bne	a0,a4,1000e714 <__letf2+0x84>
1000e704:	01eee733          	or	a4,t4,t5
1000e708:	01f76733          	or	a4,a4,t6
1000e70c:	00576733          	or	a4,a4,t0
1000e710:	08071663          	bnez	a4,1000e79c <__letf2+0x10c>
1000e714:	00000713          	li	a4,0
1000e718:	00061a63          	bnez	a2,1000e72c <__letf2+0x9c>
1000e71c:	01136733          	or	a4,t1,a7
1000e720:	01c76733          	or	a4,a4,t3
1000e724:	01076733          	or	a4,a4,a6
1000e728:	00173713          	seqz	a4,a4
1000e72c:	06051c63          	bnez	a0,1000e7a4 <__letf2+0x114>
1000e730:	01eee5b3          	or	a1,t4,t5
1000e734:	01f5e5b3          	or	a1,a1,t6
1000e738:	0055e5b3          	or	a1,a1,t0
1000e73c:	00070c63          	beqz	a4,1000e754 <__letf2+0xc4>
1000e740:	02058063          	beqz	a1,1000e760 <__letf2+0xd0>
1000e744:	00100513          	li	a0,1
1000e748:	00069c63          	bnez	a3,1000e760 <__letf2+0xd0>
1000e74c:	fff00513          	li	a0,-1
1000e750:	0100006f          	j	1000e760 <__letf2+0xd0>
1000e754:	04059a63          	bnez	a1,1000e7a8 <__letf2+0x118>
1000e758:	fff00513          	li	a0,-1
1000e75c:	04078e63          	beqz	a5,1000e7b8 <__letf2+0x128>
1000e760:	01010113          	addi	sp,sp,16
1000e764:	00008067          	ret
1000e768:	fca64ee3          	blt	a2,a0,1000e744 <__letf2+0xb4>
1000e76c:	ff02e6e3          	bltu	t0,a6,1000e758 <__letf2+0xc8>
1000e770:	02581063          	bne	a6,t0,1000e790 <__letf2+0x100>
1000e774:	ffcfe2e3          	bltu	t6,t3,1000e758 <__letf2+0xc8>
1000e778:	01fe1c63          	bne	t3,t6,1000e790 <__letf2+0x100>
1000e77c:	fc6f6ee3          	bltu	t5,t1,1000e758 <__letf2+0xc8>
1000e780:	01e31863          	bne	t1,t5,1000e790 <__letf2+0x100>
1000e784:	fd1eeae3          	bltu	t4,a7,1000e758 <__letf2+0xc8>
1000e788:	00000513          	li	a0,0
1000e78c:	fdd8fae3          	bgeu	a7,t4,1000e760 <__letf2+0xd0>
1000e790:	00100513          	li	a0,1
1000e794:	fc0796e3          	bnez	a5,1000e760 <__letf2+0xd0>
1000e798:	fb5ff06f          	j	1000e74c <__letf2+0xbc>
1000e79c:	00200513          	li	a0,2
1000e7a0:	fc1ff06f          	j	1000e760 <__letf2+0xd0>
1000e7a4:	fa0710e3          	bnez	a4,1000e744 <__letf2+0xb4>
1000e7a8:	faf698e3          	bne	a3,a5,1000e758 <__letf2+0xc8>
1000e7ac:	fac55ee3          	bge	a0,a2,1000e768 <__letf2+0xd8>
1000e7b0:	fff00513          	li	a0,-1
1000e7b4:	fa0696e3          	bnez	a3,1000e760 <__letf2+0xd0>
1000e7b8:	00100513          	li	a0,1
1000e7bc:	fa5ff06f          	j	1000e760 <__letf2+0xd0>

1000e7c0 <__multf3>:
1000e7c0:	f5010113          	addi	sp,sp,-176
1000e7c4:	09412c23          	sw	s4,152(sp)
1000e7c8:	00c5aa03          	lw	s4,12(a1)
1000e7cc:	0005a783          	lw	a5,0(a1)
1000e7d0:	0085a683          	lw	a3,8(a1)
1000e7d4:	0a812423          	sw	s0,168(sp)
1000e7d8:	00050413          	mv	s0,a0
1000e7dc:	0045a503          	lw	a0,4(a1)
1000e7e0:	010a1713          	slli	a4,s4,0x10
1000e7e4:	0b212023          	sw	s2,160(sp)
1000e7e8:	09312e23          	sw	s3,156(sp)
1000e7ec:	00062903          	lw	s2,0(a2) # 7ff00000 <_sp+0x6fee2924>
1000e7f0:	00c62983          	lw	s3,12(a2)
1000e7f4:	09512a23          	sw	s5,148(sp)
1000e7f8:	09612823          	sw	s6,144(sp)
1000e7fc:	00862a83          	lw	s5,8(a2)
1000e800:	00462b03          	lw	s6,4(a2)
1000e804:	00008637          	lui	a2,0x8
1000e808:	0a912223          	sw	s1,164(sp)
1000e80c:	01075713          	srli	a4,a4,0x10
1000e810:	010a5493          	srli	s1,s4,0x10
1000e814:	fff60613          	addi	a2,a2,-1 # 7fff <__heap_size+0x6fff>
1000e818:	05412e23          	sw	s4,92(sp)
1000e81c:	0a112623          	sw	ra,172(sp)
1000e820:	09712623          	sw	s7,140(sp)
1000e824:	09812423          	sw	s8,136(sp)
1000e828:	09912223          	sw	s9,132(sp)
1000e82c:	09a12023          	sw	s10,128(sp)
1000e830:	07b12e23          	sw	s11,124(sp)
1000e834:	04f12823          	sw	a5,80(sp)
1000e838:	04a12a23          	sw	a0,84(sp)
1000e83c:	04d12c23          	sw	a3,88(sp)
1000e840:	02f12023          	sw	a5,32(sp)
1000e844:	02a12223          	sw	a0,36(sp)
1000e848:	02d12423          	sw	a3,40(sp)
1000e84c:	02e12623          	sw	a4,44(sp)
1000e850:	00c4f4b3          	and	s1,s1,a2
1000e854:	01fa5a13          	srli	s4,s4,0x1f
1000e858:	080482e3          	beqz	s1,1000f0dc <__multf3+0x91c>
1000e85c:	1ac48ce3          	beq	s1,a2,1000f214 <__multf3+0xa54>
1000e860:	000106b7          	lui	a3,0x10
1000e864:	00d76733          	or	a4,a4,a3
1000e868:	02e12623          	sw	a4,44(sp)
1000e86c:	02010593          	addi	a1,sp,32
1000e870:	02c10713          	addi	a4,sp,44
1000e874:	00072683          	lw	a3,0(a4)
1000e878:	ffc72603          	lw	a2,-4(a4)
1000e87c:	ffc70713          	addi	a4,a4,-4
1000e880:	00369693          	slli	a3,a3,0x3
1000e884:	01d65613          	srli	a2,a2,0x1d
1000e888:	00c6e6b3          	or	a3,a3,a2
1000e88c:	00d72223          	sw	a3,4(a4)
1000e890:	fee592e3          	bne	a1,a4,1000e874 <__multf3+0xb4>
1000e894:	00379793          	slli	a5,a5,0x3
1000e898:	02f12023          	sw	a5,32(sp)
1000e89c:	ffffc7b7          	lui	a5,0xffffc
1000e8a0:	00178793          	addi	a5,a5,1 # ffffc001 <_sp+0xeffde925>
1000e8a4:	00f484b3          	add	s1,s1,a5
1000e8a8:	00000b93          	li	s7,0
1000e8ac:	01099513          	slli	a0,s3,0x10
1000e8b0:	00008737          	lui	a4,0x8
1000e8b4:	0109d793          	srli	a5,s3,0x10
1000e8b8:	01055513          	srli	a0,a0,0x10
1000e8bc:	fff70713          	addi	a4,a4,-1 # 7fff <__heap_size+0x6fff>
1000e8c0:	05312e23          	sw	s3,92(sp)
1000e8c4:	05212823          	sw	s2,80(sp)
1000e8c8:	05612a23          	sw	s6,84(sp)
1000e8cc:	05512c23          	sw	s5,88(sp)
1000e8d0:	03212823          	sw	s2,48(sp)
1000e8d4:	03612a23          	sw	s6,52(sp)
1000e8d8:	03512c23          	sw	s5,56(sp)
1000e8dc:	02a12e23          	sw	a0,60(sp)
1000e8e0:	00e7f7b3          	and	a5,a5,a4
1000e8e4:	01f9d993          	srli	s3,s3,0x1f
1000e8e8:	14078ae3          	beqz	a5,1000f23c <__multf3+0xa7c>
1000e8ec:	28e784e3          	beq	a5,a4,1000f374 <__multf3+0xbb4>
1000e8f0:	00010737          	lui	a4,0x10
1000e8f4:	00e56533          	or	a0,a0,a4
1000e8f8:	02a12e23          	sw	a0,60(sp)
1000e8fc:	03010593          	addi	a1,sp,48
1000e900:	03c10713          	addi	a4,sp,60
1000e904:	00072683          	lw	a3,0(a4) # 10000 <__heap_size+0xf000>
1000e908:	ffc72603          	lw	a2,-4(a4)
1000e90c:	ffc70713          	addi	a4,a4,-4
1000e910:	00369693          	slli	a3,a3,0x3
1000e914:	01d65613          	srli	a2,a2,0x1d
1000e918:	00c6e6b3          	or	a3,a3,a2
1000e91c:	00d72223          	sw	a3,4(a4)
1000e920:	fee592e3          	bne	a1,a4,1000e904 <__multf3+0x144>
1000e924:	ffffc737          	lui	a4,0xffffc
1000e928:	00391913          	slli	s2,s2,0x3
1000e92c:	00170713          	addi	a4,a4,1 # ffffc001 <_sp+0xeffde925>
1000e930:	03212823          	sw	s2,48(sp)
1000e934:	00e787b3          	add	a5,a5,a4
1000e938:	00000693          	li	a3,0
1000e93c:	009787b3          	add	a5,a5,s1
1000e940:	00f12623          	sw	a5,12(sp)
1000e944:	00178793          	addi	a5,a5,1
1000e948:	00f12423          	sw	a5,8(sp)
1000e94c:	002b9793          	slli	a5,s7,0x2
1000e950:	00d7e7b3          	or	a5,a5,a3
1000e954:	00a00713          	li	a4,10
1000e958:	28f742e3          	blt	a4,a5,1000f3dc <__multf3+0xc1c>
1000e95c:	013a4733          	xor	a4,s4,s3
1000e960:	00e12223          	sw	a4,4(sp)
1000e964:	00200713          	li	a4,2
1000e968:	22f74ae3          	blt	a4,a5,1000f39c <__multf3+0xbdc>
1000e96c:	fff78793          	addi	a5,a5,-1
1000e970:	00100713          	li	a4,1
1000e974:	28f770e3          	bgeu	a4,a5,1000f3f4 <__multf3+0xc34>
1000e978:	02012883          	lw	a7,32(sp)
1000e97c:	03012f03          	lw	t5,48(sp)
1000e980:	000105b7          	lui	a1,0x10
1000e984:	fff58713          	addi	a4,a1,-1 # ffff <__heap_size+0xefff>
1000e988:	0108d913          	srli	s2,a7,0x10
1000e98c:	010f5493          	srli	s1,t5,0x10
1000e990:	00e8f8b3          	and	a7,a7,a4
1000e994:	00ef7f33          	and	t5,t5,a4
1000e998:	031f0633          	mul	a2,t5,a7
1000e99c:	03e90533          	mul	a0,s2,t5
1000e9a0:	01065793          	srli	a5,a2,0x10
1000e9a4:	031486b3          	mul	a3,s1,a7
1000e9a8:	00a686b3          	add	a3,a3,a0
1000e9ac:	00d787b3          	add	a5,a5,a3
1000e9b0:	02990bb3          	mul	s7,s2,s1
1000e9b4:	00a7f463          	bgeu	a5,a0,1000e9bc <__multf3+0x1fc>
1000e9b8:	00bb8bb3          	add	s7,s7,a1
1000e9bc:	03412e83          	lw	t4,52(sp)
1000e9c0:	0107d693          	srli	a3,a5,0x10
1000e9c4:	00e7f7b3          	and	a5,a5,a4
1000e9c8:	00e67633          	and	a2,a2,a4
1000e9cc:	01079793          	slli	a5,a5,0x10
1000e9d0:	00c787b3          	add	a5,a5,a2
1000e9d4:	010ed293          	srli	t0,t4,0x10
1000e9d8:	00eefeb3          	and	t4,t4,a4
1000e9dc:	03d90633          	mul	a2,s2,t4
1000e9e0:	00f12823          	sw	a5,16(sp)
1000e9e4:	04f12823          	sw	a5,80(sp)
1000e9e8:	03128733          	mul	a4,t0,a7
1000e9ec:	031e87b3          	mul	a5,t4,a7
1000e9f0:	00c70733          	add	a4,a4,a2
1000e9f4:	0107d313          	srli	t1,a5,0x10
1000e9f8:	00e30333          	add	t1,t1,a4
1000e9fc:	02590b33          	mul	s6,s2,t0
1000ea00:	00c37663          	bgeu	t1,a2,1000ea0c <__multf3+0x24c>
1000ea04:	00010737          	lui	a4,0x10
1000ea08:	00eb0b33          	add	s6,s6,a4
1000ea0c:	02412803          	lw	a6,36(sp)
1000ea10:	00010737          	lui	a4,0x10
1000ea14:	fff70613          	addi	a2,a4,-1 # ffff <__heap_size+0xefff>
1000ea18:	01035513          	srli	a0,t1,0x10
1000ea1c:	00c37333          	and	t1,t1,a2
1000ea20:	00c7f7b3          	and	a5,a5,a2
1000ea24:	01085393          	srli	t2,a6,0x10
1000ea28:	01031313          	slli	t1,t1,0x10
1000ea2c:	00c87833          	and	a6,a6,a2
1000ea30:	00f30333          	add	t1,t1,a5
1000ea34:	03e38fb3          	mul	t6,t2,t5
1000ea38:	006686b3          	add	a3,a3,t1
1000ea3c:	03e807b3          	mul	a5,a6,t5
1000ea40:	03048e33          	mul	t3,s1,a6
1000ea44:	0107d613          	srli	a2,a5,0x10
1000ea48:	01fe0e33          	add	t3,t3,t6
1000ea4c:	01c60633          	add	a2,a2,t3
1000ea50:	027485b3          	mul	a1,s1,t2
1000ea54:	01f67463          	bgeu	a2,t6,1000ea5c <__multf3+0x29c>
1000ea58:	00e585b3          	add	a1,a1,a4
1000ea5c:	01065a93          	srli	s5,a2,0x10
1000ea60:	00010737          	lui	a4,0x10
1000ea64:	00ba8ab3          	add	s5,s5,a1
1000ea68:	fff70593          	addi	a1,a4,-1 # ffff <__heap_size+0xefff>
1000ea6c:	00b7f7b3          	and	a5,a5,a1
1000ea70:	00b67633          	and	a2,a2,a1
1000ea74:	01061613          	slli	a2,a2,0x10
1000ea78:	030e85b3          	mul	a1,t4,a6
1000ea7c:	00f60633          	add	a2,a2,a5
1000ea80:	03d38fb3          	mul	t6,t2,t4
1000ea84:	0105d793          	srli	a5,a1,0x10
1000ea88:	03028e33          	mul	t3,t0,a6
1000ea8c:	01fe0e33          	add	t3,t3,t6
1000ea90:	01c787b3          	add	a5,a5,t3
1000ea94:	027289b3          	mul	s3,t0,t2
1000ea98:	01f7f463          	bgeu	a5,t6,1000eaa0 <__multf3+0x2e0>
1000ea9c:	00e989b3          	add	s3,s3,a4
1000eaa0:	0107d713          	srli	a4,a5,0x10
1000eaa4:	01370733          	add	a4,a4,s3
1000eaa8:	00010a37          	lui	s4,0x10
1000eaac:	00e12a23          	sw	a4,20(sp)
1000eab0:	fffa0713          	addi	a4,s4,-1 # ffff <__heap_size+0xefff>
1000eab4:	03812e03          	lw	t3,56(sp)
1000eab8:	00e7f7b3          	and	a5,a5,a4
1000eabc:	00e5f5b3          	and	a1,a1,a4
1000eac0:	01079793          	slli	a5,a5,0x10
1000eac4:	00b787b3          	add	a5,a5,a1
1000eac8:	00f12c23          	sw	a5,24(sp)
1000eacc:	010e5793          	srli	a5,t3,0x10
1000ead0:	00ee7e33          	and	t3,t3,a4
1000ead4:	031e05b3          	mul	a1,t3,a7
1000ead8:	03c90c33          	mul	s8,s2,t3
1000eadc:	0105d713          	srli	a4,a1,0x10
1000eae0:	031789b3          	mul	s3,a5,a7
1000eae4:	018989b3          	add	s3,s3,s8
1000eae8:	01370733          	add	a4,a4,s3
1000eaec:	02f90fb3          	mul	t6,s2,a5
1000eaf0:	01877463          	bgeu	a4,s8,1000eaf8 <__multf3+0x338>
1000eaf4:	014f8fb3          	add	t6,t6,s4
1000eaf8:	01075993          	srli	s3,a4,0x10
1000eafc:	00010cb7          	lui	s9,0x10
1000eb00:	01f98fb3          	add	t6,s3,t6
1000eb04:	fffc8993          	addi	s3,s9,-1 # ffff <__heap_size+0xefff>
1000eb08:	01377733          	and	a4,a4,s3
1000eb0c:	0135f5b3          	and	a1,a1,s3
1000eb10:	01071713          	slli	a4,a4,0x10
1000eb14:	00b70733          	add	a4,a4,a1
1000eb18:	02812583          	lw	a1,40(sp)
1000eb1c:	01f12e23          	sw	t6,28(sp)
1000eb20:	0105df93          	srli	t6,a1,0x10
1000eb24:	0135f5b3          	and	a1,a1,s3
1000eb28:	03e58a33          	mul	s4,a1,t5
1000eb2c:	03ef8d33          	mul	s10,t6,t5
1000eb30:	010a5d93          	srli	s11,s4,0x10
1000eb34:	02b489b3          	mul	s3,s1,a1
1000eb38:	01a989b3          	add	s3,s3,s10
1000eb3c:	013d89b3          	add	s3,s11,s3
1000eb40:	03f48c33          	mul	s8,s1,t6
1000eb44:	01a9f463          	bgeu	s3,s10,1000eb4c <__multf3+0x38c>
1000eb48:	019c0c33          	add	s8,s8,s9
1000eb4c:	00db86b3          	add	a3,s7,a3
1000eb50:	0066b333          	sltu	t1,a3,t1
1000eb54:	0109dd13          	srli	s10,s3,0x10
1000eb58:	00650533          	add	a0,a0,t1
1000eb5c:	00010cb7          	lui	s9,0x10
1000eb60:	01650533          	add	a0,a0,s6
1000eb64:	018d0d33          	add	s10,s10,s8
1000eb68:	00c68633          	add	a2,a3,a2
1000eb6c:	fffc8c13          	addi	s8,s9,-1 # ffff <__heap_size+0xefff>
1000eb70:	01550ab3          	add	s5,a0,s5
1000eb74:	0189f9b3          	and	s3,s3,s8
1000eb78:	00d636b3          	sltu	a3,a2,a3
1000eb7c:	00da86b3          	add	a3,s5,a3
1000eb80:	01099993          	slli	s3,s3,0x10
1000eb84:	018a7a33          	and	s4,s4,s8
1000eb88:	01498a33          	add	s4,s3,s4
1000eb8c:	00aab9b3          	sltu	s3,s5,a0
1000eb90:	0156bab3          	sltu	s5,a3,s5
1000eb94:	0159e9b3          	or	s3,s3,s5
1000eb98:	00653533          	sltu	a0,a0,t1
1000eb9c:	00a98533          	add	a0,s3,a0
1000eba0:	01812303          	lw	t1,24(sp)
1000eba4:	01412983          	lw	s3,20(sp)
1000eba8:	04c12a23          	sw	a2,84(sp)
1000ebac:	00668333          	add	t1,a3,t1
1000ebb0:	01350ab3          	add	s5,a0,s3
1000ebb4:	01c12983          	lw	s3,28(sp)
1000ebb8:	00d336b3          	sltu	a3,t1,a3
1000ebbc:	00da86b3          	add	a3,s5,a3
1000ebc0:	00e30733          	add	a4,t1,a4
1000ebc4:	01368b33          	add	s6,a3,s3
1000ebc8:	00673333          	sltu	t1,a4,t1
1000ebcc:	006b0333          	add	t1,s6,t1
1000ebd0:	01470a33          	add	s4,a4,s4
1000ebd4:	01a30d33          	add	s10,t1,s10
1000ebd8:	00ea3733          	sltu	a4,s4,a4
1000ebdc:	00aab533          	sltu	a0,s5,a0
1000ebe0:	00ed0733          	add	a4,s10,a4
1000ebe4:	0156bab3          	sltu	s5,a3,s5
1000ebe8:	00db36b3          	sltu	a3,s6,a3
1000ebec:	01633b33          	sltu	s6,t1,s6
1000ebf0:	0166e6b3          	or	a3,a3,s6
1000ebf4:	006d39b3          	sltu	s3,s10,t1
1000ebf8:	01556ab3          	or	s5,a0,s5
1000ebfc:	01a73d33          	sltu	s10,a4,s10
1000ec00:	00da8ab3          	add	s5,s5,a3
1000ec04:	01a9e9b3          	or	s3,s3,s10
1000ec08:	015989b3          	add	s3,s3,s5
1000ec0c:	03c12a83          	lw	s5,60(sp)
1000ec10:	05412c23          	sw	s4,88(sp)
1000ec14:	010adb13          	srli	s6,s5,0x10
1000ec18:	018afab3          	and	s5,s5,s8
1000ec1c:	031a86b3          	mul	a3,s5,a7
1000ec20:	03590533          	mul	a0,s2,s5
1000ec24:	031b08b3          	mul	a7,s6,a7
1000ec28:	00a88333          	add	t1,a7,a0
1000ec2c:	0106d893          	srli	a7,a3,0x10
1000ec30:	006888b3          	add	a7,a7,t1
1000ec34:	03690933          	mul	s2,s2,s6
1000ec38:	00a8f463          	bgeu	a7,a0,1000ec40 <__multf3+0x480>
1000ec3c:	01990933          	add	s2,s2,s9
1000ec40:	02c12b83          	lw	s7,44(sp)
1000ec44:	0108d513          	srli	a0,a7,0x10
1000ec48:	01250533          	add	a0,a0,s2
1000ec4c:	00010c37          	lui	s8,0x10
1000ec50:	00a12a23          	sw	a0,20(sp)
1000ec54:	fffc0513          	addi	a0,s8,-1 # ffff <__heap_size+0xefff>
1000ec58:	010bd913          	srli	s2,s7,0x10
1000ec5c:	00abfbb3          	and	s7,s7,a0
1000ec60:	00a6f6b3          	and	a3,a3,a0
1000ec64:	00a8f8b3          	and	a7,a7,a0
1000ec68:	03248333          	mul	t1,s1,s2
1000ec6c:	01089893          	slli	a7,a7,0x10
1000ec70:	00d888b3          	add	a7,a7,a3
1000ec74:	03eb8533          	mul	a0,s7,t5
1000ec78:	037484b3          	mul	s1,s1,s7
1000ec7c:	01055693          	srli	a3,a0,0x10
1000ec80:	03e90f33          	mul	t5,s2,t5
1000ec84:	01e484b3          	add	s1,s1,t5
1000ec88:	009686b3          	add	a3,a3,s1
1000ec8c:	01e6f463          	bgeu	a3,t5,1000ec94 <__multf3+0x4d4>
1000ec90:	01830333          	add	t1,t1,s8
1000ec94:	0106df13          	srli	t5,a3,0x10
1000ec98:	006f0333          	add	t1,t5,t1
1000ec9c:	00010cb7          	lui	s9,0x10
1000eca0:	00612c23          	sw	t1,24(sp)
1000eca4:	fffc8313          	addi	t1,s9,-1 # ffff <__heap_size+0xefff>
1000eca8:	00657533          	and	a0,a0,t1
1000ecac:	0066f6b3          	and	a3,a3,t1
1000ecb0:	03c38f33          	mul	t5,t2,t3
1000ecb4:	01069693          	slli	a3,a3,0x10
1000ecb8:	00a686b3          	add	a3,a3,a0
1000ecbc:	03c80333          	mul	t1,a6,t3
1000ecc0:	030784b3          	mul	s1,a5,a6
1000ecc4:	01035513          	srli	a0,t1,0x10
1000ecc8:	01e484b3          	add	s1,s1,t5
1000eccc:	00950533          	add	a0,a0,s1
1000ecd0:	02f38c33          	mul	s8,t2,a5
1000ecd4:	01e57463          	bgeu	a0,t5,1000ecdc <__multf3+0x51c>
1000ecd8:	019c0c33          	add	s8,s8,s9
1000ecdc:	00010d37          	lui	s10,0x10
1000ece0:	fffd0f13          	addi	t5,s10,-1 # ffff <__heap_size+0xefff>
1000ece4:	01055493          	srli	s1,a0,0x10
1000ece8:	01e57533          	and	a0,a0,t5
1000ecec:	01e37333          	and	t1,t1,t5
1000ecf0:	01051513          	slli	a0,a0,0x10
1000ecf4:	018484b3          	add	s1,s1,s8
1000ecf8:	02b28f33          	mul	t5,t0,a1
1000ecfc:	00650533          	add	a0,a0,t1
1000ed00:	03df8c33          	mul	s8,t6,t4
1000ed04:	02be8333          	mul	t1,t4,a1
1000ed08:	018f0f33          	add	t5,t5,s8
1000ed0c:	01035d93          	srli	s11,t1,0x10
1000ed10:	01ed8f33          	add	t5,s11,t5
1000ed14:	03f28cb3          	mul	s9,t0,t6
1000ed18:	018f7463          	bgeu	t5,s8,1000ed20 <__multf3+0x560>
1000ed1c:	01ac8cb3          	add	s9,s9,s10
1000ed20:	010f5c13          	srli	s8,t5,0x10
1000ed24:	019c0c33          	add	s8,s8,s9
1000ed28:	00010cb7          	lui	s9,0x10
1000ed2c:	fffc8d13          	addi	s10,s9,-1 # ffff <__heap_size+0xefff>
1000ed30:	01af7f33          	and	t5,t5,s10
1000ed34:	010f1f13          	slli	t5,t5,0x10
1000ed38:	01a37333          	and	t1,t1,s10
1000ed3c:	006f0333          	add	t1,t5,t1
1000ed40:	01412f03          	lw	t5,20(sp)
1000ed44:	011708b3          	add	a7,a4,a7
1000ed48:	01812d03          	lw	s10,24(sp)
1000ed4c:	01e98f33          	add	t5,s3,t5
1000ed50:	00e8b733          	sltu	a4,a7,a4
1000ed54:	00ef0733          	add	a4,t5,a4
1000ed58:	00d886b3          	add	a3,a7,a3
1000ed5c:	01a70d33          	add	s10,a4,s10
1000ed60:	0116b8b3          	sltu	a7,a3,a7
1000ed64:	011d08b3          	add	a7,s10,a7
1000ed68:	00a68533          	add	a0,a3,a0
1000ed6c:	009884b3          	add	s1,a7,s1
1000ed70:	00d536b3          	sltu	a3,a0,a3
1000ed74:	00d486b3          	add	a3,s1,a3
1000ed78:	013f39b3          	sltu	s3,t5,s3
1000ed7c:	01e73f33          	sltu	t5,a4,t5
1000ed80:	00ed3733          	sltu	a4,s10,a4
1000ed84:	01a8bd33          	sltu	s10,a7,s10
1000ed88:	01e9ef33          	or	t5,s3,t5
1000ed8c:	0114b8b3          	sltu	a7,s1,a7
1000ed90:	01a76733          	or	a4,a4,s10
1000ed94:	0096b4b3          	sltu	s1,a3,s1
1000ed98:	01868c33          	add	s8,a3,s8
1000ed9c:	00ef0733          	add	a4,t5,a4
1000eda0:	0098e8b3          	or	a7,a7,s1
1000eda4:	00e884b3          	add	s1,a7,a4
1000eda8:	03cf8f33          	mul	t5,t6,t3
1000edac:	00dc38b3          	sltu	a7,s8,a3
1000edb0:	00650333          	add	t1,a0,t1
1000edb4:	00a33533          	sltu	a0,t1,a0
1000edb8:	00ac0533          	add	a0,s8,a0
1000edbc:	01853c33          	sltu	s8,a0,s8
1000edc0:	0188e8b3          	or	a7,a7,s8
1000edc4:	04612e23          	sw	t1,92(sp)
1000edc8:	009888b3          	add	a7,a7,s1
1000edcc:	02be06b3          	mul	a3,t3,a1
1000edd0:	02b789b3          	mul	s3,a5,a1
1000edd4:	0106d713          	srli	a4,a3,0x10
1000edd8:	01e989b3          	add	s3,s3,t5
1000eddc:	01370733          	add	a4,a4,s3
1000ede0:	03f784b3          	mul	s1,a5,t6
1000ede4:	01e77463          	bgeu	a4,t5,1000edec <__multf3+0x62c>
1000ede8:	019484b3          	add	s1,s1,s9
1000edec:	01075f13          	srli	t5,a4,0x10
1000edf0:	009f0f33          	add	t5,t5,s1
1000edf4:	000104b7          	lui	s1,0x10
1000edf8:	fff48993          	addi	s3,s1,-1 # ffff <__heap_size+0xefff>
1000edfc:	01377733          	and	a4,a4,s3
1000ee00:	0136f6b3          	and	a3,a3,s3
1000ee04:	01071713          	slli	a4,a4,0x10
1000ee08:	035389b3          	mul	s3,t2,s5
1000ee0c:	00d70733          	add	a4,a4,a3
1000ee10:	030a86b3          	mul	a3,s5,a6
1000ee14:	030b0833          	mul	a6,s6,a6
1000ee18:	01380c33          	add	s8,a6,s3
1000ee1c:	0106d813          	srli	a6,a3,0x10
1000ee20:	01880833          	add	a6,a6,s8
1000ee24:	036383b3          	mul	t2,t2,s6
1000ee28:	01387463          	bgeu	a6,s3,1000ee30 <__multf3+0x670>
1000ee2c:	009383b3          	add	t2,t2,s1
1000ee30:	01085493          	srli	s1,a6,0x10
1000ee34:	00010c37          	lui	s8,0x10
1000ee38:	007483b3          	add	t2,s1,t2
1000ee3c:	fffc0493          	addi	s1,s8,-1 # ffff <__heap_size+0xefff>
1000ee40:	0096f6b3          	and	a3,a3,s1
1000ee44:	00987833          	and	a6,a6,s1
1000ee48:	01081813          	slli	a6,a6,0x10
1000ee4c:	03db89b3          	mul	s3,s7,t4
1000ee50:	00d80833          	add	a6,a6,a3
1000ee54:	03d90eb3          	mul	t4,s2,t4
1000ee58:	0109d693          	srli	a3,s3,0x10
1000ee5c:	032284b3          	mul	s1,t0,s2
1000ee60:	037282b3          	mul	t0,t0,s7
1000ee64:	01d282b3          	add	t0,t0,t4
1000ee68:	005686b3          	add	a3,a3,t0
1000ee6c:	01d6f463          	bgeu	a3,t4,1000ee74 <__multf3+0x6b4>
1000ee70:	018484b3          	add	s1,s1,s8
1000ee74:	0106de93          	srli	t4,a3,0x10
1000ee78:	009e8eb3          	add	t4,t4,s1
1000ee7c:	000104b7          	lui	s1,0x10
1000ee80:	fff48293          	addi	t0,s1,-1 # ffff <__heap_size+0xefff>
1000ee84:	0056f6b3          	and	a3,a3,t0
1000ee88:	0059f9b3          	and	s3,s3,t0
1000ee8c:	01069693          	slli	a3,a3,0x10
1000ee90:	02ba82b3          	mul	t0,s5,a1
1000ee94:	013686b3          	add	a3,a3,s3
1000ee98:	02bb05b3          	mul	a1,s6,a1
1000ee9c:	035f89b3          	mul	s3,t6,s5
1000eea0:	01358c33          	add	s8,a1,s3
1000eea4:	0102d593          	srli	a1,t0,0x10
1000eea8:	018585b3          	add	a1,a1,s8
1000eeac:	036f8fb3          	mul	t6,t6,s6
1000eeb0:	0135f463          	bgeu	a1,s3,1000eeb8 <__multf3+0x6f8>
1000eeb4:	009f8fb3          	add	t6,t6,s1
1000eeb8:	0105d493          	srli	s1,a1,0x10
1000eebc:	01f48fb3          	add	t6,s1,t6
1000eec0:	000104b7          	lui	s1,0x10
1000eec4:	fff48993          	addi	s3,s1,-1 # ffff <__heap_size+0xefff>
1000eec8:	0135f5b3          	and	a1,a1,s3
1000eecc:	0132f2b3          	and	t0,t0,s3
1000eed0:	01059593          	slli	a1,a1,0x10
1000eed4:	032789b3          	mul	s3,a5,s2
1000eed8:	005585b3          	add	a1,a1,t0
1000eedc:	037787b3          	mul	a5,a5,s7
1000eee0:	03cb82b3          	mul	t0,s7,t3
1000eee4:	03c90e33          	mul	t3,s2,t3
1000eee8:	0102dc13          	srli	s8,t0,0x10
1000eeec:	01c787b3          	add	a5,a5,t3
1000eef0:	00fc07b3          	add	a5,s8,a5
1000eef4:	01c7f463          	bgeu	a5,t3,1000eefc <__multf3+0x73c>
1000eef8:	009989b3          	add	s3,s3,s1
1000eefc:	00e50733          	add	a4,a0,a4
1000ef00:	01070833          	add	a6,a4,a6
1000ef04:	01e88f33          	add	t5,a7,t5
1000ef08:	00a73533          	sltu	a0,a4,a0
1000ef0c:	00af0533          	add	a0,t5,a0
1000ef10:	00d806b3          	add	a3,a6,a3
1000ef14:	007503b3          	add	t2,a0,t2
1000ef18:	00e83733          	sltu	a4,a6,a4
1000ef1c:	06d12023          	sw	a3,96(sp)
1000ef20:	0106b6b3          	sltu	a3,a3,a6
1000ef24:	037a8833          	mul	a6,s5,s7
1000ef28:	00e38733          	add	a4,t2,a4
1000ef2c:	01d70eb3          	add	t4,a4,t4
1000ef30:	00de86b3          	add	a3,t4,a3
1000ef34:	0107de13          	srli	t3,a5,0x10
1000ef38:	011f38b3          	sltu	a7,t5,a7
1000ef3c:	000104b7          	lui	s1,0x10
1000ef40:	01e53f33          	sltu	t5,a0,t5
1000ef44:	00a3b533          	sltu	a0,t2,a0
1000ef48:	007733b3          	sltu	t2,a4,t2
1000ef4c:	03590ab3          	mul	s5,s2,s5
1000ef50:	013e0e33          	add	t3,t3,s3
1000ef54:	00756533          	or	a0,a0,t2
1000ef58:	fff48993          	addi	s3,s1,-1 # ffff <__heap_size+0xefff>
1000ef5c:	00eeb733          	sltu	a4,t4,a4
1000ef60:	01e8e8b3          	or	a7,a7,t5
1000ef64:	01d6beb3          	sltu	t4,a3,t4
1000ef68:	00a888b3          	add	a7,a7,a0
1000ef6c:	0137f7b3          	and	a5,a5,s3
1000ef70:	01d76733          	or	a4,a4,t4
1000ef74:	032b0933          	mul	s2,s6,s2
1000ef78:	00b685b3          	add	a1,a3,a1
1000ef7c:	01170733          	add	a4,a4,a7
1000ef80:	01079793          	slli	a5,a5,0x10
1000ef84:	0132f2b3          	and	t0,t0,s3
1000ef88:	01f70fb3          	add	t6,a4,t6
1000ef8c:	005787b3          	add	a5,a5,t0
1000ef90:	00d5b6b3          	sltu	a3,a1,a3
1000ef94:	00df86b3          	add	a3,t6,a3
1000ef98:	00f587b3          	add	a5,a1,a5
1000ef9c:	037b0b33          	mul	s6,s6,s7
1000efa0:	00efb733          	sltu	a4,t6,a4
1000efa4:	01c68e33          	add	t3,a3,t3
1000efa8:	01f6bfb3          	sltu	t6,a3,t6
1000efac:	06f12223          	sw	a5,100(sp)
1000efb0:	00b7b7b3          	sltu	a5,a5,a1
1000efb4:	01f76533          	or	a0,a4,t6
1000efb8:	00fe07b3          	add	a5,t3,a5
1000efbc:	01085713          	srli	a4,a6,0x10
1000efc0:	00de36b3          	sltu	a3,t3,a3
1000efc4:	015b0b33          	add	s6,s6,s5
1000efc8:	01c7be33          	sltu	t3,a5,t3
1000efcc:	01670733          	add	a4,a4,s6
1000efd0:	01c6e6b3          	or	a3,a3,t3
1000efd4:	01577463          	bgeu	a4,s5,1000efdc <__multf3+0x81c>
1000efd8:	00990933          	add	s2,s2,s1
1000efdc:	01075593          	srli	a1,a4,0x10
1000efe0:	00a585b3          	add	a1,a1,a0
1000efe4:	00010537          	lui	a0,0x10
1000efe8:	fff50513          	addi	a0,a0,-1 # ffff <__heap_size+0xefff>
1000efec:	00a77733          	and	a4,a4,a0
1000eff0:	01071713          	slli	a4,a4,0x10
1000eff4:	00a87833          	and	a6,a6,a0
1000eff8:	01070733          	add	a4,a4,a6
1000effc:	00e78733          	add	a4,a5,a4
1000f000:	00d586b3          	add	a3,a1,a3
1000f004:	00f737b3          	sltu	a5,a4,a5
1000f008:	00f687b3          	add	a5,a3,a5
1000f00c:	012787b3          	add	a5,a5,s2
1000f010:	06f12623          	sw	a5,108(sp)
1000f014:	01012783          	lw	a5,16(sp)
1000f018:	00d31313          	slli	t1,t1,0xd
1000f01c:	06e12423          	sw	a4,104(sp)
1000f020:	00c7e7b3          	or	a5,a5,a2
1000f024:	0147e7b3          	or	a5,a5,s4
1000f028:	00f36333          	or	t1,t1,a5
1000f02c:	06010613          	addi	a2,sp,96
1000f030:	05010793          	addi	a5,sp,80
1000f034:	00c7a703          	lw	a4,12(a5)
1000f038:	0107a683          	lw	a3,16(a5)
1000f03c:	00478793          	addi	a5,a5,4
1000f040:	01375713          	srli	a4,a4,0x13
1000f044:	00d69693          	slli	a3,a3,0xd
1000f048:	00d76733          	or	a4,a4,a3
1000f04c:	fee7ae23          	sw	a4,-4(a5)
1000f050:	fef612e3          	bne	a2,a5,1000f034 <__multf3+0x874>
1000f054:	05012783          	lw	a5,80(sp)
1000f058:	00603333          	snez	t1,t1
1000f05c:	05c12703          	lw	a4,92(sp)
1000f060:	00f36333          	or	t1,t1,a5
1000f064:	05812783          	lw	a5,88(sp)
1000f068:	04e12623          	sw	a4,76(sp)
1000f06c:	04612023          	sw	t1,64(sp)
1000f070:	04f12423          	sw	a5,72(sp)
1000f074:	05412783          	lw	a5,84(sp)
1000f078:	04f12223          	sw	a5,68(sp)
1000f07c:	00b71793          	slli	a5,a4,0xb
1000f080:	0407d863          	bgez	a5,1000f0d0 <__multf3+0x910>
1000f084:	01f31313          	slli	t1,t1,0x1f
1000f088:	04010793          	addi	a5,sp,64
1000f08c:	04c10593          	addi	a1,sp,76
1000f090:	0007a683          	lw	a3,0(a5)
1000f094:	0047a603          	lw	a2,4(a5)
1000f098:	00478793          	addi	a5,a5,4
1000f09c:	0016d693          	srli	a3,a3,0x1
1000f0a0:	01f61613          	slli	a2,a2,0x1f
1000f0a4:	00c6e6b3          	or	a3,a3,a2
1000f0a8:	fed7ae23          	sw	a3,-4(a5)
1000f0ac:	fef592e3          	bne	a1,a5,1000f090 <__multf3+0x8d0>
1000f0b0:	04012783          	lw	a5,64(sp)
1000f0b4:	00603333          	snez	t1,t1
1000f0b8:	00175713          	srli	a4,a4,0x1
1000f0bc:	0067e7b3          	or	a5,a5,t1
1000f0c0:	04f12023          	sw	a5,64(sp)
1000f0c4:	00812783          	lw	a5,8(sp)
1000f0c8:	04e12623          	sw	a4,76(sp)
1000f0cc:	00f12623          	sw	a5,12(sp)
1000f0d0:	00c12783          	lw	a5,12(sp)
1000f0d4:	00f12423          	sw	a5,8(sp)
1000f0d8:	3780006f          	j	1000f450 <__multf3+0xc90>
1000f0dc:	00a7e633          	or	a2,a5,a0
1000f0e0:	00d66633          	or	a2,a2,a3
1000f0e4:	00e66633          	or	a2,a2,a4
1000f0e8:	14060463          	beqz	a2,1000f230 <__multf3+0xa70>
1000f0ec:	0a070063          	beqz	a4,1000f18c <__multf3+0x9cc>
1000f0f0:	00070513          	mv	a0,a4
1000f0f4:	dd9f20ef          	jal	10001ecc <__clzsi2>
1000f0f8:	ff450713          	addi	a4,a0,-12
1000f0fc:	40575593          	srai	a1,a4,0x5
1000f100:	01f77713          	andi	a4,a4,31
1000f104:	0a070e63          	beqz	a4,1000f1c0 <__multf3+0xa00>
1000f108:	ffc00693          	li	a3,-4
1000f10c:	02d586b3          	mul	a3,a1,a3
1000f110:	02000813          	li	a6,32
1000f114:	02010313          	addi	t1,sp,32
1000f118:	40e80833          	sub	a6,a6,a4
1000f11c:	00c68793          	addi	a5,a3,12 # 1000c <__heap_size+0xf00c>
1000f120:	00f307b3          	add	a5,t1,a5
1000f124:	40d006b3          	neg	a3,a3
1000f128:	0cf31463          	bne	t1,a5,1000f1f0 <__multf3+0xa30>
1000f12c:	fff58793          	addi	a5,a1,-1
1000f130:	00259593          	slli	a1,a1,0x2
1000f134:	05058693          	addi	a3,a1,80
1000f138:	02010613          	addi	a2,sp,32
1000f13c:	00c685b3          	add	a1,a3,a2
1000f140:	02012683          	lw	a3,32(sp)
1000f144:	00e69733          	sll	a4,a3,a4
1000f148:	fae5a823          	sw	a4,-80(a1)
1000f14c:	00178793          	addi	a5,a5,1
1000f150:	00279793          	slli	a5,a5,0x2
1000f154:	00800693          	li	a3,8
1000f158:	02010713          	addi	a4,sp,32
1000f15c:	00d7ea63          	bltu	a5,a3,1000f170 <__multf3+0x9b0>
1000f160:	02012023          	sw	zero,32(sp)
1000f164:	00072223          	sw	zero,4(a4)
1000f168:	ff878793          	addi	a5,a5,-8
1000f16c:	02810713          	addi	a4,sp,40
1000f170:	00400693          	li	a3,4
1000f174:	00d7e463          	bltu	a5,a3,1000f17c <__multf3+0x9bc>
1000f178:	00072023          	sw	zero,0(a4)
1000f17c:	ffffc4b7          	lui	s1,0xffffc
1000f180:	01148493          	addi	s1,s1,17 # ffffc011 <_sp+0xeffde935>
1000f184:	40a484b3          	sub	s1,s1,a0
1000f188:	f20ff06f          	j	1000e8a8 <__multf3+0xe8>
1000f18c:	00068a63          	beqz	a3,1000f1a0 <__multf3+0x9e0>
1000f190:	00068513          	mv	a0,a3
1000f194:	d39f20ef          	jal	10001ecc <__clzsi2>
1000f198:	02050513          	addi	a0,a0,32
1000f19c:	f5dff06f          	j	1000f0f8 <__multf3+0x938>
1000f1a0:	00050863          	beqz	a0,1000f1b0 <__multf3+0x9f0>
1000f1a4:	d29f20ef          	jal	10001ecc <__clzsi2>
1000f1a8:	04050513          	addi	a0,a0,64
1000f1ac:	f4dff06f          	j	1000f0f8 <__multf3+0x938>
1000f1b0:	00078513          	mv	a0,a5
1000f1b4:	d19f20ef          	jal	10001ecc <__clzsi2>
1000f1b8:	06050513          	addi	a0,a0,96
1000f1bc:	f3dff06f          	j	1000f0f8 <__multf3+0x938>
1000f1c0:	ffc00693          	li	a3,-4
1000f1c4:	02d586b3          	mul	a3,a1,a3
1000f1c8:	02c10793          	addi	a5,sp,44
1000f1cc:	00300713          	li	a4,3
1000f1d0:	00d78633          	add	a2,a5,a3
1000f1d4:	00062603          	lw	a2,0(a2)
1000f1d8:	fff70713          	addi	a4,a4,-1
1000f1dc:	ffc78793          	addi	a5,a5,-4
1000f1e0:	00c7a223          	sw	a2,4(a5)
1000f1e4:	feb756e3          	bge	a4,a1,1000f1d0 <__multf3+0xa10>
1000f1e8:	fff58793          	addi	a5,a1,-1
1000f1ec:	f61ff06f          	j	1000f14c <__multf3+0x98c>
1000f1f0:	0007a603          	lw	a2,0(a5)
1000f1f4:	ffc7a883          	lw	a7,-4(a5)
1000f1f8:	00d78e33          	add	t3,a5,a3
1000f1fc:	00e61633          	sll	a2,a2,a4
1000f200:	0108d8b3          	srl	a7,a7,a6
1000f204:	01166633          	or	a2,a2,a7
1000f208:	00ce2023          	sw	a2,0(t3)
1000f20c:	ffc78793          	addi	a5,a5,-4
1000f210:	f19ff06f          	j	1000f128 <__multf3+0x968>
1000f214:	00a7e7b3          	or	a5,a5,a0
1000f218:	00d7e7b3          	or	a5,a5,a3
1000f21c:	00e7e7b3          	or	a5,a5,a4
1000f220:	00200b93          	li	s7,2
1000f224:	e8078463          	beqz	a5,1000e8ac <__multf3+0xec>
1000f228:	00300b93          	li	s7,3
1000f22c:	e80ff06f          	j	1000e8ac <__multf3+0xec>
1000f230:	00000493          	li	s1,0
1000f234:	00100b93          	li	s7,1
1000f238:	e74ff06f          	j	1000e8ac <__multf3+0xec>
1000f23c:	016967b3          	or	a5,s2,s6
1000f240:	0157e7b3          	or	a5,a5,s5
1000f244:	00a7e7b3          	or	a5,a5,a0
1000f248:	14078463          	beqz	a5,1000f390 <__multf3+0xbd0>
1000f24c:	08050e63          	beqz	a0,1000f2e8 <__multf3+0xb28>
1000f250:	c7df20ef          	jal	10001ecc <__clzsi2>
1000f254:	ff450693          	addi	a3,a0,-12
1000f258:	4056d793          	srai	a5,a3,0x5
1000f25c:	01f6f693          	andi	a3,a3,31
1000f260:	0c068063          	beqz	a3,1000f320 <__multf3+0xb60>
1000f264:	ffc00613          	li	a2,-4
1000f268:	02c78633          	mul	a2,a5,a2
1000f26c:	02000813          	li	a6,32
1000f270:	03010313          	addi	t1,sp,48
1000f274:	40d80833          	sub	a6,a6,a3
1000f278:	00c60713          	addi	a4,a2,12
1000f27c:	00e30733          	add	a4,t1,a4
1000f280:	40c00633          	neg	a2,a2
1000f284:	0ce31663          	bne	t1,a4,1000f350 <__multf3+0xb90>
1000f288:	fff78713          	addi	a4,a5,-1
1000f28c:	00279793          	slli	a5,a5,0x2
1000f290:	02010613          	addi	a2,sp,32
1000f294:	05078793          	addi	a5,a5,80
1000f298:	00c787b3          	add	a5,a5,a2
1000f29c:	03012603          	lw	a2,48(sp)
1000f2a0:	00d616b3          	sll	a3,a2,a3
1000f2a4:	fcd7a023          	sw	a3,-64(a5)
1000f2a8:	00170793          	addi	a5,a4,1
1000f2ac:	00279793          	slli	a5,a5,0x2
1000f2b0:	00800693          	li	a3,8
1000f2b4:	03010713          	addi	a4,sp,48
1000f2b8:	00d7ea63          	bltu	a5,a3,1000f2cc <__multf3+0xb0c>
1000f2bc:	02012823          	sw	zero,48(sp)
1000f2c0:	00072223          	sw	zero,4(a4)
1000f2c4:	ff878793          	addi	a5,a5,-8
1000f2c8:	03810713          	addi	a4,sp,56
1000f2cc:	00400693          	li	a3,4
1000f2d0:	00d7e463          	bltu	a5,a3,1000f2d8 <__multf3+0xb18>
1000f2d4:	00072023          	sw	zero,0(a4)
1000f2d8:	ffffc7b7          	lui	a5,0xffffc
1000f2dc:	01178793          	addi	a5,a5,17 # ffffc011 <_sp+0xeffde935>
1000f2e0:	40a787b3          	sub	a5,a5,a0
1000f2e4:	e54ff06f          	j	1000e938 <__multf3+0x178>
1000f2e8:	000a8a63          	beqz	s5,1000f2fc <__multf3+0xb3c>
1000f2ec:	000a8513          	mv	a0,s5
1000f2f0:	bddf20ef          	jal	10001ecc <__clzsi2>
1000f2f4:	02050513          	addi	a0,a0,32
1000f2f8:	f5dff06f          	j	1000f254 <__multf3+0xa94>
1000f2fc:	000b0a63          	beqz	s6,1000f310 <__multf3+0xb50>
1000f300:	000b0513          	mv	a0,s6
1000f304:	bc9f20ef          	jal	10001ecc <__clzsi2>
1000f308:	04050513          	addi	a0,a0,64
1000f30c:	f49ff06f          	j	1000f254 <__multf3+0xa94>
1000f310:	00090513          	mv	a0,s2
1000f314:	bb9f20ef          	jal	10001ecc <__clzsi2>
1000f318:	06050513          	addi	a0,a0,96
1000f31c:	f39ff06f          	j	1000f254 <__multf3+0xa94>
1000f320:	ffc00613          	li	a2,-4
1000f324:	02c78633          	mul	a2,a5,a2
1000f328:	03c10713          	addi	a4,sp,60
1000f32c:	00300693          	li	a3,3
1000f330:	00c705b3          	add	a1,a4,a2
1000f334:	0005a583          	lw	a1,0(a1)
1000f338:	fff68693          	addi	a3,a3,-1
1000f33c:	ffc70713          	addi	a4,a4,-4
1000f340:	00b72223          	sw	a1,4(a4)
1000f344:	fef6d6e3          	bge	a3,a5,1000f330 <__multf3+0xb70>
1000f348:	fff78713          	addi	a4,a5,-1
1000f34c:	f5dff06f          	j	1000f2a8 <__multf3+0xae8>
1000f350:	00072583          	lw	a1,0(a4)
1000f354:	ffc72883          	lw	a7,-4(a4)
1000f358:	00c70e33          	add	t3,a4,a2
1000f35c:	00d595b3          	sll	a1,a1,a3
1000f360:	0108d8b3          	srl	a7,a7,a6
1000f364:	0115e5b3          	or	a1,a1,a7
1000f368:	00be2023          	sw	a1,0(t3)
1000f36c:	ffc70713          	addi	a4,a4,-4
1000f370:	f15ff06f          	j	1000f284 <__multf3+0xac4>
1000f374:	01696933          	or	s2,s2,s6
1000f378:	01596933          	or	s2,s2,s5
1000f37c:	00a96933          	or	s2,s2,a0
1000f380:	00200693          	li	a3,2
1000f384:	da090c63          	beqz	s2,1000e93c <__multf3+0x17c>
1000f388:	00300693          	li	a3,3
1000f38c:	db0ff06f          	j	1000e93c <__multf3+0x17c>
1000f390:	00000793          	li	a5,0
1000f394:	00100693          	li	a3,1
1000f398:	da4ff06f          	j	1000e93c <__multf3+0x17c>
1000f39c:	00100713          	li	a4,1
1000f3a0:	00f717b3          	sll	a5,a4,a5
1000f3a4:	5307f713          	andi	a4,a5,1328
1000f3a8:	06071863          	bnez	a4,1000f418 <__multf3+0xc58>
1000f3ac:	0887f713          	andi	a4,a5,136
1000f3b0:	04071063          	bnez	a4,1000f3f0 <__multf3+0xc30>
1000f3b4:	2407f793          	andi	a5,a5,576
1000f3b8:	dc078063          	beqz	a5,1000e978 <__multf3+0x1b8>
1000f3bc:	000087b7          	lui	a5,0x8
1000f3c0:	04f12623          	sw	a5,76(sp)
1000f3c4:	04012423          	sw	zero,72(sp)
1000f3c8:	04012223          	sw	zero,68(sp)
1000f3cc:	04012023          	sw	zero,64(sp)
1000f3d0:	fff78793          	addi	a5,a5,-1 # 7fff <__heap_size+0x6fff>
1000f3d4:	00012223          	sw	zero,4(sp)
1000f3d8:	1440006f          	j	1000f51c <__multf3+0xd5c>
1000f3dc:	00f00713          	li	a4,15
1000f3e0:	fce78ee3          	beq	a5,a4,1000f3bc <__multf3+0xbfc>
1000f3e4:	00b00713          	li	a4,11
1000f3e8:	01412223          	sw	s4,4(sp)
1000f3ec:	02e79663          	bne	a5,a4,1000f418 <__multf3+0xc58>
1000f3f0:	01312223          	sw	s3,4(sp)
1000f3f4:	03012783          	lw	a5,48(sp)
1000f3f8:	00068b93          	mv	s7,a3
1000f3fc:	04f12023          	sw	a5,64(sp)
1000f400:	03412783          	lw	a5,52(sp)
1000f404:	04f12223          	sw	a5,68(sp)
1000f408:	03812783          	lw	a5,56(sp)
1000f40c:	04f12423          	sw	a5,72(sp)
1000f410:	03c12783          	lw	a5,60(sp)
1000f414:	0200006f          	j	1000f434 <__multf3+0xc74>
1000f418:	02012783          	lw	a5,32(sp)
1000f41c:	04f12023          	sw	a5,64(sp)
1000f420:	02412783          	lw	a5,36(sp)
1000f424:	04f12223          	sw	a5,68(sp)
1000f428:	02812783          	lw	a5,40(sp)
1000f42c:	04f12423          	sw	a5,72(sp)
1000f430:	02c12783          	lw	a5,44(sp)
1000f434:	04f12623          	sw	a5,76(sp)
1000f438:	00200793          	li	a5,2
1000f43c:	36fb8663          	beq	s7,a5,1000f7a8 <__multf3+0xfe8>
1000f440:	00300793          	li	a5,3
1000f444:	f6fb8ce3          	beq	s7,a5,1000f3bc <__multf3+0xbfc>
1000f448:	00100793          	li	a5,1
1000f44c:	34fb8463          	beq	s7,a5,1000f794 <__multf3+0xfd4>
1000f450:	00812703          	lw	a4,8(sp)
1000f454:	000047b7          	lui	a5,0x4
1000f458:	fff78793          	addi	a5,a5,-1 # 3fff <__heap_size+0x2fff>
1000f45c:	00f707b3          	add	a5,a4,a5
1000f460:	12f05a63          	blez	a5,1000f594 <__multf3+0xdd4>
1000f464:	04012703          	lw	a4,64(sp)
1000f468:	00777693          	andi	a3,a4,7
1000f46c:	04068463          	beqz	a3,1000f4b4 <__multf3+0xcf4>
1000f470:	00f77693          	andi	a3,a4,15
1000f474:	00400613          	li	a2,4
1000f478:	02c68e63          	beq	a3,a2,1000f4b4 <__multf3+0xcf4>
1000f47c:	00470713          	addi	a4,a4,4
1000f480:	00473693          	sltiu	a3,a4,4
1000f484:	04e12023          	sw	a4,64(sp)
1000f488:	04412703          	lw	a4,68(sp)
1000f48c:	00e68733          	add	a4,a3,a4
1000f490:	04e12223          	sw	a4,68(sp)
1000f494:	00d73733          	sltu	a4,a4,a3
1000f498:	04812683          	lw	a3,72(sp)
1000f49c:	00e68733          	add	a4,a3,a4
1000f4a0:	04e12423          	sw	a4,72(sp)
1000f4a4:	00d73733          	sltu	a4,a4,a3
1000f4a8:	04c12683          	lw	a3,76(sp)
1000f4ac:	00d70733          	add	a4,a4,a3
1000f4b0:	04e12623          	sw	a4,76(sp)
1000f4b4:	04c12703          	lw	a4,76(sp)
1000f4b8:	00b71693          	slli	a3,a4,0xb
1000f4bc:	0206d063          	bgez	a3,1000f4dc <__multf3+0xd1c>
1000f4c0:	fff007b7          	lui	a5,0xfff00
1000f4c4:	fff78793          	addi	a5,a5,-1 # ffefffff <_sp+0xefee2923>
1000f4c8:	00f77733          	and	a4,a4,a5
1000f4cc:	04e12623          	sw	a4,76(sp)
1000f4d0:	00812703          	lw	a4,8(sp)
1000f4d4:	000047b7          	lui	a5,0x4
1000f4d8:	00f707b3          	add	a5,a4,a5
1000f4dc:	04010713          	addi	a4,sp,64
1000f4e0:	04c10593          	addi	a1,sp,76
1000f4e4:	00072683          	lw	a3,0(a4)
1000f4e8:	00472603          	lw	a2,4(a4)
1000f4ec:	00470713          	addi	a4,a4,4
1000f4f0:	0036d693          	srli	a3,a3,0x3
1000f4f4:	01d61613          	slli	a2,a2,0x1d
1000f4f8:	00c6e6b3          	or	a3,a3,a2
1000f4fc:	fed72e23          	sw	a3,-4(a4)
1000f500:	fee592e3          	bne	a1,a4,1000f4e4 <__multf3+0xd24>
1000f504:	000086b7          	lui	a3,0x8
1000f508:	ffe68693          	addi	a3,a3,-2 # 7ffe <__heap_size+0x6ffe>
1000f50c:	04c12703          	lw	a4,76(sp)
1000f510:	28f6cc63          	blt	a3,a5,1000f7a8 <__multf3+0xfe8>
1000f514:	00375713          	srli	a4,a4,0x3
1000f518:	04e12623          	sw	a4,76(sp)
1000f51c:	04c12703          	lw	a4,76(sp)
1000f520:	0ac12083          	lw	ra,172(sp)
1000f524:	00040513          	mv	a0,s0
1000f528:	04e11e23          	sh	a4,92(sp)
1000f52c:	00412703          	lw	a4,4(sp)
1000f530:	0a412483          	lw	s1,164(sp)
1000f534:	0a012903          	lw	s2,160(sp)
1000f538:	00f71713          	slli	a4,a4,0xf
1000f53c:	00f767b3          	or	a5,a4,a5
1000f540:	04f11f23          	sh	a5,94(sp)
1000f544:	04012783          	lw	a5,64(sp)
1000f548:	09c12983          	lw	s3,156(sp)
1000f54c:	09812a03          	lw	s4,152(sp)
1000f550:	00f42023          	sw	a5,0(s0)
1000f554:	04412783          	lw	a5,68(sp)
1000f558:	09412a83          	lw	s5,148(sp)
1000f55c:	09012b03          	lw	s6,144(sp)
1000f560:	00f42223          	sw	a5,4(s0)
1000f564:	04812783          	lw	a5,72(sp)
1000f568:	08c12b83          	lw	s7,140(sp)
1000f56c:	08812c03          	lw	s8,136(sp)
1000f570:	00f42423          	sw	a5,8(s0)
1000f574:	05c12783          	lw	a5,92(sp)
1000f578:	08412c83          	lw	s9,132(sp)
1000f57c:	08012d03          	lw	s10,128(sp)
1000f580:	00f42623          	sw	a5,12(s0)
1000f584:	0a812403          	lw	s0,168(sp)
1000f588:	07c12d83          	lw	s11,124(sp)
1000f58c:	0b010113          	addi	sp,sp,176
1000f590:	00008067          	ret
1000f594:	00100693          	li	a3,1
1000f598:	40f686b3          	sub	a3,a3,a5
1000f59c:	07400793          	li	a5,116
1000f5a0:	1cd7ca63          	blt	a5,a3,1000f774 <__multf3+0xfb4>
1000f5a4:	04010613          	addi	a2,sp,64
1000f5a8:	4056d713          	srai	a4,a3,0x5
1000f5ac:	00060513          	mv	a0,a2
1000f5b0:	01f6f693          	andi	a3,a3,31
1000f5b4:	00000793          	li	a5,0
1000f5b8:	00000593          	li	a1,0
1000f5bc:	02e59e63          	bne	a1,a4,1000f5f8 <__multf3+0xe38>
1000f5c0:	00300593          	li	a1,3
1000f5c4:	40e585b3          	sub	a1,a1,a4
1000f5c8:	00271513          	slli	a0,a4,0x2
1000f5cc:	04069063          	bnez	a3,1000f60c <__multf3+0xe4c>
1000f5d0:	00060813          	mv	a6,a2
1000f5d4:	00a808b3          	add	a7,a6,a0
1000f5d8:	0008a883          	lw	a7,0(a7) # 10000 <__heap_size+0xf000>
1000f5dc:	00168693          	addi	a3,a3,1
1000f5e0:	00480813          	addi	a6,a6,4
1000f5e4:	ff182e23          	sw	a7,-4(a6)
1000f5e8:	fed5d6e3          	bge	a1,a3,1000f5d4 <__multf3+0xe14>
1000f5ec:	00400693          	li	a3,4
1000f5f0:	40e68733          	sub	a4,a3,a4
1000f5f4:	06c0006f          	j	1000f660 <__multf3+0xea0>
1000f5f8:	00052803          	lw	a6,0(a0)
1000f5fc:	00158593          	addi	a1,a1,1
1000f600:	00450513          	addi	a0,a0,4
1000f604:	0107e7b3          	or	a5,a5,a6
1000f608:	fb5ff06f          	j	1000f5bc <__multf3+0xdfc>
1000f60c:	05050813          	addi	a6,a0,80
1000f610:	02010893          	addi	a7,sp,32
1000f614:	01180833          	add	a6,a6,a7
1000f618:	fd082803          	lw	a6,-48(a6)
1000f61c:	02000313          	li	t1,32
1000f620:	40d30333          	sub	t1,t1,a3
1000f624:	00681833          	sll	a6,a6,t1
1000f628:	0107e7b3          	or	a5,a5,a6
1000f62c:	00000e13          	li	t3,0
1000f630:	00a60833          	add	a6,a2,a0
1000f634:	40a00533          	neg	a0,a0
1000f638:	0ebe4063          	blt	t3,a1,1000f718 <__multf3+0xf58>
1000f63c:	00400513          	li	a0,4
1000f640:	00259593          	slli	a1,a1,0x2
1000f644:	40e50733          	sub	a4,a0,a4
1000f648:	05058593          	addi	a1,a1,80
1000f64c:	02010513          	addi	a0,sp,32
1000f650:	00a585b3          	add	a1,a1,a0
1000f654:	04c12503          	lw	a0,76(sp)
1000f658:	00d556b3          	srl	a3,a0,a3
1000f65c:	fcd5a823          	sw	a3,-48(a1)
1000f660:	00400693          	li	a3,4
1000f664:	40e686b3          	sub	a3,a3,a4
1000f668:	00269693          	slli	a3,a3,0x2
1000f66c:	00271713          	slli	a4,a4,0x2
1000f670:	00800593          	li	a1,8
1000f674:	00e60733          	add	a4,a2,a4
1000f678:	00b6ea63          	bltu	a3,a1,1000f68c <__multf3+0xecc>
1000f67c:	00072023          	sw	zero,0(a4)
1000f680:	00072223          	sw	zero,4(a4)
1000f684:	ff868693          	addi	a3,a3,-8
1000f688:	00870713          	addi	a4,a4,8
1000f68c:	00400593          	li	a1,4
1000f690:	00b6e463          	bltu	a3,a1,1000f698 <__multf3+0xed8>
1000f694:	00072023          	sw	zero,0(a4)
1000f698:	04012703          	lw	a4,64(sp)
1000f69c:	00f037b3          	snez	a5,a5
1000f6a0:	00e7e7b3          	or	a5,a5,a4
1000f6a4:	04f12023          	sw	a5,64(sp)
1000f6a8:	0077f713          	andi	a4,a5,7
1000f6ac:	04070463          	beqz	a4,1000f6f4 <__multf3+0xf34>
1000f6b0:	00f7f713          	andi	a4,a5,15
1000f6b4:	00400693          	li	a3,4
1000f6b8:	02d70e63          	beq	a4,a3,1000f6f4 <__multf3+0xf34>
1000f6bc:	04412703          	lw	a4,68(sp)
1000f6c0:	00478793          	addi	a5,a5,4 # 4004 <__heap_size+0x3004>
1000f6c4:	04f12023          	sw	a5,64(sp)
1000f6c8:	0047b793          	sltiu	a5,a5,4
1000f6cc:	00f707b3          	add	a5,a4,a5
1000f6d0:	04f12223          	sw	a5,68(sp)
1000f6d4:	00e7b7b3          	sltu	a5,a5,a4
1000f6d8:	04812703          	lw	a4,72(sp)
1000f6dc:	00f707b3          	add	a5,a4,a5
1000f6e0:	04f12423          	sw	a5,72(sp)
1000f6e4:	00e7b7b3          	sltu	a5,a5,a4
1000f6e8:	04c12703          	lw	a4,76(sp)
1000f6ec:	00e787b3          	add	a5,a5,a4
1000f6f0:	04f12623          	sw	a5,76(sp)
1000f6f4:	04c12703          	lw	a4,76(sp)
1000f6f8:	00c71793          	slli	a5,a4,0xc
1000f6fc:	0407d263          	bgez	a5,1000f740 <__multf3+0xf80>
1000f700:	04012623          	sw	zero,76(sp)
1000f704:	04012423          	sw	zero,72(sp)
1000f708:	04012223          	sw	zero,68(sp)
1000f70c:	04012023          	sw	zero,64(sp)
1000f710:	00100793          	li	a5,1
1000f714:	e09ff06f          	j	1000f51c <__multf3+0xd5c>
1000f718:	00082883          	lw	a7,0(a6)
1000f71c:	00482e83          	lw	t4,4(a6)
1000f720:	00a80f33          	add	t5,a6,a0
1000f724:	00d8d8b3          	srl	a7,a7,a3
1000f728:	006e9eb3          	sll	t4,t4,t1
1000f72c:	01d8e8b3          	or	a7,a7,t4
1000f730:	011f2023          	sw	a7,0(t5)
1000f734:	001e0e13          	addi	t3,t3,1
1000f738:	00480813          	addi	a6,a6,4
1000f73c:	efdff06f          	j	1000f638 <__multf3+0xe78>
1000f740:	00c60593          	addi	a1,a2,12
1000f744:	00062783          	lw	a5,0(a2)
1000f748:	00462683          	lw	a3,4(a2)
1000f74c:	00460613          	addi	a2,a2,4
1000f750:	0037d793          	srli	a5,a5,0x3
1000f754:	01d69693          	slli	a3,a3,0x1d
1000f758:	00d7e7b3          	or	a5,a5,a3
1000f75c:	fef62e23          	sw	a5,-4(a2)
1000f760:	fec592e3          	bne	a1,a2,1000f744 <__multf3+0xf84>
1000f764:	00375713          	srli	a4,a4,0x3
1000f768:	04e12623          	sw	a4,76(sp)
1000f76c:	00000793          	li	a5,0
1000f770:	dadff06f          	j	1000f51c <__multf3+0xd5c>
1000f774:	04412703          	lw	a4,68(sp)
1000f778:	04012783          	lw	a5,64(sp)
1000f77c:	00e7e7b3          	or	a5,a5,a4
1000f780:	04812703          	lw	a4,72(sp)
1000f784:	00e7e7b3          	or	a5,a5,a4
1000f788:	04c12703          	lw	a4,76(sp)
1000f78c:	00e7e7b3          	or	a5,a5,a4
1000f790:	fc078ee3          	beqz	a5,1000f76c <__multf3+0xfac>
1000f794:	04012623          	sw	zero,76(sp)
1000f798:	04012423          	sw	zero,72(sp)
1000f79c:	04012223          	sw	zero,68(sp)
1000f7a0:	04012023          	sw	zero,64(sp)
1000f7a4:	fc9ff06f          	j	1000f76c <__multf3+0xfac>
1000f7a8:	000087b7          	lui	a5,0x8
1000f7ac:	04012623          	sw	zero,76(sp)
1000f7b0:	04012423          	sw	zero,72(sp)
1000f7b4:	04012223          	sw	zero,68(sp)
1000f7b8:	04012023          	sw	zero,64(sp)
1000f7bc:	fff78793          	addi	a5,a5,-1 # 7fff <__heap_size+0x6fff>
1000f7c0:	d5dff06f          	j	1000f51c <__multf3+0xd5c>

1000f7c4 <__subtf3>:
1000f7c4:	f9010113          	addi	sp,sp,-112
1000f7c8:	0085a703          	lw	a4,8(a1)
1000f7cc:	05512a23          	sw	s5,84(sp)
1000f7d0:	00c5aa83          	lw	s5,12(a1)
1000f7d4:	0005a783          	lw	a5,0(a1)
1000f7d8:	0045a683          	lw	a3,4(a1)
1000f7dc:	02e12c23          	sw	a4,56(sp)
1000f7e0:	00e12c23          	sw	a4,24(sp)
1000f7e4:	010a9713          	slli	a4,s5,0x10
1000f7e8:	06912223          	sw	s1,100(sp)
1000f7ec:	01075713          	srli	a4,a4,0x10
1000f7f0:	001a9493          	slli	s1,s5,0x1
1000f7f4:	00462803          	lw	a6,4(a2)
1000f7f8:	00862583          	lw	a1,8(a2)
1000f7fc:	06812423          	sw	s0,104(sp)
1000f800:	07212023          	sw	s2,96(sp)
1000f804:	00062403          	lw	s0,0(a2)
1000f808:	00c62903          	lw	s2,12(a2)
1000f80c:	05412c23          	sw	s4,88(sp)
1000f810:	03512e23          	sw	s5,60(sp)
1000f814:	00050a13          	mv	s4,a0
1000f818:	06112623          	sw	ra,108(sp)
1000f81c:	05312e23          	sw	s3,92(sp)
1000f820:	05612823          	sw	s6,80(sp)
1000f824:	05712623          	sw	s7,76(sp)
1000f828:	05812423          	sw	s8,72(sp)
1000f82c:	02f12823          	sw	a5,48(sp)
1000f830:	02d12a23          	sw	a3,52(sp)
1000f834:	00f12823          	sw	a5,16(sp)
1000f838:	00d12a23          	sw	a3,20(sp)
1000f83c:	00e12e23          	sw	a4,28(sp)
1000f840:	0114d493          	srli	s1,s1,0x11
1000f844:	01fada93          	srli	s5,s5,0x1f
1000f848:	01010513          	addi	a0,sp,16
1000f84c:	01c10613          	addi	a2,sp,28
1000f850:	00062703          	lw	a4,0(a2)
1000f854:	ffc62683          	lw	a3,-4(a2)
1000f858:	ffc60613          	addi	a2,a2,-4
1000f85c:	00371713          	slli	a4,a4,0x3
1000f860:	01d6d693          	srli	a3,a3,0x1d
1000f864:	00d76733          	or	a4,a4,a3
1000f868:	00e62223          	sw	a4,4(a2)
1000f86c:	fec512e3          	bne	a0,a2,1000f850 <__subtf3+0x8c>
1000f870:	01091713          	slli	a4,s2,0x10
1000f874:	00191b93          	slli	s7,s2,0x1
1000f878:	00379793          	slli	a5,a5,0x3
1000f87c:	01075713          	srli	a4,a4,0x10
1000f880:	03012a23          	sw	a6,52(sp)
1000f884:	03212e23          	sw	s2,60(sp)
1000f888:	03012223          	sw	a6,36(sp)
1000f88c:	00f12823          	sw	a5,16(sp)
1000f890:	02812823          	sw	s0,48(sp)
1000f894:	02b12c23          	sw	a1,56(sp)
1000f898:	02812023          	sw	s0,32(sp)
1000f89c:	02b12423          	sw	a1,40(sp)
1000f8a0:	02e12623          	sw	a4,44(sp)
1000f8a4:	011bdb93          	srli	s7,s7,0x11
1000f8a8:	01f95913          	srli	s2,s2,0x1f
1000f8ac:	02010813          	addi	a6,sp,32
1000f8b0:	02c10313          	addi	t1,sp,44
1000f8b4:	00032703          	lw	a4,0(t1)
1000f8b8:	ffc32683          	lw	a3,-4(t1)
1000f8bc:	ffc30313          	addi	t1,t1,-4
1000f8c0:	00371713          	slli	a4,a4,0x3
1000f8c4:	01d6d693          	srli	a3,a3,0x1d
1000f8c8:	00d76733          	or	a4,a4,a3
1000f8cc:	00e32223          	sw	a4,4(t1)
1000f8d0:	fe6812e3          	bne	a6,t1,1000f8b4 <__subtf3+0xf0>
1000f8d4:	00341413          	slli	s0,s0,0x3
1000f8d8:	00008737          	lui	a4,0x8
1000f8dc:	02812023          	sw	s0,32(sp)
1000f8e0:	fff70713          	addi	a4,a4,-1 # 7fff <__heap_size+0x6fff>
1000f8e4:	02eb9063          	bne	s7,a4,1000f904 <__subtf3+0x140>
1000f8e8:	02812683          	lw	a3,40(sp)
1000f8ec:	02412703          	lw	a4,36(sp)
1000f8f0:	00d76733          	or	a4,a4,a3
1000f8f4:	02c12683          	lw	a3,44(sp)
1000f8f8:	00d76733          	or	a4,a4,a3
1000f8fc:	00876733          	or	a4,a4,s0
1000f900:	00071463          	bnez	a4,1000f908 <__subtf3+0x144>
1000f904:	00194913          	xori	s2,s2,1
1000f908:	417488b3          	sub	a7,s1,s7
1000f90c:	095916e3          	bne	s2,s5,10010198 <__subtf3+0x9d4>
1000f910:	45105263          	blez	a7,1000fd54 <__subtf3+0x590>
1000f914:	01412903          	lw	s2,20(sp)
1000f918:	01812983          	lw	s3,24(sp)
1000f91c:	01c12b03          	lw	s6,28(sp)
1000f920:	0a0b9263          	bnez	s7,1000f9c4 <__subtf3+0x200>
1000f924:	02412683          	lw	a3,36(sp)
1000f928:	02812703          	lw	a4,40(sp)
1000f92c:	02c12583          	lw	a1,44(sp)
1000f930:	00e6e633          	or	a2,a3,a4
1000f934:	00b66633          	or	a2,a2,a1
1000f938:	00866633          	or	a2,a2,s0
1000f93c:	00061e63          	bnez	a2,1000f958 <__subtf3+0x194>
1000f940:	02f12823          	sw	a5,48(sp)
1000f944:	03212a23          	sw	s2,52(sp)
1000f948:	03312c23          	sw	s3,56(sp)
1000f94c:	03612e23          	sw	s6,60(sp)
1000f950:	00088493          	mv	s1,a7
1000f954:	08c0006f          	j	1000f9e0 <__subtf3+0x21c>
1000f958:	fff88613          	addi	a2,a7,-1
1000f95c:	04061863          	bnez	a2,1000f9ac <__subtf3+0x1e8>
1000f960:	00878433          	add	s0,a5,s0
1000f964:	01268933          	add	s2,a3,s2
1000f968:	02812823          	sw	s0,48(sp)
1000f96c:	00f43433          	sltu	s0,s0,a5
1000f970:	00890433          	add	s0,s2,s0
1000f974:	02812a23          	sw	s0,52(sp)
1000f978:	00d936b3          	sltu	a3,s2,a3
1000f97c:	01243433          	sltu	s0,s0,s2
1000f980:	013709b3          	add	s3,a4,s3
1000f984:	0086e6b3          	or	a3,a3,s0
1000f988:	00d986b3          	add	a3,s3,a3
1000f98c:	02d12c23          	sw	a3,56(sp)
1000f990:	00e9b7b3          	sltu	a5,s3,a4
1000f994:	0136b6b3          	sltu	a3,a3,s3
1000f998:	00d7e7b3          	or	a5,a5,a3
1000f99c:	016585b3          	add	a1,a1,s6
1000f9a0:	00b787b3          	add	a5,a5,a1
1000f9a4:	00100493          	li	s1,1
1000f9a8:	2fc0006f          	j	1000fca4 <__subtf3+0x4e0>
1000f9ac:	00008737          	lui	a4,0x8
1000f9b0:	fff70713          	addi	a4,a4,-1 # 7fff <__heap_size+0x6fff>
1000f9b4:	00e88463          	beq	a7,a4,1000f9bc <__subtf3+0x1f8>
1000f9b8:	2500106f          	j	10010c08 <__subtf3+0x1444>
1000f9bc:	02f12823          	sw	a5,48(sp)
1000f9c0:	4400006f          	j	1000fe00 <__subtf3+0x63c>
1000f9c4:	00008737          	lui	a4,0x8
1000f9c8:	fff70713          	addi	a4,a4,-1 # 7fff <__heap_size+0x6fff>
1000f9cc:	16e49a63          	bne	s1,a4,1000fb40 <__subtf3+0x37c>
1000f9d0:	02f12823          	sw	a5,48(sp)
1000f9d4:	03212a23          	sw	s2,52(sp)
1000f9d8:	03312c23          	sw	s3,56(sp)
1000f9dc:	03612e23          	sw	s6,60(sp)
1000f9e0:	03012783          	lw	a5,48(sp)
1000f9e4:	0077f713          	andi	a4,a5,7
1000f9e8:	04070463          	beqz	a4,1000fa30 <__subtf3+0x26c>
1000f9ec:	00f7f713          	andi	a4,a5,15
1000f9f0:	00400693          	li	a3,4
1000f9f4:	02d70e63          	beq	a4,a3,1000fa30 <__subtf3+0x26c>
1000f9f8:	03412703          	lw	a4,52(sp)
1000f9fc:	00478793          	addi	a5,a5,4
1000fa00:	02f12823          	sw	a5,48(sp)
1000fa04:	0047b793          	sltiu	a5,a5,4
1000fa08:	00f707b3          	add	a5,a4,a5
1000fa0c:	02f12a23          	sw	a5,52(sp)
1000fa10:	00e7b7b3          	sltu	a5,a5,a4
1000fa14:	03812703          	lw	a4,56(sp)
1000fa18:	00f707b3          	add	a5,a4,a5
1000fa1c:	02f12c23          	sw	a5,56(sp)
1000fa20:	00e7b7b3          	sltu	a5,a5,a4
1000fa24:	03c12703          	lw	a4,60(sp)
1000fa28:	00e787b3          	add	a5,a5,a4
1000fa2c:	02f12e23          	sw	a5,60(sp)
1000fa30:	03c12783          	lw	a5,60(sp)
1000fa34:	00c79713          	slli	a4,a5,0xc
1000fa38:	02075463          	bgez	a4,1000fa60 <__subtf3+0x29c>
1000fa3c:	00008737          	lui	a4,0x8
1000fa40:	00148493          	addi	s1,s1,1
1000fa44:	fff70713          	addi	a4,a4,-1 # 7fff <__heap_size+0x6fff>
1000fa48:	00e49463          	bne	s1,a4,1000fa50 <__subtf3+0x28c>
1000fa4c:	1a80106f          	j	10010bf4 <__subtf3+0x1430>
1000fa50:	fff80737          	lui	a4,0xfff80
1000fa54:	fff70713          	addi	a4,a4,-1 # fff7ffff <_sp+0xeff62923>
1000fa58:	00e7f7b3          	and	a5,a5,a4
1000fa5c:	02f12e23          	sw	a5,60(sp)
1000fa60:	03010793          	addi	a5,sp,48
1000fa64:	03c10613          	addi	a2,sp,60
1000fa68:	0007a703          	lw	a4,0(a5)
1000fa6c:	0047a683          	lw	a3,4(a5)
1000fa70:	00478793          	addi	a5,a5,4
1000fa74:	00375713          	srli	a4,a4,0x3
1000fa78:	01d69693          	slli	a3,a3,0x1d
1000fa7c:	00d76733          	or	a4,a4,a3
1000fa80:	fee7ae23          	sw	a4,-4(a5)
1000fa84:	fec792e3          	bne	a5,a2,1000fa68 <__subtf3+0x2a4>
1000fa88:	03c12703          	lw	a4,60(sp)
1000fa8c:	000086b7          	lui	a3,0x8
1000fa90:	fff68793          	addi	a5,a3,-1 # 7fff <__heap_size+0x6fff>
1000fa94:	00375713          	srli	a4,a4,0x3
1000fa98:	02e12e23          	sw	a4,60(sp)
1000fa9c:	02f49a63          	bne	s1,a5,1000fad0 <__subtf3+0x30c>
1000faa0:	03412603          	lw	a2,52(sp)
1000faa4:	03012783          	lw	a5,48(sp)
1000faa8:	00c7e7b3          	or	a5,a5,a2
1000faac:	03812603          	lw	a2,56(sp)
1000fab0:	00c7e7b3          	or	a5,a5,a2
1000fab4:	00e7e7b3          	or	a5,a5,a4
1000fab8:	00078c63          	beqz	a5,1000fad0 <__subtf3+0x30c>
1000fabc:	02d12e23          	sw	a3,60(sp)
1000fac0:	02012c23          	sw	zero,56(sp)
1000fac4:	02012a23          	sw	zero,52(sp)
1000fac8:	02012823          	sw	zero,48(sp)
1000facc:	00000a93          	li	s5,0
1000fad0:	03c12783          	lw	a5,60(sp)
1000fad4:	01149493          	slli	s1,s1,0x11
1000fad8:	0114d493          	srli	s1,s1,0x11
1000fadc:	00f11623          	sh	a5,12(sp)
1000fae0:	03012783          	lw	a5,48(sp)
1000fae4:	00fa9a93          	slli	s5,s5,0xf
1000fae8:	009aeab3          	or	s5,s5,s1
1000faec:	00fa2023          	sw	a5,0(s4)
1000faf0:	03412783          	lw	a5,52(sp)
1000faf4:	01511723          	sh	s5,14(sp)
1000faf8:	06c12083          	lw	ra,108(sp)
1000fafc:	00fa2223          	sw	a5,4(s4)
1000fb00:	03812783          	lw	a5,56(sp)
1000fb04:	06812403          	lw	s0,104(sp)
1000fb08:	06412483          	lw	s1,100(sp)
1000fb0c:	00fa2423          	sw	a5,8(s4)
1000fb10:	00c12783          	lw	a5,12(sp)
1000fb14:	06012903          	lw	s2,96(sp)
1000fb18:	05c12983          	lw	s3,92(sp)
1000fb1c:	00fa2623          	sw	a5,12(s4)
1000fb20:	05412a83          	lw	s5,84(sp)
1000fb24:	05012b03          	lw	s6,80(sp)
1000fb28:	04c12b83          	lw	s7,76(sp)
1000fb2c:	04812c03          	lw	s8,72(sp)
1000fb30:	000a0513          	mv	a0,s4
1000fb34:	05812a03          	lw	s4,88(sp)
1000fb38:	07010113          	addi	sp,sp,112
1000fb3c:	00008067          	ret
1000fb40:	02c12703          	lw	a4,44(sp)
1000fb44:	000806b7          	lui	a3,0x80
1000fb48:	00d76733          	or	a4,a4,a3
1000fb4c:	02e12623          	sw	a4,44(sp)
1000fb50:	07400713          	li	a4,116
1000fb54:	01175463          	bge	a4,a7,1000fb5c <__subtf3+0x398>
1000fb58:	0bc0106f          	j	10010c14 <__subtf3+0x1450>
1000fb5c:	00088613          	mv	a2,a7
1000fb60:	40565693          	srai	a3,a2,0x5
1000fb64:	00030513          	mv	a0,t1
1000fb68:	01f67613          	andi	a2,a2,31
1000fb6c:	00000713          	li	a4,0
1000fb70:	00000593          	li	a1,0
1000fb74:	02d59c63          	bne	a1,a3,1000fbac <__subtf3+0x3e8>
1000fb78:	00300593          	li	a1,3
1000fb7c:	40d585b3          	sub	a1,a1,a3
1000fb80:	00269513          	slli	a0,a3,0x2
1000fb84:	02061e63          	bnez	a2,1000fbc0 <__subtf3+0x3fc>
1000fb88:	00a308b3          	add	a7,t1,a0
1000fb8c:	0008a883          	lw	a7,0(a7)
1000fb90:	00160613          	addi	a2,a2,1
1000fb94:	00430313          	addi	t1,t1,4
1000fb98:	ff132e23          	sw	a7,-4(t1)
1000fb9c:	fec5d6e3          	bge	a1,a2,1000fb88 <__subtf3+0x3c4>
1000fba0:	00400613          	li	a2,4
1000fba4:	40d606b3          	sub	a3,a2,a3
1000fba8:	0640006f          	j	1000fc0c <__subtf3+0x448>
1000fbac:	00052883          	lw	a7,0(a0)
1000fbb0:	00158593          	addi	a1,a1,1
1000fbb4:	00450513          	addi	a0,a0,4
1000fbb8:	01176733          	or	a4,a4,a7
1000fbbc:	fb9ff06f          	j	1000fb74 <__subtf3+0x3b0>
1000fbc0:	04050893          	addi	a7,a0,64
1000fbc4:	002888b3          	add	a7,a7,sp
1000fbc8:	fe08a883          	lw	a7,-32(a7)
1000fbcc:	02000e13          	li	t3,32
1000fbd0:	40ce0e33          	sub	t3,t3,a2
1000fbd4:	01c898b3          	sll	a7,a7,t3
1000fbd8:	01176733          	or	a4,a4,a7
1000fbdc:	00000e93          	li	t4,0
1000fbe0:	00a808b3          	add	a7,a6,a0
1000fbe4:	40a00533          	neg	a0,a0
1000fbe8:	14bec263          	blt	t4,a1,1000fd2c <__subtf3+0x568>
1000fbec:	00400513          	li	a0,4
1000fbf0:	40d506b3          	sub	a3,a0,a3
1000fbf4:	02c12503          	lw	a0,44(sp)
1000fbf8:	00259593          	slli	a1,a1,0x2
1000fbfc:	04058593          	addi	a1,a1,64
1000fc00:	002585b3          	add	a1,a1,sp
1000fc04:	00c55633          	srl	a2,a0,a2
1000fc08:	fec5a023          	sw	a2,-32(a1)
1000fc0c:	00400613          	li	a2,4
1000fc10:	40d60633          	sub	a2,a2,a3
1000fc14:	00261613          	slli	a2,a2,0x2
1000fc18:	00269693          	slli	a3,a3,0x2
1000fc1c:	00800593          	li	a1,8
1000fc20:	00d806b3          	add	a3,a6,a3
1000fc24:	00b66a63          	bltu	a2,a1,1000fc38 <__subtf3+0x474>
1000fc28:	0006a023          	sw	zero,0(a3) # 80000 <__heap_size+0x7f000>
1000fc2c:	0006a223          	sw	zero,4(a3)
1000fc30:	ff860613          	addi	a2,a2,-8
1000fc34:	00868693          	addi	a3,a3,8
1000fc38:	00400593          	li	a1,4
1000fc3c:	00b66463          	bltu	a2,a1,1000fc44 <__subtf3+0x480>
1000fc40:	0006a023          	sw	zero,0(a3)
1000fc44:	02012683          	lw	a3,32(sp)
1000fc48:	00e03733          	snez	a4,a4
1000fc4c:	00d76733          	or	a4,a4,a3
1000fc50:	02412683          	lw	a3,36(sp)
1000fc54:	02e12023          	sw	a4,32(sp)
1000fc58:	00e78733          	add	a4,a5,a4
1000fc5c:	01268933          	add	s2,a3,s2
1000fc60:	02e12823          	sw	a4,48(sp)
1000fc64:	00f73733          	sltu	a4,a4,a5
1000fc68:	02812783          	lw	a5,40(sp)
1000fc6c:	00e90733          	add	a4,s2,a4
1000fc70:	02e12a23          	sw	a4,52(sp)
1000fc74:	00d936b3          	sltu	a3,s2,a3
1000fc78:	01273733          	sltu	a4,a4,s2
1000fc7c:	013789b3          	add	s3,a5,s3
1000fc80:	00e6e733          	or	a4,a3,a4
1000fc84:	00e98733          	add	a4,s3,a4
1000fc88:	02e12c23          	sw	a4,56(sp)
1000fc8c:	00f9b7b3          	sltu	a5,s3,a5
1000fc90:	01373733          	sltu	a4,a4,s3
1000fc94:	00e7e7b3          	or	a5,a5,a4
1000fc98:	02c12703          	lw	a4,44(sp)
1000fc9c:	00eb0733          	add	a4,s6,a4
1000fca0:	00e787b3          	add	a5,a5,a4
1000fca4:	02f12e23          	sw	a5,60(sp)
1000fca8:	00c79713          	slli	a4,a5,0xc
1000fcac:	d2075ae3          	bgez	a4,1000f9e0 <__subtf3+0x21c>
1000fcb0:	03012683          	lw	a3,48(sp)
1000fcb4:	fff80737          	lui	a4,0xfff80
1000fcb8:	fff70713          	addi	a4,a4,-1 # fff7ffff <_sp+0xeff62923>
1000fcbc:	00e7f7b3          	and	a5,a5,a4
1000fcc0:	02f12e23          	sw	a5,60(sp)
1000fcc4:	00148493          	addi	s1,s1,1
1000fcc8:	01f69693          	slli	a3,a3,0x1f
1000fccc:	03010713          	addi	a4,sp,48
1000fcd0:	03c10513          	addi	a0,sp,60
1000fcd4:	00072603          	lw	a2,0(a4)
1000fcd8:	00472583          	lw	a1,4(a4)
1000fcdc:	00470713          	addi	a4,a4,4
1000fce0:	00165613          	srli	a2,a2,0x1
1000fce4:	01f59593          	slli	a1,a1,0x1f
1000fce8:	00b66633          	or	a2,a2,a1
1000fcec:	fec72e23          	sw	a2,-4(a4)
1000fcf0:	fee512e3          	bne	a0,a4,1000fcd4 <__subtf3+0x510>
1000fcf4:	03012703          	lw	a4,48(sp)
1000fcf8:	0017d793          	srli	a5,a5,0x1
1000fcfc:	02f12e23          	sw	a5,60(sp)
1000fd00:	00d037b3          	snez	a5,a3
1000fd04:	00f767b3          	or	a5,a4,a5
1000fd08:	02f12823          	sw	a5,48(sp)
1000fd0c:	000087b7          	lui	a5,0x8
1000fd10:	fff78793          	addi	a5,a5,-1 # 7fff <__heap_size+0x6fff>
1000fd14:	ccf496e3          	bne	s1,a5,1000f9e0 <__subtf3+0x21c>
1000fd18:	02012e23          	sw	zero,60(sp)
1000fd1c:	02012c23          	sw	zero,56(sp)
1000fd20:	02012a23          	sw	zero,52(sp)
1000fd24:	02012823          	sw	zero,48(sp)
1000fd28:	cb9ff06f          	j	1000f9e0 <__subtf3+0x21c>
1000fd2c:	0008a303          	lw	t1,0(a7)
1000fd30:	0048af03          	lw	t5,4(a7)
1000fd34:	00a88fb3          	add	t6,a7,a0
1000fd38:	00c35333          	srl	t1,t1,a2
1000fd3c:	01cf1f33          	sll	t5,t5,t3
1000fd40:	01e36333          	or	t1,t1,t5
1000fd44:	006fa023          	sw	t1,0(t6)
1000fd48:	001e8e93          	addi	t4,t4,1
1000fd4c:	00488893          	addi	a7,a7,4
1000fd50:	e99ff06f          	j	1000fbe8 <__subtf3+0x424>
1000fd54:	02412903          	lw	s2,36(sp)
1000fd58:	02812983          	lw	s3,40(sp)
1000fd5c:	02c12b03          	lw	s6,44(sp)
1000fd60:	26088263          	beqz	a7,1000ffc4 <__subtf3+0x800>
1000fd64:	409b8833          	sub	a6,s7,s1
1000fd68:	0a049c63          	bnez	s1,1000fe20 <__subtf3+0x65c>
1000fd6c:	01412683          	lw	a3,20(sp)
1000fd70:	01812703          	lw	a4,24(sp)
1000fd74:	01c12883          	lw	a7,28(sp)
1000fd78:	00e6e5b3          	or	a1,a3,a4
1000fd7c:	0115e5b3          	or	a1,a1,a7
1000fd80:	00f5e5b3          	or	a1,a1,a5
1000fd84:	00059e63          	bnez	a1,1000fda0 <__subtf3+0x5dc>
1000fd88:	02812823          	sw	s0,48(sp)
1000fd8c:	03212a23          	sw	s2,52(sp)
1000fd90:	03312c23          	sw	s3,56(sp)
1000fd94:	03612e23          	sw	s6,60(sp)
1000fd98:	00080493          	mv	s1,a6
1000fd9c:	c45ff06f          	j	1000f9e0 <__subtf3+0x21c>
1000fda0:	fff80593          	addi	a1,a6,-1
1000fda4:	04059663          	bnez	a1,1000fdf0 <__subtf3+0x62c>
1000fda8:	00878433          	add	s0,a5,s0
1000fdac:	01268933          	add	s2,a3,s2
1000fdb0:	02812823          	sw	s0,48(sp)
1000fdb4:	00f43433          	sltu	s0,s0,a5
1000fdb8:	00890433          	add	s0,s2,s0
1000fdbc:	02812a23          	sw	s0,52(sp)
1000fdc0:	00d936b3          	sltu	a3,s2,a3
1000fdc4:	01243433          	sltu	s0,s0,s2
1000fdc8:	013709b3          	add	s3,a4,s3
1000fdcc:	0086e6b3          	or	a3,a3,s0
1000fdd0:	00d986b3          	add	a3,s3,a3
1000fdd4:	02d12c23          	sw	a3,56(sp)
1000fdd8:	00e9b7b3          	sltu	a5,s3,a4
1000fddc:	0136b6b3          	sltu	a3,a3,s3
1000fde0:	00d7e7b3          	or	a5,a5,a3
1000fde4:	016888b3          	add	a7,a7,s6
1000fde8:	011787b3          	add	a5,a5,a7
1000fdec:	bb9ff06f          	j	1000f9a4 <__subtf3+0x1e0>
1000fdf0:	000087b7          	lui	a5,0x8
1000fdf4:	fff78793          	addi	a5,a5,-1 # 7fff <__heap_size+0x6fff>
1000fdf8:	62f818e3          	bne	a6,a5,10010c28 <__subtf3+0x1464>
1000fdfc:	02812823          	sw	s0,48(sp)
1000fe00:	03212a23          	sw	s2,52(sp)
1000fe04:	03312c23          	sw	s3,56(sp)
1000fe08:	03612e23          	sw	s6,60(sp)
1000fe0c:	000084b7          	lui	s1,0x8
1000fe10:	fff48493          	addi	s1,s1,-1 # 7fff <__heap_size+0x6fff>
1000fe14:	bcdff06f          	j	1000f9e0 <__subtf3+0x21c>
1000fe18:	00078413          	mv	s0,a5
1000fe1c:	fe1ff06f          	j	1000fdfc <__subtf3+0x638>
1000fe20:	000087b7          	lui	a5,0x8
1000fe24:	fff78793          	addi	a5,a5,-1 # 7fff <__heap_size+0x6fff>
1000fe28:	fcfb8ae3          	beq	s7,a5,1000fdfc <__subtf3+0x638>
1000fe2c:	01c12783          	lw	a5,28(sp)
1000fe30:	00080737          	lui	a4,0x80
1000fe34:	00e7e7b3          	or	a5,a5,a4
1000fe38:	00f12e23          	sw	a5,28(sp)
1000fe3c:	07400793          	li	a5,116
1000fe40:	5f07c8e3          	blt	a5,a6,10010c30 <__subtf3+0x146c>
1000fe44:	00080593          	mv	a1,a6
1000fe48:	02000713          	li	a4,32
1000fe4c:	02e5c733          	div	a4,a1,a4
1000fe50:	00060693          	mv	a3,a2
1000fe54:	00000493          	li	s1,0
1000fe58:	00000793          	li	a5,0
1000fe5c:	02e7ce63          	blt	a5,a4,1000fe98 <__subtf3+0x6d4>
1000fe60:	00300793          	li	a5,3
1000fe64:	01f5f893          	andi	a7,a1,31
1000fe68:	40e787b3          	sub	a5,a5,a4
1000fe6c:	00271813          	slli	a6,a4,0x2
1000fe70:	02089e63          	bnez	a7,1000feac <__subtf3+0x6e8>
1000fe74:	010606b3          	add	a3,a2,a6
1000fe78:	0006a683          	lw	a3,0(a3)
1000fe7c:	00188893          	addi	a7,a7,1
1000fe80:	00460613          	addi	a2,a2,4
1000fe84:	fed62e23          	sw	a3,-4(a2)
1000fe88:	ff17d6e3          	bge	a5,a7,1000fe74 <__subtf3+0x6b0>
1000fe8c:	00400793          	li	a5,4
1000fe90:	40e78733          	sub	a4,a5,a4
1000fe94:	0780006f          	j	1000ff0c <__subtf3+0x748>
1000fe98:	0006a803          	lw	a6,0(a3)
1000fe9c:	00178793          	addi	a5,a5,1
1000fea0:	00468693          	addi	a3,a3,4
1000fea4:	0104e4b3          	or	s1,s1,a6
1000fea8:	fb5ff06f          	j	1000fe5c <__subtf3+0x698>
1000feac:	02000693          	li	a3,32
1000feb0:	02d5e5b3          	rem	a1,a1,a3
1000feb4:	40b685b3          	sub	a1,a3,a1
1000feb8:	00070693          	mv	a3,a4
1000febc:	00075463          	bgez	a4,1000fec4 <__subtf3+0x700>
1000fec0:	00000693          	li	a3,0
1000fec4:	00269693          	slli	a3,a3,0x2
1000fec8:	04068693          	addi	a3,a3,64
1000fecc:	002686b3          	add	a3,a3,sp
1000fed0:	fd06a683          	lw	a3,-48(a3)
1000fed4:	00000313          	li	t1,0
1000fed8:	00b696b3          	sll	a3,a3,a1
1000fedc:	00d4e4b3          	or	s1,s1,a3
1000fee0:	010506b3          	add	a3,a0,a6
1000fee4:	41000833          	neg	a6,a6
1000fee8:	0af34a63          	blt	t1,a5,1000ff9c <__subtf3+0x7d8>
1000feec:	00400693          	li	a3,4
1000fef0:	40e68733          	sub	a4,a3,a4
1000fef4:	01c12683          	lw	a3,28(sp)
1000fef8:	00279793          	slli	a5,a5,0x2
1000fefc:	04078793          	addi	a5,a5,64
1000ff00:	002787b3          	add	a5,a5,sp
1000ff04:	0116d6b3          	srl	a3,a3,a7
1000ff08:	fcd7a823          	sw	a3,-48(a5)
1000ff0c:	00572793          	slti	a5,a4,5
1000ff10:	00000613          	li	a2,0
1000ff14:	00078863          	beqz	a5,1000ff24 <__subtf3+0x760>
1000ff18:	00400613          	li	a2,4
1000ff1c:	40e60633          	sub	a2,a2,a4
1000ff20:	00261613          	slli	a2,a2,0x2
1000ff24:	00271713          	slli	a4,a4,0x2
1000ff28:	00e50533          	add	a0,a0,a4
1000ff2c:	00000593          	li	a1,0
1000ff30:	959f20ef          	jal	10002888 <memset>
1000ff34:	01012703          	lw	a4,16(sp)
1000ff38:	009037b3          	snez	a5,s1
1000ff3c:	00e7e7b3          	or	a5,a5,a4
1000ff40:	01412683          	lw	a3,20(sp)
1000ff44:	00f12823          	sw	a5,16(sp)
1000ff48:	00f407b3          	add	a5,s0,a5
1000ff4c:	01268933          	add	s2,a3,s2
1000ff50:	02f12823          	sw	a5,48(sp)
1000ff54:	0087b7b3          	sltu	a5,a5,s0
1000ff58:	00f90733          	add	a4,s2,a5
1000ff5c:	01812783          	lw	a5,24(sp)
1000ff60:	02e12a23          	sw	a4,52(sp)
1000ff64:	00d936b3          	sltu	a3,s2,a3
1000ff68:	01273733          	sltu	a4,a4,s2
1000ff6c:	013789b3          	add	s3,a5,s3
1000ff70:	00e6e733          	or	a4,a3,a4
1000ff74:	00e98733          	add	a4,s3,a4
1000ff78:	02e12c23          	sw	a4,56(sp)
1000ff7c:	00f9b7b3          	sltu	a5,s3,a5
1000ff80:	01373733          	sltu	a4,a4,s3
1000ff84:	00e7e7b3          	or	a5,a5,a4
1000ff88:	01c12703          	lw	a4,28(sp)
1000ff8c:	000b8493          	mv	s1,s7
1000ff90:	00eb0733          	add	a4,s6,a4
1000ff94:	00e787b3          	add	a5,a5,a4
1000ff98:	d0dff06f          	j	1000fca4 <__subtf3+0x4e0>
1000ff9c:	0006a603          	lw	a2,0(a3)
1000ffa0:	0046ae03          	lw	t3,4(a3)
1000ffa4:	01068eb3          	add	t4,a3,a6
1000ffa8:	01165633          	srl	a2,a2,a7
1000ffac:	00be1e33          	sll	t3,t3,a1
1000ffb0:	01c66633          	or	a2,a2,t3
1000ffb4:	00cea023          	sw	a2,0(t4)
1000ffb8:	00130313          	addi	t1,t1,1
1000ffbc:	00468693          	addi	a3,a3,4
1000ffc0:	f29ff06f          	j	1000fee8 <__subtf3+0x724>
1000ffc4:	00148813          	addi	a6,s1,1
1000ffc8:	01181893          	slli	a7,a6,0x11
1000ffcc:	0128d893          	srli	a7,a7,0x12
1000ffd0:	01412683          	lw	a3,20(sp)
1000ffd4:	01812703          	lw	a4,24(sp)
1000ffd8:	01c12603          	lw	a2,28(sp)
1000ffdc:	03010593          	addi	a1,sp,48
1000ffe0:	03c10513          	addi	a0,sp,60
1000ffe4:	10089e63          	bnez	a7,10010100 <__subtf3+0x93c>
1000ffe8:	00e6e833          	or	a6,a3,a4
1000ffec:	00c86833          	or	a6,a6,a2
1000fff0:	00f86833          	or	a6,a6,a5
1000fff4:	0a049863          	bnez	s1,100100a4 <__subtf3+0x8e0>
1000fff8:	00081e63          	bnez	a6,10010014 <__subtf3+0x850>
1000fffc:	02812823          	sw	s0,48(sp)
10010000:	03212a23          	sw	s2,52(sp)
10010004:	03312c23          	sw	s3,56(sp)
10010008:	03612e23          	sw	s6,60(sp)
1001000c:	00000493          	li	s1,0
10010010:	9d1ff06f          	j	1000f9e0 <__subtf3+0x21c>
10010014:	013965b3          	or	a1,s2,s3
10010018:	0165e5b3          	or	a1,a1,s6
1001001c:	0085e5b3          	or	a1,a1,s0
10010020:	00059c63          	bnez	a1,10010038 <__subtf3+0x874>
10010024:	02f12823          	sw	a5,48(sp)
10010028:	02d12a23          	sw	a3,52(sp)
1001002c:	02e12c23          	sw	a4,56(sp)
10010030:	02c12e23          	sw	a2,60(sp)
10010034:	9adff06f          	j	1000f9e0 <__subtf3+0x21c>
10010038:	00878433          	add	s0,a5,s0
1001003c:	01268933          	add	s2,a3,s2
10010040:	02812823          	sw	s0,48(sp)
10010044:	00f43433          	sltu	s0,s0,a5
10010048:	00890433          	add	s0,s2,s0
1001004c:	02812a23          	sw	s0,52(sp)
10010050:	00d936b3          	sltu	a3,s2,a3
10010054:	01243433          	sltu	s0,s0,s2
10010058:	013709b3          	add	s3,a4,s3
1001005c:	0086e6b3          	or	a3,a3,s0
10010060:	00d986b3          	add	a3,s3,a3
10010064:	02d12c23          	sw	a3,56(sp)
10010068:	00e9b733          	sltu	a4,s3,a4
1001006c:	0136b6b3          	sltu	a3,a3,s3
10010070:	00d76733          	or	a4,a4,a3
10010074:	01660633          	add	a2,a2,s6
10010078:	00c70733          	add	a4,a4,a2
1001007c:	00c71793          	slli	a5,a4,0xc
10010080:	0007c663          	bltz	a5,1001008c <__subtf3+0x8c8>
10010084:	02e12e23          	sw	a4,60(sp)
10010088:	959ff06f          	j	1000f9e0 <__subtf3+0x21c>
1001008c:	fff807b7          	lui	a5,0xfff80
10010090:	fff78793          	addi	a5,a5,-1 # fff7ffff <_sp+0xeff62923>
10010094:	00f77733          	and	a4,a4,a5
10010098:	02e12e23          	sw	a4,60(sp)
1001009c:	00100493          	li	s1,1
100100a0:	941ff06f          	j	1000f9e0 <__subtf3+0x21c>
100100a4:	1a080463          	beqz	a6,1001024c <__subtf3+0xa88>
100100a8:	01396933          	or	s2,s2,s3
100100ac:	01696933          	or	s2,s2,s6
100100b0:	00896933          	or	s2,s2,s0
100100b4:	1a090063          	beqz	s2,10010254 <__subtf3+0xa90>
100100b8:	000087b7          	lui	a5,0x8
100100bc:	02f12e23          	sw	a5,60(sp)
100100c0:	02012c23          	sw	zero,56(sp)
100100c4:	02012a23          	sw	zero,52(sp)
100100c8:	02012823          	sw	zero,48(sp)
100100cc:	00050793          	mv	a5,a0
100100d0:	0007a703          	lw	a4,0(a5) # 8000 <__heap_size+0x7000>
100100d4:	ffc7a683          	lw	a3,-4(a5)
100100d8:	ffc78793          	addi	a5,a5,-4
100100dc:	00371713          	slli	a4,a4,0x3
100100e0:	01d6d693          	srli	a3,a3,0x1d
100100e4:	00d76733          	or	a4,a4,a3
100100e8:	00e7a223          	sw	a4,4(a5)
100100ec:	fef592e3          	bne	a1,a5,100100d0 <__subtf3+0x90c>
100100f0:	000084b7          	lui	s1,0x8
100100f4:	fff48493          	addi	s1,s1,-1 # 7fff <__heap_size+0x6fff>
100100f8:	00000a93          	li	s5,0
100100fc:	8e5ff06f          	j	1000f9e0 <__subtf3+0x21c>
10010100:	00878433          	add	s0,a5,s0
10010104:	01268933          	add	s2,a3,s2
10010108:	02812823          	sw	s0,48(sp)
1001010c:	00f43433          	sltu	s0,s0,a5
10010110:	00890433          	add	s0,s2,s0
10010114:	02812a23          	sw	s0,52(sp)
10010118:	00d936b3          	sltu	a3,s2,a3
1001011c:	01243433          	sltu	s0,s0,s2
10010120:	013709b3          	add	s3,a4,s3
10010124:	0086e6b3          	or	a3,a3,s0
10010128:	00d986b3          	add	a3,s3,a3
1001012c:	02d12c23          	sw	a3,56(sp)
10010130:	00e9b733          	sltu	a4,s3,a4
10010134:	0136b6b3          	sltu	a3,a3,s3
10010138:	00d76733          	or	a4,a4,a3
1001013c:	01660633          	add	a2,a2,s6
10010140:	00c70733          	add	a4,a4,a2
10010144:	02e12e23          	sw	a4,60(sp)
10010148:	00058793          	mv	a5,a1
1001014c:	0007a683          	lw	a3,0(a5)
10010150:	0047a603          	lw	a2,4(a5)
10010154:	00478793          	addi	a5,a5,4
10010158:	0016d693          	srli	a3,a3,0x1
1001015c:	01f61613          	slli	a2,a2,0x1f
10010160:	00c6e6b3          	or	a3,a3,a2
10010164:	fed7ae23          	sw	a3,-4(a5)
10010168:	fef512e3          	bne	a0,a5,1001014c <__subtf3+0x988>
1001016c:	000087b7          	lui	a5,0x8
10010170:	fff78793          	addi	a5,a5,-1 # 7fff <__heap_size+0x6fff>
10010174:	00f80863          	beq	a6,a5,10010184 <__subtf3+0x9c0>
10010178:	00175713          	srli	a4,a4,0x1
1001017c:	02e12e23          	sw	a4,60(sp)
10010180:	c19ff06f          	j	1000fd98 <__subtf3+0x5d4>
10010184:	02012e23          	sw	zero,60(sp)
10010188:	02012c23          	sw	zero,56(sp)
1001018c:	02012a23          	sw	zero,52(sp)
10010190:	02012823          	sw	zero,48(sp)
10010194:	c05ff06f          	j	1000fd98 <__subtf3+0x5d4>
10010198:	29105c63          	blez	a7,10010430 <__subtf3+0xc6c>
1001019c:	01412903          	lw	s2,20(sp)
100101a0:	01812983          	lw	s3,24(sp)
100101a4:	01c12b03          	lw	s6,28(sp)
100101a8:	0a0b9e63          	bnez	s7,10010264 <__subtf3+0xaa0>
100101ac:	02412e03          	lw	t3,36(sp)
100101b0:	02812503          	lw	a0,40(sp)
100101b4:	02c12683          	lw	a3,44(sp)
100101b8:	00ae6733          	or	a4,t3,a0
100101bc:	00d76733          	or	a4,a4,a3
100101c0:	00876733          	or	a4,a4,s0
100101c4:	f6070e63          	beqz	a4,1000f940 <__subtf3+0x17c>
100101c8:	fff88e93          	addi	t4,a7,-1
100101cc:	040e9c63          	bnez	t4,10010224 <__subtf3+0xa60>
100101d0:	40878733          	sub	a4,a5,s0
100101d4:	41c90633          	sub	a2,s2,t3
100101d8:	00e7b5b3          	sltu	a1,a5,a4
100101dc:	00c93833          	sltu	a6,s2,a2
100101e0:	40b60633          	sub	a2,a2,a1
100101e4:	00000593          	li	a1,0
100101e8:	00e7f663          	bgeu	a5,a4,100101f4 <__subtf3+0xa30>
100101ec:	412e0e33          	sub	t3,t3,s2
100101f0:	001e3593          	seqz	a1,t3
100101f4:	0105e7b3          	or	a5,a1,a6
100101f8:	40a985b3          	sub	a1,s3,a0
100101fc:	00b9b833          	sltu	a6,s3,a1
10010200:	40f585b3          	sub	a1,a1,a5
10010204:	00078663          	beqz	a5,10010210 <__subtf3+0xa4c>
10010208:	41350533          	sub	a0,a0,s3
1001020c:	00153e93          	seqz	t4,a0
10010210:	40db07b3          	sub	a5,s6,a3
10010214:	010ee6b3          	or	a3,t4,a6
10010218:	40d787b3          	sub	a5,a5,a3
1001021c:	00100493          	li	s1,1
10010220:	1bc0006f          	j	100103dc <__subtf3+0xc18>
10010224:	00008737          	lui	a4,0x8
10010228:	fff70713          	addi	a4,a4,-1 # 7fff <__heap_size+0x6fff>
1001022c:	f8e88863          	beq	a7,a4,1000f9bc <__subtf3+0x1f8>
10010230:	07400713          	li	a4,116
10010234:	05d75c63          	bge	a4,t4,1001028c <__subtf3+0xac8>
10010238:	02012623          	sw	zero,44(sp)
1001023c:	02012423          	sw	zero,40(sp)
10010240:	02012223          	sw	zero,36(sp)
10010244:	00100713          	li	a4,1
10010248:	1340006f          	j	1001037c <__subtf3+0xbb8>
1001024c:	00040793          	mv	a5,s0
10010250:	f6cff06f          	j	1000f9bc <__subtf3+0x1f8>
10010254:	00068913          	mv	s2,a3
10010258:	00070993          	mv	s3,a4
1001025c:	00060b13          	mv	s6,a2
10010260:	f5cff06f          	j	1000f9bc <__subtf3+0x1f8>
10010264:	00008737          	lui	a4,0x8
10010268:	fff70713          	addi	a4,a4,-1 # 7fff <__heap_size+0x6fff>
1001026c:	bae486e3          	beq	s1,a4,1000fe18 <__subtf3+0x654>
10010270:	02c12703          	lw	a4,44(sp)
10010274:	000806b7          	lui	a3,0x80
10010278:	00d76733          	or	a4,a4,a3
1001027c:	02e12623          	sw	a4,44(sp)
10010280:	07400713          	li	a4,116
10010284:	fb174ae3          	blt	a4,a7,10010238 <__subtf3+0xa74>
10010288:	00088e93          	mv	t4,a7
1001028c:	405ed693          	srai	a3,t4,0x5
10010290:	00030593          	mv	a1,t1
10010294:	01fefe93          	andi	t4,t4,31
10010298:	00000713          	li	a4,0
1001029c:	00000613          	li	a2,0
100102a0:	02d61c63          	bne	a2,a3,100102d8 <__subtf3+0xb14>
100102a4:	00300613          	li	a2,3
100102a8:	40d60633          	sub	a2,a2,a3
100102ac:	00269593          	slli	a1,a3,0x2
100102b0:	020e9e63          	bnez	t4,100102ec <__subtf3+0xb28>
100102b4:	00b30533          	add	a0,t1,a1
100102b8:	00052503          	lw	a0,0(a0)
100102bc:	001e8e93          	addi	t4,t4,1
100102c0:	00430313          	addi	t1,t1,4
100102c4:	fea32e23          	sw	a0,-4(t1)
100102c8:	ffd656e3          	bge	a2,t4,100102b4 <__subtf3+0xaf0>
100102cc:	00400613          	li	a2,4
100102d0:	40d606b3          	sub	a3,a2,a3
100102d4:	0640006f          	j	10010338 <__subtf3+0xb74>
100102d8:	0005a503          	lw	a0,0(a1)
100102dc:	00160613          	addi	a2,a2,1
100102e0:	00458593          	addi	a1,a1,4
100102e4:	00a76733          	or	a4,a4,a0
100102e8:	fb9ff06f          	j	100102a0 <__subtf3+0xadc>
100102ec:	04058513          	addi	a0,a1,64
100102f0:	00250533          	add	a0,a0,sp
100102f4:	fe052503          	lw	a0,-32(a0)
100102f8:	02000313          	li	t1,32
100102fc:	41d30333          	sub	t1,t1,t4
10010300:	00651533          	sll	a0,a0,t1
10010304:	00a76733          	or	a4,a4,a0
10010308:	00000e13          	li	t3,0
1001030c:	00b80533          	add	a0,a6,a1
10010310:	40b005b3          	neg	a1,a1
10010314:	0ece4a63          	blt	t3,a2,10010408 <__subtf3+0xc44>
10010318:	00400593          	li	a1,4
1001031c:	40d586b3          	sub	a3,a1,a3
10010320:	02c12583          	lw	a1,44(sp)
10010324:	00261613          	slli	a2,a2,0x2
10010328:	04060613          	addi	a2,a2,64
1001032c:	00260633          	add	a2,a2,sp
10010330:	01d5d5b3          	srl	a1,a1,t4
10010334:	feb62023          	sw	a1,-32(a2)
10010338:	00400613          	li	a2,4
1001033c:	40d60633          	sub	a2,a2,a3
10010340:	00261613          	slli	a2,a2,0x2
10010344:	00269693          	slli	a3,a3,0x2
10010348:	00800593          	li	a1,8
1001034c:	00d806b3          	add	a3,a6,a3
10010350:	00b66a63          	bltu	a2,a1,10010364 <__subtf3+0xba0>
10010354:	0006a023          	sw	zero,0(a3) # 80000 <__heap_size+0x7f000>
10010358:	0006a223          	sw	zero,4(a3)
1001035c:	ff860613          	addi	a2,a2,-8
10010360:	00868693          	addi	a3,a3,8
10010364:	00400593          	li	a1,4
10010368:	00b66463          	bltu	a2,a1,10010370 <__subtf3+0xbac>
1001036c:	0006a023          	sw	zero,0(a3)
10010370:	02012683          	lw	a3,32(sp)
10010374:	00e03733          	snez	a4,a4
10010378:	00d76733          	or	a4,a4,a3
1001037c:	02412583          	lw	a1,36(sp)
10010380:	02e12023          	sw	a4,32(sp)
10010384:	40e78733          	sub	a4,a5,a4
10010388:	40b90633          	sub	a2,s2,a1
1001038c:	00e7b6b3          	sltu	a3,a5,a4
10010390:	00c93533          	sltu	a0,s2,a2
10010394:	40d60633          	sub	a2,a2,a3
10010398:	00000693          	li	a3,0
1001039c:	00e7f663          	bgeu	a5,a4,100103a8 <__subtf3+0xbe4>
100103a0:	412585b3          	sub	a1,a1,s2
100103a4:	0015b693          	seqz	a3,a1
100103a8:	00a6e7b3          	or	a5,a3,a0
100103ac:	02812503          	lw	a0,40(sp)
100103b0:	00000693          	li	a3,0
100103b4:	40a985b3          	sub	a1,s3,a0
100103b8:	00b9b833          	sltu	a6,s3,a1
100103bc:	40f585b3          	sub	a1,a1,a5
100103c0:	00078663          	beqz	a5,100103cc <__subtf3+0xc08>
100103c4:	41350533          	sub	a0,a0,s3
100103c8:	00153693          	seqz	a3,a0
100103cc:	02c12783          	lw	a5,44(sp)
100103d0:	0106e6b3          	or	a3,a3,a6
100103d4:	40fb07b3          	sub	a5,s6,a5
100103d8:	40d787b3          	sub	a5,a5,a3
100103dc:	02e12823          	sw	a4,48(sp)
100103e0:	02f12e23          	sw	a5,60(sp)
100103e4:	02b12c23          	sw	a1,56(sp)
100103e8:	02c12a23          	sw	a2,52(sp)
100103ec:	00c79713          	slli	a4,a5,0xc
100103f0:	de075863          	bgez	a4,1000f9e0 <__subtf3+0x21c>
100103f4:	00080737          	lui	a4,0x80
100103f8:	fff70713          	addi	a4,a4,-1 # 7ffff <__heap_size+0x7efff>
100103fc:	00e7f7b3          	and	a5,a5,a4
10010400:	02f12e23          	sw	a5,60(sp)
10010404:	5700006f          	j	10010974 <__subtf3+0x11b0>
10010408:	00052883          	lw	a7,0(a0)
1001040c:	00452f03          	lw	t5,4(a0)
10010410:	00b50fb3          	add	t6,a0,a1
10010414:	01d8d8b3          	srl	a7,a7,t4
10010418:	006f1f33          	sll	t5,t5,t1
1001041c:	01e8e8b3          	or	a7,a7,t5
10010420:	011fa023          	sw	a7,0(t6)
10010424:	001e0e13          	addi	t3,t3,1
10010428:	00450513          	addi	a0,a0,4
1001042c:	ee9ff06f          	j	10010314 <__subtf3+0xb50>
10010430:	02412c03          	lw	s8,36(sp)
10010434:	02812b03          	lw	s6,40(sp)
10010438:	02c12983          	lw	s3,44(sp)
1001043c:	28088463          	beqz	a7,100106c4 <__subtf3+0xf00>
10010440:	409b8333          	sub	t1,s7,s1
10010444:	0a049e63          	bnez	s1,10010500 <__subtf3+0xd3c>
10010448:	01412583          	lw	a1,20(sp)
1001044c:	01812803          	lw	a6,24(sp)
10010450:	01c12683          	lw	a3,28(sp)
10010454:	0105e8b3          	or	a7,a1,a6
10010458:	00d8e8b3          	or	a7,a7,a3
1001045c:	00f8e8b3          	or	a7,a7,a5
10010460:	02089063          	bnez	a7,10010480 <__subtf3+0xcbc>
10010464:	02812823          	sw	s0,48(sp)
10010468:	03812a23          	sw	s8,52(sp)
1001046c:	03612c23          	sw	s6,56(sp)
10010470:	03312e23          	sw	s3,60(sp)
10010474:	00030493          	mv	s1,t1
10010478:	00090a93          	mv	s5,s2
1001047c:	d64ff06f          	j	1000f9e0 <__subtf3+0x21c>
10010480:	fff30893          	addi	a7,t1,-1
10010484:	04089c63          	bnez	a7,100104dc <__subtf3+0xd18>
10010488:	40f40733          	sub	a4,s0,a5
1001048c:	40bc0633          	sub	a2,s8,a1
10010490:	00e437b3          	sltu	a5,s0,a4
10010494:	00cc3533          	sltu	a0,s8,a2
10010498:	40f60633          	sub	a2,a2,a5
1001049c:	00000793          	li	a5,0
100104a0:	00e47663          	bgeu	s0,a4,100104ac <__subtf3+0xce8>
100104a4:	418585b3          	sub	a1,a1,s8
100104a8:	0015b793          	seqz	a5,a1
100104ac:	00a7e7b3          	or	a5,a5,a0
100104b0:	410b05b3          	sub	a1,s6,a6
100104b4:	00bb3533          	sltu	a0,s6,a1
100104b8:	40f585b3          	sub	a1,a1,a5
100104bc:	00078663          	beqz	a5,100104c8 <__subtf3+0xd04>
100104c0:	41680833          	sub	a6,a6,s6
100104c4:	00183893          	seqz	a7,a6
100104c8:	40d987b3          	sub	a5,s3,a3
100104cc:	00a8e6b3          	or	a3,a7,a0
100104d0:	40d787b3          	sub	a5,a5,a3
100104d4:	00090a93          	mv	s5,s2
100104d8:	d45ff06f          	j	1001021c <__subtf3+0xa58>
100104dc:	000087b7          	lui	a5,0x8
100104e0:	fff78793          	addi	a5,a5,-1 # 7fff <__heap_size+0x6fff>
100104e4:	76f31063          	bne	t1,a5,10010c44 <__subtf3+0x1480>
100104e8:	02812823          	sw	s0,48(sp)
100104ec:	03812a23          	sw	s8,52(sp)
100104f0:	03612c23          	sw	s6,56(sp)
100104f4:	03312e23          	sw	s3,60(sp)
100104f8:	00090a93          	mv	s5,s2
100104fc:	911ff06f          	j	1000fe0c <__subtf3+0x648>
10010500:	000087b7          	lui	a5,0x8
10010504:	fff78793          	addi	a5,a5,-1 # 7fff <__heap_size+0x6fff>
10010508:	fefb80e3          	beq	s7,a5,100104e8 <__subtf3+0xd24>
1001050c:	01c12783          	lw	a5,28(sp)
10010510:	00080737          	lui	a4,0x80
10010514:	00e7e7b3          	or	a5,a5,a4
10010518:	00f12e23          	sw	a5,28(sp)
1001051c:	07400793          	li	a5,116
10010520:	1867c863          	blt	a5,t1,100106b0 <__subtf3+0xeec>
10010524:	02000793          	li	a5,32
10010528:	02f347b3          	div	a5,t1,a5
1001052c:	00060693          	mv	a3,a2
10010530:	00000493          	li	s1,0
10010534:	00000713          	li	a4,0
10010538:	02f74e63          	blt	a4,a5,10010574 <__subtf3+0xdb0>
1001053c:	00300713          	li	a4,3
10010540:	01f37893          	andi	a7,t1,31
10010544:	40f70e33          	sub	t3,a4,a5
10010548:	00279593          	slli	a1,a5,0x2
1001054c:	02089e63          	bnez	a7,10010588 <__subtf3+0xdc4>
10010550:	00b60733          	add	a4,a2,a1
10010554:	00072703          	lw	a4,0(a4) # 80000 <__heap_size+0x7f000>
10010558:	00188893          	addi	a7,a7,1
1001055c:	00460613          	addi	a2,a2,4
10010560:	fee62e23          	sw	a4,-4(a2)
10010564:	ff1e56e3          	bge	t3,a7,10010550 <__subtf3+0xd8c>
10010568:	00400713          	li	a4,4
1001056c:	40f707b3          	sub	a5,a4,a5
10010570:	0780006f          	j	100105e8 <__subtf3+0xe24>
10010574:	0006a583          	lw	a1,0(a3)
10010578:	00170713          	addi	a4,a4,1
1001057c:	00468693          	addi	a3,a3,4
10010580:	00b4e4b3          	or	s1,s1,a1
10010584:	fb5ff06f          	j	10010538 <__subtf3+0xd74>
10010588:	02000613          	li	a2,32
1001058c:	02c36733          	rem	a4,t1,a2
10010590:	00078693          	mv	a3,a5
10010594:	40e60633          	sub	a2,a2,a4
10010598:	0007d463          	bgez	a5,100105a0 <__subtf3+0xddc>
1001059c:	00000693          	li	a3,0
100105a0:	00269693          	slli	a3,a3,0x2
100105a4:	04068713          	addi	a4,a3,64
100105a8:	002706b3          	add	a3,a4,sp
100105ac:	fd06a703          	lw	a4,-48(a3)
100105b0:	00b506b3          	add	a3,a0,a1
100105b4:	40b005b3          	neg	a1,a1
100105b8:	00c71733          	sll	a4,a4,a2
100105bc:	00e4e4b3          	or	s1,s1,a4
100105c0:	00000713          	li	a4,0
100105c4:	0dc74263          	blt	a4,t3,10010688 <__subtf3+0xec4>
100105c8:	01c12683          	lw	a3,28(sp)
100105cc:	00400713          	li	a4,4
100105d0:	40f707b3          	sub	a5,a4,a5
100105d4:	002e1713          	slli	a4,t3,0x2
100105d8:	04070713          	addi	a4,a4,64
100105dc:	00270733          	add	a4,a4,sp
100105e0:	0116d6b3          	srl	a3,a3,a7
100105e4:	fcd72823          	sw	a3,-48(a4)
100105e8:	0057a713          	slti	a4,a5,5
100105ec:	00000613          	li	a2,0
100105f0:	00070863          	beqz	a4,10010600 <__subtf3+0xe3c>
100105f4:	00400613          	li	a2,4
100105f8:	40f60633          	sub	a2,a2,a5
100105fc:	00261613          	slli	a2,a2,0x2
10010600:	00279793          	slli	a5,a5,0x2
10010604:	00f50533          	add	a0,a0,a5
10010608:	00000593          	li	a1,0
1001060c:	a7cf20ef          	jal	10002888 <memset>
10010610:	01012783          	lw	a5,16(sp)
10010614:	00903733          	snez	a4,s1
10010618:	00f76733          	or	a4,a4,a5
1001061c:	01412683          	lw	a3,20(sp)
10010620:	00e12823          	sw	a4,16(sp)
10010624:	40e40733          	sub	a4,s0,a4
10010628:	40dc0633          	sub	a2,s8,a3
1001062c:	00e437b3          	sltu	a5,s0,a4
10010630:	00cc35b3          	sltu	a1,s8,a2
10010634:	40f60633          	sub	a2,a2,a5
10010638:	00000793          	li	a5,0
1001063c:	00e47663          	bgeu	s0,a4,10010648 <__subtf3+0xe84>
10010640:	418686b3          	sub	a3,a3,s8
10010644:	0016b793          	seqz	a5,a3
10010648:	01812503          	lw	a0,24(sp)
1001064c:	00b7e7b3          	or	a5,a5,a1
10010650:	00000693          	li	a3,0
10010654:	40ab05b3          	sub	a1,s6,a0
10010658:	00bb3833          	sltu	a6,s6,a1
1001065c:	40f585b3          	sub	a1,a1,a5
10010660:	00078663          	beqz	a5,1001066c <__subtf3+0xea8>
10010664:	41650533          	sub	a0,a0,s6
10010668:	00153693          	seqz	a3,a0
1001066c:	01c12783          	lw	a5,28(sp)
10010670:	0106e6b3          	or	a3,a3,a6
10010674:	000b8493          	mv	s1,s7
10010678:	40f987b3          	sub	a5,s3,a5
1001067c:	40d787b3          	sub	a5,a5,a3
10010680:	00090a93          	mv	s5,s2
10010684:	d59ff06f          	j	100103dc <__subtf3+0xc18>
10010688:	0006a803          	lw	a6,0(a3)
1001068c:	0046a303          	lw	t1,4(a3)
10010690:	00b68eb3          	add	t4,a3,a1
10010694:	01185833          	srl	a6,a6,a7
10010698:	00c31333          	sll	t1,t1,a2
1001069c:	00686833          	or	a6,a6,t1
100106a0:	010ea023          	sw	a6,0(t4)
100106a4:	00170713          	addi	a4,a4,1
100106a8:	00468693          	addi	a3,a3,4
100106ac:	f19ff06f          	j	100105c4 <__subtf3+0xe00>
100106b0:	00012e23          	sw	zero,28(sp)
100106b4:	00012c23          	sw	zero,24(sp)
100106b8:	00012a23          	sw	zero,20(sp)
100106bc:	00100713          	li	a4,1
100106c0:	f5dff06f          	j	1001061c <__subtf3+0xe58>
100106c4:	00148593          	addi	a1,s1,1
100106c8:	01159513          	slli	a0,a1,0x11
100106cc:	01255513          	srli	a0,a0,0x12
100106d0:	01412683          	lw	a3,20(sp)
100106d4:	01812603          	lw	a2,24(sp)
100106d8:	01c12703          	lw	a4,28(sp)
100106dc:	00008837          	lui	a6,0x8
100106e0:	1c051e63          	bnez	a0,100108bc <__subtf3+0x10f8>
100106e4:	016c6533          	or	a0,s8,s6
100106e8:	00c6e5b3          	or	a1,a3,a2
100106ec:	01356533          	or	a0,a0,s3
100106f0:	00e5e5b3          	or	a1,a1,a4
100106f4:	00856533          	or	a0,a0,s0
100106f8:	00f5e5b3          	or	a1,a1,a5
100106fc:	10049863          	bnez	s1,1001080c <__subtf3+0x1048>
10010700:	02059263          	bnez	a1,10010724 <__subtf3+0xf60>
10010704:	02812823          	sw	s0,48(sp)
10010708:	03812a23          	sw	s8,52(sp)
1001070c:	03612c23          	sw	s6,56(sp)
10010710:	03312e23          	sw	s3,60(sp)
10010714:	00090a93          	mv	s5,s2
10010718:	ac051463          	bnez	a0,1000f9e0 <__subtf3+0x21c>
1001071c:	00000493          	li	s1,0
10010720:	9d9ff06f          	j	100100f8 <__subtf3+0x934>
10010724:	00051c63          	bnez	a0,1001073c <__subtf3+0xf78>
10010728:	02f12823          	sw	a5,48(sp)
1001072c:	02d12a23          	sw	a3,52(sp)
10010730:	02c12c23          	sw	a2,56(sp)
10010734:	02e12e23          	sw	a4,60(sp)
10010738:	8d5ff06f          	j	1001000c <__subtf3+0x848>
1001073c:	40878533          	sub	a0,a5,s0
10010740:	41868e33          	sub	t3,a3,s8
10010744:	00a7b833          	sltu	a6,a5,a0
10010748:	01c6b8b3          	sltu	a7,a3,t3
1001074c:	410e0833          	sub	a6,t3,a6
10010750:	00000593          	li	a1,0
10010754:	00a7f463          	bgeu	a5,a0,1001075c <__subtf3+0xf98>
10010758:	001e3593          	seqz	a1,t3
1001075c:	0115e5b3          	or	a1,a1,a7
10010760:	416608b3          	sub	a7,a2,s6
10010764:	01163f33          	sltu	t5,a2,a7
10010768:	40b88eb3          	sub	t4,a7,a1
1001076c:	00000313          	li	t1,0
10010770:	00058463          	beqz	a1,10010778 <__subtf3+0xfb4>
10010774:	0018b313          	seqz	t1,a7
10010778:	01e36333          	or	t1,t1,t5
1001077c:	413705b3          	sub	a1,a4,s3
10010780:	406585b3          	sub	a1,a1,t1
10010784:	02b12e23          	sw	a1,60(sp)
10010788:	03d12c23          	sw	t4,56(sp)
1001078c:	03012a23          	sw	a6,52(sp)
10010790:	02a12823          	sw	a0,48(sp)
10010794:	00c59313          	slli	t1,a1,0xc
10010798:	06035063          	bgez	t1,100107f8 <__subtf3+0x1034>
1001079c:	40f407b3          	sub	a5,s0,a5
100107a0:	40dc06b3          	sub	a3,s8,a3
100107a4:	00f435b3          	sltu	a1,s0,a5
100107a8:	00dc3c33          	sltu	s8,s8,a3
100107ac:	40b686b3          	sub	a3,a3,a1
100107b0:	00000593          	li	a1,0
100107b4:	00f47463          	bgeu	s0,a5,100107bc <__subtf3+0xff8>
100107b8:	001e3593          	seqz	a1,t3
100107bc:	40cb0633          	sub	a2,s6,a2
100107c0:	0185ec33          	or	s8,a1,s8
100107c4:	00cb3b33          	sltu	s6,s6,a2
100107c8:	00000513          	li	a0,0
100107cc:	41860633          	sub	a2,a2,s8
100107d0:	000c0463          	beqz	s8,100107d8 <__subtf3+0x1014>
100107d4:	0018b513          	seqz	a0,a7
100107d8:	40e98733          	sub	a4,s3,a4
100107dc:	01656533          	or	a0,a0,s6
100107e0:	40a70733          	sub	a4,a4,a0
100107e4:	02e12e23          	sw	a4,60(sp)
100107e8:	02c12c23          	sw	a2,56(sp)
100107ec:	02d12a23          	sw	a3,52(sp)
100107f0:	02f12823          	sw	a5,48(sp)
100107f4:	c85ff06f          	j	10010478 <__subtf3+0xcb4>
100107f8:	01056533          	or	a0,a0,a6
100107fc:	01d56533          	or	a0,a0,t4
10010800:	00b56533          	or	a0,a0,a1
10010804:	f0050ce3          	beqz	a0,1001071c <__subtf3+0xf58>
10010808:	805ff06f          	j	1001000c <__subtf3+0x848>
1001080c:	03010893          	addi	a7,sp,48
10010810:	04059e63          	bnez	a1,1001086c <__subtf3+0x10a8>
10010814:	02051e63          	bnez	a0,10010850 <__subtf3+0x108c>
10010818:	03012e23          	sw	a6,60(sp)
1001081c:	02012c23          	sw	zero,56(sp)
10010820:	02012a23          	sw	zero,52(sp)
10010824:	02012823          	sw	zero,48(sp)
10010828:	03c10793          	addi	a5,sp,60
1001082c:	0007a703          	lw	a4,0(a5)
10010830:	ffc7a683          	lw	a3,-4(a5)
10010834:	ffc78793          	addi	a5,a5,-4
10010838:	00371713          	slli	a4,a4,0x3
1001083c:	01d6d693          	srli	a3,a3,0x1d
10010840:	00d76733          	or	a4,a4,a3
10010844:	00e7a223          	sw	a4,4(a5)
10010848:	fef892e3          	bne	a7,a5,1001082c <__subtf3+0x1068>
1001084c:	8a5ff06f          	j	100100f0 <__subtf3+0x92c>
10010850:	02812823          	sw	s0,48(sp)
10010854:	03812a23          	sw	s8,52(sp)
10010858:	03612c23          	sw	s6,56(sp)
1001085c:	03312e23          	sw	s3,60(sp)
10010860:	00090a93          	mv	s5,s2
10010864:	fff80493          	addi	s1,a6,-1 # 7fff <__heap_size+0x6fff>
10010868:	978ff06f          	j	1000f9e0 <__subtf3+0x21c>
1001086c:	00051c63          	bnez	a0,10010884 <__subtf3+0x10c0>
10010870:	02f12823          	sw	a5,48(sp)
10010874:	02d12a23          	sw	a3,52(sp)
10010878:	02c12c23          	sw	a2,56(sp)
1001087c:	02e12e23          	sw	a4,60(sp)
10010880:	fe5ff06f          	j	10010864 <__subtf3+0x10a0>
10010884:	03012e23          	sw	a6,60(sp)
10010888:	02012c23          	sw	zero,56(sp)
1001088c:	02012a23          	sw	zero,52(sp)
10010890:	02012823          	sw	zero,48(sp)
10010894:	03c10793          	addi	a5,sp,60
10010898:	0007a703          	lw	a4,0(a5)
1001089c:	ffc7a683          	lw	a3,-4(a5)
100108a0:	ffc78793          	addi	a5,a5,-4
100108a4:	00371713          	slli	a4,a4,0x3
100108a8:	01d6d693          	srli	a3,a3,0x1d
100108ac:	00d76733          	or	a4,a4,a3
100108b0:	00e7a223          	sw	a4,4(a5)
100108b4:	fef892e3          	bne	a7,a5,10010898 <__subtf3+0x10d4>
100108b8:	839ff06f          	j	100100f0 <__subtf3+0x92c>
100108bc:	40878533          	sub	a0,a5,s0
100108c0:	41868eb3          	sub	t4,a3,s8
100108c4:	00a7b833          	sltu	a6,a5,a0
100108c8:	01d6b333          	sltu	t1,a3,t4
100108cc:	410e8833          	sub	a6,t4,a6
100108d0:	00000593          	li	a1,0
100108d4:	00a7f463          	bgeu	a5,a0,100108dc <__subtf3+0x1118>
100108d8:	001eb593          	seqz	a1,t4
100108dc:	0065e5b3          	or	a1,a1,t1
100108e0:	41660333          	sub	t1,a2,s6
100108e4:	00663fb3          	sltu	t6,a2,t1
100108e8:	40b30f33          	sub	t5,t1,a1
100108ec:	00000e13          	li	t3,0
100108f0:	00058463          	beqz	a1,100108f8 <__subtf3+0x1134>
100108f4:	00133e13          	seqz	t3,t1
100108f8:	01fe6e33          	or	t3,t3,t6
100108fc:	413705b3          	sub	a1,a4,s3
10010900:	41c585b3          	sub	a1,a1,t3
10010904:	02b12e23          	sw	a1,60(sp)
10010908:	03e12c23          	sw	t5,56(sp)
1001090c:	03012a23          	sw	a6,52(sp)
10010910:	02a12823          	sw	a0,48(sp)
10010914:	00c59e13          	slli	t3,a1,0xc
10010918:	140e5663          	bgez	t3,10010a64 <__subtf3+0x12a0>
1001091c:	40f407b3          	sub	a5,s0,a5
10010920:	40dc06b3          	sub	a3,s8,a3
10010924:	00f435b3          	sltu	a1,s0,a5
10010928:	00dc3c33          	sltu	s8,s8,a3
1001092c:	40b686b3          	sub	a3,a3,a1
10010930:	00000593          	li	a1,0
10010934:	00f47463          	bgeu	s0,a5,1001093c <__subtf3+0x1178>
10010938:	001eb593          	seqz	a1,t4
1001093c:	40cb0633          	sub	a2,s6,a2
10010940:	0185ec33          	or	s8,a1,s8
10010944:	00cb3b33          	sltu	s6,s6,a2
10010948:	41860633          	sub	a2,a2,s8
1001094c:	000c0463          	beqz	s8,10010954 <__subtf3+0x1190>
10010950:	00133893          	seqz	a7,t1
10010954:	40e985b3          	sub	a1,s3,a4
10010958:	0168e733          	or	a4,a7,s6
1001095c:	40e58733          	sub	a4,a1,a4
10010960:	02e12e23          	sw	a4,60(sp)
10010964:	02c12c23          	sw	a2,56(sp)
10010968:	02d12a23          	sw	a3,52(sp)
1001096c:	02f12823          	sw	a5,48(sp)
10010970:	00090a93          	mv	s5,s2
10010974:	03c12503          	lw	a0,60(sp)
10010978:	10050063          	beqz	a0,10010a78 <__subtf3+0x12b4>
1001097c:	d50f10ef          	jal	10001ecc <__clzsi2>
10010980:	ff450513          	addi	a0,a0,-12
10010984:	02000713          	li	a4,32
10010988:	01f57813          	andi	a6,a0,31
1001098c:	02e547b3          	div	a5,a0,a4
10010990:	12080063          	beqz	a6,10010ab0 <__subtf3+0x12ec>
10010994:	03010313          	addi	t1,sp,48
10010998:	02e566b3          	rem	a3,a0,a4
1001099c:	40d70633          	sub	a2,a4,a3
100109a0:	ffc00693          	li	a3,-4
100109a4:	02d786b3          	mul	a3,a5,a3
100109a8:	00c68713          	addi	a4,a3,12
100109ac:	00e30733          	add	a4,t1,a4
100109b0:	40d006b3          	neg	a3,a3
100109b4:	12e31663          	bne	t1,a4,10010ae0 <__subtf3+0x131c>
100109b8:	03012683          	lw	a3,48(sp)
100109bc:	fff78713          	addi	a4,a5,-1
100109c0:	00279793          	slli	a5,a5,0x2
100109c4:	04078793          	addi	a5,a5,64
100109c8:	002787b3          	add	a5,a5,sp
100109cc:	010696b3          	sll	a3,a3,a6
100109d0:	fed7a823          	sw	a3,-16(a5)
100109d4:	00170713          	addi	a4,a4,1
100109d8:	03010793          	addi	a5,sp,48
100109dc:	00271713          	slli	a4,a4,0x2
100109e0:	00800693          	li	a3,8
100109e4:	00078893          	mv	a7,a5
100109e8:	00d76a63          	bltu	a4,a3,100109fc <__subtf3+0x1238>
100109ec:	02012823          	sw	zero,48(sp)
100109f0:	0007a223          	sw	zero,4(a5)
100109f4:	ff870713          	addi	a4,a4,-8
100109f8:	03810793          	addi	a5,sp,56
100109fc:	00400693          	li	a3,4
10010a00:	00d76463          	bltu	a4,a3,10010a08 <__subtf3+0x1244>
10010a04:	0007a023          	sw	zero,0(a5)
10010a08:	1c954863          	blt	a0,s1,10010bd8 <__subtf3+0x1414>
10010a0c:	40950533          	sub	a0,a0,s1
10010a10:	00150513          	addi	a0,a0,1
10010a14:	40555713          	srai	a4,a0,0x5
10010a18:	01f57793          	andi	a5,a0,31
10010a1c:	00088593          	mv	a1,a7
10010a20:	00088613          	mv	a2,a7
10010a24:	00000313          	li	t1,0
10010a28:	00000693          	li	a3,0
10010a2c:	0ce69c63          	bne	a3,a4,10010b04 <__subtf3+0x1340>
10010a30:	00300693          	li	a3,3
10010a34:	40e686b3          	sub	a3,a3,a4
10010a38:	00271613          	slli	a2,a4,0x2
10010a3c:	0c079e63          	bnez	a5,10010b18 <__subtf3+0x1354>
10010a40:	00c58533          	add	a0,a1,a2
10010a44:	00052503          	lw	a0,0(a0)
10010a48:	00178793          	addi	a5,a5,1
10010a4c:	00458593          	addi	a1,a1,4
10010a50:	fea5ae23          	sw	a0,-4(a1)
10010a54:	fef6d6e3          	bge	a3,a5,10010a40 <__subtf3+0x127c>
10010a58:	00400793          	li	a5,4
10010a5c:	40e78733          	sub	a4,a5,a4
10010a60:	1040006f          	j	10010b64 <__subtf3+0x13a0>
10010a64:	01056533          	or	a0,a0,a6
10010a68:	01e56533          	or	a0,a0,t5
10010a6c:	00b56533          	or	a0,a0,a1
10010a70:	ca0506e3          	beqz	a0,1001071c <__subtf3+0xf58>
10010a74:	f01ff06f          	j	10010974 <__subtf3+0x11b0>
10010a78:	03812503          	lw	a0,56(sp)
10010a7c:	00050863          	beqz	a0,10010a8c <__subtf3+0x12c8>
10010a80:	c4cf10ef          	jal	10001ecc <__clzsi2>
10010a84:	02050513          	addi	a0,a0,32
10010a88:	ef9ff06f          	j	10010980 <__subtf3+0x11bc>
10010a8c:	03412503          	lw	a0,52(sp)
10010a90:	00050863          	beqz	a0,10010aa0 <__subtf3+0x12dc>
10010a94:	c38f10ef          	jal	10001ecc <__clzsi2>
10010a98:	04050513          	addi	a0,a0,64
10010a9c:	ee5ff06f          	j	10010980 <__subtf3+0x11bc>
10010aa0:	03012503          	lw	a0,48(sp)
10010aa4:	c28f10ef          	jal	10001ecc <__clzsi2>
10010aa8:	06050513          	addi	a0,a0,96
10010aac:	ed5ff06f          	j	10010980 <__subtf3+0x11bc>
10010ab0:	ffc00613          	li	a2,-4
10010ab4:	02c78633          	mul	a2,a5,a2
10010ab8:	03c10713          	addi	a4,sp,60
10010abc:	00300693          	li	a3,3
10010ac0:	00c705b3          	add	a1,a4,a2
10010ac4:	0005a583          	lw	a1,0(a1)
10010ac8:	fff68693          	addi	a3,a3,-1
10010acc:	ffc70713          	addi	a4,a4,-4
10010ad0:	00b72223          	sw	a1,4(a4)
10010ad4:	fef6d6e3          	bge	a3,a5,10010ac0 <__subtf3+0x12fc>
10010ad8:	fff78713          	addi	a4,a5,-1
10010adc:	ef9ff06f          	j	100109d4 <__subtf3+0x1210>
10010ae0:	00072583          	lw	a1,0(a4)
10010ae4:	ffc72883          	lw	a7,-4(a4)
10010ae8:	00d70e33          	add	t3,a4,a3
10010aec:	010595b3          	sll	a1,a1,a6
10010af0:	00c8d8b3          	srl	a7,a7,a2
10010af4:	0115e5b3          	or	a1,a1,a7
10010af8:	00be2023          	sw	a1,0(t3)
10010afc:	ffc70713          	addi	a4,a4,-4
10010b00:	eb5ff06f          	j	100109b4 <__subtf3+0x11f0>
10010b04:	00062503          	lw	a0,0(a2)
10010b08:	00168693          	addi	a3,a3,1
10010b0c:	00460613          	addi	a2,a2,4
10010b10:	00a36333          	or	t1,t1,a0
10010b14:	f19ff06f          	j	10010a2c <__subtf3+0x1268>
10010b18:	04060593          	addi	a1,a2,64
10010b1c:	002585b3          	add	a1,a1,sp
10010b20:	ff05a583          	lw	a1,-16(a1)
10010b24:	02000813          	li	a6,32
10010b28:	40f80833          	sub	a6,a6,a5
10010b2c:	010595b3          	sll	a1,a1,a6
10010b30:	00b36333          	or	t1,t1,a1
10010b34:	00000e13          	li	t3,0
10010b38:	00c885b3          	add	a1,a7,a2
10010b3c:	40c00633          	neg	a2,a2
10010b40:	06de4863          	blt	t3,a3,10010bb0 <__subtf3+0x13ec>
10010b44:	00400613          	li	a2,4
10010b48:	40e60733          	sub	a4,a2,a4
10010b4c:	03c12603          	lw	a2,60(sp)
10010b50:	00269693          	slli	a3,a3,0x2
10010b54:	04068693          	addi	a3,a3,64
10010b58:	002686b3          	add	a3,a3,sp
10010b5c:	00f657b3          	srl	a5,a2,a5
10010b60:	fef6a823          	sw	a5,-16(a3)
10010b64:	00400693          	li	a3,4
10010b68:	40e686b3          	sub	a3,a3,a4
10010b6c:	00271713          	slli	a4,a4,0x2
10010b70:	00e887b3          	add	a5,a7,a4
10010b74:	00269713          	slli	a4,a3,0x2
10010b78:	00800693          	li	a3,8
10010b7c:	00d76a63          	bltu	a4,a3,10010b90 <__subtf3+0x13cc>
10010b80:	0007a023          	sw	zero,0(a5)
10010b84:	0007a223          	sw	zero,4(a5)
10010b88:	ff870713          	addi	a4,a4,-8
10010b8c:	00878793          	addi	a5,a5,8
10010b90:	00400693          	li	a3,4
10010b94:	00d76463          	bltu	a4,a3,10010b9c <__subtf3+0x13d8>
10010b98:	0007a023          	sw	zero,0(a5)
10010b9c:	03012703          	lw	a4,48(sp)
10010ba0:	006037b3          	snez	a5,t1
10010ba4:	00f767b3          	or	a5,a4,a5
10010ba8:	02f12823          	sw	a5,48(sp)
10010bac:	c60ff06f          	j	1001000c <__subtf3+0x848>
10010bb0:	0005a503          	lw	a0,0(a1)
10010bb4:	0045ae83          	lw	t4,4(a1)
10010bb8:	00c58f33          	add	t5,a1,a2
10010bbc:	00f55533          	srl	a0,a0,a5
10010bc0:	010e9eb3          	sll	t4,t4,a6
10010bc4:	01d56533          	or	a0,a0,t4
10010bc8:	00af2023          	sw	a0,0(t5)
10010bcc:	001e0e13          	addi	t3,t3,1
10010bd0:	00458593          	addi	a1,a1,4
10010bd4:	f6dff06f          	j	10010b40 <__subtf3+0x137c>
10010bd8:	03c12783          	lw	a5,60(sp)
10010bdc:	fff80737          	lui	a4,0xfff80
10010be0:	fff70713          	addi	a4,a4,-1 # fff7ffff <_sp+0xeff62923>
10010be4:	00e7f7b3          	and	a5,a5,a4
10010be8:	40a484b3          	sub	s1,s1,a0
10010bec:	02f12e23          	sw	a5,60(sp)
10010bf0:	df1fe06f          	j	1000f9e0 <__subtf3+0x21c>
10010bf4:	02012e23          	sw	zero,60(sp)
10010bf8:	02012c23          	sw	zero,56(sp)
10010bfc:	02012a23          	sw	zero,52(sp)
10010c00:	02012823          	sw	zero,48(sp)
10010c04:	e5dfe06f          	j	1000fa60 <__subtf3+0x29c>
10010c08:	07400713          	li	a4,116
10010c0c:	00c74463          	blt	a4,a2,10010c14 <__subtf3+0x1450>
10010c10:	f51fe06f          	j	1000fb60 <__subtf3+0x39c>
10010c14:	02012623          	sw	zero,44(sp)
10010c18:	02012423          	sw	zero,40(sp)
10010c1c:	02012223          	sw	zero,36(sp)
10010c20:	00100713          	li	a4,1
10010c24:	82cff06f          	j	1000fc50 <__subtf3+0x48c>
10010c28:	07400793          	li	a5,116
10010c2c:	a0b7de63          	bge	a5,a1,1000fe48 <__subtf3+0x684>
10010c30:	00012e23          	sw	zero,28(sp)
10010c34:	00012c23          	sw	zero,24(sp)
10010c38:	00012a23          	sw	zero,20(sp)
10010c3c:	00100793          	li	a5,1
10010c40:	b00ff06f          	j	1000ff40 <__subtf3+0x77c>
10010c44:	07400793          	li	a5,116
10010c48:	a717c4e3          	blt	a5,a7,100106b0 <__subtf3+0xeec>
10010c4c:	00088313          	mv	t1,a7
10010c50:	8d5ff06f          	j	10010524 <__subtf3+0xd60>

10010c54 <__unordtf2>:
10010c54:	00052703          	lw	a4,0(a0)
10010c58:	00452e83          	lw	t4,4(a0)
10010c5c:	00852e03          	lw	t3,8(a0)
10010c60:	00c52503          	lw	a0,12(a0)
10010c64:	00c5a603          	lw	a2,12(a1)
10010c68:	000086b7          	lui	a3,0x8
10010c6c:	fff68693          	addi	a3,a3,-1 # 7fff <__heap_size+0x6fff>
10010c70:	01055813          	srli	a6,a0,0x10
10010c74:	0005a783          	lw	a5,0(a1)
10010c78:	0045a303          	lw	t1,4(a1)
10010c7c:	0085a883          	lw	a7,8(a1)
10010c80:	00d87833          	and	a6,a6,a3
10010c84:	01065593          	srli	a1,a2,0x10
10010c88:	ff010113          	addi	sp,sp,-16
10010c8c:	00d5f5b3          	and	a1,a1,a3
10010c90:	02d81063          	bne	a6,a3,10010cb0 <__unordtf2+0x5c>
10010c94:	01d76733          	or	a4,a4,t4
10010c98:	01051513          	slli	a0,a0,0x10
10010c9c:	01055513          	srli	a0,a0,0x10
10010ca0:	01c76733          	or	a4,a4,t3
10010ca4:	00a76733          	or	a4,a4,a0
10010ca8:	00100513          	li	a0,1
10010cac:	02071663          	bnez	a4,10010cd8 <__unordtf2+0x84>
10010cb0:	00008737          	lui	a4,0x8
10010cb4:	fff70713          	addi	a4,a4,-1 # 7fff <__heap_size+0x6fff>
10010cb8:	00000513          	li	a0,0
10010cbc:	00e59e63          	bne	a1,a4,10010cd8 <__unordtf2+0x84>
10010cc0:	0067e533          	or	a0,a5,t1
10010cc4:	01061613          	slli	a2,a2,0x10
10010cc8:	01156533          	or	a0,a0,a7
10010ccc:	01065613          	srli	a2,a2,0x10
10010cd0:	00c56533          	or	a0,a0,a2
10010cd4:	00a03533          	snez	a0,a0
10010cd8:	01010113          	addi	sp,sp,16
10010cdc:	00008067          	ret

10010ce0 <__fixtfsi>:
10010ce0:	00052703          	lw	a4,0(a0)
10010ce4:	00452683          	lw	a3,4(a0)
10010ce8:	00c52783          	lw	a5,12(a0)
10010cec:	00852583          	lw	a1,8(a0)
10010cf0:	fe010113          	addi	sp,sp,-32
10010cf4:	00e12023          	sw	a4,0(sp)
10010cf8:	00d12223          	sw	a3,4(sp)
10010cfc:	00e12823          	sw	a4,16(sp)
10010d00:	00179693          	slli	a3,a5,0x1
10010d04:	00004737          	lui	a4,0x4
10010d08:	00b12423          	sw	a1,8(sp)
10010d0c:	00f12623          	sw	a5,12(sp)
10010d10:	00b12c23          	sw	a1,24(sp)
10010d14:	0116d693          	srli	a3,a3,0x11
10010d18:	ffe70713          	addi	a4,a4,-2 # 3ffe <__heap_size+0x2ffe>
10010d1c:	00000513          	li	a0,0
10010d20:	02d75063          	bge	a4,a3,10010d40 <__fixtfsi+0x60>
10010d24:	00004737          	lui	a4,0x4
10010d28:	01d70713          	addi	a4,a4,29 # 401d <__heap_size+0x301d>
10010d2c:	01f7d813          	srli	a6,a5,0x1f
10010d30:	00d75c63          	bge	a4,a3,10010d48 <__fixtfsi+0x68>
10010d34:	80000537          	lui	a0,0x80000
10010d38:	fff50513          	addi	a0,a0,-1 # 7fffffff <_sp+0x6ffe2923>
10010d3c:	00a80533          	add	a0,a6,a0
10010d40:	02010113          	addi	sp,sp,32
10010d44:	00008067          	ret
10010d48:	01079793          	slli	a5,a5,0x10
10010d4c:	00010737          	lui	a4,0x10
10010d50:	0107d793          	srli	a5,a5,0x10
10010d54:	00e7e7b3          	or	a5,a5,a4
10010d58:	00004737          	lui	a4,0x4
10010d5c:	06f70713          	addi	a4,a4,111 # 406f <__heap_size+0x306f>
10010d60:	40d70733          	sub	a4,a4,a3
10010d64:	40575613          	srai	a2,a4,0x5
10010d68:	00f12e23          	sw	a5,28(sp)
10010d6c:	01f77713          	andi	a4,a4,31
10010d70:	02071463          	bnez	a4,10010d98 <__fixtfsi+0xb8>
10010d74:	00261613          	slli	a2,a2,0x2
10010d78:	02060793          	addi	a5,a2,32
10010d7c:	00278633          	add	a2,a5,sp
10010d80:	ff062783          	lw	a5,-16(a2)
10010d84:	00f12823          	sw	a5,16(sp)
10010d88:	01012503          	lw	a0,16(sp)
10010d8c:	fa080ae3          	beqz	a6,10010d40 <__fixtfsi+0x60>
10010d90:	40a00533          	neg	a0,a0
10010d94:	fadff06f          	j	10010d40 <__fixtfsi+0x60>
10010d98:	00200513          	li	a0,2
10010d9c:	00000693          	li	a3,0
10010da0:	02a61063          	bne	a2,a0,10010dc0 <__fixtfsi+0xe0>
10010da4:	02000693          	li	a3,32
10010da8:	40e686b3          	sub	a3,a3,a4
10010dac:	00d796b3          	sll	a3,a5,a3
10010db0:	00e5d5b3          	srl	a1,a1,a4
10010db4:	00b6e6b3          	or	a3,a3,a1
10010db8:	00d12823          	sw	a3,16(sp)
10010dbc:	00100693          	li	a3,1
10010dc0:	00269693          	slli	a3,a3,0x2
10010dc4:	02068693          	addi	a3,a3,32
10010dc8:	002686b3          	add	a3,a3,sp
10010dcc:	00e7d7b3          	srl	a5,a5,a4
10010dd0:	fef6a823          	sw	a5,-16(a3)
10010dd4:	fb5ff06f          	j	10010d88 <__fixtfsi+0xa8>

10010dd8 <__floatsitf>:
10010dd8:	fd010113          	addi	sp,sp,-48
10010ddc:	02912223          	sw	s1,36(sp)
10010de0:	02112623          	sw	ra,44(sp)
10010de4:	02812423          	sw	s0,40(sp)
10010de8:	03212023          	sw	s2,32(sp)
10010dec:	00050493          	mv	s1,a0
10010df0:	12058263          	beqz	a1,10010f14 <__floatsitf+0x13c>
10010df4:	41f5d793          	srai	a5,a1,0x1f
10010df8:	00b7c433          	xor	s0,a5,a1
10010dfc:	40f40433          	sub	s0,s0,a5
10010e00:	00040513          	mv	a0,s0
10010e04:	01f5d913          	srli	s2,a1,0x1f
10010e08:	8c4f10ef          	jal	10001ecc <__clzsi2>
10010e0c:	00004737          	lui	a4,0x4
10010e10:	01e70713          	addi	a4,a4,30 # 401e <__heap_size+0x301e>
10010e14:	05150793          	addi	a5,a0,81
10010e18:	40a70633          	sub	a2,a4,a0
10010e1c:	00812823          	sw	s0,16(sp)
10010e20:	4057d713          	srai	a4,a5,0x5
10010e24:	00012a23          	sw	zero,20(sp)
10010e28:	00012c23          	sw	zero,24(sp)
10010e2c:	00012e23          	sw	zero,28(sp)
10010e30:	01f7f793          	andi	a5,a5,31
10010e34:	02078c63          	beqz	a5,10010e6c <__floatsitf+0x94>
10010e38:	00200693          	li	a3,2
10010e3c:	0cd71863          	bne	a4,a3,10010f0c <__floatsitf+0x134>
10010e40:	02000693          	li	a3,32
10010e44:	40f686b3          	sub	a3,a3,a5
10010e48:	00d456b3          	srl	a3,s0,a3
10010e4c:	00d12e23          	sw	a3,28(sp)
10010e50:	fff70693          	addi	a3,a4,-1
10010e54:	00271713          	slli	a4,a4,0x2
10010e58:	02070713          	addi	a4,a4,32
10010e5c:	00270733          	add	a4,a4,sp
10010e60:	00f41433          	sll	s0,s0,a5
10010e64:	fe872823          	sw	s0,-16(a4)
10010e68:	0340006f          	j	10010e9c <__floatsitf+0xc4>
10010e6c:	00300793          	li	a5,3
10010e70:	40e787b3          	sub	a5,a5,a4
10010e74:	00279793          	slli	a5,a5,0x2
10010e78:	02078793          	addi	a5,a5,32
10010e7c:	002787b3          	add	a5,a5,sp
10010e80:	ff07a783          	lw	a5,-16(a5)
10010e84:	00200693          	li	a3,2
10010e88:	00f12e23          	sw	a5,28(sp)
10010e8c:	00200793          	li	a5,2
10010e90:	00f71663          	bne	a4,a5,10010e9c <__floatsitf+0xc4>
10010e94:	00812c23          	sw	s0,24(sp)
10010e98:	00100693          	li	a3,1
10010e9c:	00269693          	slli	a3,a3,0x2
10010ea0:	00012823          	sw	zero,16(sp)
10010ea4:	00012a23          	sw	zero,20(sp)
10010ea8:	ffc68693          	addi	a3,a3,-4
10010eac:	00400793          	li	a5,4
10010eb0:	00f6e463          	bltu	a3,a5,10010eb8 <__floatsitf+0xe0>
10010eb4:	00012c23          	sw	zero,24(sp)
10010eb8:	00090593          	mv	a1,s2
10010ebc:	01c12783          	lw	a5,28(sp)
10010ec0:	00f59413          	slli	s0,a1,0xf
10010ec4:	00c46433          	or	s0,s0,a2
10010ec8:	00f11623          	sh	a5,12(sp)
10010ecc:	01012783          	lw	a5,16(sp)
10010ed0:	00811723          	sh	s0,14(sp)
10010ed4:	02c12083          	lw	ra,44(sp)
10010ed8:	00f4a023          	sw	a5,0(s1)
10010edc:	01412783          	lw	a5,20(sp)
10010ee0:	02812403          	lw	s0,40(sp)
10010ee4:	02012903          	lw	s2,32(sp)
10010ee8:	00f4a223          	sw	a5,4(s1)
10010eec:	01812783          	lw	a5,24(sp)
10010ef0:	00048513          	mv	a0,s1
10010ef4:	00f4a423          	sw	a5,8(s1)
10010ef8:	00c12783          	lw	a5,12(sp)
10010efc:	00f4a623          	sw	a5,12(s1)
10010f00:	02412483          	lw	s1,36(sp)
10010f04:	03010113          	addi	sp,sp,48
10010f08:	00008067          	ret
10010f0c:	00300713          	li	a4,3
10010f10:	f41ff06f          	j	10010e50 <__floatsitf+0x78>
10010f14:	00012e23          	sw	zero,28(sp)
10010f18:	00012c23          	sw	zero,24(sp)
10010f1c:	00012a23          	sw	zero,20(sp)
10010f20:	00012823          	sw	zero,16(sp)
10010f24:	00000613          	li	a2,0
10010f28:	f95ff06f          	j	10010ebc <__floatsitf+0xe4>

10010f2c <__extenddftf2>:
10010f2c:	01465713          	srli	a4,a2,0x14
10010f30:	00c61793          	slli	a5,a2,0xc
10010f34:	7ff77713          	andi	a4,a4,2047
10010f38:	fd010113          	addi	sp,sp,-48
10010f3c:	00c7d793          	srli	a5,a5,0xc
10010f40:	00170693          	addi	a3,a4,1
10010f44:	02812423          	sw	s0,40(sp)
10010f48:	02912223          	sw	s1,36(sp)
10010f4c:	03212023          	sw	s2,32(sp)
10010f50:	02112623          	sw	ra,44(sp)
10010f54:	00b12823          	sw	a1,16(sp)
10010f58:	00f12a23          	sw	a5,20(sp)
10010f5c:	00012e23          	sw	zero,28(sp)
10010f60:	00012c23          	sw	zero,24(sp)
10010f64:	7fe6f693          	andi	a3,a3,2046
10010f68:	00050913          	mv	s2,a0
10010f6c:	00058413          	mv	s0,a1
10010f70:	01f65493          	srli	s1,a2,0x1f
10010f74:	08068263          	beqz	a3,10010ff8 <__extenddftf2+0xcc>
10010f78:	000046b7          	lui	a3,0x4
10010f7c:	c0068693          	addi	a3,a3,-1024 # 3c00 <__heap_size+0x2c00>
10010f80:	00d70733          	add	a4,a4,a3
10010f84:	0047d693          	srli	a3,a5,0x4
10010f88:	00d12e23          	sw	a3,28(sp)
10010f8c:	01c79793          	slli	a5,a5,0x1c
10010f90:	0045d693          	srli	a3,a1,0x4
10010f94:	00d7e7b3          	or	a5,a5,a3
10010f98:	01c59413          	slli	s0,a1,0x1c
10010f9c:	00f12c23          	sw	a5,24(sp)
10010fa0:	00812a23          	sw	s0,20(sp)
10010fa4:	00012823          	sw	zero,16(sp)
10010fa8:	01c12783          	lw	a5,28(sp)
10010fac:	00f49493          	slli	s1,s1,0xf
10010fb0:	00e4e4b3          	or	s1,s1,a4
10010fb4:	00f11623          	sh	a5,12(sp)
10010fb8:	01012783          	lw	a5,16(sp)
10010fbc:	00911723          	sh	s1,14(sp)
10010fc0:	02c12083          	lw	ra,44(sp)
10010fc4:	00f92023          	sw	a5,0(s2)
10010fc8:	01412783          	lw	a5,20(sp)
10010fcc:	02812403          	lw	s0,40(sp)
10010fd0:	02412483          	lw	s1,36(sp)
10010fd4:	00f92223          	sw	a5,4(s2)
10010fd8:	01812783          	lw	a5,24(sp)
10010fdc:	00090513          	mv	a0,s2
10010fe0:	00f92423          	sw	a5,8(s2)
10010fe4:	00c12783          	lw	a5,12(sp)
10010fe8:	00f92623          	sw	a5,12(s2)
10010fec:	02012903          	lw	s2,32(sp)
10010ff0:	03010113          	addi	sp,sp,48
10010ff4:	00008067          	ret
10010ff8:	00b7e533          	or	a0,a5,a1
10010ffc:	10071063          	bnez	a4,100110fc <__extenddftf2+0x1d0>
10011000:	fa0504e3          	beqz	a0,10010fa8 <__extenddftf2+0x7c>
10011004:	04078e63          	beqz	a5,10011060 <__extenddftf2+0x134>
10011008:	00078513          	mv	a0,a5
1001100c:	ec1f00ef          	jal	10001ecc <__clzsi2>
10011010:	03150693          	addi	a3,a0,49
10011014:	4056d793          	srai	a5,a3,0x5
10011018:	01f6f693          	andi	a3,a3,31
1001101c:	04068863          	beqz	a3,1001106c <__extenddftf2+0x140>
10011020:	ffc00613          	li	a2,-4
10011024:	02c78633          	mul	a2,a5,a2
10011028:	02000813          	li	a6,32
1001102c:	01010313          	addi	t1,sp,16
10011030:	40d80833          	sub	a6,a6,a3
10011034:	00c60713          	addi	a4,a2,12
10011038:	00e30733          	add	a4,t1,a4
1001103c:	40c00633          	neg	a2,a2
10011040:	08e31c63          	bne	t1,a4,100110d8 <__extenddftf2+0x1ac>
10011044:	fff78713          	addi	a4,a5,-1
10011048:	00279793          	slli	a5,a5,0x2
1001104c:	02078793          	addi	a5,a5,32
10011050:	002787b3          	add	a5,a5,sp
10011054:	00d416b3          	sll	a3,s0,a3
10011058:	fed7a823          	sw	a3,-16(a5)
1001105c:	03c0006f          	j	10011098 <__extenddftf2+0x16c>
10011060:	e6df00ef          	jal	10001ecc <__clzsi2>
10011064:	02050513          	addi	a0,a0,32
10011068:	fa9ff06f          	j	10011010 <__extenddftf2+0xe4>
1001106c:	ffc00613          	li	a2,-4
10011070:	02c78633          	mul	a2,a5,a2
10011074:	01c10713          	addi	a4,sp,28
10011078:	00300693          	li	a3,3
1001107c:	00c705b3          	add	a1,a4,a2
10011080:	0005a583          	lw	a1,0(a1)
10011084:	fff68693          	addi	a3,a3,-1
10011088:	ffc70713          	addi	a4,a4,-4
1001108c:	00b72223          	sw	a1,4(a4)
10011090:	fef6d6e3          	bge	a3,a5,1001107c <__extenddftf2+0x150>
10011094:	fff78713          	addi	a4,a5,-1
10011098:	00170793          	addi	a5,a4,1
1001109c:	00279793          	slli	a5,a5,0x2
100110a0:	00800693          	li	a3,8
100110a4:	01010713          	addi	a4,sp,16
100110a8:	00d7ea63          	bltu	a5,a3,100110bc <__extenddftf2+0x190>
100110ac:	00012823          	sw	zero,16(sp)
100110b0:	00072223          	sw	zero,4(a4)
100110b4:	ff878793          	addi	a5,a5,-8
100110b8:	01810713          	addi	a4,sp,24
100110bc:	00400693          	li	a3,4
100110c0:	00d7e463          	bltu	a5,a3,100110c8 <__extenddftf2+0x19c>
100110c4:	00072023          	sw	zero,0(a4)
100110c8:	00004737          	lui	a4,0x4
100110cc:	c0c70713          	addi	a4,a4,-1012 # 3c0c <__heap_size+0x2c0c>
100110d0:	40a70733          	sub	a4,a4,a0
100110d4:	ed5ff06f          	j	10010fa8 <__extenddftf2+0x7c>
100110d8:	00072583          	lw	a1,0(a4)
100110dc:	ffc72883          	lw	a7,-4(a4)
100110e0:	00c70e33          	add	t3,a4,a2
100110e4:	00d595b3          	sll	a1,a1,a3
100110e8:	0108d8b3          	srl	a7,a7,a6
100110ec:	0115e5b3          	or	a1,a1,a7
100110f0:	00be2023          	sw	a1,0(t3)
100110f4:	ffc70713          	addi	a4,a4,-4
100110f8:	f49ff06f          	j	10011040 <__extenddftf2+0x114>
100110fc:	02050863          	beqz	a0,1001112c <__extenddftf2+0x200>
10011100:	01c79713          	slli	a4,a5,0x1c
10011104:	0045d693          	srli	a3,a1,0x4
10011108:	00d76733          	or	a4,a4,a3
1001110c:	00e12c23          	sw	a4,24(sp)
10011110:	0047d793          	srli	a5,a5,0x4
10011114:	00008737          	lui	a4,0x8
10011118:	01c59413          	slli	s0,a1,0x1c
1001111c:	00e7e7b3          	or	a5,a5,a4
10011120:	00812a23          	sw	s0,20(sp)
10011124:	00012823          	sw	zero,16(sp)
10011128:	00f12e23          	sw	a5,28(sp)
1001112c:	00008737          	lui	a4,0x8
10011130:	fff70713          	addi	a4,a4,-1 # 7fff <__heap_size+0x6fff>
10011134:	e75ff06f          	j	10010fa8 <__extenddftf2+0x7c>
