
build/RTOSDemo.axf: formát súboru elf32-littleriscv


Rozloženie sekcie .init:

10000000 <_start>:
10000000:	00016197          	auipc	gp,0x16
10000004:	de018193          	addi	gp,gp,-544 # 10015de0 <__global_pointer$>
10000008:	00028117          	auipc	sp,0x28
1000000c:	56410113          	addi	sp,sp,1380 # 1002856c <_sp>
10000010:	00000517          	auipc	a0,0x0
10000014:	06050513          	addi	a0,a0,96 # 10000070 <__vector_start>
10000018:	00156513          	ori	a0,a0,1
1000001c:	30551073          	csrw	mtvec,a0
10000020:	00015517          	auipc	a0,0x15
10000024:	60450513          	addi	a0,a0,1540 # 10015624 <__bss_start>
10000028:	00027617          	auipc	a2,0x27
1000002c:	41060613          	addi	a2,a2,1040 # 10027438 <__BSS_END__>
10000030:	8e09                	sub	a2,a2,a0
10000032:	4581                	li	a1,0
10000034:	36c020ef          	jal	ra,100023a0 <memset>
10000038:	00002517          	auipc	a0,0x2
1000003c:	14850513          	addi	a0,a0,328 # 10002180 <__libc_fini_array>
10000040:	0f8020ef          	jal	ra,10002138 <atexit>
10000044:	198020ef          	jal	ra,100021dc <__libc_init_array>
10000048:	450d                	li	a0,3
1000004a:	0536                	slli	a0,a0,0xd
1000004c:	30452073          	csrs	mie,a0
10000050:	30046073          	csrsi	mstatus,8
10000054:	4501                	li	a0,0
10000056:	4581                	li	a1,0
10000058:	4601                	li	a2,0
1000005a:	1ac000ef          	jal	ra,10000206 <main>
1000005e:	0ee0206f          	j	1000214c <exit>

10000062 <_fini>:
10000062:	8082                	ret

Rozloženie sekcie .vectors:

10000070 <__vector_start>:
10000070:	6910106f          	j	10001f00 <freertos_risc_v_trap_handler>
10000074:	0540006f          	j	100000c8 <_no_irq_handler>
10000078:	0500006f          	j	100000c8 <_no_irq_handler>
1000007c:	04c0006f          	j	100000c8 <_no_irq_handler>
10000080:	0480006f          	j	100000c8 <_no_irq_handler>
10000084:	0440006f          	j	100000c8 <_no_irq_handler>
10000088:	0400006f          	j	100000c8 <_no_irq_handler>
1000008c:	4870106f          	j	10001d12 <freertos_risc_v_mtimer_interrupt_handler>
10000090:	0380006f          	j	100000c8 <_no_irq_handler>
10000094:	0340006f          	j	100000c8 <_no_irq_handler>
10000098:	0300006f          	j	100000c8 <_no_irq_handler>
1000009c:	02c0006f          	j	100000c8 <_no_irq_handler>
100000a0:	0280006f          	j	100000c8 <_no_irq_handler>
100000a4:	0240006f          	j	100000c8 <_no_irq_handler>
100000a8:	0200006f          	j	100000c8 <_no_irq_handler>
100000ac:	01c0006f          	j	100000c8 <_no_irq_handler>
100000b0:	0180006f          	j	100000c8 <_no_irq_handler>
100000b4:	01c0006f          	j	100000d0 <_fcer_irq_handler>
100000b8:	0300006f          	j	100000e8 <_lcer_irq_handler>
100000bc:	00c0006f          	j	100000c8 <_no_irq_handler>
100000c0:	0080006f          	j	100000c8 <_no_irq_handler>
100000c4:	0040006f          	j	100000c8 <_no_irq_handler>

100000c8 <_no_irq_handler>:
100000c8:	0840206f          	j	1000214c <exit>

100000cc <_exc_handler>:
100000cc:	0800206f          	j	1000214c <exit>

100000d0 <_fcer_irq_handler>:
100000d0:	34051073          	csrw	mscratch,a0
100000d4:	34259073          	csrw	mcause,a1
100000d8:	fc002573          	csrr	a0,0xfc0
100000dc:	00452583          	lw	a1,4(a0)
100000e0:	00b52223          	sw	a1,4(a0)
100000e4:	0100006f          	j	100000f4 <_cer_irq_finish>

100000e8 <_lcer_irq_handler>:
100000e8:	34051073          	csrw	mscratch,a0
100000ec:	34259073          	csrw	mcause,a1
100000f0:	fc002573          	csrr	a0,0xfc0

100000f4 <_cer_irq_finish>:
100000f4:	00052583          	lw	a1,0(a0)
100000f8:	00b52023          	sw	a1,0(a0)
100000fc:	00300513          	li	a0,3
10000100:	00d51513          	slli	a0,a0,0xd
10000104:	34453073          	csrc	mip,a0
10000108:	34002573          	csrr	a0,mscratch
1000010c:	342025f3          	csrr	a1,mcause
10000110:	30200073          	mret
	...

Rozloženie sekcie .text:

10000200 <_exit>:
10000200:	800007b7          	lui	a5,0x80000
10000204:	c3c8                	sw	a0,4(a5)

10000206 <main>:
10000206:	a8fd                	j	10000304 <main_blinky>

10000208 <register_fini>:
10000208:	00000793          	li	a5,0
1000020c:	00078863          	beqz	a5,1000021c <register_fini+0x14>
10000210:	10002537          	lui	a0,0x10002
10000214:	18050513          	addi	a0,a0,384 # 10002180 <__libc_fini_array>
10000218:	7210106f          	j	10002138 <atexit>
1000021c:	00008067          	ret

10000220 <vApplicationMallocFailedHook>:
10000220:	30047073          	csrci	mstatus,8
10000224:	a001                	j	10000224 <vApplicationMallocFailedHook+0x4>

10000226 <vApplicationStackOverflowHook>:
10000226:	30047073          	csrci	mstatus,8
1000022a:	a001                	j	1000022a <vApplicationStackOverflowHook+0x4>

1000022c <vApplicationTickHook>:
1000022c:	8082                	ret

1000022e <prvQueueReceiveTask>:
1000022e:	7139                	addi	sp,sp,-64
10000230:	dc22                	sw	s0,56(sp)
10000232:	da26                	sw	s1,52(sp)
10000234:	d84a                	sw	s2,48(sp)
10000236:	de06                	sw	ra,60(sp)
10000238:	00015917          	auipc	s2,0x15
1000023c:	3f090913          	addi	s2,s2,1008 # 10015628 <xQueue>
10000240:	00015417          	auipc	s0,0x15
10000244:	3d440413          	addi	s0,s0,980 # 10015614 <xCriticalNesting>
10000248:	00014497          	auipc	s1,0x14
1000024c:	c5048493          	addi	s1,s1,-944 # 10013e98 <__modsi3+0x34>
10000250:	00092503          	lw	a0,0(s2)
10000254:	004c                	addi	a1,sp,4
10000256:	567d                	li	a2,-1
10000258:	648000ef          	jal	ra,100008a0 <xQueueReceive>
1000025c:	36c010ef          	jal	ra,100015c8 <xTaskGetCurrentTaskHandle>
10000260:	076010ef          	jal	ra,100012d6 <pcTaskGetName>
10000264:	4692                	lw	a3,4(sp)
10000266:	862a                	mv	a2,a0
10000268:	85a6                	mv	a1,s1
1000026a:	0028                	addi	a0,sp,8
1000026c:	358020ef          	jal	ra,100025c4 <sprintf>
10000270:	30047073          	csrci	mstatus,8
10000274:	401c                	lw	a5,0(s0)
10000276:	0028                	addi	a0,sp,8
10000278:	0785                	addi	a5,a5,1
1000027a:	c01c                	sw	a5,0(s0)
1000027c:	2cc020ef          	jal	ra,10002548 <puts>
10000280:	401c                	lw	a5,0(s0)
10000282:	17fd                	addi	a5,a5,-1
10000284:	c01c                	sw	a5,0(s0)
10000286:	f7e9                	bnez	a5,10000250 <prvQueueReceiveTask+0x22>
10000288:	30046073          	csrsi	mstatus,8
1000028c:	b7d1                	j	10000250 <prvQueueReceiveTask+0x22>

1000028e <prvQueueSendTask>:
1000028e:	7139                	addi	sp,sp,-64
10000290:	dc22                	sw	s0,56(sp)
10000292:	da26                	sw	s1,52(sp)
10000294:	d84a                	sw	s2,48(sp)
10000296:	de06                	sw	ra,60(sp)
10000298:	c202                	sw	zero,4(sp)
1000029a:	032010ef          	jal	ra,100012cc <xTaskGetTickCount>
1000029e:	c02a                	sw	a0,0(sp)
100002a0:	00015417          	auipc	s0,0x15
100002a4:	37440413          	addi	s0,s0,884 # 10015614 <xCriticalNesting>
100002a8:	00015917          	auipc	s2,0x15
100002ac:	38090913          	addi	s2,s2,896 # 10015628 <xQueue>
100002b0:	00014497          	auipc	s1,0x14
100002b4:	bfc48493          	addi	s1,s1,-1028 # 10013eac <__modsi3+0x48>
100002b8:	4595                	li	a1,5
100002ba:	850a                	mv	a0,sp
100002bc:	7b9000ef          	jal	ra,10001274 <xTaskDelayUntil>
100002c0:	4792                	lw	a5,4(sp)
100002c2:	0785                	addi	a5,a5,1
100002c4:	c23e                	sw	a5,4(sp)
100002c6:	302010ef          	jal	ra,100015c8 <xTaskGetCurrentTaskHandle>
100002ca:	00c010ef          	jal	ra,100012d6 <pcTaskGetName>
100002ce:	4692                	lw	a3,4(sp)
100002d0:	862a                	mv	a2,a0
100002d2:	85a6                	mv	a1,s1
100002d4:	0028                	addi	a0,sp,8
100002d6:	2ee020ef          	jal	ra,100025c4 <sprintf>
100002da:	30047073          	csrci	mstatus,8
100002de:	401c                	lw	a5,0(s0)
100002e0:	0028                	addi	a0,sp,8
100002e2:	0785                	addi	a5,a5,1
100002e4:	c01c                	sw	a5,0(s0)
100002e6:	262020ef          	jal	ra,10002548 <puts>
100002ea:	401c                	lw	a5,0(s0)
100002ec:	17fd                	addi	a5,a5,-1
100002ee:	c01c                	sw	a5,0(s0)
100002f0:	e399                	bnez	a5,100002f6 <prvQueueSendTask+0x68>
100002f2:	30046073          	csrsi	mstatus,8
100002f6:	00092503          	lw	a0,0(s2)
100002fa:	4681                	li	a3,0
100002fc:	4601                	li	a2,0
100002fe:	004c                	addi	a1,sp,4
10000300:	2981                	jal	10000750 <xQueueGenericSend>
10000302:	bf5d                	j	100002b8 <prvQueueSendTask+0x2a>

10000304 <main_blinky>:
10000304:	1141                	addi	sp,sp,-16
10000306:	c606                	sw	ra,12(sp)
10000308:	c422                	sw	s0,8(sp)
1000030a:	30047073          	csrci	mstatus,8
1000030e:	00015417          	auipc	s0,0x15
10000312:	30640413          	addi	s0,s0,774 # 10015614 <xCriticalNesting>
10000316:	401c                	lw	a5,0(s0)
10000318:	00014517          	auipc	a0,0x14
1000031c:	ba450513          	addi	a0,a0,-1116 # 10013ebc <__modsi3+0x58>
10000320:	0785                	addi	a5,a5,1
10000322:	c01c                	sw	a5,0(s0)
10000324:	224020ef          	jal	ra,10002548 <puts>
10000328:	401c                	lw	a5,0(s0)
1000032a:	17fd                	addi	a5,a5,-1
1000032c:	c01c                	sw	a5,0(s0)
1000032e:	e399                	bnez	a5,10000334 <main_blinky+0x30>
10000330:	30046073          	csrsi	mstatus,8
10000334:	4601                	li	a2,0
10000336:	4591                	li	a1,4
10000338:	4505                	li	a0,1
1000033a:	2e71                	jal	100006d6 <xQueueGenericCreate>
1000033c:	00015797          	auipc	a5,0x15
10000340:	2ea7a623          	sw	a0,748(a5) # 10015628 <xQueue>
10000344:	cd1d                	beqz	a0,10000382 <main_blinky+0x7e>
10000346:	4781                	li	a5,0
10000348:	4709                	li	a4,2
1000034a:	4681                	li	a3,0
1000034c:	40000613          	li	a2,1024
10000350:	00014597          	auipc	a1,0x14
10000354:	b8458593          	addi	a1,a1,-1148 # 10013ed4 <__modsi3+0x70>
10000358:	00000517          	auipc	a0,0x0
1000035c:	ed650513          	addi	a0,a0,-298 # 1000022e <prvQueueReceiveTask>
10000360:	27d000ef          	jal	ra,10000ddc <xTaskCreate>
10000364:	4781                	li	a5,0
10000366:	4705                	li	a4,1
10000368:	4681                	li	a3,0
1000036a:	40000613          	li	a2,1024
1000036e:	00014597          	auipc	a1,0x14
10000372:	b6a58593          	addi	a1,a1,-1174 # 10013ed8 <__modsi3+0x74>
10000376:	00000517          	auipc	a0,0x0
1000037a:	f1850513          	addi	a0,a0,-232 # 1000028e <prvQueueSendTask>
1000037e:	25f000ef          	jal	ra,10000ddc <xTaskCreate>
10000382:	493000ef          	jal	ra,10001014 <vTaskStartScheduler>
10000386:	40b2                	lw	ra,12(sp)
10000388:	4422                	lw	s0,8(sp)
1000038a:	4501                	li	a0,0
1000038c:	0141                	addi	sp,sp,16
1000038e:	8082                	ret

10000390 <_close>:
10000390:	557d                	li	a0,-1
10000392:	8082                	ret

10000394 <_fstat>:
10000394:	6789                	lui	a5,0x2
10000396:	c1dc                	sw	a5,4(a1)
10000398:	4501                	li	a0,0
1000039a:	8082                	ret

1000039c <_getpid>:
1000039c:	4505                	li	a0,1
1000039e:	8082                	ret

100003a0 <_isatty>:
100003a0:	157d                	addi	a0,a0,-1
100003a2:	00153513          	seqz	a0,a0
100003a6:	8082                	ret

100003a8 <_kill>:
100003a8:	47d9                	li	a5,22
100003aa:	00015717          	auipc	a4,0x15
100003ae:	30f72123          	sw	a5,770(a4) # 100156ac <errno>
100003b2:	557d                	li	a0,-1
100003b4:	8082                	ret

100003b6 <_lseek>:
100003b6:	4501                	li	a0,0
100003b8:	8082                	ret

100003ba <_read>:
100003ba:	4501                	li	a0,0
100003bc:	8082                	ret

100003be <_write>:
100003be:	4785                	li	a5,1
100003c0:	02f51063          	bne	a0,a5,100003e0 <_write+0x22>
100003c4:	00c58733          	add	a4,a1,a2
100003c8:	00e58a63          	beq	a1,a4,100003dc <_write+0x1e>
100003cc:	800006b7          	lui	a3,0x80000
100003d0:	0005c783          	lbu	a5,0(a1)
100003d4:	0585                	addi	a1,a1,1
100003d6:	c29c                	sw	a5,0(a3)
100003d8:	feb71ce3          	bne	a4,a1,100003d0 <_write+0x12>
100003dc:	8532                	mv	a0,a2
100003de:	8082                	ret
100003e0:	05800793          	li	a5,88
100003e4:	00015717          	auipc	a4,0x15
100003e8:	2cf72423          	sw	a5,712(a4) # 100156ac <errno>
100003ec:	557d                	li	a0,-1
100003ee:	8082                	ret

100003f0 <_sbrk>:
100003f0:	00015617          	auipc	a2,0x15
100003f4:	21460613          	addi	a2,a2,532 # 10015604 <brk>
100003f8:	00027697          	auipc	a3,0x27
100003fc:	04068693          	addi	a3,a3,64 # 10027438 <__BSS_END__>
10000400:	00028717          	auipc	a4,0x28
10000404:	03870713          	addi	a4,a4,56 # 10028438 <__heap_end>
10000408:	87aa                	mv	a5,a0
1000040a:	4208                	lw	a0,0(a2)
1000040c:	00e68b63          	beq	a3,a4,10000422 <_sbrk+0x32>
10000410:	00f506b3          	add	a3,a0,a5
10000414:	00e6f563          	bgeu	a3,a4,1000041e <_sbrk+0x2e>
10000418:	96be                	add	a3,a3,a5
1000041a:	c214                	sw	a3,0(a2)
1000041c:	8082                	ret
1000041e:	c218                	sw	a4,0(a2)
10000420:	8082                	ret
10000422:	4501                	li	a0,0
10000424:	8082                	ret

10000426 <vListInitialise>:
10000426:	00850793          	addi	a5,a0,8
1000042a:	577d                	li	a4,-1
1000042c:	c15c                	sw	a5,4(a0)
1000042e:	c518                	sw	a4,8(a0)
10000430:	c55c                	sw	a5,12(a0)
10000432:	c91c                	sw	a5,16(a0)
10000434:	00052023          	sw	zero,0(a0)
10000438:	8082                	ret

1000043a <vListInitialiseItem>:
1000043a:	00052823          	sw	zero,16(a0)
1000043e:	8082                	ret

10000440 <vListInsert>:
10000440:	4190                	lw	a2,0(a1)
10000442:	577d                	li	a4,-1
10000444:	00850793          	addi	a5,a0,8
10000448:	02e60063          	beq	a2,a4,10000468 <vListInsert+0x28>
1000044c:	86be                	mv	a3,a5
1000044e:	43dc                	lw	a5,4(a5)
10000450:	4398                	lw	a4,0(a5)
10000452:	fee67de3          	bgeu	a2,a4,1000044c <vListInsert+0xc>
10000456:	c1dc                	sw	a5,4(a1)
10000458:	c78c                	sw	a1,8(a5)
1000045a:	411c                	lw	a5,0(a0)
1000045c:	c594                	sw	a3,8(a1)
1000045e:	c2cc                	sw	a1,4(a3)
10000460:	c988                	sw	a0,16(a1)
10000462:	0785                	addi	a5,a5,1
10000464:	c11c                	sw	a5,0(a0)
10000466:	8082                	ret
10000468:	4914                	lw	a3,16(a0)
1000046a:	42dc                	lw	a5,4(a3)
1000046c:	b7ed                	j	10000456 <vListInsert+0x16>

1000046e <uxListRemove>:
1000046e:	491c                	lw	a5,16(a0)
10000470:	4154                	lw	a3,4(a0)
10000472:	4518                	lw	a4,8(a0)
10000474:	43d0                	lw	a2,4(a5)
10000476:	c698                	sw	a4,8(a3)
10000478:	c354                	sw	a3,4(a4)
1000047a:	00a60963          	beq	a2,a0,1000048c <uxListRemove+0x1e>
1000047e:	4398                	lw	a4,0(a5)
10000480:	00052823          	sw	zero,16(a0)
10000484:	177d                	addi	a4,a4,-1
10000486:	c398                	sw	a4,0(a5)
10000488:	4388                	lw	a0,0(a5)
1000048a:	8082                	ret
1000048c:	c3d8                	sw	a4,4(a5)
1000048e:	4398                	lw	a4,0(a5)
10000490:	00052823          	sw	zero,16(a0)
10000494:	177d                	addi	a4,a4,-1
10000496:	c398                	sw	a4,0(a5)
10000498:	4388                	lw	a0,0(a5)
1000049a:	8082                	ret

1000049c <prvCopyDataToQueue>:
1000049c:	1141                	addi	sp,sp,-16
1000049e:	413c                	lw	a5,64(a0)
100004a0:	c226                	sw	s1,4(sp)
100004a2:	5d04                	lw	s1,56(a0)
100004a4:	c422                	sw	s0,8(sp)
100004a6:	c606                	sw	ra,12(sp)
100004a8:	c04a                	sw	s2,0(sp)
100004aa:	842a                	mv	s0,a0
100004ac:	ef81                	bnez	a5,100004c4 <prvCopyDataToQueue+0x28>
100004ae:	411c                	lw	a5,0(a0)
100004b0:	0485                	addi	s1,s1,1
100004b2:	4501                	li	a0,0
100004b4:	cfa5                	beqz	a5,1000052c <prvCopyDataToQueue+0x90>
100004b6:	dc04                	sw	s1,56(s0)
100004b8:	40b2                	lw	ra,12(sp)
100004ba:	4422                	lw	s0,8(sp)
100004bc:	4492                	lw	s1,4(sp)
100004be:	4902                	lw	s2,0(sp)
100004c0:	0141                	addi	sp,sp,16
100004c2:	8082                	ret
100004c4:	8932                	mv	s2,a2
100004c6:	e61d                	bnez	a2,100004f4 <prvCopyDataToQueue+0x58>
100004c8:	4148                	lw	a0,4(a0)
100004ca:	863e                	mv	a2,a5
100004cc:	0485                	addi	s1,s1,1
100004ce:	5ab010ef          	jal	ra,10002278 <memcpy>
100004d2:	405c                	lw	a5,4(s0)
100004d4:	4034                	lw	a3,64(s0)
100004d6:	4418                	lw	a4,8(s0)
100004d8:	4501                	li	a0,0
100004da:	97b6                	add	a5,a5,a3
100004dc:	c05c                	sw	a5,4(s0)
100004de:	fce7ece3          	bltu	a5,a4,100004b6 <prvCopyDataToQueue+0x1a>
100004e2:	401c                	lw	a5,0(s0)
100004e4:	dc04                	sw	s1,56(s0)
100004e6:	40b2                	lw	ra,12(sp)
100004e8:	c05c                	sw	a5,4(s0)
100004ea:	4422                	lw	s0,8(sp)
100004ec:	4492                	lw	s1,4(sp)
100004ee:	4902                	lw	s2,0(sp)
100004f0:	0141                	addi	sp,sp,16
100004f2:	8082                	ret
100004f4:	4548                	lw	a0,12(a0)
100004f6:	863e                	mv	a2,a5
100004f8:	581010ef          	jal	ra,10002278 <memcpy>
100004fc:	4038                	lw	a4,64(s0)
100004fe:	445c                	lw	a5,12(s0)
10000500:	4014                	lw	a3,0(s0)
10000502:	40e00633          	neg	a2,a4
10000506:	8f99                	sub	a5,a5,a4
10000508:	c45c                	sw	a5,12(s0)
1000050a:	00d7f563          	bgeu	a5,a3,10000514 <prvCopyDataToQueue+0x78>
1000050e:	441c                	lw	a5,8(s0)
10000510:	97b2                	add	a5,a5,a2
10000512:	c45c                	sw	a5,12(s0)
10000514:	4789                	li	a5,2
10000516:	02f90163          	beq	s2,a5,10000538 <prvCopyDataToQueue+0x9c>
1000051a:	0485                	addi	s1,s1,1
1000051c:	dc04                	sw	s1,56(s0)
1000051e:	40b2                	lw	ra,12(sp)
10000520:	4422                	lw	s0,8(sp)
10000522:	4492                	lw	s1,4(sp)
10000524:	4902                	lw	s2,0(sp)
10000526:	4501                	li	a0,0
10000528:	0141                	addi	sp,sp,16
1000052a:	8082                	ret
1000052c:	4408                	lw	a0,8(s0)
1000052e:	0a4010ef          	jal	ra,100015d2 <xTaskPriorityDisinherit>
10000532:	00042423          	sw	zero,8(s0)
10000536:	b741                	j	100004b6 <prvCopyDataToQueue+0x1a>
10000538:	c099                	beqz	s1,1000053e <prvCopyDataToQueue+0xa2>
1000053a:	4501                	li	a0,0
1000053c:	bfad                	j	100004b6 <prvCopyDataToQueue+0x1a>
1000053e:	4485                	li	s1,1
10000540:	4501                	li	a0,0
10000542:	bf95                	j	100004b6 <prvCopyDataToQueue+0x1a>

10000544 <prvUnlockQueue>:
10000544:	1101                	addi	sp,sp,-32
10000546:	ca26                	sw	s1,20(sp)
10000548:	ce06                	sw	ra,28(sp)
1000054a:	cc22                	sw	s0,24(sp)
1000054c:	c84a                	sw	s2,16(sp)
1000054e:	c64e                	sw	s3,12(sp)
10000550:	84aa                	mv	s1,a0
10000552:	30047073          	csrci	mstatus,8
10000556:	00015917          	auipc	s2,0x15
1000055a:	0be90913          	addi	s2,s2,190 # 10015614 <xCriticalNesting>
1000055e:	00092703          	lw	a4,0(s2)
10000562:	04554783          	lbu	a5,69(a0)
10000566:	00170693          	addi	a3,a4,1
1000056a:	01879413          	slli	s0,a5,0x18
1000056e:	00d92023          	sw	a3,0(s2)
10000572:	8461                	srai	s0,s0,0x18
10000574:	04805063          	blez	s0,100005b4 <prvUnlockQueue+0x70>
10000578:	02450993          	addi	s3,a0,36
1000057c:	a809                	j	1000058e <prvUnlockQueue+0x4a>
1000057e:	fff40793          	addi	a5,s0,-1
10000582:	01879413          	slli	s0,a5,0x18
10000586:	0ff7f713          	zext.b	a4,a5
1000058a:	8461                	srai	s0,s0,0x18
1000058c:	c30d                	beqz	a4,100005ae <prvUnlockQueue+0x6a>
1000058e:	50dc                	lw	a5,36(s1)
10000590:	854e                	mv	a0,s3
10000592:	cf91                	beqz	a5,100005ae <prvUnlockQueue+0x6a>
10000594:	6a1000ef          	jal	ra,10001434 <xTaskRemoveFromEventList>
10000598:	d17d                	beqz	a0,1000057e <prvUnlockQueue+0x3a>
1000059a:	022010ef          	jal	ra,100015bc <vTaskMissedYield>
1000059e:	fff40793          	addi	a5,s0,-1
100005a2:	01879413          	slli	s0,a5,0x18
100005a6:	0ff7f713          	zext.b	a4,a5
100005aa:	8461                	srai	s0,s0,0x18
100005ac:	f36d                	bnez	a4,1000058e <prvUnlockQueue+0x4a>
100005ae:	00092703          	lw	a4,0(s2)
100005b2:	177d                	addi	a4,a4,-1
100005b4:	57fd                	li	a5,-1
100005b6:	04f482a3          	sb	a5,69(s1)
100005ba:	00e92023          	sw	a4,0(s2)
100005be:	e319                	bnez	a4,100005c4 <prvUnlockQueue+0x80>
100005c0:	30046073          	csrsi	mstatus,8
100005c4:	30047073          	csrci	mstatus,8
100005c8:	00092703          	lw	a4,0(s2)
100005cc:	0444c783          	lbu	a5,68(s1)
100005d0:	00170693          	addi	a3,a4,1
100005d4:	01879413          	slli	s0,a5,0x18
100005d8:	00d92023          	sw	a3,0(s2)
100005dc:	8461                	srai	s0,s0,0x18
100005de:	04805063          	blez	s0,1000061e <prvUnlockQueue+0xda>
100005e2:	01048993          	addi	s3,s1,16
100005e6:	a809                	j	100005f8 <prvUnlockQueue+0xb4>
100005e8:	fff40793          	addi	a5,s0,-1
100005ec:	01879413          	slli	s0,a5,0x18
100005f0:	0ff7f713          	zext.b	a4,a5
100005f4:	8461                	srai	s0,s0,0x18
100005f6:	c30d                	beqz	a4,10000618 <prvUnlockQueue+0xd4>
100005f8:	489c                	lw	a5,16(s1)
100005fa:	854e                	mv	a0,s3
100005fc:	cf91                	beqz	a5,10000618 <prvUnlockQueue+0xd4>
100005fe:	637000ef          	jal	ra,10001434 <xTaskRemoveFromEventList>
10000602:	d17d                	beqz	a0,100005e8 <prvUnlockQueue+0xa4>
10000604:	7b9000ef          	jal	ra,100015bc <vTaskMissedYield>
10000608:	fff40793          	addi	a5,s0,-1
1000060c:	01879413          	slli	s0,a5,0x18
10000610:	0ff7f713          	zext.b	a4,a5
10000614:	8461                	srai	s0,s0,0x18
10000616:	f36d                	bnez	a4,100005f8 <prvUnlockQueue+0xb4>
10000618:	00092703          	lw	a4,0(s2)
1000061c:	177d                	addi	a4,a4,-1
1000061e:	57fd                	li	a5,-1
10000620:	04f48223          	sb	a5,68(s1)
10000624:	00e92023          	sw	a4,0(s2)
10000628:	e319                	bnez	a4,1000062e <prvUnlockQueue+0xea>
1000062a:	30046073          	csrsi	mstatus,8
1000062e:	40f2                	lw	ra,28(sp)
10000630:	4462                	lw	s0,24(sp)
10000632:	44d2                	lw	s1,20(sp)
10000634:	4942                	lw	s2,16(sp)
10000636:	49b2                	lw	s3,12(sp)
10000638:	6105                	addi	sp,sp,32
1000063a:	8082                	ret

1000063c <xQueueGenericReset>:
1000063c:	c925                	beqz	a0,100006ac <xQueueGenericReset+0x70>
1000063e:	5d5c                	lw	a5,60(a0)
10000640:	1141                	addi	sp,sp,-16
10000642:	c422                	sw	s0,8(sp)
10000644:	c606                	sw	ra,12(sp)
10000646:	c226                	sw	s1,4(sp)
10000648:	842a                	mv	s0,a0
1000064a:	4501                	li	a0,0
1000064c:	cbb9                	beqz	a5,100006a2 <xQueueGenericReset+0x66>
1000064e:	4038                	lw	a4,64(s0)
10000650:	02e7b7b3          	mulhu	a5,a5,a4
10000654:	e7b9                	bnez	a5,100006a2 <xQueueGenericReset+0x66>
10000656:	30047073          	csrci	mstatus,8
1000065a:	4030                	lw	a2,64(s0)
1000065c:	5c5c                	lw	a5,60(s0)
1000065e:	00015497          	auipc	s1,0x15
10000662:	fb648493          	addi	s1,s1,-74 # 10015614 <xCriticalNesting>
10000666:	4018                	lw	a4,0(s0)
10000668:	02f607b3          	mul	a5,a2,a5
1000066c:	4094                	lw	a3,0(s1)
1000066e:	02042c23          	sw	zero,56(s0)
10000672:	557d                	li	a0,-1
10000674:	00168813          	addi	a6,a3,1
10000678:	04a40223          	sb	a0,68(s0)
1000067c:	c058                	sw	a4,4(s0)
1000067e:	0104a023          	sw	a6,0(s1)
10000682:	04a402a3          	sb	a0,69(s0)
10000686:	40c78633          	sub	a2,a5,a2
1000068a:	97ba                	add	a5,a5,a4
1000068c:	9732                	add	a4,a4,a2
1000068e:	c41c                	sw	a5,8(s0)
10000690:	c458                	sw	a4,12(s0)
10000692:	ed99                	bnez	a1,100006b0 <xQueueGenericReset+0x74>
10000694:	481c                	lw	a5,16(s0)
10000696:	e795                	bnez	a5,100006c2 <xQueueGenericReset+0x86>
10000698:	c094                	sw	a3,0(s1)
1000069a:	4505                	li	a0,1
1000069c:	e299                	bnez	a3,100006a2 <xQueueGenericReset+0x66>
1000069e:	30046073          	csrsi	mstatus,8
100006a2:	40b2                	lw	ra,12(sp)
100006a4:	4422                	lw	s0,8(sp)
100006a6:	4492                	lw	s1,4(sp)
100006a8:	0141                	addi	sp,sp,16
100006aa:	8082                	ret
100006ac:	4501                	li	a0,0
100006ae:	8082                	ret
100006b0:	01040513          	addi	a0,s0,16
100006b4:	3b8d                	jal	10000426 <vListInitialise>
100006b6:	02440513          	addi	a0,s0,36
100006ba:	33b5                	jal	10000426 <vListInitialise>
100006bc:	4094                	lw	a3,0(s1)
100006be:	16fd                	addi	a3,a3,-1
100006c0:	bfe1                	j	10000698 <xQueueGenericReset+0x5c>
100006c2:	01040513          	addi	a0,s0,16
100006c6:	56f000ef          	jal	ra,10001434 <xTaskRemoveFromEventList>
100006ca:	d96d                	beqz	a0,100006bc <xQueueGenericReset+0x80>
100006cc:	00000073          	ecall
100006d0:	4094                	lw	a3,0(s1)
100006d2:	16fd                	addi	a3,a3,-1
100006d4:	b7d1                	j	10000698 <xQueueGenericReset+0x5c>

100006d6 <xQueueGenericCreate>:
100006d6:	1141                	addi	sp,sp,-16
100006d8:	c606                	sw	ra,12(sp)
100006da:	c422                	sw	s0,8(sp)
100006dc:	c226                	sw	s1,4(sp)
100006de:	c04a                	sw	s2,0(sp)
100006e0:	c521                	beqz	a0,10000728 <xQueueGenericCreate+0x52>
100006e2:	02a5b7b3          	mulhu	a5,a1,a0
100006e6:	842a                	mv	s0,a0
100006e8:	84ae                	mv	s1,a1
100006ea:	ef9d                	bnez	a5,10000728 <xQueueGenericCreate+0x52>
100006ec:	02b50533          	mul	a0,a0,a1
100006f0:	fb700793          	li	a5,-73
100006f4:	02a7ea63          	bltu	a5,a0,10000728 <xQueueGenericCreate+0x52>
100006f8:	04850513          	addi	a0,a0,72
100006fc:	2e0010ef          	jal	ra,100019dc <pvPortMalloc>
10000700:	892a                	mv	s2,a0
10000702:	c11d                	beqz	a0,10000728 <xQueueGenericCreate+0x52>
10000704:	87aa                	mv	a5,a0
10000706:	e88d                	bnez	s1,10000738 <xQueueGenericCreate+0x62>
10000708:	00f92023          	sw	a5,0(s2)
1000070c:	02892e23          	sw	s0,60(s2)
10000710:	04992023          	sw	s1,64(s2)
10000714:	4585                	li	a1,1
10000716:	854a                	mv	a0,s2
10000718:	3715                	jal	1000063c <xQueueGenericReset>
1000071a:	40b2                	lw	ra,12(sp)
1000071c:	4422                	lw	s0,8(sp)
1000071e:	4492                	lw	s1,4(sp)
10000720:	854a                	mv	a0,s2
10000722:	4902                	lw	s2,0(sp)
10000724:	0141                	addi	sp,sp,16
10000726:	8082                	ret
10000728:	40b2                	lw	ra,12(sp)
1000072a:	4422                	lw	s0,8(sp)
1000072c:	4901                	li	s2,0
1000072e:	4492                	lw	s1,4(sp)
10000730:	854a                	mv	a0,s2
10000732:	4902                	lw	s2,0(sp)
10000734:	0141                	addi	sp,sp,16
10000736:	8082                	ret
10000738:	04850793          	addi	a5,a0,72
1000073c:	00f92023          	sw	a5,0(s2)
10000740:	02892e23          	sw	s0,60(s2)
10000744:	04992023          	sw	s1,64(s2)
10000748:	4585                	li	a1,1
1000074a:	854a                	mv	a0,s2
1000074c:	3dc5                	jal	1000063c <xQueueGenericReset>
1000074e:	b7f1                	j	1000071a <xQueueGenericCreate+0x44>

10000750 <xQueueGenericSend>:
10000750:	7139                	addi	sp,sp,-64
10000752:	dc22                	sw	s0,56(sp)
10000754:	d452                	sw	s4,40(sp)
10000756:	d256                	sw	s5,36(sp)
10000758:	de06                	sw	ra,60(sp)
1000075a:	da26                	sw	s1,52(sp)
1000075c:	d84a                	sw	s2,48(sp)
1000075e:	d64e                	sw	s3,44(sp)
10000760:	842a                	mv	s0,a0
10000762:	8aae                	mv	s5,a1
10000764:	c632                	sw	a2,12(sp)
10000766:	8a36                	mv	s4,a3
10000768:	30047073          	csrci	mstatus,8
1000076c:	00015497          	auipc	s1,0x15
10000770:	ea848493          	addi	s1,s1,-344 # 10015614 <xCriticalNesting>
10000774:	409c                	lw	a5,0(s1)
10000776:	5d18                	lw	a4,56(a0)
10000778:	5d54                	lw	a3,60(a0)
1000077a:	00178613          	addi	a2,a5,1 # 2001 <__heap_size+0x1001>
1000077e:	c090                	sw	a2,0(s1)
10000780:	0ed76163          	bltu	a4,a3,10000862 <xQueueGenericSend+0x112>
10000784:	4709                	li	a4,2
10000786:	0cea0e63          	beq	s4,a4,10000862 <xQueueGenericSend+0x112>
1000078a:	4732                	lw	a4,12(sp)
1000078c:	c351                	beqz	a4,10000810 <xQueueGenericSend+0xc0>
1000078e:	0828                	addi	a0,sp,24
10000790:	581000ef          	jal	ra,10001510 <vTaskInternalSetTimeOutState>
10000794:	597d                	li	s2,-1
10000796:	01040993          	addi	s3,s0,16
1000079a:	409c                	lw	a5,0(s1)
1000079c:	17fd                	addi	a5,a5,-1
1000079e:	c09c                	sw	a5,0(s1)
100007a0:	e399                	bnez	a5,100007a6 <xQueueGenericSend+0x56>
100007a2:	30046073          	csrsi	mstatus,8
100007a6:	107000ef          	jal	ra,100010ac <vTaskSuspendAll>
100007aa:	30047073          	csrci	mstatus,8
100007ae:	04444783          	lbu	a5,68(s0)
100007b2:	4098                	lw	a4,0(s1)
100007b4:	07e2                	slli	a5,a5,0x18
100007b6:	87e1                	srai	a5,a5,0x18
100007b8:	01279463          	bne	a5,s2,100007c0 <xQueueGenericSend+0x70>
100007bc:	04040223          	sb	zero,68(s0)
100007c0:	04544783          	lbu	a5,69(s0)
100007c4:	07e2                	slli	a5,a5,0x18
100007c6:	87e1                	srai	a5,a5,0x18
100007c8:	07278263          	beq	a5,s2,1000082c <xQueueGenericSend+0xdc>
100007cc:	e319                	bnez	a4,100007d2 <xQueueGenericSend+0x82>
100007ce:	30046073          	csrsi	mstatus,8
100007d2:	006c                	addi	a1,sp,12
100007d4:	0828                	addi	a0,sp,24
100007d6:	551000ef          	jal	ra,10001526 <xTaskCheckForTimeOut>
100007da:	e54d                	bnez	a0,10000884 <xQueueGenericSend+0x134>
100007dc:	30047073          	csrci	mstatus,8
100007e0:	5c14                	lw	a3,56(s0)
100007e2:	5c58                	lw	a4,60(s0)
100007e4:	409c                	lw	a5,0(s1)
100007e6:	04e68663          	beq	a3,a4,10000832 <xQueueGenericSend+0xe2>
100007ea:	e399                	bnez	a5,100007f0 <xQueueGenericSend+0xa0>
100007ec:	30046073          	csrsi	mstatus,8
100007f0:	8522                	mv	a0,s0
100007f2:	3b89                	jal	10000544 <prvUnlockQueue>
100007f4:	0c9000ef          	jal	ra,100010bc <xTaskResumeAll>
100007f8:	30047073          	csrci	mstatus,8
100007fc:	409c                	lw	a5,0(s1)
100007fe:	5c14                	lw	a3,56(s0)
10000800:	5c58                	lw	a4,60(s0)
10000802:	00178613          	addi	a2,a5,1
10000806:	c090                	sw	a2,0(s1)
10000808:	04e6ed63          	bltu	a3,a4,10000862 <xQueueGenericSend+0x112>
1000080c:	4732                	lw	a4,12(sp)
1000080e:	f751                	bnez	a4,1000079a <xQueueGenericSend+0x4a>
10000810:	c09c                	sw	a5,0(s1)
10000812:	4501                	li	a0,0
10000814:	e399                	bnez	a5,1000081a <xQueueGenericSend+0xca>
10000816:	30046073          	csrsi	mstatus,8
1000081a:	50f2                	lw	ra,60(sp)
1000081c:	5462                	lw	s0,56(sp)
1000081e:	54d2                	lw	s1,52(sp)
10000820:	5942                	lw	s2,48(sp)
10000822:	59b2                	lw	s3,44(sp)
10000824:	5a22                	lw	s4,40(sp)
10000826:	5a92                	lw	s5,36(sp)
10000828:	6121                	addi	sp,sp,64
1000082a:	8082                	ret
1000082c:	040402a3          	sb	zero,69(s0)
10000830:	bf71                	j	100007cc <xQueueGenericSend+0x7c>
10000832:	e399                	bnez	a5,10000838 <xQueueGenericSend+0xe8>
10000834:	30046073          	csrsi	mstatus,8
10000838:	45b2                	lw	a1,12(sp)
1000083a:	854e                	mv	a0,s3
1000083c:	389000ef          	jal	ra,100013c4 <vTaskPlaceOnEventList>
10000840:	8522                	mv	a0,s0
10000842:	3309                	jal	10000544 <prvUnlockQueue>
10000844:	079000ef          	jal	ra,100010bc <xTaskResumeAll>
10000848:	f945                	bnez	a0,100007f8 <xQueueGenericSend+0xa8>
1000084a:	00000073          	ecall
1000084e:	30047073          	csrci	mstatus,8
10000852:	409c                	lw	a5,0(s1)
10000854:	5c14                	lw	a3,56(s0)
10000856:	5c58                	lw	a4,60(s0)
10000858:	00178613          	addi	a2,a5,1
1000085c:	c090                	sw	a2,0(s1)
1000085e:	fae6f7e3          	bgeu	a3,a4,1000080c <xQueueGenericSend+0xbc>
10000862:	8652                	mv	a2,s4
10000864:	85d6                	mv	a1,s5
10000866:	8522                	mv	a0,s0
10000868:	3915                	jal	1000049c <prvCopyDataToQueue>
1000086a:	505c                	lw	a5,36(s0)
1000086c:	e395                	bnez	a5,10000890 <xQueueGenericSend+0x140>
1000086e:	c119                	beqz	a0,10000874 <xQueueGenericSend+0x124>
10000870:	00000073          	ecall
10000874:	409c                	lw	a5,0(s1)
10000876:	4505                	li	a0,1
10000878:	17fd                	addi	a5,a5,-1
1000087a:	c09c                	sw	a5,0(s1)
1000087c:	ffd9                	bnez	a5,1000081a <xQueueGenericSend+0xca>
1000087e:	30046073          	csrsi	mstatus,8
10000882:	bf61                	j	1000081a <xQueueGenericSend+0xca>
10000884:	8522                	mv	a0,s0
10000886:	397d                	jal	10000544 <prvUnlockQueue>
10000888:	035000ef          	jal	ra,100010bc <xTaskResumeAll>
1000088c:	4501                	li	a0,0
1000088e:	b771                	j	1000081a <xQueueGenericSend+0xca>
10000890:	02440513          	addi	a0,s0,36
10000894:	3a1000ef          	jal	ra,10001434 <xTaskRemoveFromEventList>
10000898:	dd71                	beqz	a0,10000874 <xQueueGenericSend+0x124>
1000089a:	00000073          	ecall
1000089e:	bfd9                	j	10000874 <xQueueGenericSend+0x124>

100008a0 <xQueueReceive>:
100008a0:	7139                	addi	sp,sp,-64
100008a2:	dc22                	sw	s0,56(sp)
100008a4:	d256                	sw	s5,36(sp)
100008a6:	de06                	sw	ra,60(sp)
100008a8:	da26                	sw	s1,52(sp)
100008aa:	d84a                	sw	s2,48(sp)
100008ac:	d64e                	sw	s3,44(sp)
100008ae:	d452                	sw	s4,40(sp)
100008b0:	842a                	mv	s0,a0
100008b2:	8aae                	mv	s5,a1
100008b4:	c632                	sw	a2,12(sp)
100008b6:	30047073          	csrci	mstatus,8
100008ba:	00015497          	auipc	s1,0x15
100008be:	d5a48493          	addi	s1,s1,-678 # 10015614 <xCriticalNesting>
100008c2:	409c                	lw	a5,0(s1)
100008c4:	03852983          	lw	s3,56(a0)
100008c8:	00178713          	addi	a4,a5,1
100008cc:	c098                	sw	a4,0(s1)
100008ce:	0c099a63          	bnez	s3,100009a2 <xQueueReceive+0x102>
100008d2:	4732                	lw	a4,12(sp)
100008d4:	c759                	beqz	a4,10000962 <xQueueReceive+0xc2>
100008d6:	0828                	addi	a0,sp,24
100008d8:	439000ef          	jal	ra,10001510 <vTaskInternalSetTimeOutState>
100008dc:	597d                	li	s2,-1
100008de:	02440a13          	addi	s4,s0,36
100008e2:	409c                	lw	a5,0(s1)
100008e4:	17fd                	addi	a5,a5,-1
100008e6:	c09c                	sw	a5,0(s1)
100008e8:	e399                	bnez	a5,100008ee <xQueueReceive+0x4e>
100008ea:	30046073          	csrsi	mstatus,8
100008ee:	7be000ef          	jal	ra,100010ac <vTaskSuspendAll>
100008f2:	30047073          	csrci	mstatus,8
100008f6:	04444783          	lbu	a5,68(s0)
100008fa:	4098                	lw	a4,0(s1)
100008fc:	07e2                	slli	a5,a5,0x18
100008fe:	87e1                	srai	a5,a5,0x18
10000900:	01279463          	bne	a5,s2,10000908 <xQueueReceive+0x68>
10000904:	04040223          	sb	zero,68(s0)
10000908:	04544783          	lbu	a5,69(s0)
1000090c:	07e2                	slli	a5,a5,0x18
1000090e:	87e1                	srai	a5,a5,0x18
10000910:	07278563          	beq	a5,s2,1000097a <xQueueReceive+0xda>
10000914:	e319                	bnez	a4,1000091a <xQueueReceive+0x7a>
10000916:	30046073          	csrsi	mstatus,8
1000091a:	006c                	addi	a1,sp,12
1000091c:	0828                	addi	a0,sp,24
1000091e:	409000ef          	jal	ra,10001526 <xTaskCheckForTimeOut>
10000922:	e945                	bnez	a0,100009d2 <xQueueReceive+0x132>
10000924:	30047073          	csrci	mstatus,8
10000928:	5c1c                	lw	a5,56(s0)
1000092a:	4098                	lw	a4,0(s1)
1000092c:	ebb1                	bnez	a5,10000980 <xQueueReceive+0xe0>
1000092e:	e319                	bnez	a4,10000934 <xQueueReceive+0x94>
10000930:	30046073          	csrsi	mstatus,8
10000934:	45b2                	lw	a1,12(sp)
10000936:	8552                	mv	a0,s4
10000938:	28d000ef          	jal	ra,100013c4 <vTaskPlaceOnEventList>
1000093c:	8522                	mv	a0,s0
1000093e:	3119                	jal	10000544 <prvUnlockQueue>
10000940:	77c000ef          	jal	ra,100010bc <xTaskResumeAll>
10000944:	e119                	bnez	a0,1000094a <xQueueReceive+0xaa>
10000946:	00000073          	ecall
1000094a:	30047073          	csrci	mstatus,8
1000094e:	409c                	lw	a5,0(s1)
10000950:	03842983          	lw	s3,56(s0)
10000954:	00178713          	addi	a4,a5,1
10000958:	c098                	sw	a4,0(s1)
1000095a:	04099463          	bnez	s3,100009a2 <xQueueReceive+0x102>
1000095e:	4732                	lw	a4,12(sp)
10000960:	f349                	bnez	a4,100008e2 <xQueueReceive+0x42>
10000962:	c09c                	sw	a5,0(s1)
10000964:	c3c9                	beqz	a5,100009e6 <xQueueReceive+0x146>
10000966:	4501                	li	a0,0
10000968:	50f2                	lw	ra,60(sp)
1000096a:	5462                	lw	s0,56(sp)
1000096c:	54d2                	lw	s1,52(sp)
1000096e:	5942                	lw	s2,48(sp)
10000970:	59b2                	lw	s3,44(sp)
10000972:	5a22                	lw	s4,40(sp)
10000974:	5a92                	lw	s5,36(sp)
10000976:	6121                	addi	sp,sp,64
10000978:	8082                	ret
1000097a:	040402a3          	sb	zero,69(s0)
1000097e:	bf59                	j	10000914 <xQueueReceive+0x74>
10000980:	e319                	bnez	a4,10000986 <xQueueReceive+0xe6>
10000982:	30046073          	csrsi	mstatus,8
10000986:	8522                	mv	a0,s0
10000988:	3e75                	jal	10000544 <prvUnlockQueue>
1000098a:	732000ef          	jal	ra,100010bc <xTaskResumeAll>
1000098e:	30047073          	csrci	mstatus,8
10000992:	409c                	lw	a5,0(s1)
10000994:	03842983          	lw	s3,56(s0)
10000998:	00178713          	addi	a4,a5,1
1000099c:	c098                	sw	a4,0(s1)
1000099e:	fc0980e3          	beqz	s3,1000095e <xQueueReceive+0xbe>
100009a2:	4030                	lw	a2,64(s0)
100009a4:	ca11                	beqz	a2,100009b8 <xQueueReceive+0x118>
100009a6:	444c                	lw	a1,12(s0)
100009a8:	441c                	lw	a5,8(s0)
100009aa:	95b2                	add	a1,a1,a2
100009ac:	c44c                	sw	a1,12(s0)
100009ae:	04f5f363          	bgeu	a1,a5,100009f4 <xQueueReceive+0x154>
100009b2:	8556                	mv	a0,s5
100009b4:	0c5010ef          	jal	ra,10002278 <memcpy>
100009b8:	19fd                	addi	s3,s3,-1
100009ba:	03342c23          	sw	s3,56(s0)
100009be:	481c                	lw	a5,16(s0)
100009c0:	ef8d                	bnez	a5,100009fa <xQueueReceive+0x15a>
100009c2:	409c                	lw	a5,0(s1)
100009c4:	4505                	li	a0,1
100009c6:	17fd                	addi	a5,a5,-1
100009c8:	c09c                	sw	a5,0(s1)
100009ca:	ffd9                	bnez	a5,10000968 <xQueueReceive+0xc8>
100009cc:	30046073          	csrsi	mstatus,8
100009d0:	bf61                	j	10000968 <xQueueReceive+0xc8>
100009d2:	8522                	mv	a0,s0
100009d4:	3e85                	jal	10000544 <prvUnlockQueue>
100009d6:	6e6000ef          	jal	ra,100010bc <xTaskResumeAll>
100009da:	30047073          	csrci	mstatus,8
100009de:	5c18                	lw	a4,56(s0)
100009e0:	409c                	lw	a5,0(s1)
100009e2:	e709                	bnez	a4,100009ec <xQueueReceive+0x14c>
100009e4:	f3c9                	bnez	a5,10000966 <xQueueReceive+0xc6>
100009e6:	30046073          	csrsi	mstatus,8
100009ea:	bfb5                	j	10000966 <xQueueReceive+0xc6>
100009ec:	ffb9                	bnez	a5,1000094a <xQueueReceive+0xaa>
100009ee:	30046073          	csrsi	mstatus,8
100009f2:	bfa1                	j	1000094a <xQueueReceive+0xaa>
100009f4:	400c                	lw	a1,0(s0)
100009f6:	c44c                	sw	a1,12(s0)
100009f8:	bf6d                	j	100009b2 <xQueueReceive+0x112>
100009fa:	01040513          	addi	a0,s0,16
100009fe:	237000ef          	jal	ra,10001434 <xTaskRemoveFromEventList>
10000a02:	d161                	beqz	a0,100009c2 <xQueueReceive+0x122>
10000a04:	00000073          	ecall
10000a08:	bf6d                	j	100009c2 <xQueueReceive+0x122>

10000a0a <vQueueAddToRegistry>:
10000a0a:	c985                	beqz	a1,10000a3a <vQueueAddToRegistry+0x30>
10000a0c:	4801                	li	a6,0
10000a0e:	4781                	li	a5,0
10000a10:	00015897          	auipc	a7,0x15
10000a14:	cb088893          	addi	a7,a7,-848 # 100156c0 <xQueueRegistry>
10000a18:	4321                	li	t1,8
10000a1a:	00379693          	slli	a3,a5,0x3
10000a1e:	00d88733          	add	a4,a7,a3
10000a22:	4350                	lw	a2,4(a4)
10000a24:	02a60763          	beq	a2,a0,10000a52 <vQueueAddToRegistry+0x48>
10000a28:	00080a63          	beqz	a6,10000a3c <vQueueAddToRegistry+0x32>
10000a2c:	0785                	addi	a5,a5,1
10000a2e:	fe6796e3          	bne	a5,t1,10000a1a <vQueueAddToRegistry+0x10>
10000a32:	00b82023          	sw	a1,0(a6)
10000a36:	00a82223          	sw	a0,4(a6)
10000a3a:	8082                	ret
10000a3c:	4314                	lw	a3,0(a4)
10000a3e:	0721                	addi	a4,a4,8
10000a40:	c285                	beqz	a3,10000a60 <vQueueAddToRegistry+0x56>
10000a42:	0785                	addi	a5,a5,1
10000a44:	fe678be3          	beq	a5,t1,10000a3a <vQueueAddToRegistry+0x30>
10000a48:	4354                	lw	a3,4(a4)
10000a4a:	fed519e3          	bne	a0,a3,10000a3c <vQueueAddToRegistry+0x32>
10000a4e:	00379693          	slli	a3,a5,0x3
10000a52:	00d88833          	add	a6,a7,a3
10000a56:	00b82023          	sw	a1,0(a6)
10000a5a:	00a82223          	sw	a0,4(a6)
10000a5e:	bff1                	j	10000a3a <vQueueAddToRegistry+0x30>
10000a60:	00379813          	slli	a6,a5,0x3
10000a64:	9846                	add	a6,a6,a7
10000a66:	b7d9                	j	10000a2c <vQueueAddToRegistry+0x22>

10000a68 <vQueueWaitForMessageRestricted>:
10000a68:	1141                	addi	sp,sp,-16
10000a6a:	c422                	sw	s0,8(sp)
10000a6c:	c606                	sw	ra,12(sp)
10000a6e:	842a                	mv	s0,a0
10000a70:	30047073          	csrci	mstatus,8
10000a74:	04454783          	lbu	a5,68(a0)
10000a78:	56fd                	li	a3,-1
10000a7a:	00015717          	auipc	a4,0x15
10000a7e:	b9a72703          	lw	a4,-1126(a4) # 10015614 <xCriticalNesting>
10000a82:	07e2                	slli	a5,a5,0x18
10000a84:	87e1                	srai	a5,a5,0x18
10000a86:	00d79463          	bne	a5,a3,10000a8e <vQueueWaitForMessageRestricted+0x26>
10000a8a:	04050223          	sb	zero,68(a0)
10000a8e:	04544783          	lbu	a5,69(s0)
10000a92:	56fd                	li	a3,-1
10000a94:	07e2                	slli	a5,a5,0x18
10000a96:	87e1                	srai	a5,a5,0x18
10000a98:	00d78c63          	beq	a5,a3,10000ab0 <vQueueWaitForMessageRestricted+0x48>
10000a9c:	e319                	bnez	a4,10000aa2 <vQueueWaitForMessageRestricted+0x3a>
10000a9e:	30046073          	csrsi	mstatus,8
10000aa2:	5c1c                	lw	a5,56(s0)
10000aa4:	cb89                	beqz	a5,10000ab6 <vQueueWaitForMessageRestricted+0x4e>
10000aa6:	8522                	mv	a0,s0
10000aa8:	4422                	lw	s0,8(sp)
10000aaa:	40b2                	lw	ra,12(sp)
10000aac:	0141                	addi	sp,sp,16
10000aae:	bc59                	j	10000544 <prvUnlockQueue>
10000ab0:	040402a3          	sb	zero,69(s0)
10000ab4:	b7e5                	j	10000a9c <vQueueWaitForMessageRestricted+0x34>
10000ab6:	02440513          	addi	a0,s0,36
10000aba:	131000ef          	jal	ra,100013ea <vTaskPlaceOnEventListRestricted>
10000abe:	8522                	mv	a0,s0
10000ac0:	4422                	lw	s0,8(sp)
10000ac2:	40b2                	lw	ra,12(sp)
10000ac4:	0141                	addi	sp,sp,16
10000ac6:	bcbd                	j	10000544 <prvUnlockQueue>

10000ac8 <prvAddCurrentTaskToDelayedList>:
10000ac8:	1101                	addi	sp,sp,-32
10000aca:	ca26                	sw	s1,20(sp)
10000acc:	00015497          	auipc	s1,0x15
10000ad0:	b6048493          	addi	s1,s1,-1184 # 1001562c <pxCurrentTCB>
10000ad4:	c84a                	sw	s2,16(sp)
10000ad6:	c64e                	sw	s3,12(sp)
10000ad8:	00015917          	auipc	s2,0x15
10000adc:	b8892903          	lw	s2,-1144(s2) # 10015660 <xTickCount>
10000ae0:	c452                	sw	s4,8(sp)
10000ae2:	00015997          	auipc	s3,0x15
10000ae6:	b4e9a983          	lw	s3,-1202(s3) # 10015630 <pxDelayedTaskList>
10000aea:	00015a17          	auipc	s4,0x15
10000aee:	b4aa2a03          	lw	s4,-1206(s4) # 10015634 <pxOverflowDelayedTaskList>
10000af2:	4098                	lw	a4,0(s1)
10000af4:	409c                	lw	a5,0(s1)
10000af6:	cc22                	sw	s0,24(sp)
10000af8:	c256                	sw	s5,4(sp)
10000afa:	ce06                	sw	ra,28(sp)
10000afc:	842a                	mv	s0,a0
10000afe:	040708a3          	sb	zero,81(a4)
10000b02:	00478513          	addi	a0,a5,4
10000b06:	8aae                	mv	s5,a1
10000b08:	967ff0ef          	jal	ra,1000046e <uxListRemove>
10000b0c:	ed19                	bnez	a0,10000b2a <prvAddCurrentTaskToDelayedList+0x62>
10000b0e:	409c                	lw	a5,0(s1)
10000b10:	00015717          	auipc	a4,0x15
10000b14:	b3870713          	addi	a4,a4,-1224 # 10015648 <uxTopReadyPriority>
10000b18:	4314                	lw	a3,0(a4)
10000b1a:	57d0                	lw	a2,44(a5)
10000b1c:	4785                	li	a5,1
10000b1e:	00c797b3          	sll	a5,a5,a2
10000b22:	fff7c793          	not	a5,a5
10000b26:	8ff5                	and	a5,a5,a3
10000b28:	c31c                	sw	a5,0(a4)
10000b2a:	57fd                	li	a5,-1
10000b2c:	04f40963          	beq	s0,a5,10000b7e <prvAddCurrentTaskToDelayedList+0xb6>
10000b30:	409c                	lw	a5,0(s1)
10000b32:	944a                	add	s0,s0,s2
10000b34:	408c                	lw	a1,0(s1)
10000b36:	c3c0                	sw	s0,4(a5)
10000b38:	03246763          	bltu	s0,s2,10000b66 <prvAddCurrentTaskToDelayedList+0x9e>
10000b3c:	854e                	mv	a0,s3
10000b3e:	0591                	addi	a1,a1,4
10000b40:	901ff0ef          	jal	ra,10000440 <vListInsert>
10000b44:	00015797          	auipc	a5,0x15
10000b48:	b0c78793          	addi	a5,a5,-1268 # 10015650 <xNextTaskUnblockTime>
10000b4c:	4398                	lw	a4,0(a5)
10000b4e:	00e47363          	bgeu	s0,a4,10000b54 <prvAddCurrentTaskToDelayedList+0x8c>
10000b52:	c380                	sw	s0,0(a5)
10000b54:	40f2                	lw	ra,28(sp)
10000b56:	4462                	lw	s0,24(sp)
10000b58:	44d2                	lw	s1,20(sp)
10000b5a:	4942                	lw	s2,16(sp)
10000b5c:	49b2                	lw	s3,12(sp)
10000b5e:	4a22                	lw	s4,8(sp)
10000b60:	4a92                	lw	s5,4(sp)
10000b62:	6105                	addi	sp,sp,32
10000b64:	8082                	ret
10000b66:	4462                	lw	s0,24(sp)
10000b68:	40f2                	lw	ra,28(sp)
10000b6a:	44d2                	lw	s1,20(sp)
10000b6c:	4942                	lw	s2,16(sp)
10000b6e:	49b2                	lw	s3,12(sp)
10000b70:	4a92                	lw	s5,4(sp)
10000b72:	8552                	mv	a0,s4
10000b74:	4a22                	lw	s4,8(sp)
10000b76:	0591                	addi	a1,a1,4
10000b78:	6105                	addi	sp,sp,32
10000b7a:	8c7ff06f          	j	10000440 <vListInsert>
10000b7e:	fa0a89e3          	beqz	s5,10000b30 <prvAddCurrentTaskToDelayedList+0x68>
10000b82:	9e818793          	addi	a5,gp,-1560 # 100157c8 <xSuspendedTaskList>
10000b86:	43d8                	lw	a4,4(a5)
10000b88:	408c                	lw	a1,0(s1)
10000b8a:	4094                	lw	a3,0(s1)
10000b8c:	4710                	lw	a2,8(a4)
10000b8e:	c598                	sw	a4,8(a1)
10000b90:	408c                	lw	a1,0(s1)
10000b92:	c6d0                	sw	a2,12(a3)
10000b94:	00872803          	lw	a6,8(a4)
10000b98:	4090                	lw	a2,0(s1)
10000b9a:	4088                	lw	a0,0(s1)
10000b9c:	4394                	lw	a3,0(a5)
10000b9e:	0591                	addi	a1,a1,4
10000ba0:	00b82223          	sw	a1,4(a6)
10000ba4:	0611                	addi	a2,a2,4
10000ba6:	c710                	sw	a2,8(a4)
10000ba8:	00168713          	addi	a4,a3,1
10000bac:	c95c                	sw	a5,20(a0)
10000bae:	c398                	sw	a4,0(a5)
10000bb0:	b755                	j	10000b54 <prvAddCurrentTaskToDelayedList+0x8c>

10000bb2 <prvIdleTask>:
10000bb2:	1101                	addi	sp,sp,-32
10000bb4:	cc22                	sw	s0,24(sp)
10000bb6:	c84a                	sw	s2,16(sp)
10000bb8:	c64e                	sw	s3,12(sp)
10000bba:	c452                	sw	s4,8(sp)
10000bbc:	ce06                	sw	ra,28(sp)
10000bbe:	ca26                	sw	s1,20(sp)
10000bc0:	00015917          	auipc	s2,0x15
10000bc4:	a7c90913          	addi	s2,s2,-1412 # 1001563c <uxDeletedTasksWaitingCleanUp>
10000bc8:	00015417          	auipc	s0,0x15
10000bcc:	a4c40413          	addi	s0,s0,-1460 # 10015614 <xCriticalNesting>
10000bd0:	9fc18a13          	addi	s4,gp,-1540 # 100157dc <xTasksWaitingTermination>
10000bd4:	00015997          	auipc	s3,0x15
10000bd8:	a6498993          	addi	s3,s3,-1436 # 10015638 <uxCurrentNumberOfTasks>
10000bdc:	00092783          	lw	a5,0(s2)
10000be0:	dff5                	beqz	a5,10000bdc <prvIdleTask+0x2a>
10000be2:	30047073          	csrci	mstatus,8
10000be6:	00ca2703          	lw	a4,12(s4)
10000bea:	401c                	lw	a5,0(s0)
10000bec:	4744                	lw	s1,12(a4)
10000bee:	0785                	addi	a5,a5,1
10000bf0:	c01c                	sw	a5,0(s0)
10000bf2:	00448513          	addi	a0,s1,4
10000bf6:	879ff0ef          	jal	ra,1000046e <uxListRemove>
10000bfa:	0009a703          	lw	a4,0(s3)
10000bfe:	401c                	lw	a5,0(s0)
10000c00:	177d                	addi	a4,a4,-1
10000c02:	00e9a023          	sw	a4,0(s3)
10000c06:	00092703          	lw	a4,0(s2)
10000c0a:	17fd                	addi	a5,a5,-1
10000c0c:	c01c                	sw	a5,0(s0)
10000c0e:	177d                	addi	a4,a4,-1
10000c10:	00e92023          	sw	a4,0(s2)
10000c14:	e399                	bnez	a5,10000c1a <prvIdleTask+0x68>
10000c16:	30046073          	csrsi	mstatus,8
10000c1a:	5888                	lw	a0,48(s1)
10000c1c:	719000ef          	jal	ra,10001b34 <vPortFree>
10000c20:	8526                	mv	a0,s1
10000c22:	713000ef          	jal	ra,10001b34 <vPortFree>
10000c26:	00092783          	lw	a5,0(s2)
10000c2a:	ffc5                	bnez	a5,10000be2 <prvIdleTask+0x30>
10000c2c:	bf45                	j	10000bdc <prvIdleTask+0x2a>

10000c2e <xTaskIncrementTick.part.0>:
10000c2e:	00015797          	auipc	a5,0x15
10000c32:	a3278793          	addi	a5,a5,-1486 # 10015660 <xTickCount>
10000c36:	0007a883          	lw	a7,0(a5)
10000c3a:	00015297          	auipc	t0,0x15
10000c3e:	a1628293          	addi	t0,t0,-1514 # 10015650 <xNextTaskUnblockTime>
10000c42:	0885                	addi	a7,a7,1
10000c44:	0117a023          	sw	a7,0(a5)
10000c48:	14088763          	beqz	a7,10000d96 <xTaskIncrementTick.part.0+0x168>
10000c4c:	0002a783          	lw	a5,0(t0)
10000c50:	0cf8ec63          	bltu	a7,a5,10000d28 <xTaskIncrementTick.part.0+0xfa>
10000c54:	00015317          	auipc	t1,0x15
10000c58:	9dc30313          	addi	t1,t1,-1572 # 10015630 <pxDelayedTaskList>
10000c5c:	00032783          	lw	a5,0(t1)
10000c60:	4501                	li	a0,0
10000c62:	92018e93          	addi	t4,gp,-1760 # 10015700 <pxReadyTasksLists>
10000c66:	439c                	lw	a5,0(a5)
10000c68:	00015f17          	auipc	t5,0x15
10000c6c:	9c4f0f13          	addi	t5,t5,-1596 # 1001562c <pxCurrentTCB>
10000c70:	0e078e63          	beqz	a5,10000d6c <xTaskIncrementTick.part.0+0x13e>
10000c74:	00015e17          	auipc	t3,0x15
10000c78:	9d4e0e13          	addi	t3,t3,-1580 # 10015648 <uxTopReadyPriority>
10000c7c:	4f85                	li	t6,1
10000c7e:	a8bd                	j	10000cfc <xTaskIncrementTick.part.0+0xce>
10000c80:	4290                	lw	a2,0(a3)
10000c82:	5798                	lw	a4,40(a5)
10000c84:	0007aa23          	sw	zero,20(a5)
10000c88:	167d                	addi	a2,a2,-1
10000c8a:	c290                	sw	a2,0(a3)
10000c8c:	cf19                	beqz	a4,10000caa <xTaskIncrementTick.part.0+0x7c>
10000c8e:	5390                	lw	a2,32(a5)
10000c90:	4fd4                	lw	a3,28(a5)
10000c92:	00472803          	lw	a6,4(a4)
10000c96:	c690                	sw	a2,8(a3)
10000c98:	5390                	lw	a2,32(a5)
10000c9a:	c254                	sw	a3,4(a2)
10000c9c:	0c780c63          	beq	a6,t2,10000d74 <xTaskIncrementTick.part.0+0x146>
10000ca0:	4314                	lw	a3,0(a4)
10000ca2:	0207a423          	sw	zero,40(a5)
10000ca6:	16fd                	addi	a3,a3,-1
10000ca8:	c314                	sw	a3,0(a4)
10000caa:	57d4                	lw	a3,44(a5)
10000cac:	000e2383          	lw	t2,0(t3)
10000cb0:	00269713          	slli	a4,a3,0x2
10000cb4:	9736                	add	a4,a4,a3
10000cb6:	070a                	slli	a4,a4,0x2
10000cb8:	9776                	add	a4,a4,t4
10000cba:	4350                	lw	a2,4(a4)
10000cbc:	00df9833          	sll	a6,t6,a3
10000cc0:	00786833          	or	a6,a6,t2
10000cc4:	00862383          	lw	t2,8(a2)
10000cc8:	010e2023          	sw	a6,0(t3)
10000ccc:	00072803          	lw	a6,0(a4)
10000cd0:	0077a623          	sw	t2,12(a5)
10000cd4:	00862383          	lw	t2,8(a2)
10000cd8:	c790                	sw	a2,8(a5)
10000cda:	0805                	addi	a6,a6,1
10000cdc:	00b3a223          	sw	a1,4(t2)
10000ce0:	c60c                	sw	a1,8(a2)
10000ce2:	cbd8                	sw	a4,20(a5)
10000ce4:	01072023          	sw	a6,0(a4)
10000ce8:	000f2783          	lw	a5,0(t5)
10000cec:	57dc                	lw	a5,44(a5)
10000cee:	00d7f363          	bgeu	a5,a3,10000cf4 <xTaskIncrementTick.part.0+0xc6>
10000cf2:	4505                	li	a0,1
10000cf4:	00032783          	lw	a5,0(t1)
10000cf8:	439c                	lw	a5,0(a5)
10000cfa:	cbad                	beqz	a5,10000d6c <xTaskIncrementTick.part.0+0x13e>
10000cfc:	00032783          	lw	a5,0(t1)
10000d00:	47dc                	lw	a5,12(a5)
10000d02:	47dc                	lw	a5,12(a5)
10000d04:	43d8                	lw	a4,4(a5)
10000d06:	00478593          	addi	a1,a5,4
10000d0a:	01878393          	addi	t2,a5,24
10000d0e:	0ae8ee63          	bltu	a7,a4,10000dca <xTaskIncrementTick.part.0+0x19c>
10000d12:	4bd4                	lw	a3,20(a5)
10000d14:	4790                	lw	a2,8(a5)
10000d16:	47d8                	lw	a4,12(a5)
10000d18:	0046a803          	lw	a6,4(a3)
10000d1c:	c618                	sw	a4,8(a2)
10000d1e:	c350                	sw	a2,4(a4)
10000d20:	f6b810e3          	bne	a6,a1,10000c80 <xTaskIncrementTick.part.0+0x52>
10000d24:	c2d8                	sw	a4,4(a3)
10000d26:	bfa9                	j	10000c80 <xTaskIncrementTick.part.0+0x52>
10000d28:	4501                	li	a0,0
10000d2a:	92018e93          	addi	t4,gp,-1760 # 10015700 <pxReadyTasksLists>
10000d2e:	00015f17          	auipc	t5,0x15
10000d32:	8fef0f13          	addi	t5,t5,-1794 # 1001562c <pxCurrentTCB>
10000d36:	000f2783          	lw	a5,0(t5)
10000d3a:	4685                	li	a3,1
10000d3c:	57d8                	lw	a4,44(a5)
10000d3e:	00271793          	slli	a5,a4,0x2
10000d42:	97ba                	add	a5,a5,a4
10000d44:	078a                	slli	a5,a5,0x2
10000d46:	9ebe                	add	t4,t4,a5
10000d48:	000ea783          	lw	a5,0(t4)
10000d4c:	00f6f363          	bgeu	a3,a5,10000d52 <xTaskIncrementTick.part.0+0x124>
10000d50:	4505                	li	a0,1
10000d52:	00015797          	auipc	a5,0x15
10000d56:	9067a783          	lw	a5,-1786(a5) # 10015658 <xPendedTicks>
10000d5a:	cf99                	beqz	a5,10000d78 <xTaskIncrementTick.part.0+0x14a>
10000d5c:	00015797          	auipc	a5,0x15
10000d60:	9087a783          	lw	a5,-1784(a5) # 10015664 <xYieldPendings>
10000d64:	c399                	beqz	a5,10000d6a <xTaskIncrementTick.part.0+0x13c>
10000d66:	4505                	li	a0,1
10000d68:	8082                	ret
10000d6a:	8082                	ret
10000d6c:	57fd                	li	a5,-1
10000d6e:	00f2a023          	sw	a5,0(t0)
10000d72:	b7d1                	j	10000d36 <xTaskIncrementTick.part.0+0x108>
10000d74:	c350                	sw	a2,4(a4)
10000d76:	b72d                	j	10000ca0 <xTaskIncrementTick.part.0+0x72>
10000d78:	1101                	addi	sp,sp,-32
10000d7a:	c62a                	sw	a0,12(sp)
10000d7c:	ce06                	sw	ra,28(sp)
10000d7e:	caeff0ef          	jal	ra,1000022c <vApplicationTickHook>
10000d82:	00015797          	auipc	a5,0x15
10000d86:	8e27a783          	lw	a5,-1822(a5) # 10015664 <xYieldPendings>
10000d8a:	4532                	lw	a0,12(sp)
10000d8c:	c391                	beqz	a5,10000d90 <xTaskIncrementTick.part.0+0x162>
10000d8e:	4505                	li	a0,1
10000d90:	40f2                	lw	ra,28(sp)
10000d92:	6105                	addi	sp,sp,32
10000d94:	8082                	ret
10000d96:	00015797          	auipc	a5,0x15
10000d9a:	89a78793          	addi	a5,a5,-1894 # 10015630 <pxDelayedTaskList>
10000d9e:	00015717          	auipc	a4,0x15
10000da2:	89670713          	addi	a4,a4,-1898 # 10015634 <pxOverflowDelayedTaskList>
10000da6:	4390                	lw	a2,0(a5)
10000da8:	430c                	lw	a1,0(a4)
10000daa:	00015697          	auipc	a3,0x15
10000dae:	8aa68693          	addi	a3,a3,-1878 # 10015654 <xNumOfOverflows>
10000db2:	c38c                	sw	a1,0(a5)
10000db4:	c310                	sw	a2,0(a4)
10000db6:	4298                	lw	a4,0(a3)
10000db8:	0705                	addi	a4,a4,1
10000dba:	c298                	sw	a4,0(a3)
10000dbc:	4398                	lw	a4,0(a5)
10000dbe:	4318                	lw	a4,0(a4)
10000dc0:	eb01                	bnez	a4,10000dd0 <xTaskIncrementTick.part.0+0x1a2>
10000dc2:	57fd                	li	a5,-1
10000dc4:	00f2a023          	sw	a5,0(t0)
10000dc8:	b551                	j	10000c4c <xTaskIncrementTick.part.0+0x1e>
10000dca:	00e2a023          	sw	a4,0(t0)
10000dce:	b7a5                	j	10000d36 <xTaskIncrementTick.part.0+0x108>
10000dd0:	439c                	lw	a5,0(a5)
10000dd2:	47dc                	lw	a5,12(a5)
10000dd4:	439c                	lw	a5,0(a5)
10000dd6:	00f2a023          	sw	a5,0(t0)
10000dda:	bd8d                	j	10000c4c <xTaskIncrementTick.part.0+0x1e>

10000ddc <xTaskCreate>:
10000ddc:	7179                	addi	sp,sp,-48
10000dde:	d04a                	sw	s2,32(sp)
10000de0:	00261913          	slli	s2,a2,0x2
10000de4:	ca56                	sw	s5,20(sp)
10000de6:	8aaa                	mv	s5,a0
10000de8:	854a                	mv	a0,s2
10000dea:	d422                	sw	s0,40(sp)
10000dec:	cc52                	sw	s4,24(sp)
10000dee:	c85a                	sw	s6,16(sp)
10000df0:	c65e                	sw	s7,12(sp)
10000df2:	d606                	sw	ra,44(sp)
10000df4:	d226                	sw	s1,36(sp)
10000df6:	ce4e                	sw	s3,28(sp)
10000df8:	842e                	mv	s0,a1
10000dfa:	8b36                	mv	s6,a3
10000dfc:	8bba                	mv	s7,a4
10000dfe:	8a3e                	mv	s4,a5
10000e00:	3dd000ef          	jal	ra,100019dc <pvPortMalloc>
10000e04:	16050963          	beqz	a0,10000f76 <xTaskCreate+0x19a>
10000e08:	89aa                	mv	s3,a0
10000e0a:	05400513          	li	a0,84
10000e0e:	3cf000ef          	jal	ra,100019dc <pvPortMalloc>
10000e12:	84aa                	mv	s1,a0
10000e14:	16050363          	beqz	a0,10000f7a <xTaskCreate+0x19e>
10000e18:	05400613          	li	a2,84
10000e1c:	4581                	li	a1,0
10000e1e:	582010ef          	jal	ra,100023a0 <memset>
10000e22:	864a                	mv	a2,s2
10000e24:	0334a823          	sw	s3,48(s1)
10000e28:	0a500593          	li	a1,165
10000e2c:	854e                	mv	a0,s3
10000e2e:	572010ef          	jal	ra,100023a0 <memset>
10000e32:	589c                	lw	a5,48(s1)
10000e34:	1971                	addi	s2,s2,-4
10000e36:	993e                	add	s2,s2,a5
10000e38:	ff097913          	andi	s2,s2,-16
10000e3c:	c015                	beqz	s0,10000e60 <xTaskCreate+0x84>
10000e3e:	85a2                	mv	a1,s0
10000e40:	03448813          	addi	a6,s1,52
10000e44:	01040793          	addi	a5,s0,16
10000e48:	0005c883          	lbu	a7,0(a1)
10000e4c:	0805                	addi	a6,a6,1
10000e4e:	0585                	addi	a1,a1,1
10000e50:	ff180fa3          	sb	a7,-1(a6)
10000e54:	00088463          	beqz	a7,10000e5c <xTaskCreate+0x80>
10000e58:	fef598e3          	bne	a1,a5,10000e48 <xTaskCreate+0x6c>
10000e5c:	040481a3          	sb	zero,67(s1)
10000e60:	4799                	li	a5,6
10000e62:	1177e863          	bltu	a5,s7,10000f72 <xTaskCreate+0x196>
10000e66:	00448993          	addi	s3,s1,4
10000e6a:	854e                	mv	a0,s3
10000e6c:	0374a623          	sw	s7,44(s1)
10000e70:	0574a223          	sw	s7,68(s1)
10000e74:	dc6ff0ef          	jal	ra,1000043a <vListInitialiseItem>
10000e78:	01848513          	addi	a0,s1,24
10000e7c:	dbeff0ef          	jal	ra,1000043a <vListInitialiseItem>
10000e80:	479d                	li	a5,7
10000e82:	417787b3          	sub	a5,a5,s7
10000e86:	c884                	sw	s1,16(s1)
10000e88:	cc9c                	sw	a5,24(s1)
10000e8a:	d0c4                	sw	s1,36(s1)
10000e8c:	865a                	mv	a2,s6
10000e8e:	85d6                	mv	a1,s5
10000e90:	854a                	mv	a0,s2
10000e92:	5bf000ef          	jal	ra,10001c50 <pxPortInitialiseStack>
10000e96:	c088                	sw	a0,0(s1)
10000e98:	000a0463          	beqz	s4,10000ea0 <xTaskCreate+0xc4>
10000e9c:	009a2023          	sw	s1,0(s4)
10000ea0:	30047073          	csrci	mstatus,8
10000ea4:	00014717          	auipc	a4,0x14
10000ea8:	79470713          	addi	a4,a4,1940 # 10015638 <uxCurrentNumberOfTasks>
10000eac:	431c                	lw	a5,0(a4)
10000eae:	00014917          	auipc	s2,0x14
10000eb2:	76690913          	addi	s2,s2,1894 # 10015614 <xCriticalNesting>
10000eb6:	00092583          	lw	a1,0(s2)
10000eba:	0785                	addi	a5,a5,1
10000ebc:	c31c                	sw	a5,0(a4)
10000ebe:	00014a17          	auipc	s4,0x14
10000ec2:	76ea0a13          	addi	s4,s4,1902 # 1001562c <pxCurrentTCB>
10000ec6:	000a2783          	lw	a5,0(s4)
10000eca:	00158693          	addi	a3,a1,1
10000ece:	00d92023          	sw	a3,0(s2)
10000ed2:	c3e9                	beqz	a5,10000f94 <xTaskCreate+0x1b8>
10000ed4:	00014897          	auipc	a7,0x14
10000ed8:	78888893          	addi	a7,a7,1928 # 1001565c <xSchedulerRunning>
10000edc:	0008a783          	lw	a5,0(a7)
10000ee0:	54d0                	lw	a2,44(s1)
10000ee2:	92018413          	addi	s0,gp,-1760 # 10015700 <pxReadyTasksLists>
10000ee6:	cfd9                	beqz	a5,10000f84 <xTaskCreate+0x1a8>
10000ee8:	00261793          	slli	a5,a2,0x2
10000eec:	97b2                	add	a5,a5,a2
10000eee:	078a                	slli	a5,a5,0x2
10000ef0:	97a2                	add	a5,a5,s0
10000ef2:	43d4                	lw	a3,4(a5)
10000ef4:	00014817          	auipc	a6,0x14
10000ef8:	75480813          	addi	a6,a6,1876 # 10015648 <uxTopReadyPriority>
10000efc:	00082503          	lw	a0,0(a6)
10000f00:	0086a303          	lw	t1,8(a3)
10000f04:	4705                	li	a4,1
10000f06:	00c71733          	sll	a4,a4,a2
10000f0a:	0064a623          	sw	t1,12(s1)
10000f0e:	0086a303          	lw	t1,8(a3)
10000f12:	8f49                	or	a4,a4,a0
10000f14:	00e82023          	sw	a4,0(a6)
10000f18:	00014517          	auipc	a0,0x14
10000f1c:	72c50513          	addi	a0,a0,1836 # 10015644 <uxTaskNumber>
10000f20:	4398                	lw	a4,0(a5)
10000f22:	c494                	sw	a3,8(s1)
10000f24:	4110                	lw	a2,0(a0)
10000f26:	01332223          	sw	s3,4(t1)
10000f2a:	0136a423          	sw	s3,8(a3)
10000f2e:	c8dc                	sw	a5,20(s1)
10000f30:	00160693          	addi	a3,a2,1
10000f34:	0705                	addi	a4,a4,1
10000f36:	c114                	sw	a3,0(a0)
10000f38:	c398                	sw	a4,0(a5)
10000f3a:	00b92023          	sw	a1,0(s2)
10000f3e:	e199                	bnez	a1,10000f44 <xTaskCreate+0x168>
10000f40:	30046073          	csrsi	mstatus,8
10000f44:	0008a783          	lw	a5,0(a7)
10000f48:	4505                	li	a0,1
10000f4a:	cb89                	beqz	a5,10000f5c <xTaskCreate+0x180>
10000f4c:	000a2703          	lw	a4,0(s4)
10000f50:	54dc                	lw	a5,44(s1)
10000f52:	5758                	lw	a4,44(a4)
10000f54:	00f77463          	bgeu	a4,a5,10000f5c <xTaskCreate+0x180>
10000f58:	00000073          	ecall
10000f5c:	50b2                	lw	ra,44(sp)
10000f5e:	5422                	lw	s0,40(sp)
10000f60:	5492                	lw	s1,36(sp)
10000f62:	5902                	lw	s2,32(sp)
10000f64:	49f2                	lw	s3,28(sp)
10000f66:	4a62                	lw	s4,24(sp)
10000f68:	4ad2                	lw	s5,20(sp)
10000f6a:	4b42                	lw	s6,16(sp)
10000f6c:	4bb2                	lw	s7,12(sp)
10000f6e:	6145                	addi	sp,sp,48
10000f70:	8082                	ret
10000f72:	4b99                	li	s7,6
10000f74:	bdcd                	j	10000e66 <xTaskCreate+0x8a>
10000f76:	557d                	li	a0,-1
10000f78:	b7d5                	j	10000f5c <xTaskCreate+0x180>
10000f7a:	854e                	mv	a0,s3
10000f7c:	3b9000ef          	jal	ra,10001b34 <vPortFree>
10000f80:	557d                	li	a0,-1
10000f82:	bfe9                	j	10000f5c <xTaskCreate+0x180>
10000f84:	000a2783          	lw	a5,0(s4)
10000f88:	57dc                	lw	a5,44(a5)
10000f8a:	f4f66fe3          	bltu	a2,a5,10000ee8 <xTaskCreate+0x10c>
10000f8e:	009a2023          	sw	s1,0(s4)
10000f92:	bf99                	j	10000ee8 <xTaskCreate+0x10c>
10000f94:	009a2023          	sw	s1,0(s4)
10000f98:	4318                	lw	a4,0(a4)
10000f9a:	4785                	li	a5,1
10000f9c:	00f70a63          	beq	a4,a5,10000fb0 <xTaskCreate+0x1d4>
10000fa0:	54d0                	lw	a2,44(s1)
10000fa2:	92018413          	addi	s0,gp,-1760 # 10015700 <pxReadyTasksLists>
10000fa6:	00014897          	auipc	a7,0x14
10000faa:	6b688893          	addi	a7,a7,1718 # 1001565c <xSchedulerRunning>
10000fae:	bf2d                	j	10000ee8 <xTaskCreate+0x10c>
10000fb0:	92018413          	addi	s0,gp,-1760 # 10015700 <pxReadyTasksLists>
10000fb4:	8aa2                	mv	s5,s0
10000fb6:	9ac18b13          	addi	s6,gp,-1620 # 1001578c <xDelayedTaskList1>
10000fba:	8556                	mv	a0,s5
10000fbc:	0ad1                	addi	s5,s5,20
10000fbe:	c68ff0ef          	jal	ra,10000426 <vListInitialise>
10000fc2:	ff5b1ce3          	bne	s6,s5,10000fba <xTaskCreate+0x1de>
10000fc6:	9ac18b13          	addi	s6,gp,-1620 # 1001578c <xDelayedTaskList1>
10000fca:	855a                	mv	a0,s6
10000fcc:	c5aff0ef          	jal	ra,10000426 <vListInitialise>
10000fd0:	9c018a93          	addi	s5,gp,-1600 # 100157a0 <xDelayedTaskList2>
10000fd4:	8556                	mv	a0,s5
10000fd6:	c50ff0ef          	jal	ra,10000426 <vListInitialise>
10000fda:	9d418513          	addi	a0,gp,-1580 # 100157b4 <xPendingReadyList>
10000fde:	c48ff0ef          	jal	ra,10000426 <vListInitialise>
10000fe2:	9fc18513          	addi	a0,gp,-1540 # 100157dc <xTasksWaitingTermination>
10000fe6:	c40ff0ef          	jal	ra,10000426 <vListInitialise>
10000fea:	9e818513          	addi	a0,gp,-1560 # 100157c8 <xSuspendedTaskList>
10000fee:	c38ff0ef          	jal	ra,10000426 <vListInitialise>
10000ff2:	00092583          	lw	a1,0(s2)
10000ff6:	00014797          	auipc	a5,0x14
10000ffa:	6367ad23          	sw	s6,1594(a5) # 10015630 <pxDelayedTaskList>
10000ffe:	54d0                	lw	a2,44(s1)
10001000:	00014797          	auipc	a5,0x14
10001004:	6357aa23          	sw	s5,1588(a5) # 10015634 <pxOverflowDelayedTaskList>
10001008:	15fd                	addi	a1,a1,-1
1000100a:	00014897          	auipc	a7,0x14
1000100e:	65288893          	addi	a7,a7,1618 # 1001565c <xSchedulerRunning>
10001012:	bdd9                	j	10000ee8 <xTaskCreate+0x10c>

10001014 <vTaskStartScheduler>:
10001014:	1101                	addi	sp,sp,-32
10001016:	04900793          	li	a5,73
1000101a:	00f10023          	sb	a5,0(sp)
1000101e:	ce06                	sw	ra,28(sp)
10001020:	cc22                	sw	s0,24(sp)
10001022:	00013717          	auipc	a4,0x13
10001026:	ebb70713          	addi	a4,a4,-325 # 10013edd <__modsi3+0x79>
1000102a:	00110793          	addi	a5,sp,1
1000102e:	00074683          	lbu	a3,0(a4)
10001032:	0785                	addi	a5,a5,1
10001034:	0705                	addi	a4,a4,1
10001036:	fed78fa3          	sb	a3,-1(a5)
1000103a:	faf5                	bnez	a3,1000102e <vTaskStartScheduler+0x1a>
1000103c:	00014797          	auipc	a5,0x14
10001040:	61078793          	addi	a5,a5,1552 # 1001564c <xIdleTaskHandles>
10001044:	4701                	li	a4,0
10001046:	4681                	li	a3,0
10001048:	20000613          	li	a2,512
1000104c:	858a                	mv	a1,sp
1000104e:	00000517          	auipc	a0,0x0
10001052:	b6450513          	addi	a0,a0,-1180 # 10000bb2 <prvIdleTask>
10001056:	3359                	jal	10000ddc <xTaskCreate>
10001058:	842a                	mv	s0,a0
1000105a:	c501                	beqz	a0,10001062 <vTaskStartScheduler+0x4e>
1000105c:	4785                	li	a5,1
1000105e:	00f40a63          	beq	s0,a5,10001072 <vTaskStartScheduler+0x5e>
10001062:	40f2                	lw	ra,28(sp)
10001064:	4462                	lw	s0,24(sp)
10001066:	00014797          	auipc	a5,0x14
1000106a:	5a27a783          	lw	a5,1442(a5) # 10015608 <uxTopUsedPriority>
1000106e:	6105                	addi	sp,sp,32
10001070:	8082                	ret
10001072:	12b000ef          	jal	ra,1000199c <xTimerCreateTimerTask>
10001076:	fe8516e3          	bne	a0,s0,10001062 <vTaskStartScheduler+0x4e>
1000107a:	30047073          	csrci	mstatus,8
1000107e:	57fd                	li	a5,-1
10001080:	00014717          	auipc	a4,0x14
10001084:	5cf72823          	sw	a5,1488(a4) # 10015650 <xNextTaskUnblockTime>
10001088:	00014797          	auipc	a5,0x14
1000108c:	5ca7aa23          	sw	a0,1492(a5) # 1001565c <xSchedulerRunning>
10001090:	00014797          	auipc	a5,0x14
10001094:	5c07a823          	sw	zero,1488(a5) # 10015660 <xTickCount>
10001098:	39f000ef          	jal	ra,10001c36 <xPortStartScheduler>
1000109c:	40f2                	lw	ra,28(sp)
1000109e:	4462                	lw	s0,24(sp)
100010a0:	00014797          	auipc	a5,0x14
100010a4:	5687a783          	lw	a5,1384(a5) # 10015608 <uxTopUsedPriority>
100010a8:	6105                	addi	sp,sp,32
100010aa:	8082                	ret

100010ac <vTaskSuspendAll>:
100010ac:	00014717          	auipc	a4,0x14
100010b0:	59470713          	addi	a4,a4,1428 # 10015640 <uxSchedulerSuspended>
100010b4:	431c                	lw	a5,0(a4)
100010b6:	0785                	addi	a5,a5,1
100010b8:	c31c                	sw	a5,0(a4)
100010ba:	8082                	ret

100010bc <xTaskResumeAll>:
100010bc:	1101                	addi	sp,sp,-32
100010be:	ce06                	sw	ra,28(sp)
100010c0:	cc22                	sw	s0,24(sp)
100010c2:	ca26                	sw	s1,20(sp)
100010c4:	c84a                	sw	s2,16(sp)
100010c6:	c64e                	sw	s3,12(sp)
100010c8:	c452                	sw	s4,8(sp)
100010ca:	c256                	sw	s5,4(sp)
100010cc:	30047073          	csrci	mstatus,8
100010d0:	00014497          	auipc	s1,0x14
100010d4:	57048493          	addi	s1,s1,1392 # 10015640 <uxSchedulerSuspended>
100010d8:	4098                	lw	a4,0(s1)
100010da:	00014917          	auipc	s2,0x14
100010de:	53a90913          	addi	s2,s2,1338 # 10015614 <xCriticalNesting>
100010e2:	00092783          	lw	a5,0(s2)
100010e6:	177d                	addi	a4,a4,-1
100010e8:	c098                	sw	a4,0(s1)
100010ea:	4098                	lw	a4,0(s1)
100010ec:	00178693          	addi	a3,a5,1
100010f0:	00d92023          	sw	a3,0(s2)
100010f4:	4501                	li	a0,0
100010f6:	eb7d                	bnez	a4,100011ec <xTaskResumeAll+0x130>
100010f8:	00014717          	auipc	a4,0x14
100010fc:	54072703          	lw	a4,1344(a4) # 10015638 <uxCurrentNumberOfTasks>
10001100:	c775                	beqz	a4,100011ec <xTaskResumeAll+0x130>
10001102:	9d418893          	addi	a7,gp,-1580 # 100157b4 <xPendingReadyList>
10001106:	0008a783          	lw	a5,0(a7)
1000110a:	00014417          	auipc	s0,0x14
1000110e:	55a40413          	addi	s0,s0,1370 # 10015664 <xYieldPendings>
10001112:	10078b63          	beqz	a5,10001228 <xTaskResumeAll+0x16c>
10001116:	00014317          	auipc	t1,0x14
1000111a:	53230313          	addi	t1,t1,1330 # 10015648 <uxTopReadyPriority>
1000111e:	92018f13          	addi	t5,gp,-1760 # 10015700 <pxReadyTasksLists>
10001122:	00014e97          	auipc	t4,0x14
10001126:	50ae8e93          	addi	t4,t4,1290 # 1001562c <pxCurrentTCB>
1000112a:	00014417          	auipc	s0,0x14
1000112e:	53a40413          	addi	s0,s0,1338 # 10015664 <xYieldPendings>
10001132:	4e05                	li	t3,1
10001134:	a8ad                	j	100011ae <xTaskResumeAll+0xf2>
10001136:	4314                	lw	a3,0(a4)
10001138:	0207a423          	sw	zero,40(a5)
1000113c:	16fd                	addi	a3,a3,-1
1000113e:	c314                	sw	a3,0(a4)
10001140:	4bcc                	lw	a1,20(a5)
10001142:	4794                	lw	a3,8(a5)
10001144:	47d8                	lw	a4,12(a5)
10001146:	41d0                	lw	a2,4(a1)
10001148:	00478513          	addi	a0,a5,4
1000114c:	c698                	sw	a4,8(a3)
1000114e:	c354                	sw	a3,4(a4)
10001150:	0aa60c63          	beq	a2,a0,10001208 <xTaskResumeAll+0x14c>
10001154:	57d4                	lw	a3,44(a5)
10001156:	0005a803          	lw	a6,0(a1)
1000115a:	00269713          	slli	a4,a3,0x2
1000115e:	9736                	add	a4,a4,a3
10001160:	070a                	slli	a4,a4,0x2
10001162:	977a                	add	a4,a4,t5
10001164:	4350                	lw	a2,4(a4)
10001166:	187d                	addi	a6,a6,-1
10001168:	0105a023          	sw	a6,0(a1)
1000116c:	00862803          	lw	a6,8(a2)
10001170:	00032f83          	lw	t6,0(t1)
10001174:	00de15b3          	sll	a1,t3,a3
10001178:	0107a623          	sw	a6,12(a5)
1000117c:	00862803          	lw	a6,8(a2)
10001180:	01f5e5b3          	or	a1,a1,t6
10001184:	00b32023          	sw	a1,0(t1)
10001188:	430c                	lw	a1,0(a4)
1000118a:	c790                	sw	a2,8(a5)
1000118c:	00a82223          	sw	a0,4(a6)
10001190:	c608                	sw	a0,8(a2)
10001192:	cbd8                	sw	a4,20(a5)
10001194:	00158793          	addi	a5,a1,1
10001198:	c31c                	sw	a5,0(a4)
1000119a:	000ea783          	lw	a5,0(t4)
1000119e:	57dc                	lw	a5,44(a5)
100011a0:	00d7f463          	bgeu	a5,a3,100011a8 <xTaskResumeAll+0xec>
100011a4:	01c42023          	sw	t3,0(s0)
100011a8:	0008a783          	lw	a5,0(a7)
100011ac:	c3a5                	beqz	a5,1000120c <xTaskResumeAll+0x150>
100011ae:	00c8a783          	lw	a5,12(a7)
100011b2:	47dc                	lw	a5,12(a5)
100011b4:	5798                	lw	a4,40(a5)
100011b6:	4fd0                	lw	a2,28(a5)
100011b8:	5394                	lw	a3,32(a5)
100011ba:	4348                	lw	a0,4(a4)
100011bc:	01878593          	addi	a1,a5,24
100011c0:	c614                	sw	a3,8(a2)
100011c2:	c2d0                	sw	a2,4(a3)
100011c4:	f6b519e3          	bne	a0,a1,10001136 <xTaskResumeAll+0x7a>
100011c8:	c354                	sw	a3,4(a4)
100011ca:	b7b5                	j	10001136 <xTaskResumeAll+0x7a>
100011cc:	00014797          	auipc	a5,0x14
100011d0:	4807a623          	sw	zero,1164(a5) # 10015658 <xPendedTicks>
100011d4:	4008                	lw	a0,0(s0)
100011d6:	c549                	beqz	a0,10001260 <xTaskResumeAll+0x1a4>
100011d8:	00014797          	auipc	a5,0x14
100011dc:	4547a783          	lw	a5,1108(a5) # 1001562c <pxCurrentTCB>
100011e0:	00000073          	ecall
100011e4:	00092783          	lw	a5,0(s2)
100011e8:	4505                	li	a0,1
100011ea:	17fd                	addi	a5,a5,-1
100011ec:	00f92023          	sw	a5,0(s2)
100011f0:	e399                	bnez	a5,100011f6 <xTaskResumeAll+0x13a>
100011f2:	30046073          	csrsi	mstatus,8
100011f6:	40f2                	lw	ra,28(sp)
100011f8:	4462                	lw	s0,24(sp)
100011fa:	44d2                	lw	s1,20(sp)
100011fc:	4942                	lw	s2,16(sp)
100011fe:	49b2                	lw	s3,12(sp)
10001200:	4a22                	lw	s4,8(sp)
10001202:	4a92                	lw	s5,4(sp)
10001204:	6105                	addi	sp,sp,32
10001206:	8082                	ret
10001208:	c1d8                	sw	a4,4(a1)
1000120a:	b7a9                	j	10001154 <xTaskResumeAll+0x98>
1000120c:	00014797          	auipc	a5,0x14
10001210:	42478793          	addi	a5,a5,1060 # 10015630 <pxDelayedTaskList>
10001214:	4398                	lw	a4,0(a5)
10001216:	4318                	lw	a4,0(a4)
10001218:	cb21                	beqz	a4,10001268 <xTaskResumeAll+0x1ac>
1000121a:	439c                	lw	a5,0(a5)
1000121c:	47dc                	lw	a5,12(a5)
1000121e:	439c                	lw	a5,0(a5)
10001220:	00014717          	auipc	a4,0x14
10001224:	42f72823          	sw	a5,1072(a4) # 10015650 <xNextTaskUnblockTime>
10001228:	00014a17          	auipc	s4,0x14
1000122c:	430a0a13          	addi	s4,s4,1072 # 10015658 <xPendedTicks>
10001230:	000a2983          	lw	s3,0(s4)
10001234:	fa0980e3          	beqz	s3,100011d4 <xTaskResumeAll+0x118>
10001238:	4a85                	li	s5,1
1000123a:	a809                	j	1000124c <xTaskResumeAll+0x190>
1000123c:	9f3ff0ef          	jal	ra,10000c2e <xTaskIncrementTick.part.0>
10001240:	c119                	beqz	a0,10001246 <xTaskResumeAll+0x18a>
10001242:	01542023          	sw	s5,0(s0)
10001246:	19fd                	addi	s3,s3,-1
10001248:	f80982e3          	beqz	s3,100011cc <xTaskResumeAll+0x110>
1000124c:	409c                	lw	a5,0(s1)
1000124e:	d7fd                	beqz	a5,1000123c <xTaskResumeAll+0x180>
10001250:	000a2783          	lw	a5,0(s4)
10001254:	0785                	addi	a5,a5,1
10001256:	00fa2023          	sw	a5,0(s4)
1000125a:	fd3fe0ef          	jal	ra,1000022c <vApplicationTickHook>
1000125e:	b7e5                	j	10001246 <xTaskResumeAll+0x18a>
10001260:	00092783          	lw	a5,0(s2)
10001264:	17fd                	addi	a5,a5,-1
10001266:	b759                	j	100011ec <xTaskResumeAll+0x130>
10001268:	57fd                	li	a5,-1
1000126a:	00014717          	auipc	a4,0x14
1000126e:	3ef72323          	sw	a5,998(a4) # 10015650 <xNextTaskUnblockTime>
10001272:	bf5d                	j	10001228 <xTaskResumeAll+0x16c>

10001274 <xTaskDelayUntil>:
10001274:	00014717          	auipc	a4,0x14
10001278:	3cc70713          	addi	a4,a4,972 # 10015640 <uxSchedulerSuspended>
1000127c:	431c                	lw	a5,0(a4)
1000127e:	1141                	addi	sp,sp,-16
10001280:	c606                	sw	ra,12(sp)
10001282:	c422                	sw	s0,8(sp)
10001284:	0785                	addi	a5,a5,1
10001286:	c31c                	sw	a5,0(a4)
10001288:	4118                	lw	a4,0(a0)
1000128a:	00014697          	auipc	a3,0x14
1000128e:	3d66a683          	lw	a3,982(a3) # 10015660 <xTickCount>
10001292:	00b707b3          	add	a5,a4,a1
10001296:	00e6ff63          	bgeu	a3,a4,100012b4 <xTaskDelayUntil+0x40>
1000129a:	00e7ef63          	bltu	a5,a4,100012b8 <xTaskDelayUntil+0x44>
1000129e:	c11c                	sw	a5,0(a0)
100012a0:	4401                	li	s0,0
100012a2:	3d29                	jal	100010bc <xTaskResumeAll>
100012a4:	e119                	bnez	a0,100012aa <xTaskDelayUntil+0x36>
100012a6:	00000073          	ecall
100012aa:	40b2                	lw	ra,12(sp)
100012ac:	8522                	mv	a0,s0
100012ae:	4422                	lw	s0,8(sp)
100012b0:	0141                	addi	sp,sp,16
100012b2:	8082                	ret
100012b4:	00e7e463          	bltu	a5,a4,100012bc <xTaskDelayUntil+0x48>
100012b8:	fef6f3e3          	bgeu	a3,a5,1000129e <xTaskDelayUntil+0x2a>
100012bc:	c11c                	sw	a5,0(a0)
100012be:	4581                	li	a1,0
100012c0:	40d78533          	sub	a0,a5,a3
100012c4:	805ff0ef          	jal	ra,10000ac8 <prvAddCurrentTaskToDelayedList>
100012c8:	4405                	li	s0,1
100012ca:	bfe1                	j	100012a2 <xTaskDelayUntil+0x2e>

100012cc <xTaskGetTickCount>:
100012cc:	00014517          	auipc	a0,0x14
100012d0:	39452503          	lw	a0,916(a0) # 10015660 <xTickCount>
100012d4:	8082                	ret

100012d6 <pcTaskGetName>:
100012d6:	c501                	beqz	a0,100012de <pcTaskGetName+0x8>
100012d8:	03450513          	addi	a0,a0,52
100012dc:	8082                	ret
100012de:	00014517          	auipc	a0,0x14
100012e2:	34e52503          	lw	a0,846(a0) # 1001562c <pxCurrentTCB>
100012e6:	03450513          	addi	a0,a0,52
100012ea:	8082                	ret

100012ec <xTaskIncrementTick>:
100012ec:	00014797          	auipc	a5,0x14
100012f0:	3547a783          	lw	a5,852(a5) # 10015640 <uxSchedulerSuspended>
100012f4:	e399                	bnez	a5,100012fa <xTaskIncrementTick+0xe>
100012f6:	939ff06f          	j	10000c2e <xTaskIncrementTick.part.0>
100012fa:	00014717          	auipc	a4,0x14
100012fe:	35e70713          	addi	a4,a4,862 # 10015658 <xPendedTicks>
10001302:	431c                	lw	a5,0(a4)
10001304:	1141                	addi	sp,sp,-16
10001306:	c606                	sw	ra,12(sp)
10001308:	0785                	addi	a5,a5,1
1000130a:	c31c                	sw	a5,0(a4)
1000130c:	f21fe0ef          	jal	ra,1000022c <vApplicationTickHook>
10001310:	40b2                	lw	ra,12(sp)
10001312:	4501                	li	a0,0
10001314:	0141                	addi	sp,sp,16
10001316:	8082                	ret

10001318 <vTaskSwitchContext>:
10001318:	00014797          	auipc	a5,0x14
1000131c:	3287a783          	lw	a5,808(a5) # 10015640 <uxSchedulerSuspended>
10001320:	c799                	beqz	a5,1000132e <vTaskSwitchContext+0x16>
10001322:	4785                	li	a5,1
10001324:	00014717          	auipc	a4,0x14
10001328:	34f72023          	sw	a5,832(a4) # 10015664 <xYieldPendings>
1000132c:	8082                	ret
1000132e:	1141                	addi	sp,sp,-16
10001330:	00014797          	auipc	a5,0x14
10001334:	3207aa23          	sw	zero,820(a5) # 10015664 <xYieldPendings>
10001338:	c422                	sw	s0,8(sp)
1000133a:	00014417          	auipc	s0,0x14
1000133e:	2f240413          	addi	s0,s0,754 # 1001562c <pxCurrentTCB>
10001342:	4018                	lw	a4,0(s0)
10001344:	a5a5a7b7          	lui	a5,0xa5a5a
10001348:	c606                	sw	ra,12(sp)
1000134a:	5b18                	lw	a4,48(a4)
1000134c:	5a578793          	addi	a5,a5,1445 # a5a5a5a5 <_sp+0x95a32039>
10001350:	4314                	lw	a3,0(a4)
10001352:	00f69563          	bne	a3,a5,1000135c <vTaskSwitchContext+0x44>
10001356:	435c                	lw	a5,4(a4)
10001358:	04d78663          	beq	a5,a3,100013a4 <vTaskSwitchContext+0x8c>
1000135c:	400c                	lw	a1,0(s0)
1000135e:	4008                	lw	a0,0(s0)
10001360:	03458593          	addi	a1,a1,52
10001364:	ec3fe0ef          	jal	ra,10000226 <vApplicationStackOverflowHook>
10001368:	00014517          	auipc	a0,0x14
1000136c:	2e052503          	lw	a0,736(a0) # 10015648 <uxTopReadyPriority>
10001370:	57d000ef          	jal	ra,100020ec <__clzsi2>
10001374:	47fd                	li	a5,31
10001376:	8f89                	sub	a5,a5,a0
10001378:	00279513          	slli	a0,a5,0x2
1000137c:	953e                	add	a0,a0,a5
1000137e:	050a                	slli	a0,a0,0x2
10001380:	92018793          	addi	a5,gp,-1760 # 10015700 <pxReadyTasksLists>
10001384:	00a786b3          	add	a3,a5,a0
10001388:	42d8                	lw	a4,4(a3)
1000138a:	0521                	addi	a0,a0,8
1000138c:	97aa                	add	a5,a5,a0
1000138e:	4358                	lw	a4,4(a4)
10001390:	c2d8                	sw	a4,4(a3)
10001392:	02f70063          	beq	a4,a5,100013b2 <vTaskSwitchContext+0x9a>
10001396:	475c                	lw	a5,12(a4)
10001398:	40b2                	lw	ra,12(sp)
1000139a:	c01c                	sw	a5,0(s0)
1000139c:	401c                	lw	a5,0(s0)
1000139e:	4422                	lw	s0,8(sp)
100013a0:	0141                	addi	sp,sp,16
100013a2:	8082                	ret
100013a4:	4714                	lw	a3,8(a4)
100013a6:	faf69be3          	bne	a3,a5,1000135c <vTaskSwitchContext+0x44>
100013aa:	475c                	lw	a5,12(a4)
100013ac:	fad798e3          	bne	a5,a3,1000135c <vTaskSwitchContext+0x44>
100013b0:	bf65                	j	10001368 <vTaskSwitchContext+0x50>
100013b2:	46d8                	lw	a4,12(a3)
100013b4:	40b2                	lw	ra,12(sp)
100013b6:	475c                	lw	a5,12(a4)
100013b8:	c2d8                	sw	a4,4(a3)
100013ba:	c01c                	sw	a5,0(s0)
100013bc:	401c                	lw	a5,0(s0)
100013be:	4422                	lw	s0,8(sp)
100013c0:	0141                	addi	sp,sp,16
100013c2:	8082                	ret

100013c4 <vTaskPlaceOnEventList>:
100013c4:	1141                	addi	sp,sp,-16
100013c6:	00014797          	auipc	a5,0x14
100013ca:	2667a783          	lw	a5,614(a5) # 1001562c <pxCurrentTCB>
100013ce:	c422                	sw	s0,8(sp)
100013d0:	842e                	mv	s0,a1
100013d2:	01878593          	addi	a1,a5,24
100013d6:	c606                	sw	ra,12(sp)
100013d8:	868ff0ef          	jal	ra,10000440 <vListInsert>
100013dc:	8522                	mv	a0,s0
100013de:	4422                	lw	s0,8(sp)
100013e0:	40b2                	lw	ra,12(sp)
100013e2:	4585                	li	a1,1
100013e4:	0141                	addi	sp,sp,16
100013e6:	ee2ff06f          	j	10000ac8 <prvAddCurrentTaskToDelayedList>

100013ea <vTaskPlaceOnEventListRestricted>:
100013ea:	4158                	lw	a4,4(a0)
100013ec:	00014797          	auipc	a5,0x14
100013f0:	24078793          	addi	a5,a5,576 # 1001562c <pxCurrentTCB>
100013f4:	0007a803          	lw	a6,0(a5)
100013f8:	00872883          	lw	a7,8(a4)
100013fc:	4394                	lw	a3,0(a5)
100013fe:	00e82e23          	sw	a4,28(a6)
10001402:	0007a803          	lw	a6,0(a5)
10001406:	0316a023          	sw	a7,32(a3)
1000140a:	00872303          	lw	t1,8(a4)
1000140e:	4394                	lw	a3,0(a5)
10001410:	0861                	addi	a6,a6,24
10001412:	0007a883          	lw	a7,0(a5)
10001416:	411c                	lw	a5,0(a0)
10001418:	06e1                	addi	a3,a3,24
1000141a:	01032223          	sw	a6,4(t1)
1000141e:	c714                	sw	a3,8(a4)
10001420:	02a8a423          	sw	a0,40(a7)
10001424:	0785                	addi	a5,a5,1
10001426:	c11c                	sw	a5,0(a0)
10001428:	852e                	mv	a0,a1
1000142a:	c211                	beqz	a2,1000142e <vTaskPlaceOnEventListRestricted+0x44>
1000142c:	557d                	li	a0,-1
1000142e:	85b2                	mv	a1,a2
10001430:	e98ff06f          	j	10000ac8 <prvAddCurrentTaskToDelayedList>

10001434 <xTaskRemoveFromEventList>:
10001434:	455c                	lw	a5,12(a0)
10001436:	47dc                	lw	a5,12(a5)
10001438:	5798                	lw	a4,40(a5)
1000143a:	4fd0                	lw	a2,28(a5)
1000143c:	5394                	lw	a3,32(a5)
1000143e:	4348                	lw	a0,4(a4)
10001440:	01878593          	addi	a1,a5,24
10001444:	c614                	sw	a3,8(a2)
10001446:	c2d0                	sw	a2,4(a3)
10001448:	0cb50063          	beq	a0,a1,10001508 <xTaskRemoveFromEventList+0xd4>
1000144c:	4314                	lw	a3,0(a4)
1000144e:	0207a423          	sw	zero,40(a5)
10001452:	57d0                	lw	a2,44(a5)
10001454:	16fd                	addi	a3,a3,-1
10001456:	c314                	sw	a3,0(a4)
10001458:	00014717          	auipc	a4,0x14
1000145c:	1e872703          	lw	a4,488(a4) # 10015640 <uxSchedulerSuspended>
10001460:	e351                	bnez	a4,100014e4 <xTaskRemoveFromEventList+0xb0>
10001462:	47d4                	lw	a3,12(a5)
10001464:	4798                	lw	a4,8(a5)
10001466:	4bc8                	lw	a0,20(a5)
10001468:	00478813          	addi	a6,a5,4
1000146c:	c714                	sw	a3,8(a4)
1000146e:	47d4                	lw	a3,12(a5)
10001470:	414c                	lw	a1,4(a0)
10001472:	c2d8                	sw	a4,4(a3)
10001474:	09058c63          	beq	a1,a6,1000150c <xTaskRemoveFromEventList+0xd8>
10001478:	00261693          	slli	a3,a2,0x2
1000147c:	96b2                	add	a3,a3,a2
1000147e:	068a                	slli	a3,a3,0x2
10001480:	92018713          	addi	a4,gp,-1760 # 10015700 <pxReadyTasksLists>
10001484:	00052883          	lw	a7,0(a0)
10001488:	9736                	add	a4,a4,a3
1000148a:	434c                	lw	a1,4(a4)
1000148c:	fff88693          	addi	a3,a7,-1
10001490:	c114                	sw	a3,0(a0)
10001492:	4594                	lw	a3,8(a1)
10001494:	00014517          	auipc	a0,0x14
10001498:	1b450513          	addi	a0,a0,436 # 10015648 <uxTopReadyPriority>
1000149c:	00052303          	lw	t1,0(a0)
100014a0:	c7d4                	sw	a3,12(a5)
100014a2:	4685                	li	a3,1
100014a4:	00c696b3          	sll	a3,a3,a2
100014a8:	0085a883          	lw	a7,8(a1)
100014ac:	0066e6b3          	or	a3,a3,t1
100014b0:	c114                	sw	a3,0(a0)
100014b2:	4314                	lw	a3,0(a4)
100014b4:	c78c                	sw	a1,8(a5)
100014b6:	0108a223          	sw	a6,4(a7)
100014ba:	0105a423          	sw	a6,8(a1)
100014be:	cbd8                	sw	a4,20(a5)
100014c0:	00168793          	addi	a5,a3,1
100014c4:	c31c                	sw	a5,0(a4)
100014c6:	00014797          	auipc	a5,0x14
100014ca:	1667a783          	lw	a5,358(a5) # 1001562c <pxCurrentTCB>
100014ce:	57dc                	lw	a5,44(a5)
100014d0:	4501                	li	a0,0
100014d2:	00c7f863          	bgeu	a5,a2,100014e2 <xTaskRemoveFromEventList+0xae>
100014d6:	4785                	li	a5,1
100014d8:	00014717          	auipc	a4,0x14
100014dc:	18f72623          	sw	a5,396(a4) # 10015664 <xYieldPendings>
100014e0:	4505                	li	a0,1
100014e2:	8082                	ret
100014e4:	9d418713          	addi	a4,gp,-1580 # 100157b4 <xPendingReadyList>
100014e8:	4354                	lw	a3,4(a4)
100014ea:	4308                	lw	a0,0(a4)
100014ec:	0086a803          	lw	a6,8(a3)
100014f0:	cfd4                	sw	a3,28(a5)
100014f2:	0505                	addi	a0,a0,1
100014f4:	0307a023          	sw	a6,32(a5)
100014f8:	0086a803          	lw	a6,8(a3)
100014fc:	c308                	sw	a0,0(a4)
100014fe:	00b82223          	sw	a1,4(a6)
10001502:	c68c                	sw	a1,8(a3)
10001504:	d798                	sw	a4,40(a5)
10001506:	b7c1                	j	100014c6 <xTaskRemoveFromEventList+0x92>
10001508:	c354                	sw	a3,4(a4)
1000150a:	b789                	j	1000144c <xTaskRemoveFromEventList+0x18>
1000150c:	c154                	sw	a3,4(a0)
1000150e:	b7ad                	j	10001478 <xTaskRemoveFromEventList+0x44>

10001510 <vTaskInternalSetTimeOutState>:
10001510:	00014717          	auipc	a4,0x14
10001514:	14472703          	lw	a4,324(a4) # 10015654 <xNumOfOverflows>
10001518:	00014797          	auipc	a5,0x14
1000151c:	1487a783          	lw	a5,328(a5) # 10015660 <xTickCount>
10001520:	c118                	sw	a4,0(a0)
10001522:	c15c                	sw	a5,4(a0)
10001524:	8082                	ret

10001526 <xTaskCheckForTimeOut>:
10001526:	87aa                	mv	a5,a0
10001528:	30047073          	csrci	mstatus,8
1000152c:	00014817          	auipc	a6,0x14
10001530:	13480813          	addi	a6,a6,308 # 10015660 <xTickCount>
10001534:	00014617          	auipc	a2,0x14
10001538:	0f860613          	addi	a2,a2,248 # 1001562c <pxCurrentTCB>
1000153c:	00014697          	auipc	a3,0x14
10001540:	0d868693          	addi	a3,a3,216 # 10015614 <xCriticalNesting>
10001544:	00082e03          	lw	t3,0(a6)
10001548:	4208                	lw	a0,0(a2)
1000154a:	4298                	lw	a4,0(a3)
1000154c:	0047a303          	lw	t1,4(a5)
10001550:	05154503          	lbu	a0,81(a0)
10001554:	00170893          	addi	a7,a4,1
10001558:	0116a023          	sw	a7,0(a3)
1000155c:	c911                	beqz	a0,10001570 <xTaskCheckForTimeOut+0x4a>
1000155e:	421c                	lw	a5,0(a2)
10001560:	4505                	li	a0,1
10001562:	040788a3          	sb	zero,81(a5)
10001566:	c298                	sw	a4,0(a3)
10001568:	e319                	bnez	a4,1000156e <xTaskCheckForTimeOut+0x48>
1000156a:	30046073          	csrsi	mstatus,8
1000156e:	8082                	ret
10001570:	4190                	lw	a2,0(a1)
10001572:	58fd                	li	a7,-1
10001574:	4501                	li	a0,0
10001576:	ff1608e3          	beq	a2,a7,10001566 <xTaskCheckForTimeOut+0x40>
1000157a:	00014517          	auipc	a0,0x14
1000157e:	0da50513          	addi	a0,a0,218 # 10015654 <xNumOfOverflows>
10001582:	00052883          	lw	a7,0(a0)
10001586:	0007ae83          	lw	t4,0(a5)
1000158a:	011e8863          	beq	t4,a7,1000159a <xTaskCheckForTimeOut+0x74>
1000158e:	006e6663          	bltu	t3,t1,1000159a <xTaskCheckForTimeOut+0x74>
10001592:	0005a023          	sw	zero,0(a1)
10001596:	4505                	li	a0,1
10001598:	b7f9                	j	10001566 <xTaskCheckForTimeOut+0x40>
1000159a:	406e08b3          	sub	a7,t3,t1
1000159e:	fec8fae3          	bgeu	a7,a2,10001592 <xTaskCheckForTimeOut+0x6c>
100015a2:	00052883          	lw	a7,0(a0)
100015a6:	41c60633          	sub	a2,a2,t3
100015aa:	00082503          	lw	a0,0(a6)
100015ae:	961a                	add	a2,a2,t1
100015b0:	c190                	sw	a2,0(a1)
100015b2:	c3c8                	sw	a0,4(a5)
100015b4:	0117a023          	sw	a7,0(a5)
100015b8:	4501                	li	a0,0
100015ba:	b775                	j	10001566 <xTaskCheckForTimeOut+0x40>

100015bc <vTaskMissedYield>:
100015bc:	4785                	li	a5,1
100015be:	00014717          	auipc	a4,0x14
100015c2:	0af72323          	sw	a5,166(a4) # 10015664 <xYieldPendings>
100015c6:	8082                	ret

100015c8 <xTaskGetCurrentTaskHandle>:
100015c8:	00014517          	auipc	a0,0x14
100015cc:	06452503          	lw	a0,100(a0) # 1001562c <pxCurrentTCB>
100015d0:	8082                	ret

100015d2 <xTaskPriorityDisinherit>:
100015d2:	c505                	beqz	a0,100015fa <xTaskPriorityDisinherit+0x28>
100015d4:	453c                	lw	a5,72(a0)
100015d6:	1141                	addi	sp,sp,-16
100015d8:	5554                	lw	a3,44(a0)
100015da:	4178                	lw	a4,68(a0)
100015dc:	c422                	sw	s0,8(sp)
100015de:	c606                	sw	ra,12(sp)
100015e0:	c226                	sw	s1,4(sp)
100015e2:	17fd                	addi	a5,a5,-1
100015e4:	c53c                	sw	a5,72(a0)
100015e6:	842a                	mv	s0,a0
100015e8:	00e68363          	beq	a3,a4,100015ee <xTaskPriorityDisinherit+0x1c>
100015ec:	cb89                	beqz	a5,100015fe <xTaskPriorityDisinherit+0x2c>
100015ee:	40b2                	lw	ra,12(sp)
100015f0:	4422                	lw	s0,8(sp)
100015f2:	4492                	lw	s1,4(sp)
100015f4:	4501                	li	a0,0
100015f6:	0141                	addi	sp,sp,16
100015f8:	8082                	ret
100015fa:	4501                	li	a0,0
100015fc:	8082                	ret
100015fe:	00450493          	addi	s1,a0,4
10001602:	8526                	mv	a0,s1
10001604:	e6bfe0ef          	jal	ra,1000046e <uxListRemove>
10001608:	00014597          	auipc	a1,0x14
1000160c:	04058593          	addi	a1,a1,64 # 10015648 <uxTopReadyPriority>
10001610:	e911                	bnez	a0,10001624 <xTaskPriorityDisinherit+0x52>
10001612:	5454                	lw	a3,44(s0)
10001614:	4198                	lw	a4,0(a1)
10001616:	4785                	li	a5,1
10001618:	00d797b3          	sll	a5,a5,a3
1000161c:	fff7c793          	not	a5,a5
10001620:	8ff9                	and	a5,a5,a4
10001622:	c19c                	sw	a5,0(a1)
10001624:	4078                	lw	a4,68(s0)
10001626:	92018793          	addi	a5,gp,-1760 # 10015700 <pxReadyTasksLists>
1000162a:	0005a803          	lw	a6,0(a1)
1000162e:	00271693          	slli	a3,a4,0x2
10001632:	96ba                	add	a3,a3,a4
10001634:	068a                	slli	a3,a3,0x2
10001636:	97b6                	add	a5,a5,a3
10001638:	43d0                	lw	a2,4(a5)
1000163a:	4685                	li	a3,1
1000163c:	00e696b3          	sll	a3,a3,a4
10001640:	4608                	lw	a0,8(a2)
10001642:	0106e6b3          	or	a3,a3,a6
10001646:	c194                	sw	a3,0(a1)
10001648:	c448                	sw	a0,12(s0)
1000164a:	4608                	lw	a0,8(a2)
1000164c:	469d                	li	a3,7
1000164e:	8e99                	sub	a3,a3,a4
10001650:	d458                	sw	a4,44(s0)
10001652:	cc14                	sw	a3,24(s0)
10001654:	c410                	sw	a2,8(s0)
10001656:	4398                	lw	a4,0(a5)
10001658:	c144                	sw	s1,4(a0)
1000165a:	c604                	sw	s1,8(a2)
1000165c:	c85c                	sw	a5,20(s0)
1000165e:	40b2                	lw	ra,12(sp)
10001660:	4422                	lw	s0,8(sp)
10001662:	0705                	addi	a4,a4,1
10001664:	c398                	sw	a4,0(a5)
10001666:	4492                	lw	s1,4(sp)
10001668:	4505                	li	a0,1
1000166a:	0141                	addi	sp,sp,16
1000166c:	8082                	ret

1000166e <prvCheckForValidListAndQueue>:
1000166e:	1101                	addi	sp,sp,-32
10001670:	ce06                	sw	ra,28(sp)
10001672:	cc22                	sw	s0,24(sp)
10001674:	ca26                	sw	s1,20(sp)
10001676:	c84a                	sw	s2,16(sp)
10001678:	c64e                	sw	s3,12(sp)
1000167a:	30047073          	csrci	mstatus,8
1000167e:	00014417          	auipc	s0,0x14
10001682:	f9640413          	addi	s0,s0,-106 # 10015614 <xCriticalNesting>
10001686:	401c                	lw	a5,0(s0)
10001688:	00014497          	auipc	s1,0x14
1000168c:	fec48493          	addi	s1,s1,-20 # 10015674 <xTimerQueue>
10001690:	4098                	lw	a4,0(s1)
10001692:	00178693          	addi	a3,a5,1
10001696:	c014                	sw	a3,0(s0)
10001698:	cf01                	beqz	a4,100016b0 <prvCheckForValidListAndQueue+0x42>
1000169a:	c01c                	sw	a5,0(s0)
1000169c:	e399                	bnez	a5,100016a2 <prvCheckForValidListAndQueue+0x34>
1000169e:	30046073          	csrsi	mstatus,8
100016a2:	40f2                	lw	ra,28(sp)
100016a4:	4462                	lw	s0,24(sp)
100016a6:	44d2                	lw	s1,20(sp)
100016a8:	4942                	lw	s2,16(sp)
100016aa:	49b2                	lw	s3,12(sp)
100016ac:	6105                	addi	sp,sp,32
100016ae:	8082                	ret
100016b0:	a1018993          	addi	s3,gp,-1520 # 100157f0 <xActiveTimerList1>
100016b4:	854e                	mv	a0,s3
100016b6:	d71fe0ef          	jal	ra,10000426 <vListInitialise>
100016ba:	a2418913          	addi	s2,gp,-1500 # 10015804 <xActiveTimerList2>
100016be:	854a                	mv	a0,s2
100016c0:	d67fe0ef          	jal	ra,10000426 <vListInitialise>
100016c4:	4601                	li	a2,0
100016c6:	45c1                	li	a1,16
100016c8:	4519                	li	a0,6
100016ca:	00014797          	auipc	a5,0x14
100016ce:	f937af23          	sw	s3,-98(a5) # 10015668 <pxCurrentTimerList>
100016d2:	00014797          	auipc	a5,0x14
100016d6:	f927ad23          	sw	s2,-102(a5) # 1001566c <pxOverflowTimerList>
100016da:	ffdfe0ef          	jal	ra,100006d6 <xQueueGenericCreate>
100016de:	c088                	sw	a0,0(s1)
100016e0:	c519                	beqz	a0,100016ee <prvCheckForValidListAndQueue+0x80>
100016e2:	00013597          	auipc	a1,0x13
100016e6:	80258593          	addi	a1,a1,-2046 # 10013ee4 <__modsi3+0x80>
100016ea:	b20ff0ef          	jal	ra,10000a0a <vQueueAddToRegistry>
100016ee:	401c                	lw	a5,0(s0)
100016f0:	17fd                	addi	a5,a5,-1
100016f2:	b765                	j	1000169a <prvCheckForValidListAndQueue+0x2c>

100016f4 <prvReloadTimer>:
100016f4:	1141                	addi	sp,sp,-16
100016f6:	c422                	sw	s0,8(sp)
100016f8:	c04a                	sw	s2,0(sp)
100016fa:	c606                	sw	ra,12(sp)
100016fc:	c226                	sw	s1,4(sp)
100016fe:	842a                	mv	s0,a0
10001700:	8932                	mv	s2,a2
10001702:	a031                	j	1000170e <prvReloadTimer+0x1a>
10001704:	04f76063          	bltu	a4,a5,10001744 <prvReloadTimer+0x50>
10001708:	501c                	lw	a5,32(s0)
1000170a:	9782                	jalr	a5
1000170c:	85a6                	mv	a1,s1
1000170e:	4c1c                	lw	a5,24(s0)
10001710:	c800                	sw	s0,16(s0)
10001712:	8522                	mv	a0,s0
10001714:	00b784b3          	add	s1,a5,a1
10001718:	c044                	sw	s1,4(s0)
1000171a:	40b90733          	sub	a4,s2,a1
1000171e:	fe9973e3          	bgeu	s2,s1,10001704 <prvReloadTimer+0x10>
10001722:	00b97463          	bgeu	s2,a1,1000172a <prvReloadTimer+0x36>
10001726:	feb4f1e3          	bgeu	s1,a1,10001708 <prvReloadTimer+0x14>
1000172a:	00440593          	addi	a1,s0,4
1000172e:	4422                	lw	s0,8(sp)
10001730:	40b2                	lw	ra,12(sp)
10001732:	4492                	lw	s1,4(sp)
10001734:	4902                	lw	s2,0(sp)
10001736:	00014517          	auipc	a0,0x14
1000173a:	f3252503          	lw	a0,-206(a0) # 10015668 <pxCurrentTimerList>
1000173e:	0141                	addi	sp,sp,16
10001740:	d01fe06f          	j	10000440 <vListInsert>
10001744:	00440593          	addi	a1,s0,4
10001748:	4422                	lw	s0,8(sp)
1000174a:	40b2                	lw	ra,12(sp)
1000174c:	4492                	lw	s1,4(sp)
1000174e:	4902                	lw	s2,0(sp)
10001750:	00014517          	auipc	a0,0x14
10001754:	f1c52503          	lw	a0,-228(a0) # 1001566c <pxOverflowTimerList>
10001758:	0141                	addi	sp,sp,16
1000175a:	ce7fe06f          	j	10000440 <vListInsert>

1000175e <prvProcessExpiredTimer>:
1000175e:	00014797          	auipc	a5,0x14
10001762:	f0a7a783          	lw	a5,-246(a5) # 10015668 <pxCurrentTimerList>
10001766:	47dc                	lw	a5,12(a5)
10001768:	1141                	addi	sp,sp,-16
1000176a:	c422                	sw	s0,8(sp)
1000176c:	47c0                	lw	s0,12(a5)
1000176e:	c226                	sw	s1,4(sp)
10001770:	84aa                	mv	s1,a0
10001772:	00440513          	addi	a0,s0,4
10001776:	c04a                	sw	s2,0(sp)
10001778:	c606                	sw	ra,12(sp)
1000177a:	892e                	mv	s2,a1
1000177c:	cf3fe0ef          	jal	ra,1000046e <uxListRemove>
10001780:	02444783          	lbu	a5,36(s0)
10001784:	0047f713          	andi	a4,a5,4
10001788:	ef01                	bnez	a4,100017a0 <prvProcessExpiredTimer+0x42>
1000178a:	9bf9                	andi	a5,a5,-2
1000178c:	02f40223          	sb	a5,36(s0)
10001790:	501c                	lw	a5,32(s0)
10001792:	8522                	mv	a0,s0
10001794:	4422                	lw	s0,8(sp)
10001796:	40b2                	lw	ra,12(sp)
10001798:	4492                	lw	s1,4(sp)
1000179a:	4902                	lw	s2,0(sp)
1000179c:	0141                	addi	sp,sp,16
1000179e:	8782                	jr	a5
100017a0:	864a                	mv	a2,s2
100017a2:	85a6                	mv	a1,s1
100017a4:	8522                	mv	a0,s0
100017a6:	37b9                	jal	100016f4 <prvReloadTimer>
100017a8:	b7e5                	j	10001790 <prvProcessExpiredTimer+0x32>

100017aa <prvTimerTask>:
100017aa:	7139                	addi	sp,sp,-64
100017ac:	da26                	sw	s1,52(sp)
100017ae:	d84a                	sw	s2,48(sp)
100017b0:	d64e                	sw	s3,44(sp)
100017b2:	d452                	sw	s4,40(sp)
100017b4:	d256                	sw	s5,36(sp)
100017b6:	d05a                	sw	s6,32(sp)
100017b8:	de06                	sw	ra,60(sp)
100017ba:	dc22                	sw	s0,56(sp)
100017bc:	ce5e                	sw	s7,28(sp)
100017be:	00014917          	auipc	s2,0x14
100017c2:	eaa90913          	addi	s2,s2,-342 # 10015668 <pxCurrentTimerList>
100017c6:	00014997          	auipc	s3,0x14
100017ca:	eaa98993          	addi	s3,s3,-342 # 10015670 <xLastTime.0>
100017ce:	00014a97          	auipc	s5,0x14
100017d2:	e9ea8a93          	addi	s5,s5,-354 # 1001566c <pxOverflowTimerList>
100017d6:	00014497          	auipc	s1,0x14
100017da:	e9e48493          	addi	s1,s1,-354 # 10015674 <xTimerQueue>
100017de:	00012a17          	auipc	s4,0x12
100017e2:	70ea0a13          	addi	s4,s4,1806 # 10013eec <__modsi3+0x88>
100017e6:	4b25                	li	s6,9
100017e8:	00092783          	lw	a5,0(s2)
100017ec:	0007ab83          	lw	s7,0(a5)
100017f0:	140b8d63          	beqz	s7,1000194a <prvTimerTask+0x1a0>
100017f4:	47dc                	lw	a5,12(a5)
100017f6:	0007ab83          	lw	s7,0(a5)
100017fa:	8b3ff0ef          	jal	ra,100010ac <vTaskSuspendAll>
100017fe:	acfff0ef          	jal	ra,100012cc <xTaskGetTickCount>
10001802:	0009a783          	lw	a5,0(s3)
10001806:	842a                	mv	s0,a0
10001808:	06f56b63          	bltu	a0,a5,1000187e <prvTimerTask+0xd4>
1000180c:	00a9a023          	sw	a0,0(s3)
10001810:	4601                	li	a2,0
10001812:	17757863          	bgeu	a0,s7,10001982 <prvTimerTask+0x1d8>
10001816:	4088                	lw	a0,0(s1)
10001818:	408b85b3          	sub	a1,s7,s0
1000181c:	a4cff0ef          	jal	ra,10000a68 <vQueueWaitForMessageRestricted>
10001820:	89dff0ef          	jal	ra,100010bc <xTaskResumeAll>
10001824:	e119                	bnez	a0,1000182a <prvTimerTask+0x80>
10001826:	00000073          	ecall
1000182a:	c002                	sw	zero,0(sp)
1000182c:	c202                	sw	zero,4(sp)
1000182e:	c402                	sw	zero,8(sp)
10001830:	c602                	sw	zero,12(sp)
10001832:	4088                	lw	a0,0(s1)
10001834:	4601                	li	a2,0
10001836:	858a                	mv	a1,sp
10001838:	868ff0ef          	jal	ra,100008a0 <xQueueReceive>
1000183c:	d555                	beqz	a0,100017e8 <prvTimerTask+0x3e>
1000183e:	4782                	lw	a5,0(sp)
10001840:	4522                	lw	a0,8(sp)
10001842:	0e07cd63          	bltz	a5,1000193c <prvTimerTask+0x192>
10001846:	4422                	lw	s0,8(sp)
10001848:	485c                	lw	a5,20(s0)
1000184a:	c789                	beqz	a5,10001854 <prvTimerTask+0xaa>
1000184c:	00440513          	addi	a0,s0,4
10001850:	c1ffe0ef          	jal	ra,1000046e <uxListRemove>
10001854:	a79ff0ef          	jal	ra,100012cc <xTaskGetTickCount>
10001858:	0009a783          	lw	a5,0(s3)
1000185c:	8baa                	mv	s7,a0
1000185e:	04f56363          	bltu	a0,a5,100018a4 <prvTimerTask+0xfa>
10001862:	4782                	lw	a5,0(sp)
10001864:	0179a023          	sw	s7,0(s3)
10001868:	fcfb65e3          	bltu	s6,a5,10001832 <prvTimerTask+0x88>
1000186c:	078a                	slli	a5,a5,0x2
1000186e:	97d2                	add	a5,a5,s4
10001870:	439c                	lw	a5,0(a5)
10001872:	97d2                	add	a5,a5,s4
10001874:	8782                	jr	a5
10001876:	47dc                	lw	a5,12(a5)
10001878:	55fd                	li	a1,-1
1000187a:	4388                	lw	a0,0(a5)
1000187c:	35cd                	jal	1000175e <prvProcessExpiredTimer>
1000187e:	00092783          	lw	a5,0(s2)
10001882:	4398                	lw	a4,0(a5)
10001884:	fb6d                	bnez	a4,10001876 <prvTimerTask+0xcc>
10001886:	000aa703          	lw	a4,0(s5)
1000188a:	0089a023          	sw	s0,0(s3)
1000188e:	00faa023          	sw	a5,0(s5)
10001892:	00e92023          	sw	a4,0(s2)
10001896:	827ff0ef          	jal	ra,100010bc <xTaskResumeAll>
1000189a:	bf41                	j	1000182a <prvTimerTask+0x80>
1000189c:	47dc                	lw	a5,12(a5)
1000189e:	55fd                	li	a1,-1
100018a0:	4388                	lw	a0,0(a5)
100018a2:	3d75                	jal	1000175e <prvProcessExpiredTimer>
100018a4:	00092783          	lw	a5,0(s2)
100018a8:	4398                	lw	a4,0(a5)
100018aa:	fb6d                	bnez	a4,1000189c <prvTimerTask+0xf2>
100018ac:	000aa703          	lw	a4,0(s5)
100018b0:	00faa023          	sw	a5,0(s5)
100018b4:	00e92023          	sw	a4,0(s2)
100018b8:	b76d                	j	10001862 <prvTimerTask+0xb8>
100018ba:	02444703          	lbu	a4,36(s0)
100018be:	4792                	lw	a5,4(sp)
100018c0:	4c14                	lw	a3,24(s0)
100018c2:	00176613          	ori	a2,a4,1
100018c6:	02c40223          	sb	a2,36(s0)
100018ca:	00d785b3          	add	a1,a5,a3
100018ce:	c04c                	sw	a1,4(s0)
100018d0:	c800                	sw	s0,16(s0)
100018d2:	08bbed63          	bltu	s7,a1,1000196c <prvTimerTask+0x1c2>
100018d6:	40fb87b3          	sub	a5,s7,a5
100018da:	02d7eb63          	bltu	a5,a3,10001910 <prvTimerTask+0x166>
100018de:	00477793          	andi	a5,a4,4
100018e2:	ebcd                	bnez	a5,10001994 <prvTimerTask+0x1ea>
100018e4:	9b79                	andi	a4,a4,-2
100018e6:	02e40223          	sb	a4,36(s0)
100018ea:	501c                	lw	a5,32(s0)
100018ec:	8522                	mv	a0,s0
100018ee:	9782                	jalr	a5
100018f0:	b789                	j	10001832 <prvTimerTask+0x88>
100018f2:	4712                	lw	a4,4(sp)
100018f4:	02444783          	lbu	a5,36(s0)
100018f8:	c800                	sw	s0,16(s0)
100018fa:	017706b3          	add	a3,a4,s7
100018fe:	0017e793          	ori	a5,a5,1
10001902:	02f40223          	sb	a5,36(s0)
10001906:	cc18                	sw	a4,24(s0)
10001908:	c054                	sw	a3,4(s0)
1000190a:	06dbe563          	bltu	s7,a3,10001974 <prvTimerTask+0x1ca>
1000190e:	d315                	beqz	a4,10001832 <prvTimerTask+0x88>
10001910:	000aa503          	lw	a0,0(s5)
10001914:	00440593          	addi	a1,s0,4
10001918:	b29fe0ef          	jal	ra,10000440 <vListInsert>
1000191c:	bf19                	j	10001832 <prvTimerTask+0x88>
1000191e:	02444783          	lbu	a5,36(s0)
10001922:	9bf9                	andi	a5,a5,-2
10001924:	02f40223          	sb	a5,36(s0)
10001928:	b729                	j	10001832 <prvTimerTask+0x88>
1000192a:	02444783          	lbu	a5,36(s0)
1000192e:	0027f713          	andi	a4,a5,2
10001932:	cf31                	beqz	a4,1000198e <prvTimerTask+0x1e4>
10001934:	9bf9                	andi	a5,a5,-2
10001936:	02f40223          	sb	a5,36(s0)
1000193a:	bde5                	j	10001832 <prvTimerTask+0x88>
1000193c:	4792                	lw	a5,4(sp)
1000193e:	45b2                	lw	a1,12(sp)
10001940:	9782                	jalr	a5
10001942:	4782                	lw	a5,0(sp)
10001944:	ee07c7e3          	bltz	a5,10001832 <prvTimerTask+0x88>
10001948:	bdfd                	j	10001846 <prvTimerTask+0x9c>
1000194a:	f62ff0ef          	jal	ra,100010ac <vTaskSuspendAll>
1000194e:	97fff0ef          	jal	ra,100012cc <xTaskGetTickCount>
10001952:	0009a783          	lw	a5,0(s3)
10001956:	842a                	mv	s0,a0
10001958:	f2f563e3          	bltu	a0,a5,1000187e <prvTimerTask+0xd4>
1000195c:	000aa783          	lw	a5,0(s5)
10001960:	0089a023          	sw	s0,0(s3)
10001964:	4390                	lw	a2,0(a5)
10001966:	00163613          	seqz	a2,a2
1000196a:	b575                	j	10001816 <prvTimerTask+0x6c>
1000196c:	00fbf463          	bgeu	s7,a5,10001974 <prvTimerTask+0x1ca>
10001970:	f6f5f7e3          	bgeu	a1,a5,100018de <prvTimerTask+0x134>
10001974:	00092503          	lw	a0,0(s2)
10001978:	00440593          	addi	a1,s0,4
1000197c:	ac5fe0ef          	jal	ra,10000440 <vListInsert>
10001980:	bd4d                	j	10001832 <prvTimerTask+0x88>
10001982:	f3aff0ef          	jal	ra,100010bc <xTaskResumeAll>
10001986:	85a2                	mv	a1,s0
10001988:	855e                	mv	a0,s7
1000198a:	3bd1                	jal	1000175e <prvProcessExpiredTimer>
1000198c:	bd79                	j	1000182a <prvTimerTask+0x80>
1000198e:	8522                	mv	a0,s0
10001990:	2255                	jal	10001b34 <vPortFree>
10001992:	b545                	j	10001832 <prvTimerTask+0x88>
10001994:	865e                	mv	a2,s7
10001996:	8522                	mv	a0,s0
10001998:	3bb1                	jal	100016f4 <prvReloadTimer>
1000199a:	bf81                	j	100018ea <prvTimerTask+0x140>

1000199c <xTimerCreateTimerTask>:
1000199c:	1141                	addi	sp,sp,-16
1000199e:	c606                	sw	ra,12(sp)
100019a0:	31f9                	jal	1000166e <prvCheckForValidListAndQueue>
100019a2:	00014797          	auipc	a5,0x14
100019a6:	cd27a783          	lw	a5,-814(a5) # 10015674 <xTimerQueue>
100019aa:	c78d                	beqz	a5,100019d4 <xTimerCreateTimerTask+0x38>
100019ac:	40b2                	lw	ra,12(sp)
100019ae:	00014797          	auipc	a5,0x14
100019b2:	cca78793          	addi	a5,a5,-822 # 10015678 <xTimerTaskHandle>
100019b6:	4719                	li	a4,6
100019b8:	4681                	li	a3,0
100019ba:	06e00613          	li	a2,110
100019be:	00012597          	auipc	a1,0x12
100019c2:	55658593          	addi	a1,a1,1366 # 10013f14 <__modsi3+0xb0>
100019c6:	00000517          	auipc	a0,0x0
100019ca:	de450513          	addi	a0,a0,-540 # 100017aa <prvTimerTask>
100019ce:	0141                	addi	sp,sp,16
100019d0:	c0cff06f          	j	10000ddc <xTaskCreate>
100019d4:	40b2                	lw	ra,12(sp)
100019d6:	4501                	li	a0,0
100019d8:	0141                	addi	sp,sp,16
100019da:	8082                	ret

100019dc <pvPortMalloc>:
100019dc:	1141                	addi	sp,sp,-16
100019de:	c606                	sw	ra,12(sp)
100019e0:	c422                	sw	s0,8(sp)
100019e2:	c226                	sw	s1,4(sp)
100019e4:	fff50713          	addi	a4,a0,-1
100019e8:	57b9                	li	a5,-18
100019ea:	0ce7e363          	bltu	a5,a4,10001ab0 <pvPortMalloc+0xd4>
100019ee:	00f57793          	andi	a5,a0,15
100019f2:	01050413          	addi	s0,a0,16
100019f6:	cb89                	beqz	a5,10001a08 <pvPortMalloc+0x2c>
100019f8:	fef78713          	addi	a4,a5,-17
100019fc:	0a876a63          	bltu	a4,s0,10001ab0 <pvPortMalloc+0xd4>
10001a00:	02050513          	addi	a0,a0,32
10001a04:	40f50433          	sub	s0,a0,a5
10001a08:	ea4ff0ef          	jal	ra,100010ac <vTaskSuspendAll>
10001a0c:	00014597          	auipc	a1,0x14
10001a10:	c7058593          	addi	a1,a1,-912 # 1001567c <pxEnd>
10001a14:	419c                	lw	a5,0(a1)
10001a16:	8622                	mv	a2,s0
10001a18:	c3e9                	beqz	a5,10001ada <pvPortMalloc+0xfe>
10001a1a:	0a064363          	bltz	a2,10001ac0 <pvPortMalloc+0xe4>
10001a1e:	c04d                	beqz	s0,10001ac0 <pvPortMalloc+0xe4>
10001a20:	00014817          	auipc	a6,0x14
10001a24:	c6080813          	addi	a6,a6,-928 # 10015680 <xFreeBytesRemaining>
10001a28:	00082503          	lw	a0,0(a6)
10001a2c:	08856a63          	bltu	a0,s0,10001ac0 <pvPortMalloc+0xe4>
10001a30:	00014617          	auipc	a2,0x14
10001a34:	c6060613          	addi	a2,a2,-928 # 10015690 <xStart>
10001a38:	421c                	lw	a5,0(a2)
10001a3a:	a029                	j	10001a44 <pvPortMalloc+0x68>
10001a3c:	4398                	lw	a4,0(a5)
10001a3e:	c711                	beqz	a4,10001a4a <pvPortMalloc+0x6e>
10001a40:	863e                	mv	a2,a5
10001a42:	87ba                	mv	a5,a4
10001a44:	43d4                	lw	a3,4(a5)
10001a46:	fe86ebe3          	bltu	a3,s0,10001a3c <pvPortMalloc+0x60>
10001a4a:	4198                	lw	a4,0(a1)
10001a4c:	06f70a63          	beq	a4,a5,10001ac0 <pvPortMalloc+0xe4>
10001a50:	4398                	lw	a4,0(a5)
10001a52:	4204                	lw	s1,0(a2)
10001a54:	408685b3          	sub	a1,a3,s0
10001a58:	c218                	sw	a4,0(a2)
10001a5a:	02000893          	li	a7,32
10001a5e:	04c1                	addi	s1,s1,16
10001a60:	00b8f863          	bgeu	a7,a1,10001a70 <pvPortMalloc+0x94>
10001a64:	008786b3          	add	a3,a5,s0
10001a68:	c2cc                	sw	a1,4(a3)
10001a6a:	c298                	sw	a4,0(a3)
10001a6c:	c214                	sw	a3,0(a2)
10001a6e:	86a2                	mv	a3,s0
10001a70:	00014717          	auipc	a4,0x14
10001a74:	c1470713          	addi	a4,a4,-1004 # 10015684 <xMinimumEverFreeBytesRemaining>
10001a78:	4310                	lw	a2,0(a4)
10001a7a:	8d15                	sub	a0,a0,a3
10001a7c:	00a82023          	sw	a0,0(a6)
10001a80:	00c57363          	bgeu	a0,a2,10001a86 <pvPortMalloc+0xaa>
10001a84:	c308                	sw	a0,0(a4)
10001a86:	00014617          	auipc	a2,0x14
10001a8a:	c0260613          	addi	a2,a2,-1022 # 10015688 <xNumberOfSuccessfulAllocations>
10001a8e:	4218                	lw	a4,0(a2)
10001a90:	800005b7          	lui	a1,0x80000
10001a94:	8ecd                	or	a3,a3,a1
10001a96:	0705                	addi	a4,a4,1
10001a98:	c3d4                	sw	a3,4(a5)
10001a9a:	0007a023          	sw	zero,0(a5)
10001a9e:	c218                	sw	a4,0(a2)
10001aa0:	e1cff0ef          	jal	ra,100010bc <xTaskResumeAll>
10001aa4:	40b2                	lw	ra,12(sp)
10001aa6:	4422                	lw	s0,8(sp)
10001aa8:	8526                	mv	a0,s1
10001aaa:	4492                	lw	s1,4(sp)
10001aac:	0141                	addi	sp,sp,16
10001aae:	8082                	ret
10001ab0:	dfcff0ef          	jal	ra,100010ac <vTaskSuspendAll>
10001ab4:	00014597          	auipc	a1,0x14
10001ab8:	bc858593          	addi	a1,a1,-1080 # 1001567c <pxEnd>
10001abc:	419c                	lw	a5,0(a1)
10001abe:	cf81                	beqz	a5,10001ad6 <pvPortMalloc+0xfa>
10001ac0:	dfcff0ef          	jal	ra,100010bc <xTaskResumeAll>
10001ac4:	f5cfe0ef          	jal	ra,10000220 <vApplicationMallocFailedHook>
10001ac8:	40b2                	lw	ra,12(sp)
10001aca:	4422                	lw	s0,8(sp)
10001acc:	4481                	li	s1,0
10001ace:	8526                	mv	a0,s1
10001ad0:	4492                	lw	s1,4(sp)
10001ad2:	0141                	addi	sp,sp,16
10001ad4:	8082                	ret
10001ad6:	4601                	li	a2,0
10001ad8:	4401                	li	s0,0
10001ada:	00014797          	auipc	a5,0x14
10001ade:	d3e78793          	addi	a5,a5,-706 # 10015818 <ucHeap>
10001ae2:	00f7f713          	andi	a4,a5,15
10001ae6:	86be                	mv	a3,a5
10001ae8:	c719                	beqz	a4,10001af6 <pvPortMalloc+0x11a>
10001aea:	00014797          	auipc	a5,0x14
10001aee:	d3d78793          	addi	a5,a5,-707 # 10015827 <ucHeap+0xf>
10001af2:	9bc1                	andi	a5,a5,-16
10001af4:	86be                	mv	a3,a5
10001af6:	00024717          	auipc	a4,0x24
10001afa:	90670713          	addi	a4,a4,-1786 # 100253fc <__global_pointer$+0xf61c>
10001afe:	9b41                	andi	a4,a4,-16
10001b00:	00072023          	sw	zero,0(a4)
10001b04:	00072223          	sw	zero,4(a4)
10001b08:	40f707b3          	sub	a5,a4,a5
10001b0c:	00014517          	auipc	a0,0x14
10001b10:	b8052423          	sw	zero,-1144(a0) # 10015694 <xStart+0x4>
10001b14:	00014517          	auipc	a0,0x14
10001b18:	b6d52e23          	sw	a3,-1156(a0) # 10015690 <xStart>
10001b1c:	c198                	sw	a4,0(a1)
10001b1e:	c298                	sw	a4,0(a3)
10001b20:	c2dc                	sw	a5,4(a3)
10001b22:	00014717          	auipc	a4,0x14
10001b26:	b6f72123          	sw	a5,-1182(a4) # 10015684 <xMinimumEverFreeBytesRemaining>
10001b2a:	00014717          	auipc	a4,0x14
10001b2e:	b4f72b23          	sw	a5,-1194(a4) # 10015680 <xFreeBytesRemaining>
10001b32:	b5e5                	j	10001a1a <pvPortMalloc+0x3e>

10001b34 <vPortFree>:
10001b34:	c901                	beqz	a0,10001b44 <vPortFree+0x10>
10001b36:	ff452783          	lw	a5,-12(a0)
10001b3a:	0007d563          	bgez	a5,10001b44 <vPortFree+0x10>
10001b3e:	ff052703          	lw	a4,-16(a0)
10001b42:	c311                	beqz	a4,10001b46 <vPortFree+0x12>
10001b44:	8082                	ret
10001b46:	1101                	addi	sp,sp,-32
10001b48:	0786                	slli	a5,a5,0x1
10001b4a:	8385                	srli	a5,a5,0x1
10001b4c:	ce06                	sw	ra,28(sp)
10001b4e:	fef52a23          	sw	a5,-12(a0)
10001b52:	c62a                	sw	a0,12(sp)
10001b54:	d58ff0ef          	jal	ra,100010ac <vTaskSuspendAll>
10001b58:	4532                	lw	a0,12(sp)
10001b5a:	00014617          	auipc	a2,0x14
10001b5e:	b2660613          	addi	a2,a2,-1242 # 10015680 <xFreeBytesRemaining>
10001b62:	4218                	lw	a4,0(a2)
10001b64:	ff452683          	lw	a3,-12(a0)
10001b68:	00014797          	auipc	a5,0x14
10001b6c:	b2878793          	addi	a5,a5,-1240 # 10015690 <xStart>
10001b70:	1541                	addi	a0,a0,-16
10001b72:	9736                	add	a4,a4,a3
10001b74:	c218                	sw	a4,0(a2)
10001b76:	873e                	mv	a4,a5
10001b78:	439c                	lw	a5,0(a5)
10001b7a:	fea7eee3          	bltu	a5,a0,10001b76 <vPortFree+0x42>
10001b7e:	4350                	lw	a2,4(a4)
10001b80:	00c705b3          	add	a1,a4,a2
10001b84:	02b50563          	beq	a0,a1,10001bae <vPortFree+0x7a>
10001b88:	00d50633          	add	a2,a0,a3
10001b8c:	02c78a63          	beq	a5,a2,10001bc0 <vPortFree+0x8c>
10001b90:	c11c                	sw	a5,0(a0)
10001b92:	00a70363          	beq	a4,a0,10001b98 <vPortFree+0x64>
10001b96:	c308                	sw	a0,0(a4)
10001b98:	00014717          	auipc	a4,0x14
10001b9c:	af470713          	addi	a4,a4,-1292 # 1001568c <xNumberOfSuccessfulFrees>
10001ba0:	431c                	lw	a5,0(a4)
10001ba2:	40f2                	lw	ra,28(sp)
10001ba4:	0785                	addi	a5,a5,1
10001ba6:	c31c                	sw	a5,0(a4)
10001ba8:	6105                	addi	sp,sp,32
10001baa:	d12ff06f          	j	100010bc <xTaskResumeAll>
10001bae:	96b2                	add	a3,a3,a2
10001bb0:	c354                	sw	a3,4(a4)
10001bb2:	00d70633          	add	a2,a4,a3
10001bb6:	00c78463          	beq	a5,a2,10001bbe <vPortFree+0x8a>
10001bba:	c31c                	sw	a5,0(a4)
10001bbc:	bff1                	j	10001b98 <vPortFree+0x64>
10001bbe:	853a                	mv	a0,a4
10001bc0:	00014617          	auipc	a2,0x14
10001bc4:	abc62603          	lw	a2,-1348(a2) # 1001567c <pxEnd>
10001bc8:	fcc784e3          	beq	a5,a2,10001b90 <vPortFree+0x5c>
10001bcc:	43d0                	lw	a2,4(a5)
10001bce:	439c                	lw	a5,0(a5)
10001bd0:	96b2                	add	a3,a3,a2
10001bd2:	c154                	sw	a3,4(a0)
10001bd4:	bf75                	j	10001b90 <vPortFree+0x5c>

10001bd6 <vPortSetupTimerInterrupt>:
10001bd6:	1141                	addi	sp,sp,-16
10001bd8:	f14027f3          	csrr	a5,mhartid
10001bdc:	c63e                	sw	a5,12(sp)
10001bde:	45b2                	lw	a1,12(sp)
10001be0:	100007b7          	lui	a5,0x10000
10001be4:	20178793          	addi	a5,a5,513 # 10000201 <_exit+0x1>
10001be8:	95be                	add	a1,a1,a5
10001bea:	058e                	slli	a1,a1,0x3
10001bec:	00014797          	auipc	a5,0x14
10001bf0:	aab7a623          	sw	a1,-1364(a5) # 10015698 <pullMachineTimerCompareRegister>
10001bf4:	800017b7          	lui	a5,0x80001
10001bf8:	43d4                	lw	a3,4(a5)
10001bfa:	4390                	lw	a2,0(a5)
10001bfc:	43d8                	lw	a4,4(a5)
10001bfe:	fed71de3          	bne	a4,a3,10001bf8 <vPortSetupTimerInterrupt+0x22>
10001c02:	6689                	lui	a3,0x2
10001c04:	71068693          	addi	a3,a3,1808 # 2710 <__heap_size+0x1710>
10001c08:	6795                	lui	a5,0x5
10001c0a:	96b2                	add	a3,a3,a2
10001c0c:	e2078793          	addi	a5,a5,-480 # 4e20 <__heap_size+0x3e20>
10001c10:	00c6b533          	sltu	a0,a3,a2
10001c14:	97b2                	add	a5,a5,a2
10001c16:	c194                	sw	a3,0(a1)
10001c18:	00e508b3          	add	a7,a0,a4
10001c1c:	00c7b633          	sltu	a2,a5,a2
10001c20:	0115a223          	sw	a7,4(a1)
10001c24:	00014697          	auipc	a3,0x14
10001c28:	a7c68693          	addi	a3,a3,-1412 # 100156a0 <ullNextTime>
10001c2c:	963a                	add	a2,a2,a4
10001c2e:	c29c                	sw	a5,0(a3)
10001c30:	c2d0                	sw	a2,4(a3)
10001c32:	0141                	addi	sp,sp,16
10001c34:	8082                	ret

10001c36 <xPortStartScheduler>:
10001c36:	1141                	addi	sp,sp,-16
10001c38:	c606                	sw	ra,12(sp)
10001c3a:	3f71                	jal	10001bd6 <vPortSetupTimerInterrupt>
10001c3c:	6785                	lui	a5,0x1
10001c3e:	88078793          	addi	a5,a5,-1920 # 880 <__stack_size+0x754>
10001c42:	3047a073          	csrs	mie,a5
10001c46:	2889                	jal	10001c98 <xPortStartFirstTask>
10001c48:	40b2                	lw	ra,12(sp)
10001c4a:	4501                	li	a0,0
10001c4c:	0141                	addi	sp,sp,16
10001c4e:	8082                	ret

10001c50 <pxPortInitialiseStack>:
10001c50:	300022f3          	csrr	t0,mstatus
10001c54:	ff72f293          	andi	t0,t0,-9
10001c58:	18800313          	li	t1,392
10001c5c:	0312                	slli	t1,t1,0x4
10001c5e:	0062e2b3          	or	t0,t0,t1
10001c62:	1571                	addi	a0,a0,-4
10001c64:	00552023          	sw	t0,0(a0)
10001c68:	1571                	addi	a0,a0,-4
10001c6a:	00052023          	sw	zero,0(a0)
10001c6e:	fa850513          	addi	a0,a0,-88
10001c72:	c110                	sw	a2,0(a0)
10001c74:	1521                	addi	a0,a0,-24
10001c76:	00014297          	auipc	t0,0x14
10001c7a:	a322a283          	lw	t0,-1486(t0) # 100156a8 <xTaskReturnAddress>
10001c7e:	00552023          	sw	t0,0(a0)
10001c82:	4281                	li	t0,0

10001c84 <chip_specific_stack_frame>:
10001c84:	00028763          	beqz	t0,10001c92 <chip_specific_stack_frame+0xe>
10001c88:	1571                	addi	a0,a0,-4
10001c8a:	00052023          	sw	zero,0(a0)
10001c8e:	12fd                	addi	t0,t0,-1
10001c90:	bfd5                	j	10001c84 <chip_specific_stack_frame>
10001c92:	1571                	addi	a0,a0,-4
10001c94:	c10c                	sw	a1,0(a0)
10001c96:	8082                	ret

10001c98 <xPortStartFirstTask>:
10001c98:	00014117          	auipc	sp,0x14
10001c9c:	99412103          	lw	sp,-1644(sp) # 1001562c <pxCurrentTCB>
10001ca0:	4102                	lw	sp,0(sp)
10001ca2:	4082                	lw	ra,0(sp)
10001ca4:	43c2                	lw	t2,16(sp)
10001ca6:	4452                	lw	s0,20(sp)
10001ca8:	44e2                	lw	s1,24(sp)
10001caa:	4572                	lw	a0,28(sp)
10001cac:	5582                	lw	a1,32(sp)
10001cae:	5612                	lw	a2,36(sp)
10001cb0:	56a2                	lw	a3,40(sp)
10001cb2:	5732                	lw	a4,44(sp)
10001cb4:	57c2                	lw	a5,48(sp)
10001cb6:	5852                	lw	a6,52(sp)
10001cb8:	58e2                	lw	a7,56(sp)
10001cba:	5972                	lw	s2,60(sp)
10001cbc:	4986                	lw	s3,64(sp)
10001cbe:	4a16                	lw	s4,68(sp)
10001cc0:	4aa6                	lw	s5,72(sp)
10001cc2:	4b36                	lw	s6,76(sp)
10001cc4:	4bc6                	lw	s7,80(sp)
10001cc6:	4c56                	lw	s8,84(sp)
10001cc8:	4ce6                	lw	s9,88(sp)
10001cca:	4d76                	lw	s10,92(sp)
10001ccc:	5d86                	lw	s11,96(sp)
10001cce:	5e16                	lw	t3,100(sp)
10001cd0:	5ea6                	lw	t4,104(sp)
10001cd2:	5f36                	lw	t5,108(sp)
10001cd4:	5fc6                	lw	t6,112(sp)
10001cd6:	52d6                	lw	t0,116(sp)
10001cd8:	00014317          	auipc	t1,0x14
10001cdc:	93832303          	lw	t1,-1736(t1) # 10015610 <pxCriticalNesting>
10001ce0:	00532023          	sw	t0,0(t1)
10001ce4:	52e6                	lw	t0,120(sp)
10001ce6:	02a1                	addi	t0,t0,8
10001ce8:	30029073          	csrw	mstatus,t0
10001cec:	42a2                	lw	t0,8(sp)
10001cee:	4332                	lw	t1,12(sp)
10001cf0:	07c10113          	addi	sp,sp,124
10001cf4:	8082                	ret

10001cf6 <freertos_risc_v_application_exception_handler>:
10001cf6:	342022f3          	csrr	t0,mcause
10001cfa:	34102373          	csrr	t1,mepc
10001cfe:	300023f3          	csrr	t2,mstatus
10001d02:	a001                	j	10001d02 <freertos_risc_v_application_exception_handler+0xc>

10001d04 <freertos_risc_v_application_interrupt_handler>:
10001d04:	342022f3          	csrr	t0,mcause
10001d08:	34102373          	csrr	t1,mepc
10001d0c:	300023f3          	csrr	t2,mstatus
10001d10:	a001                	j	10001d10 <freertos_risc_v_application_interrupt_handler+0xc>

10001d12 <freertos_risc_v_mtimer_interrupt_handler>:
10001d12:	f8410113          	addi	sp,sp,-124
10001d16:	c206                	sw	ra,4(sp)
10001d18:	c416                	sw	t0,8(sp)
10001d1a:	c61a                	sw	t1,12(sp)
10001d1c:	c81e                	sw	t2,16(sp)
10001d1e:	ca22                	sw	s0,20(sp)
10001d20:	cc26                	sw	s1,24(sp)
10001d22:	ce2a                	sw	a0,28(sp)
10001d24:	d02e                	sw	a1,32(sp)
10001d26:	d232                	sw	a2,36(sp)
10001d28:	d436                	sw	a3,40(sp)
10001d2a:	d63a                	sw	a4,44(sp)
10001d2c:	d83e                	sw	a5,48(sp)
10001d2e:	da42                	sw	a6,52(sp)
10001d30:	dc46                	sw	a7,56(sp)
10001d32:	de4a                	sw	s2,60(sp)
10001d34:	c0ce                	sw	s3,64(sp)
10001d36:	c2d2                	sw	s4,68(sp)
10001d38:	c4d6                	sw	s5,72(sp)
10001d3a:	c6da                	sw	s6,76(sp)
10001d3c:	c8de                	sw	s7,80(sp)
10001d3e:	cae2                	sw	s8,84(sp)
10001d40:	cce6                	sw	s9,88(sp)
10001d42:	ceea                	sw	s10,92(sp)
10001d44:	d0ee                	sw	s11,96(sp)
10001d46:	d2f2                	sw	t3,100(sp)
10001d48:	d4f6                	sw	t4,104(sp)
10001d4a:	d6fa                	sw	t5,108(sp)
10001d4c:	d8fe                	sw	t6,112(sp)
10001d4e:	00014297          	auipc	t0,0x14
10001d52:	8c62a283          	lw	t0,-1850(t0) # 10015614 <xCriticalNesting>
10001d56:	da96                	sw	t0,116(sp)
10001d58:	300022f3          	csrr	t0,mstatus
10001d5c:	dc96                	sw	t0,120(sp)
10001d5e:	00014297          	auipc	t0,0x14
10001d62:	8ce2a283          	lw	t0,-1842(t0) # 1001562c <pxCurrentTCB>
10001d66:	0022a023          	sw	sp,0(t0)
10001d6a:	34202573          	csrr	a0,mcause
10001d6e:	341025f3          	csrr	a1,mepc
10001d72:	c02e                	sw	a1,0(sp)
10001d74:	00014117          	auipc	sp,0x14
10001d78:	88812103          	lw	sp,-1912(sp) # 100155fc <xISRStackTop>
10001d7c:	00014517          	auipc	a0,0x14
10001d80:	91c52503          	lw	a0,-1764(a0) # 10015698 <pullMachineTimerCompareRegister>
10001d84:	00014597          	auipc	a1,0x14
10001d88:	8885a583          	lw	a1,-1912(a1) # 1001560c <pullNextTime>
10001d8c:	577d                	li	a4,-1
10001d8e:	4190                	lw	a2,0(a1)
10001d90:	41d4                	lw	a3,4(a1)
10001d92:	c118                	sw	a4,0(a0)
10001d94:	c154                	sw	a3,4(a0)
10001d96:	c110                	sw	a2,0(a0)
10001d98:	00014297          	auipc	t0,0x14
10001d9c:	8602a283          	lw	t0,-1952(t0) # 100155f8 <uxTimerIncrementsForOneTick>
10001da0:	00c28733          	add	a4,t0,a2
10001da4:	00c73333          	sltu	t1,a4,a2
10001da8:	006683b3          	add	t2,a3,t1
10001dac:	c198                	sw	a4,0(a1)
10001dae:	0075a223          	sw	t2,4(a1)
10001db2:	d3aff0ef          	jal	ra,100012ec <xTaskIncrementTick>
10001db6:	c119                	beqz	a0,10001dbc <exit_without_context_switch>
10001db8:	d60ff0ef          	jal	ra,10001318 <vTaskSwitchContext>

10001dbc <exit_without_context_switch>:
10001dbc:	00014317          	auipc	t1,0x14
10001dc0:	87032303          	lw	t1,-1936(t1) # 1001562c <pxCurrentTCB>
10001dc4:	00032103          	lw	sp,0(t1)
10001dc8:	4282                	lw	t0,0(sp)
10001dca:	34129073          	csrw	mepc,t0
10001dce:	52e6                	lw	t0,120(sp)
10001dd0:	30029073          	csrw	mstatus,t0
10001dd4:	52d6                	lw	t0,116(sp)
10001dd6:	00014317          	auipc	t1,0x14
10001dda:	83a32303          	lw	t1,-1990(t1) # 10015610 <pxCriticalNesting>
10001dde:	00532023          	sw	t0,0(t1)
10001de2:	4092                	lw	ra,4(sp)
10001de4:	42a2                	lw	t0,8(sp)
10001de6:	4332                	lw	t1,12(sp)
10001de8:	43c2                	lw	t2,16(sp)
10001dea:	4452                	lw	s0,20(sp)
10001dec:	44e2                	lw	s1,24(sp)
10001dee:	4572                	lw	a0,28(sp)
10001df0:	5582                	lw	a1,32(sp)
10001df2:	5612                	lw	a2,36(sp)
10001df4:	56a2                	lw	a3,40(sp)
10001df6:	5732                	lw	a4,44(sp)
10001df8:	57c2                	lw	a5,48(sp)
10001dfa:	5852                	lw	a6,52(sp)
10001dfc:	58e2                	lw	a7,56(sp)
10001dfe:	5972                	lw	s2,60(sp)
10001e00:	4986                	lw	s3,64(sp)
10001e02:	4a16                	lw	s4,68(sp)
10001e04:	4aa6                	lw	s5,72(sp)
10001e06:	4b36                	lw	s6,76(sp)
10001e08:	4bc6                	lw	s7,80(sp)
10001e0a:	4c56                	lw	s8,84(sp)
10001e0c:	4ce6                	lw	s9,88(sp)
10001e0e:	4d76                	lw	s10,92(sp)
10001e10:	5d86                	lw	s11,96(sp)
10001e12:	5e16                	lw	t3,100(sp)
10001e14:	5ea6                	lw	t4,104(sp)
10001e16:	5f36                	lw	t5,108(sp)
10001e18:	5fc6                	lw	t6,112(sp)
10001e1a:	07c10113          	addi	sp,sp,124
10001e1e:	30200073          	mret
	...

10001f00 <freertos_risc_v_trap_handler>:
10001f00:	f8410113          	addi	sp,sp,-124
10001f04:	c206                	sw	ra,4(sp)
10001f06:	c416                	sw	t0,8(sp)
10001f08:	c61a                	sw	t1,12(sp)
10001f0a:	c81e                	sw	t2,16(sp)
10001f0c:	ca22                	sw	s0,20(sp)
10001f0e:	cc26                	sw	s1,24(sp)
10001f10:	ce2a                	sw	a0,28(sp)
10001f12:	d02e                	sw	a1,32(sp)
10001f14:	d232                	sw	a2,36(sp)
10001f16:	d436                	sw	a3,40(sp)
10001f18:	d63a                	sw	a4,44(sp)
10001f1a:	d83e                	sw	a5,48(sp)
10001f1c:	da42                	sw	a6,52(sp)
10001f1e:	dc46                	sw	a7,56(sp)
10001f20:	de4a                	sw	s2,60(sp)
10001f22:	c0ce                	sw	s3,64(sp)
10001f24:	c2d2                	sw	s4,68(sp)
10001f26:	c4d6                	sw	s5,72(sp)
10001f28:	c6da                	sw	s6,76(sp)
10001f2a:	c8de                	sw	s7,80(sp)
10001f2c:	cae2                	sw	s8,84(sp)
10001f2e:	cce6                	sw	s9,88(sp)
10001f30:	ceea                	sw	s10,92(sp)
10001f32:	d0ee                	sw	s11,96(sp)
10001f34:	d2f2                	sw	t3,100(sp)
10001f36:	d4f6                	sw	t4,104(sp)
10001f38:	d6fa                	sw	t5,108(sp)
10001f3a:	d8fe                	sw	t6,112(sp)
10001f3c:	00013297          	auipc	t0,0x13
10001f40:	6d82a283          	lw	t0,1752(t0) # 10015614 <xCriticalNesting>
10001f44:	da96                	sw	t0,116(sp)
10001f46:	300022f3          	csrr	t0,mstatus
10001f4a:	dc96                	sw	t0,120(sp)
10001f4c:	00013297          	auipc	t0,0x13
10001f50:	6e02a283          	lw	t0,1760(t0) # 1001562c <pxCurrentTCB>
10001f54:	0022a023          	sw	sp,0(t0)
10001f58:	34202573          	csrr	a0,mcause
10001f5c:	341025f3          	csrr	a1,mepc
10001f60:	00055863          	bgez	a0,10001f70 <synchronous_exception>

10001f64 <asynchronous_interrupt>:
10001f64:	c02e                	sw	a1,0(sp)
10001f66:	00013117          	auipc	sp,0x13
10001f6a:	69612103          	lw	sp,1686(sp) # 100155fc <xISRStackTop>
10001f6e:	a801                	j	10001f7e <handle_interrupt>

10001f70 <synchronous_exception>:
10001f70:	0591                	addi	a1,a1,4
10001f72:	c02e                	sw	a1,0(sp)
10001f74:	00013117          	auipc	sp,0x13
10001f78:	68812103          	lw	sp,1672(sp) # 100155fc <xISRStackTop>
10001f7c:	a891                	j	10001fd0 <handle_exception>

10001f7e <handle_interrupt>:
10001f7e:	4285                	li	t0,1
10001f80:	02fe                	slli	t0,t0,0x1f
10001f82:	00728313          	addi	t1,t0,7
10001f86:	04651363          	bne	a0,t1,10001fcc <application_interrupt_handler>
10001f8a:	00013517          	auipc	a0,0x13
10001f8e:	70e52503          	lw	a0,1806(a0) # 10015698 <pullMachineTimerCompareRegister>
10001f92:	00013597          	auipc	a1,0x13
10001f96:	67a5a583          	lw	a1,1658(a1) # 1001560c <pullNextTime>
10001f9a:	577d                	li	a4,-1
10001f9c:	4190                	lw	a2,0(a1)
10001f9e:	41d4                	lw	a3,4(a1)
10001fa0:	c118                	sw	a4,0(a0)
10001fa2:	c154                	sw	a3,4(a0)
10001fa4:	c110                	sw	a2,0(a0)
10001fa6:	00013297          	auipc	t0,0x13
10001faa:	6522a283          	lw	t0,1618(t0) # 100155f8 <uxTimerIncrementsForOneTick>
10001fae:	00c28733          	add	a4,t0,a2
10001fb2:	00c73333          	sltu	t1,a4,a2
10001fb6:	006683b3          	add	t2,a3,t1
10001fba:	c198                	sw	a4,0(a1)
10001fbc:	0075a223          	sw	t2,4(a1)
10001fc0:	b2cff0ef          	jal	ra,100012ec <xTaskIncrementTick>
10001fc4:	cd11                	beqz	a0,10001fe0 <processed_source>
10001fc6:	b52ff0ef          	jal	ra,10001318 <vTaskSwitchContext>
10001fca:	a819                	j	10001fe0 <processed_source>

10001fcc <application_interrupt_handler>:
10001fcc:	3b25                	jal	10001d04 <freertos_risc_v_application_interrupt_handler>
10001fce:	a809                	j	10001fe0 <processed_source>

10001fd0 <handle_exception>:
10001fd0:	42ad                	li	t0,11
10001fd2:	00551563          	bne	a0,t0,10001fdc <application_exception_handler>
10001fd6:	b42ff0ef          	jal	ra,10001318 <vTaskSwitchContext>
10001fda:	a019                	j	10001fe0 <processed_source>

10001fdc <application_exception_handler>:
10001fdc:	3b29                	jal	10001cf6 <freertos_risc_v_application_exception_handler>
10001fde:	a009                	j	10001fe0 <processed_source>

10001fe0 <processed_source>:
10001fe0:	00013317          	auipc	t1,0x13
10001fe4:	64c32303          	lw	t1,1612(t1) # 1001562c <pxCurrentTCB>
10001fe8:	00032103          	lw	sp,0(t1)
10001fec:	4282                	lw	t0,0(sp)
10001fee:	34129073          	csrw	mepc,t0
10001ff2:	52e6                	lw	t0,120(sp)
10001ff4:	30029073          	csrw	mstatus,t0
10001ff8:	52d6                	lw	t0,116(sp)
10001ffa:	00013317          	auipc	t1,0x13
10001ffe:	61632303          	lw	t1,1558(t1) # 10015610 <pxCriticalNesting>
10002002:	00532023          	sw	t0,0(t1)
10002006:	4092                	lw	ra,4(sp)
10002008:	42a2                	lw	t0,8(sp)
1000200a:	4332                	lw	t1,12(sp)
1000200c:	43c2                	lw	t2,16(sp)
1000200e:	4452                	lw	s0,20(sp)
10002010:	44e2                	lw	s1,24(sp)
10002012:	4572                	lw	a0,28(sp)
10002014:	5582                	lw	a1,32(sp)
10002016:	5612                	lw	a2,36(sp)
10002018:	56a2                	lw	a3,40(sp)
1000201a:	5732                	lw	a4,44(sp)
1000201c:	57c2                	lw	a5,48(sp)
1000201e:	5852                	lw	a6,52(sp)
10002020:	58e2                	lw	a7,56(sp)
10002022:	5972                	lw	s2,60(sp)
10002024:	4986                	lw	s3,64(sp)
10002026:	4a16                	lw	s4,68(sp)
10002028:	4aa6                	lw	s5,72(sp)
1000202a:	4b36                	lw	s6,76(sp)
1000202c:	4bc6                	lw	s7,80(sp)
1000202e:	4c56                	lw	s8,84(sp)
10002030:	4ce6                	lw	s9,88(sp)
10002032:	4d76                	lw	s10,92(sp)
10002034:	5d86                	lw	s11,96(sp)
10002036:	5e16                	lw	t3,100(sp)
10002038:	5ea6                	lw	t4,104(sp)
1000203a:	5f36                	lw	t5,108(sp)
1000203c:	5fc6                	lw	t6,112(sp)
1000203e:	07c10113          	addi	sp,sp,124
10002042:	30200073          	mret
	...

100020ec <__clzsi2>:
100020ec:	000107b7          	lui	a5,0x10
100020f0:	02f57a63          	bgeu	a0,a5,10002124 <__clzsi2+0x38>
100020f4:	10053793          	sltiu	a5,a0,256
100020f8:	0017c793          	xori	a5,a5,1
100020fc:	00379793          	slli	a5,a5,0x3
10002100:	10014737          	lui	a4,0x10014
10002104:	02000693          	li	a3,32
10002108:	40f686b3          	sub	a3,a3,a5
1000210c:	00f55533          	srl	a0,a0,a5
10002110:	f1c70793          	addi	a5,a4,-228 # 10013f1c <__clz_tab>
10002114:	00a787b3          	add	a5,a5,a0
10002118:	0007c503          	lbu	a0,0(a5) # 10000 <__heap_size+0xf000>
1000211c:	40a68533          	sub	a0,a3,a0
10002120:	00008067          	ret
10002124:	01000737          	lui	a4,0x1000
10002128:	01000793          	li	a5,16
1000212c:	fce56ae3          	bltu	a0,a4,10002100 <__clzsi2+0x14>
10002130:	01800793          	li	a5,24
10002134:	fcdff06f          	j	10002100 <__clzsi2+0x14>

10002138 <atexit>:
10002138:	00050593          	mv	a1,a0
1000213c:	00000693          	li	a3,0
10002140:	00000613          	li	a2,0
10002144:	00000513          	li	a0,0
10002148:	5790206f          	j	10004ec0 <__register_exitproc>

1000214c <exit>:
1000214c:	ff010113          	addi	sp,sp,-16
10002150:	00000593          	li	a1,0
10002154:	00812423          	sw	s0,8(sp)
10002158:	00112623          	sw	ra,12(sp)
1000215c:	00050413          	mv	s0,a0
10002160:	5fd020ef          	jal	ra,10004f5c <__call_exitprocs>
10002164:	100157b7          	lui	a5,0x10015
10002168:	6007a503          	lw	a0,1536(a5) # 10015600 <_global_impure_ptr>
1000216c:	03c52783          	lw	a5,60(a0)
10002170:	00078463          	beqz	a5,10002178 <exit+0x2c>
10002174:	000780e7          	jalr	a5
10002178:	00040513          	mv	a0,s0
1000217c:	884fe0ef          	jal	ra,10000200 <_exit>

10002180 <__libc_fini_array>:
10002180:	ff010113          	addi	sp,sp,-16
10002184:	00812423          	sw	s0,8(sp)
10002188:	100157b7          	lui	a5,0x10015
1000218c:	10015437          	lui	s0,0x10015
10002190:	c3c78793          	addi	a5,a5,-964 # 10014c3c <__fini_array_end>
10002194:	c3c40413          	addi	s0,s0,-964 # 10014c3c <__fini_array_end>
10002198:	40f40433          	sub	s0,s0,a5
1000219c:	00912223          	sw	s1,4(sp)
100021a0:	00112623          	sw	ra,12(sp)
100021a4:	40245493          	srai	s1,s0,0x2
100021a8:	02048063          	beqz	s1,100021c8 <__libc_fini_array+0x48>
100021ac:	ffc40413          	addi	s0,s0,-4
100021b0:	00f40433          	add	s0,s0,a5
100021b4:	00042783          	lw	a5,0(s0)
100021b8:	fff48493          	addi	s1,s1,-1
100021bc:	ffc40413          	addi	s0,s0,-4
100021c0:	000780e7          	jalr	a5
100021c4:	fe0498e3          	bnez	s1,100021b4 <__libc_fini_array+0x34>
100021c8:	00c12083          	lw	ra,12(sp)
100021cc:	00812403          	lw	s0,8(sp)
100021d0:	00412483          	lw	s1,4(sp)
100021d4:	01010113          	addi	sp,sp,16
100021d8:	00008067          	ret

100021dc <__libc_init_array>:
100021dc:	ff010113          	addi	sp,sp,-16
100021e0:	00812423          	sw	s0,8(sp)
100021e4:	01212023          	sw	s2,0(sp)
100021e8:	10015437          	lui	s0,0x10015
100021ec:	10015937          	lui	s2,0x10015
100021f0:	c3840793          	addi	a5,s0,-968 # 10014c38 <__init_array_start>
100021f4:	c3890913          	addi	s2,s2,-968 # 10014c38 <__init_array_start>
100021f8:	40f90933          	sub	s2,s2,a5
100021fc:	00112623          	sw	ra,12(sp)
10002200:	00912223          	sw	s1,4(sp)
10002204:	40295913          	srai	s2,s2,0x2
10002208:	02090063          	beqz	s2,10002228 <__libc_init_array+0x4c>
1000220c:	c3840413          	addi	s0,s0,-968
10002210:	00000493          	li	s1,0
10002214:	00042783          	lw	a5,0(s0)
10002218:	00148493          	addi	s1,s1,1
1000221c:	00440413          	addi	s0,s0,4
10002220:	000780e7          	jalr	a5
10002224:	fe9918e3          	bne	s2,s1,10002214 <__libc_init_array+0x38>
10002228:	10015437          	lui	s0,0x10015
1000222c:	10015937          	lui	s2,0x10015
10002230:	c3840793          	addi	a5,s0,-968 # 10014c38 <__init_array_start>
10002234:	c3c90913          	addi	s2,s2,-964 # 10014c3c <__fini_array_end>
10002238:	40f90933          	sub	s2,s2,a5
1000223c:	40295913          	srai	s2,s2,0x2
10002240:	02090063          	beqz	s2,10002260 <__libc_init_array+0x84>
10002244:	c3840413          	addi	s0,s0,-968
10002248:	00000493          	li	s1,0
1000224c:	00042783          	lw	a5,0(s0)
10002250:	00148493          	addi	s1,s1,1
10002254:	00440413          	addi	s0,s0,4
10002258:	000780e7          	jalr	a5
1000225c:	fe9918e3          	bne	s2,s1,1000224c <__libc_init_array+0x70>
10002260:	00c12083          	lw	ra,12(sp)
10002264:	00812403          	lw	s0,8(sp)
10002268:	00412483          	lw	s1,4(sp)
1000226c:	00012903          	lw	s2,0(sp)
10002270:	01010113          	addi	sp,sp,16
10002274:	00008067          	ret

10002278 <memcpy>:
10002278:	00b547b3          	xor	a5,a0,a1
1000227c:	0037f793          	andi	a5,a5,3
10002280:	00c508b3          	add	a7,a0,a2
10002284:	06079663          	bnez	a5,100022f0 <memcpy+0x78>
10002288:	00300793          	li	a5,3
1000228c:	06c7f263          	bgeu	a5,a2,100022f0 <memcpy+0x78>
10002290:	00357793          	andi	a5,a0,3
10002294:	00050713          	mv	a4,a0
10002298:	0c079a63          	bnez	a5,1000236c <memcpy+0xf4>
1000229c:	ffc8f613          	andi	a2,a7,-4
100022a0:	40e606b3          	sub	a3,a2,a4
100022a4:	02000793          	li	a5,32
100022a8:	02000293          	li	t0,32
100022ac:	06d7c263          	blt	a5,a3,10002310 <memcpy+0x98>
100022b0:	00058693          	mv	a3,a1
100022b4:	00070793          	mv	a5,a4
100022b8:	02c77863          	bgeu	a4,a2,100022e8 <memcpy+0x70>
100022bc:	0006a803          	lw	a6,0(a3)
100022c0:	00478793          	addi	a5,a5,4
100022c4:	00468693          	addi	a3,a3,4
100022c8:	ff07ae23          	sw	a6,-4(a5)
100022cc:	fec7e8e3          	bltu	a5,a2,100022bc <memcpy+0x44>
100022d0:	fff60793          	addi	a5,a2,-1
100022d4:	40e787b3          	sub	a5,a5,a4
100022d8:	ffc7f793          	andi	a5,a5,-4
100022dc:	00478793          	addi	a5,a5,4
100022e0:	00f70733          	add	a4,a4,a5
100022e4:	00f585b3          	add	a1,a1,a5
100022e8:	01176863          	bltu	a4,a7,100022f8 <memcpy+0x80>
100022ec:	00008067          	ret
100022f0:	00050713          	mv	a4,a0
100022f4:	ff157ce3          	bgeu	a0,a7,100022ec <memcpy+0x74>
100022f8:	0005c783          	lbu	a5,0(a1)
100022fc:	00170713          	addi	a4,a4,1 # 1000001 <__heap_size+0xfff001>
10002300:	00158593          	addi	a1,a1,1
10002304:	fef70fa3          	sb	a5,-1(a4)
10002308:	ff1768e3          	bltu	a4,a7,100022f8 <memcpy+0x80>
1000230c:	00008067          	ret
10002310:	0045a683          	lw	a3,4(a1)
10002314:	01c5a783          	lw	a5,28(a1)
10002318:	0005af83          	lw	t6,0(a1)
1000231c:	0085af03          	lw	t5,8(a1)
10002320:	00c5ae83          	lw	t4,12(a1)
10002324:	0105ae03          	lw	t3,16(a1)
10002328:	0145a303          	lw	t1,20(a1)
1000232c:	0185a803          	lw	a6,24(a1)
10002330:	00d72223          	sw	a3,4(a4)
10002334:	0205a683          	lw	a3,32(a1)
10002338:	01f72023          	sw	t6,0(a4)
1000233c:	01e72423          	sw	t5,8(a4)
10002340:	01d72623          	sw	t4,12(a4)
10002344:	01c72823          	sw	t3,16(a4)
10002348:	00672a23          	sw	t1,20(a4)
1000234c:	01072c23          	sw	a6,24(a4)
10002350:	00f72e23          	sw	a5,28(a4)
10002354:	02470713          	addi	a4,a4,36
10002358:	40e607b3          	sub	a5,a2,a4
1000235c:	fed72e23          	sw	a3,-4(a4)
10002360:	02458593          	addi	a1,a1,36
10002364:	faf2c6e3          	blt	t0,a5,10002310 <memcpy+0x98>
10002368:	f49ff06f          	j	100022b0 <memcpy+0x38>
1000236c:	0005c683          	lbu	a3,0(a1)
10002370:	00170713          	addi	a4,a4,1
10002374:	00377793          	andi	a5,a4,3
10002378:	fed70fa3          	sb	a3,-1(a4)
1000237c:	00158593          	addi	a1,a1,1
10002380:	f0078ee3          	beqz	a5,1000229c <memcpy+0x24>
10002384:	0005c683          	lbu	a3,0(a1)
10002388:	00170713          	addi	a4,a4,1
1000238c:	00377793          	andi	a5,a4,3
10002390:	fed70fa3          	sb	a3,-1(a4)
10002394:	00158593          	addi	a1,a1,1
10002398:	fc079ae3          	bnez	a5,1000236c <memcpy+0xf4>
1000239c:	f01ff06f          	j	1000229c <memcpy+0x24>

100023a0 <memset>:
100023a0:	00f00313          	li	t1,15
100023a4:	00050713          	mv	a4,a0
100023a8:	02c37e63          	bgeu	t1,a2,100023e4 <memset+0x44>
100023ac:	00f77793          	andi	a5,a4,15
100023b0:	0a079063          	bnez	a5,10002450 <memset+0xb0>
100023b4:	08059263          	bnez	a1,10002438 <memset+0x98>
100023b8:	ff067693          	andi	a3,a2,-16
100023bc:	00f67613          	andi	a2,a2,15
100023c0:	00e686b3          	add	a3,a3,a4
100023c4:	00b72023          	sw	a1,0(a4)
100023c8:	00b72223          	sw	a1,4(a4)
100023cc:	00b72423          	sw	a1,8(a4)
100023d0:	00b72623          	sw	a1,12(a4)
100023d4:	01070713          	addi	a4,a4,16
100023d8:	fed766e3          	bltu	a4,a3,100023c4 <memset+0x24>
100023dc:	00061463          	bnez	a2,100023e4 <memset+0x44>
100023e0:	00008067          	ret
100023e4:	40c306b3          	sub	a3,t1,a2
100023e8:	00269693          	slli	a3,a3,0x2
100023ec:	00000297          	auipc	t0,0x0
100023f0:	005686b3          	add	a3,a3,t0
100023f4:	00c68067          	jr	12(a3)
100023f8:	00b70723          	sb	a1,14(a4)
100023fc:	00b706a3          	sb	a1,13(a4)
10002400:	00b70623          	sb	a1,12(a4)
10002404:	00b705a3          	sb	a1,11(a4)
10002408:	00b70523          	sb	a1,10(a4)
1000240c:	00b704a3          	sb	a1,9(a4)
10002410:	00b70423          	sb	a1,8(a4)
10002414:	00b703a3          	sb	a1,7(a4)
10002418:	00b70323          	sb	a1,6(a4)
1000241c:	00b702a3          	sb	a1,5(a4)
10002420:	00b70223          	sb	a1,4(a4)
10002424:	00b701a3          	sb	a1,3(a4)
10002428:	00b70123          	sb	a1,2(a4)
1000242c:	00b700a3          	sb	a1,1(a4)
10002430:	00b70023          	sb	a1,0(a4)
10002434:	00008067          	ret
10002438:	0ff5f593          	zext.b	a1,a1
1000243c:	00859693          	slli	a3,a1,0x8
10002440:	00d5e5b3          	or	a1,a1,a3
10002444:	01059693          	slli	a3,a1,0x10
10002448:	00d5e5b3          	or	a1,a1,a3
1000244c:	f6dff06f          	j	100023b8 <memset+0x18>
10002450:	00279693          	slli	a3,a5,0x2
10002454:	00000297          	auipc	t0,0x0
10002458:	005686b3          	add	a3,a3,t0
1000245c:	00008293          	mv	t0,ra
10002460:	fa0680e7          	jalr	-96(a3)
10002464:	00028093          	mv	ra,t0
10002468:	ff078793          	addi	a5,a5,-16
1000246c:	40f70733          	sub	a4,a4,a5
10002470:	00f60633          	add	a2,a2,a5
10002474:	f6c378e3          	bgeu	t1,a2,100023e4 <memset+0x44>
10002478:	f3dff06f          	j	100023b4 <memset+0x14>

1000247c <_puts_r>:
1000247c:	fc010113          	addi	sp,sp,-64
10002480:	02812c23          	sw	s0,56(sp)
10002484:	00050413          	mv	s0,a0
10002488:	00058513          	mv	a0,a1
1000248c:	02912a23          	sw	s1,52(sp)
10002490:	02112e23          	sw	ra,60(sp)
10002494:	00058493          	mv	s1,a1
10002498:	1a8000ef          	jal	ra,10002640 <strlen>
1000249c:	100147b7          	lui	a5,0x10014
100024a0:	01c78793          	addi	a5,a5,28 # 1001401c <__clz_tab+0x100>
100024a4:	02f12423          	sw	a5,40(sp)
100024a8:	00100793          	li	a5,1
100024ac:	02f12623          	sw	a5,44(sp)
100024b0:	03842703          	lw	a4,56(s0)
100024b4:	02010793          	addi	a5,sp,32
100024b8:	00150693          	addi	a3,a0,1
100024bc:	00f12a23          	sw	a5,20(sp)
100024c0:	00200793          	li	a5,2
100024c4:	02912023          	sw	s1,32(sp)
100024c8:	02a12223          	sw	a0,36(sp)
100024cc:	00d12e23          	sw	a3,28(sp)
100024d0:	00f12c23          	sw	a5,24(sp)
100024d4:	00842583          	lw	a1,8(s0)
100024d8:	04070e63          	beqz	a4,10002534 <_puts_r+0xb8>
100024dc:	00c59783          	lh	a5,12(a1)
100024e0:	01279713          	slli	a4,a5,0x12
100024e4:	02074263          	bltz	a4,10002508 <_puts_r+0x8c>
100024e8:	0645a703          	lw	a4,100(a1)
100024ec:	000026b7          	lui	a3,0x2
100024f0:	00d7e7b3          	or	a5,a5,a3
100024f4:	ffffe6b7          	lui	a3,0xffffe
100024f8:	fff68693          	addi	a3,a3,-1 # ffffdfff <_sp+0xeffd5a93>
100024fc:	00d77733          	and	a4,a4,a3
10002500:	00f59623          	sh	a5,12(a1)
10002504:	06e5a223          	sw	a4,100(a1)
10002508:	01410613          	addi	a2,sp,20
1000250c:	00040513          	mv	a0,s0
10002510:	370030ef          	jal	ra,10005880 <__sfvwrite_r>
10002514:	03c12083          	lw	ra,60(sp)
10002518:	03812403          	lw	s0,56(sp)
1000251c:	00a03533          	snez	a0,a0
10002520:	40a00533          	neg	a0,a0
10002524:	03412483          	lw	s1,52(sp)
10002528:	00a56513          	ori	a0,a0,10
1000252c:	04010113          	addi	sp,sp,64
10002530:	00008067          	ret
10002534:	00040513          	mv	a0,s0
10002538:	00b12623          	sw	a1,12(sp)
1000253c:	6a9020ef          	jal	ra,100053e4 <__sinit>
10002540:	00c12583          	lw	a1,12(sp)
10002544:	f99ff06f          	j	100024dc <_puts_r+0x60>

10002548 <puts>:
10002548:	100157b7          	lui	a5,0x10015
1000254c:	00050593          	mv	a1,a0
10002550:	6187a503          	lw	a0,1560(a5) # 10015618 <_impure_ptr>
10002554:	f29ff06f          	j	1000247c <_puts_r>

10002558 <_sprintf_r>:
10002558:	f6010113          	addi	sp,sp,-160
1000255c:	08c10e93          	addi	t4,sp,140
10002560:	08f12a23          	sw	a5,148(sp)
10002564:	80000337          	lui	t1,0x80000
10002568:	ffff07b7          	lui	a5,0xffff0
1000256c:	00058e13          	mv	t3,a1
10002570:	fff34313          	not	t1,t1
10002574:	08d12623          	sw	a3,140(sp)
10002578:	20878793          	addi	a5,a5,520 # ffff0208 <_sp+0xeffc7c9c>
1000257c:	00810593          	addi	a1,sp,8
10002580:	000e8693          	mv	a3,t4
10002584:	06112e23          	sw	ra,124(sp)
10002588:	00f12a23          	sw	a5,20(sp)
1000258c:	08e12823          	sw	a4,144(sp)
10002590:	09012c23          	sw	a6,152(sp)
10002594:	09112e23          	sw	a7,156(sp)
10002598:	01c12423          	sw	t3,8(sp)
1000259c:	01c12c23          	sw	t3,24(sp)
100025a0:	00612e23          	sw	t1,28(sp)
100025a4:	00612823          	sw	t1,16(sp)
100025a8:	01d12223          	sw	t4,4(sp)
100025ac:	120000ef          	jal	ra,100026cc <_svfprintf_r>
100025b0:	00812783          	lw	a5,8(sp)
100025b4:	00078023          	sb	zero,0(a5)
100025b8:	07c12083          	lw	ra,124(sp)
100025bc:	0a010113          	addi	sp,sp,160
100025c0:	00008067          	ret

100025c4 <sprintf>:
100025c4:	00050e13          	mv	t3,a0
100025c8:	10015537          	lui	a0,0x10015
100025cc:	f6010113          	addi	sp,sp,-160
100025d0:	61852503          	lw	a0,1560(a0) # 10015618 <_impure_ptr>
100025d4:	08810e93          	addi	t4,sp,136
100025d8:	08f12a23          	sw	a5,148(sp)
100025dc:	80000337          	lui	t1,0x80000
100025e0:	ffff07b7          	lui	a5,0xffff0
100025e4:	fff34313          	not	t1,t1
100025e8:	08c12423          	sw	a2,136(sp)
100025ec:	08d12623          	sw	a3,140(sp)
100025f0:	20878793          	addi	a5,a5,520 # ffff0208 <_sp+0xeffc7c9c>
100025f4:	00058613          	mv	a2,a1
100025f8:	000e8693          	mv	a3,t4
100025fc:	00810593          	addi	a1,sp,8
10002600:	06112e23          	sw	ra,124(sp)
10002604:	00f12a23          	sw	a5,20(sp)
10002608:	08e12823          	sw	a4,144(sp)
1000260c:	09012c23          	sw	a6,152(sp)
10002610:	09112e23          	sw	a7,156(sp)
10002614:	01c12423          	sw	t3,8(sp)
10002618:	01c12c23          	sw	t3,24(sp)
1000261c:	00612e23          	sw	t1,28(sp)
10002620:	00612823          	sw	t1,16(sp)
10002624:	01d12223          	sw	t4,4(sp)
10002628:	0a4000ef          	jal	ra,100026cc <_svfprintf_r>
1000262c:	00812783          	lw	a5,8(sp)
10002630:	00078023          	sb	zero,0(a5)
10002634:	07c12083          	lw	ra,124(sp)
10002638:	0a010113          	addi	sp,sp,160
1000263c:	00008067          	ret

10002640 <strlen>:
10002640:	00357793          	andi	a5,a0,3
10002644:	00050713          	mv	a4,a0
10002648:	04079c63          	bnez	a5,100026a0 <strlen+0x60>
1000264c:	7f7f86b7          	lui	a3,0x7f7f8
10002650:	f7f68693          	addi	a3,a3,-129 # 7f7f7f7f <_sp+0x6f7cfa13>
10002654:	fff00593          	li	a1,-1
10002658:	00072603          	lw	a2,0(a4)
1000265c:	00470713          	addi	a4,a4,4
10002660:	00d677b3          	and	a5,a2,a3
10002664:	00d787b3          	add	a5,a5,a3
10002668:	00c7e7b3          	or	a5,a5,a2
1000266c:	00d7e7b3          	or	a5,a5,a3
10002670:	feb784e3          	beq	a5,a1,10002658 <strlen+0x18>
10002674:	ffc74683          	lbu	a3,-4(a4)
10002678:	40a707b3          	sub	a5,a4,a0
1000267c:	04068463          	beqz	a3,100026c4 <strlen+0x84>
10002680:	ffd74683          	lbu	a3,-3(a4)
10002684:	02068c63          	beqz	a3,100026bc <strlen+0x7c>
10002688:	ffe74503          	lbu	a0,-2(a4)
1000268c:	00a03533          	snez	a0,a0
10002690:	00f50533          	add	a0,a0,a5
10002694:	ffe50513          	addi	a0,a0,-2
10002698:	00008067          	ret
1000269c:	fa0688e3          	beqz	a3,1000264c <strlen+0xc>
100026a0:	00074783          	lbu	a5,0(a4)
100026a4:	00170713          	addi	a4,a4,1
100026a8:	00377693          	andi	a3,a4,3
100026ac:	fe0798e3          	bnez	a5,1000269c <strlen+0x5c>
100026b0:	40a70733          	sub	a4,a4,a0
100026b4:	fff70513          	addi	a0,a4,-1
100026b8:	00008067          	ret
100026bc:	ffd78513          	addi	a0,a5,-3
100026c0:	00008067          	ret
100026c4:	ffc78513          	addi	a0,a5,-4
100026c8:	00008067          	ret

100026cc <_svfprintf_r>:
100026cc:	e1010113          	addi	sp,sp,-496
100026d0:	1e112623          	sw	ra,492(sp)
100026d4:	1f212023          	sw	s2,480(sp)
100026d8:	1d812423          	sw	s8,456(sp)
100026dc:	1da12023          	sw	s10,448(sp)
100026e0:	00058c13          	mv	s8,a1
100026e4:	00060913          	mv	s2,a2
100026e8:	00d12a23          	sw	a3,20(sp)
100026ec:	1e812423          	sw	s0,488(sp)
100026f0:	1e912223          	sw	s1,484(sp)
100026f4:	1d312e23          	sw	s3,476(sp)
100026f8:	1d412c23          	sw	s4,472(sp)
100026fc:	1d512a23          	sw	s5,468(sp)
10002700:	1d612823          	sw	s6,464(sp)
10002704:	1d712623          	sw	s7,460(sp)
10002708:	1d912223          	sw	s9,452(sp)
1000270c:	1bb12e23          	sw	s11,444(sp)
10002710:	00050d13          	mv	s10,a0
10002714:	30c060ef          	jal	ra,10008a20 <_localeconv_r>
10002718:	00052783          	lw	a5,0(a0)
1000271c:	00078513          	mv	a0,a5
10002720:	02f12823          	sw	a5,48(sp)
10002724:	f1dff0ef          	jal	ra,10002640 <strlen>
10002728:	00cc5783          	lhu	a5,12(s8)
1000272c:	0e012823          	sw	zero,240(sp)
10002730:	0e012a23          	sw	zero,244(sp)
10002734:	0e012c23          	sw	zero,248(sp)
10002738:	0e012e23          	sw	zero,252(sp)
1000273c:	0807f793          	andi	a5,a5,128
10002740:	02a12623          	sw	a0,44(sp)
10002744:	00078863          	beqz	a5,10002754 <_svfprintf_r+0x88>
10002748:	010c2783          	lw	a5,16(s8)
1000274c:	00079463          	bnez	a5,10002754 <_svfprintf_r+0x88>
10002750:	3b80106f          	j	10003b08 <_svfprintf_r+0x143c>
10002754:	10c10793          	addi	a5,sp,268
10002758:	00078893          	mv	a7,a5
1000275c:	0ef12223          	sw	a5,228(sp)
10002760:	100147b7          	lui	a5,0x10014
10002764:	06478793          	addi	a5,a5,100 # 10014064 <__clz_tab+0x148>
10002768:	00f12c23          	sw	a5,24(sp)
1000276c:	100147b7          	lui	a5,0x10014
10002770:	27878793          	addi	a5,a5,632 # 10014278 <zeroes.0>
10002774:	00090b13          	mv	s6,s2
10002778:	00f12423          	sw	a5,8(sp)
1000277c:	000b4783          	lbu	a5,0(s6)
10002780:	0e012623          	sw	zero,236(sp)
10002784:	0e012423          	sw	zero,232(sp)
10002788:	02012023          	sw	zero,32(sp)
1000278c:	02012a23          	sw	zero,52(sp)
10002790:	02012c23          	sw	zero,56(sp)
10002794:	02012e23          	sw	zero,60(sp)
10002798:	04012223          	sw	zero,68(sp)
1000279c:	04012423          	sw	zero,72(sp)
100027a0:	00012623          	sw	zero,12(sp)
100027a4:	00088c93          	mv	s9,a7
100027a8:	22078263          	beqz	a5,100029cc <_svfprintf_r+0x300>
100027ac:	000b0413          	mv	s0,s6
100027b0:	02500713          	li	a4,37
100027b4:	2ce78263          	beq	a5,a4,10002a78 <_svfprintf_r+0x3ac>
100027b8:	00144783          	lbu	a5,1(s0)
100027bc:	00140413          	addi	s0,s0,1
100027c0:	fe079ae3          	bnez	a5,100027b4 <_svfprintf_r+0xe8>
100027c4:	416404b3          	sub	s1,s0,s6
100027c8:	21640263          	beq	s0,s6,100029cc <_svfprintf_r+0x300>
100027cc:	0ec12703          	lw	a4,236(sp)
100027d0:	0e812783          	lw	a5,232(sp)
100027d4:	016ca023          	sw	s6,0(s9)
100027d8:	00970733          	add	a4,a4,s1
100027dc:	00178793          	addi	a5,a5,1
100027e0:	009ca223          	sw	s1,4(s9)
100027e4:	0ee12623          	sw	a4,236(sp)
100027e8:	0ef12423          	sw	a5,232(sp)
100027ec:	00700713          	li	a4,7
100027f0:	008c8c93          	addi	s9,s9,8
100027f4:	28f74a63          	blt	a4,a5,10002a88 <_svfprintf_r+0x3bc>
100027f8:	00c12703          	lw	a4,12(sp)
100027fc:	00044783          	lbu	a5,0(s0)
10002800:	00970733          	add	a4,a4,s1
10002804:	00e12623          	sw	a4,12(sp)
10002808:	1c078263          	beqz	a5,100029cc <_svfprintf_r+0x300>
1000280c:	fff00313          	li	t1,-1
10002810:	00144483          	lbu	s1,1(s0)
10002814:	0c0103a3          	sb	zero,199(sp)
10002818:	00140413          	addi	s0,s0,1
1000281c:	00000993          	li	s3,0
10002820:	00000a13          	li	s4,0
10002824:	05a00913          	li	s2,90
10002828:	00900a93          	li	s5,9
1000282c:	02a00b93          	li	s7,42
10002830:	00030d93          	mv	s11,t1
10002834:	00140413          	addi	s0,s0,1
10002838:	fe048793          	addi	a5,s1,-32
1000283c:	04f96463          	bltu	s2,a5,10002884 <_svfprintf_r+0x1b8>
10002840:	01812703          	lw	a4,24(sp)
10002844:	00279793          	slli	a5,a5,0x2
10002848:	00e787b3          	add	a5,a5,a4
1000284c:	0007a783          	lw	a5,0(a5)
10002850:	00078067          	jr	a5
10002854:	00000993          	li	s3,0
10002858:	fd048693          	addi	a3,s1,-48
1000285c:	00044483          	lbu	s1,0(s0)
10002860:	00299793          	slli	a5,s3,0x2
10002864:	013787b3          	add	a5,a5,s3
10002868:	00179793          	slli	a5,a5,0x1
1000286c:	00f689b3          	add	s3,a3,a5
10002870:	fd048693          	addi	a3,s1,-48
10002874:	00140413          	addi	s0,s0,1
10002878:	fedaf2e3          	bgeu	s5,a3,1000285c <_svfprintf_r+0x190>
1000287c:	fe048793          	addi	a5,s1,-32
10002880:	fcf970e3          	bgeu	s2,a5,10002840 <_svfprintf_r+0x174>
10002884:	14048463          	beqz	s1,100029cc <_svfprintf_r+0x300>
10002888:	14910623          	sb	s1,332(sp)
1000288c:	0c0103a3          	sb	zero,199(sp)
10002890:	00100a93          	li	s5,1
10002894:	00100b93          	li	s7,1
10002898:	14c10b13          	addi	s6,sp,332
1000289c:	00012823          	sw	zero,16(sp)
100028a0:	00000313          	li	t1,0
100028a4:	02012423          	sw	zero,40(sp)
100028a8:	02012223          	sw	zero,36(sp)
100028ac:	00012e23          	sw	zero,28(sp)
100028b0:	002a7f93          	andi	t6,s4,2
100028b4:	000f8463          	beqz	t6,100028bc <_svfprintf_r+0x1f0>
100028b8:	002a8a93          	addi	s5,s5,2
100028bc:	084a7913          	andi	s2,s4,132
100028c0:	0ec12783          	lw	a5,236(sp)
100028c4:	00091663          	bnez	s2,100028d0 <_svfprintf_r+0x204>
100028c8:	415986b3          	sub	a3,s3,s5
100028cc:	40d040e3          	bgtz	a3,100034cc <_svfprintf_r+0xe00>
100028d0:	0c714703          	lbu	a4,199(sp)
100028d4:	02070a63          	beqz	a4,10002908 <_svfprintf_r+0x23c>
100028d8:	0e812703          	lw	a4,232(sp)
100028dc:	0c710693          	addi	a3,sp,199
100028e0:	00dca023          	sw	a3,0(s9)
100028e4:	00178793          	addi	a5,a5,1
100028e8:	00100693          	li	a3,1
100028ec:	00170713          	addi	a4,a4,1
100028f0:	00dca223          	sw	a3,4(s9)
100028f4:	0ef12623          	sw	a5,236(sp)
100028f8:	0ee12423          	sw	a4,232(sp)
100028fc:	00700693          	li	a3,7
10002900:	008c8c93          	addi	s9,s9,8
10002904:	2ae6c863          	blt	a3,a4,10002bb4 <_svfprintf_r+0x4e8>
10002908:	020f8a63          	beqz	t6,1000293c <_svfprintf_r+0x270>
1000290c:	0e812703          	lw	a4,232(sp)
10002910:	0c810693          	addi	a3,sp,200
10002914:	00dca023          	sw	a3,0(s9)
10002918:	00278793          	addi	a5,a5,2
1000291c:	00200693          	li	a3,2
10002920:	00170713          	addi	a4,a4,1
10002924:	00dca223          	sw	a3,4(s9)
10002928:	0ef12623          	sw	a5,236(sp)
1000292c:	0ee12423          	sw	a4,232(sp)
10002930:	00700693          	li	a3,7
10002934:	008c8c93          	addi	s9,s9,8
10002938:	4ce6c2e3          	blt	a3,a4,100035fc <_svfprintf_r+0xf30>
1000293c:	08000713          	li	a4,128
10002940:	1ce900e3          	beq	s2,a4,10003300 <_svfprintf_r+0xc34>
10002944:	41730db3          	sub	s11,t1,s7
10002948:	2bb042e3          	bgtz	s11,100033ec <_svfprintf_r+0xd20>
1000294c:	100a7713          	andi	a4,s4,256
10002950:	06071ee3          	bnez	a4,100031cc <_svfprintf_r+0xb00>
10002954:	0e812703          	lw	a4,232(sp)
10002958:	017787b3          	add	a5,a5,s7
1000295c:	016ca023          	sw	s6,0(s9)
10002960:	00170713          	addi	a4,a4,1
10002964:	017ca223          	sw	s7,4(s9)
10002968:	0ef12623          	sw	a5,236(sp)
1000296c:	0ee12423          	sw	a4,232(sp)
10002970:	00700693          	li	a3,7
10002974:	36e6cc63          	blt	a3,a4,10002cec <_svfprintf_r+0x620>
10002978:	008c8c93          	addi	s9,s9,8
1000297c:	004a7a13          	andi	s4,s4,4
10002980:	000a0663          	beqz	s4,1000298c <_svfprintf_r+0x2c0>
10002984:	415984b3          	sub	s1,s3,s5
10002988:	38904263          	bgtz	s1,10002d0c <_svfprintf_r+0x640>
1000298c:	0159d463          	bge	s3,s5,10002994 <_svfprintf_r+0x2c8>
10002990:	000a8993          	mv	s3,s5
10002994:	00c12703          	lw	a4,12(sp)
10002998:	01370733          	add	a4,a4,s3
1000299c:	00e12623          	sw	a4,12(sp)
100029a0:	300792e3          	bnez	a5,100034a4 <_svfprintf_r+0xdd8>
100029a4:	01012783          	lw	a5,16(sp)
100029a8:	0e012423          	sw	zero,232(sp)
100029ac:	00078863          	beqz	a5,100029bc <_svfprintf_r+0x2f0>
100029b0:	01012583          	lw	a1,16(sp)
100029b4:	000d0513          	mv	a0,s10
100029b8:	3b5020ef          	jal	ra,1000556c <_free_r>
100029bc:	10c10c93          	addi	s9,sp,268
100029c0:	00040b13          	mv	s6,s0
100029c4:	000b4783          	lbu	a5,0(s6)
100029c8:	de0792e3          	bnez	a5,100027ac <_svfprintf_r+0xe0>
100029cc:	0ec12783          	lw	a5,236(sp)
100029d0:	00078463          	beqz	a5,100029d8 <_svfprintf_r+0x30c>
100029d4:	2c90106f          	j	1000449c <_svfprintf_r+0x1dd0>
100029d8:	00cc5783          	lhu	a5,12(s8)
100029dc:	0407f793          	andi	a5,a5,64
100029e0:	00078463          	beqz	a5,100029e8 <_svfprintf_r+0x31c>
100029e4:	32c0206f          	j	10004d10 <_svfprintf_r+0x2644>
100029e8:	1ec12083          	lw	ra,492(sp)
100029ec:	1e812403          	lw	s0,488(sp)
100029f0:	00c12503          	lw	a0,12(sp)
100029f4:	1e412483          	lw	s1,484(sp)
100029f8:	1e012903          	lw	s2,480(sp)
100029fc:	1dc12983          	lw	s3,476(sp)
10002a00:	1d812a03          	lw	s4,472(sp)
10002a04:	1d412a83          	lw	s5,468(sp)
10002a08:	1d012b03          	lw	s6,464(sp)
10002a0c:	1cc12b83          	lw	s7,460(sp)
10002a10:	1c812c03          	lw	s8,456(sp)
10002a14:	1c412c83          	lw	s9,452(sp)
10002a18:	1c012d03          	lw	s10,448(sp)
10002a1c:	1bc12d83          	lw	s11,444(sp)
10002a20:	1f010113          	addi	sp,sp,496
10002a24:	00008067          	ret
10002a28:	000d0513          	mv	a0,s10
10002a2c:	7f5050ef          	jal	ra,10008a20 <_localeconv_r>
10002a30:	00452783          	lw	a5,4(a0)
10002a34:	00078513          	mv	a0,a5
10002a38:	04f12423          	sw	a5,72(sp)
10002a3c:	c05ff0ef          	jal	ra,10002640 <strlen>
10002a40:	00050793          	mv	a5,a0
10002a44:	000d0513          	mv	a0,s10
10002a48:	00078493          	mv	s1,a5
10002a4c:	04f12223          	sw	a5,68(sp)
10002a50:	7d1050ef          	jal	ra,10008a20 <_localeconv_r>
10002a54:	00852783          	lw	a5,8(a0)
10002a58:	02f12e23          	sw	a5,60(sp)
10002a5c:	00048463          	beqz	s1,10002a64 <_svfprintf_r+0x398>
10002a60:	7b10006f          	j	10003a10 <_svfprintf_r+0x1344>
10002a64:	00044483          	lbu	s1,0(s0)
10002a68:	dcdff06f          	j	10002834 <_svfprintf_r+0x168>
10002a6c:	00044483          	lbu	s1,0(s0)
10002a70:	020a6a13          	ori	s4,s4,32
10002a74:	dc1ff06f          	j	10002834 <_svfprintf_r+0x168>
10002a78:	416404b3          	sub	s1,s0,s6
10002a7c:	d56418e3          	bne	s0,s6,100027cc <_svfprintf_r+0x100>
10002a80:	00044783          	lbu	a5,0(s0)
10002a84:	d85ff06f          	j	10002808 <_svfprintf_r+0x13c>
10002a88:	0e410613          	addi	a2,sp,228
10002a8c:	000c0593          	mv	a1,s8
10002a90:	000d0513          	mv	a0,s10
10002a94:	005080ef          	jal	ra,1000b298 <__ssprint_r>
10002a98:	f40510e3          	bnez	a0,100029d8 <_svfprintf_r+0x30c>
10002a9c:	10c10c93          	addi	s9,sp,268
10002aa0:	d59ff06f          	j	100027f8 <_svfprintf_r+0x12c>
10002aa4:	008a7793          	andi	a5,s4,8
10002aa8:	000d8313          	mv	t1,s11
10002aac:	740790e3          	bnez	a5,100039ec <_svfprintf_r+0x1320>
10002ab0:	01412783          	lw	a5,20(sp)
10002ab4:	0b010513          	addi	a0,sp,176
10002ab8:	01b12823          	sw	s11,16(sp)
10002abc:	00778793          	addi	a5,a5,7
10002ac0:	ff87f793          	andi	a5,a5,-8
10002ac4:	0047a603          	lw	a2,4(a5)
10002ac8:	0007a583          	lw	a1,0(a5)
10002acc:	00878793          	addi	a5,a5,8
10002ad0:	00f12a23          	sw	a5,20(sp)
10002ad4:	5a5100ef          	jal	ra,10013878 <__extenddftf2>
10002ad8:	0b012603          	lw	a2,176(sp)
10002adc:	0b412683          	lw	a3,180(sp)
10002ae0:	0b812703          	lw	a4,184(sp)
10002ae4:	0bc12783          	lw	a5,188(sp)
10002ae8:	01012303          	lw	t1,16(sp)
10002aec:	0f010513          	addi	a0,sp,240
10002af0:	00612823          	sw	t1,16(sp)
10002af4:	0ef12e23          	sw	a5,252(sp)
10002af8:	0ec12823          	sw	a2,240(sp)
10002afc:	0ed12a23          	sw	a3,244(sp)
10002b00:	0ee12c23          	sw	a4,248(sp)
10002b04:	69d050ef          	jal	ra,100089a0 <_ldcheck>
10002b08:	0ca12623          	sw	a0,204(sp)
10002b0c:	00200793          	li	a5,2
10002b10:	01012303          	lw	t1,16(sp)
10002b14:	00f51463          	bne	a0,a5,10002b1c <_svfprintf_r+0x450>
10002b18:	4780106f          	j	10003f90 <_svfprintf_r+0x18c4>
10002b1c:	00100793          	li	a5,1
10002b20:	00f51463          	bne	a0,a5,10002b28 <_svfprintf_r+0x45c>
10002b24:	5d80106f          	j	100040fc <_svfprintf_r+0x1a30>
10002b28:	06100793          	li	a5,97
10002b2c:	00f49463          	bne	s1,a5,10002b34 <_svfprintf_r+0x468>
10002b30:	6190106f          	j	10004948 <_svfprintf_r+0x227c>
10002b34:	04100793          	li	a5,65
10002b38:	00f49463          	bne	s1,a5,10002b40 <_svfprintf_r+0x474>
10002b3c:	0380206f          	j	10004b74 <_svfprintf_r+0x24a8>
10002b40:	fdf4f713          	andi	a4,s1,-33
10002b44:	fff00793          	li	a5,-1
10002b48:	02e12423          	sw	a4,40(sp)
10002b4c:	00f31463          	bne	t1,a5,10002b54 <_svfprintf_r+0x488>
10002b50:	1990106f          	j	100044e8 <_svfprintf_r+0x1e1c>
10002b54:	04700793          	li	a5,71
10002b58:	00f71463          	bne	a4,a5,10002b60 <_svfprintf_r+0x494>
10002b5c:	1a40206f          	j	10004d00 <_svfprintf_r+0x2634>
10002b60:	0fc12d83          	lw	s11,252(sp)
10002b64:	05412023          	sw	s4,64(sp)
10002b68:	0f012e03          	lw	t3,240(sp)
10002b6c:	0f412e83          	lw	t4,244(sp)
10002b70:	0f812f03          	lw	t5,248(sp)
10002b74:	100a6793          	ori	a5,s4,256
10002b78:	000dd463          	bgez	s11,10002b80 <_svfprintf_r+0x4b4>
10002b7c:	72d0106f          	j	10004aa8 <_svfprintf_r+0x23dc>
10002b80:	04012c23          	sw	zero,88(sp)
10002b84:	00078a13          	mv	s4,a5
10002b88:	00012823          	sw	zero,16(sp)
10002b8c:	fbf48793          	addi	a5,s1,-65
10002b90:	02500713          	li	a4,37
10002b94:	00f77463          	bgeu	a4,a5,10002b9c <_svfprintf_r+0x4d0>
10002b98:	6b40106f          	j	1000424c <_svfprintf_r+0x1b80>
10002b9c:	10014737          	lui	a4,0x10014
10002ba0:	00279793          	slli	a5,a5,0x2
10002ba4:	1d070713          	addi	a4,a4,464 # 100141d0 <__clz_tab+0x2b4>
10002ba8:	00e787b3          	add	a5,a5,a4
10002bac:	0007a783          	lw	a5,0(a5)
10002bb0:	00078067          	jr	a5
10002bb4:	0e410613          	addi	a2,sp,228
10002bb8:	000c0593          	mv	a1,s8
10002bbc:	000d0513          	mv	a0,s10
10002bc0:	04612623          	sw	t1,76(sp)
10002bc4:	05f12023          	sw	t6,64(sp)
10002bc8:	6d0080ef          	jal	ra,1000b298 <__ssprint_r>
10002bcc:	0e0516e3          	bnez	a0,100034b8 <_svfprintf_r+0xdec>
10002bd0:	0ec12783          	lw	a5,236(sp)
10002bd4:	04c12303          	lw	t1,76(sp)
10002bd8:	04012f83          	lw	t6,64(sp)
10002bdc:	10c10c93          	addi	s9,sp,268
10002be0:	d29ff06f          	j	10002908 <_svfprintf_r+0x23c>
10002be4:	0e812483          	lw	s1,232(sp)
10002be8:	02012683          	lw	a3,32(sp)
10002bec:	00100713          	li	a4,1
10002bf0:	016ca023          	sw	s6,0(s9)
10002bf4:	00178793          	addi	a5,a5,1
10002bf8:	00148493          	addi	s1,s1,1
10002bfc:	008c8d93          	addi	s11,s9,8
10002c00:	3ad75ae3          	bge	a4,a3,100037b4 <_svfprintf_r+0x10e8>
10002c04:	00100713          	li	a4,1
10002c08:	00eca223          	sw	a4,4(s9)
10002c0c:	0ef12623          	sw	a5,236(sp)
10002c10:	0e912423          	sw	s1,232(sp)
10002c14:	00700713          	li	a4,7
10002c18:	50974ae3          	blt	a4,s1,1000392c <_svfprintf_r+0x1260>
10002c1c:	02c12703          	lw	a4,44(sp)
10002c20:	03012683          	lw	a3,48(sp)
10002c24:	00148493          	addi	s1,s1,1
10002c28:	00e787b3          	add	a5,a5,a4
10002c2c:	00eda223          	sw	a4,4(s11)
10002c30:	00dda023          	sw	a3,0(s11)
10002c34:	0ef12623          	sw	a5,236(sp)
10002c38:	0e912423          	sw	s1,232(sp)
10002c3c:	00700713          	li	a4,7
10002c40:	008d8d93          	addi	s11,s11,8
10002c44:	509746e3          	blt	a4,s1,10003950 <_svfprintf_r+0x1284>
10002c48:	0f012703          	lw	a4,240(sp)
10002c4c:	0a010593          	addi	a1,sp,160
10002c50:	0b010513          	addi	a0,sp,176
10002c54:	0ae12823          	sw	a4,176(sp)
10002c58:	0f412703          	lw	a4,244(sp)
10002c5c:	00f12e23          	sw	a5,28(sp)
10002c60:	0a012023          	sw	zero,160(sp)
10002c64:	0ae12a23          	sw	a4,180(sp)
10002c68:	0f812703          	lw	a4,248(sp)
10002c6c:	0a012223          	sw	zero,164(sp)
10002c70:	0a012423          	sw	zero,168(sp)
10002c74:	0ae12c23          	sw	a4,184(sp)
10002c78:	0fc12703          	lw	a4,252(sp)
10002c7c:	0a012623          	sw	zero,172(sp)
10002c80:	0ae12e23          	sw	a4,188(sp)
10002c84:	5590d0ef          	jal	ra,100109dc <__eqtf2>
10002c88:	02012783          	lw	a5,32(sp)
10002c8c:	fff78913          	addi	s2,a5,-1
10002c90:	01c12783          	lw	a5,28(sp)
10002c94:	360500e3          	beqz	a0,100037f4 <_svfprintf_r+0x1128>
10002c98:	001b0813          	addi	a6,s6,1
10002c9c:	00148493          	addi	s1,s1,1
10002ca0:	012787b3          	add	a5,a5,s2
10002ca4:	010da023          	sw	a6,0(s11)
10002ca8:	012da223          	sw	s2,4(s11)
10002cac:	0ef12623          	sw	a5,236(sp)
10002cb0:	0e912423          	sw	s1,232(sp)
10002cb4:	00700713          	li	a4,7
10002cb8:	008d8d93          	addi	s11,s11,8
10002cbc:	30974ae3          	blt	a4,s1,100037d0 <_svfprintf_r+0x1104>
10002cc0:	03812683          	lw	a3,56(sp)
10002cc4:	0d410713          	addi	a4,sp,212
10002cc8:	00148493          	addi	s1,s1,1
10002ccc:	00f687b3          	add	a5,a3,a5
10002cd0:	00eda023          	sw	a4,0(s11)
10002cd4:	00dda223          	sw	a3,4(s11)
10002cd8:	0ef12623          	sw	a5,236(sp)
10002cdc:	0e912423          	sw	s1,232(sp)
10002ce0:	00700713          	li	a4,7
10002ce4:	008d8c93          	addi	s9,s11,8
10002ce8:	c8975ae3          	bge	a4,s1,1000297c <_svfprintf_r+0x2b0>
10002cec:	0e410613          	addi	a2,sp,228
10002cf0:	000c0593          	mv	a1,s8
10002cf4:	000d0513          	mv	a0,s10
10002cf8:	5a0080ef          	jal	ra,1000b298 <__ssprint_r>
10002cfc:	7a051e63          	bnez	a0,100034b8 <_svfprintf_r+0xdec>
10002d00:	0ec12783          	lw	a5,236(sp)
10002d04:	10c10c93          	addi	s9,sp,268
10002d08:	c75ff06f          	j	1000297c <_svfprintf_r+0x2b0>
10002d0c:	01000693          	li	a3,16
10002d10:	0e812703          	lw	a4,232(sp)
10002d14:	0096c463          	blt	a3,s1,10002d1c <_svfprintf_r+0x650>
10002d18:	6d10106f          	j	10004be8 <_svfprintf_r+0x251c>
10002d1c:	100146b7          	lui	a3,0x10014
10002d20:	26868d93          	addi	s11,a3,616 # 10014268 <blanks.1>
10002d24:	01000913          	li	s2,16
10002d28:	00700a13          	li	s4,7
10002d2c:	00c0006f          	j	10002d38 <_svfprintf_r+0x66c>
10002d30:	ff048493          	addi	s1,s1,-16
10002d34:	04995663          	bge	s2,s1,10002d80 <_svfprintf_r+0x6b4>
10002d38:	01078793          	addi	a5,a5,16
10002d3c:	00170713          	addi	a4,a4,1
10002d40:	01bca023          	sw	s11,0(s9)
10002d44:	012ca223          	sw	s2,4(s9)
10002d48:	0ef12623          	sw	a5,236(sp)
10002d4c:	0ee12423          	sw	a4,232(sp)
10002d50:	008c8c93          	addi	s9,s9,8
10002d54:	fcea5ee3          	bge	s4,a4,10002d30 <_svfprintf_r+0x664>
10002d58:	0e410613          	addi	a2,sp,228
10002d5c:	000c0593          	mv	a1,s8
10002d60:	000d0513          	mv	a0,s10
10002d64:	534080ef          	jal	ra,1000b298 <__ssprint_r>
10002d68:	74051863          	bnez	a0,100034b8 <_svfprintf_r+0xdec>
10002d6c:	ff048493          	addi	s1,s1,-16
10002d70:	0ec12783          	lw	a5,236(sp)
10002d74:	0e812703          	lw	a4,232(sp)
10002d78:	10c10c93          	addi	s9,sp,268
10002d7c:	fa994ee3          	blt	s2,s1,10002d38 <_svfprintf_r+0x66c>
10002d80:	009787b3          	add	a5,a5,s1
10002d84:	00170713          	addi	a4,a4,1
10002d88:	01bca023          	sw	s11,0(s9)
10002d8c:	009ca223          	sw	s1,4(s9)
10002d90:	0ef12623          	sw	a5,236(sp)
10002d94:	0ee12423          	sw	a4,232(sp)
10002d98:	00700693          	li	a3,7
10002d9c:	bee6d8e3          	bge	a3,a4,1000298c <_svfprintf_r+0x2c0>
10002da0:	0e410613          	addi	a2,sp,228
10002da4:	000c0593          	mv	a1,s8
10002da8:	000d0513          	mv	a0,s10
10002dac:	4ec080ef          	jal	ra,1000b298 <__ssprint_r>
10002db0:	70051463          	bnez	a0,100034b8 <_svfprintf_r+0xdec>
10002db4:	0ec12783          	lw	a5,236(sp)
10002db8:	bd5ff06f          	j	1000298c <_svfprintf_r+0x2c0>
10002dbc:	01412783          	lw	a5,20(sp)
10002dc0:	0c0103a3          	sb	zero,199(sp)
10002dc4:	0007ab03          	lw	s6,0(a5)
10002dc8:	00478913          	addi	s2,a5,4
10002dcc:	000b1463          	bnez	s6,10002dd4 <_svfprintf_r+0x708>
10002dd0:	25c0106f          	j	1000402c <_svfprintf_r+0x1960>
10002dd4:	fff00793          	li	a5,-1
10002dd8:	54fd8ce3          	beq	s11,a5,10003b30 <_svfprintf_r+0x1464>
10002ddc:	000d8613          	mv	a2,s11
10002de0:	00000593          	li	a1,0
10002de4:	000b0513          	mv	a0,s6
10002de8:	01b12a23          	sw	s11,20(sp)
10002dec:	57c060ef          	jal	ra,10009368 <memchr>
10002df0:	00a12823          	sw	a0,16(sp)
10002df4:	01412303          	lw	t1,20(sp)
10002df8:	00051463          	bnez	a0,10002e00 <_svfprintf_r+0x734>
10002dfc:	4fd0106f          	j	10004af8 <_svfprintf_r+0x242c>
10002e00:	01012783          	lw	a5,16(sp)
10002e04:	41678bb3          	sub	s7,a5,s6
10002e08:	0c714783          	lbu	a5,199(sp)
10002e0c:	fffbca93          	not	s5,s7
10002e10:	41fada93          	srai	s5,s5,0x1f
10002e14:	01212a23          	sw	s2,20(sp)
10002e18:	00012823          	sw	zero,16(sp)
10002e1c:	02012423          	sw	zero,40(sp)
10002e20:	02012223          	sw	zero,36(sp)
10002e24:	00012e23          	sw	zero,28(sp)
10002e28:	015bfab3          	and	s5,s7,s5
10002e2c:	00000313          	li	t1,0
10002e30:	a80780e3          	beqz	a5,100028b0 <_svfprintf_r+0x1e4>
10002e34:	001a8a93          	addi	s5,s5,1
10002e38:	a79ff06f          	j	100028b0 <_svfprintf_r+0x1e4>
10002e3c:	01412703          	lw	a4,20(sp)
10002e40:	0c0103a3          	sb	zero,199(sp)
10002e44:	00100a93          	li	s5,1
10002e48:	00072783          	lw	a5,0(a4)
10002e4c:	00470713          	addi	a4,a4,4
10002e50:	00e12a23          	sw	a4,20(sp)
10002e54:	14f10623          	sb	a5,332(sp)
10002e58:	00100b93          	li	s7,1
10002e5c:	14c10b13          	addi	s6,sp,332
10002e60:	a3dff06f          	j	1000289c <_svfprintf_r+0x1d0>
10002e64:	01412783          	lw	a5,20(sp)
10002e68:	0007a983          	lw	s3,0(a5)
10002e6c:	00478793          	addi	a5,a5,4
10002e70:	3009dee3          	bgez	s3,1000398c <_svfprintf_r+0x12c0>
10002e74:	413009b3          	neg	s3,s3
10002e78:	00f12a23          	sw	a5,20(sp)
10002e7c:	00044483          	lbu	s1,0(s0)
10002e80:	004a6a13          	ori	s4,s4,4
10002e84:	9b1ff06f          	j	10002834 <_svfprintf_r+0x168>
10002e88:	01412683          	lw	a3,20(sp)
10002e8c:	020a7793          	andi	a5,s4,32
10002e90:	00468713          	addi	a4,a3,4
10002e94:	32079ce3          	bnez	a5,100039cc <_svfprintf_r+0x1300>
10002e98:	010a7793          	andi	a5,s4,16
10002e9c:	00078463          	beqz	a5,10002ea4 <_svfprintf_r+0x7d8>
10002ea0:	1700106f          	j	10004010 <_svfprintf_r+0x1944>
10002ea4:	040a7793          	andi	a5,s4,64
10002ea8:	00078463          	beqz	a5,10002eb0 <_svfprintf_r+0x7e4>
10002eac:	3580106f          	j	10004204 <_svfprintf_r+0x1b38>
10002eb0:	200a7a13          	andi	s4,s4,512
10002eb4:	000a1463          	bnez	s4,10002ebc <_svfprintf_r+0x7f0>
10002eb8:	1580106f          	j	10004010 <_svfprintf_r+0x1944>
10002ebc:	01412783          	lw	a5,20(sp)
10002ec0:	00e12a23          	sw	a4,20(sp)
10002ec4:	00c12703          	lw	a4,12(sp)
10002ec8:	0007a783          	lw	a5,0(a5)
10002ecc:	00040b13          	mv	s6,s0
10002ed0:	00e78023          	sb	a4,0(a5)
10002ed4:	af1ff06f          	j	100029c4 <_svfprintf_r+0x2f8>
10002ed8:	00044483          	lbu	s1,0(s0)
10002edc:	06c00793          	li	a5,108
10002ee0:	3ef48ee3          	beq	s1,a5,10003adc <_svfprintf_r+0x1410>
10002ee4:	010a6a13          	ori	s4,s4,16
10002ee8:	94dff06f          	j	10002834 <_svfprintf_r+0x168>
10002eec:	01412703          	lw	a4,20(sp)
10002ef0:	ffff87b7          	lui	a5,0xffff8
10002ef4:	8307c793          	xori	a5,a5,-2000
10002ef8:	0cf11423          	sh	a5,200(sp)
10002efc:	00470793          	addi	a5,a4,4
10002f00:	000d8313          	mv	t1,s11
10002f04:	00f12a23          	sw	a5,20(sp)
10002f08:	00072d83          	lw	s11,0(a4)
10002f0c:	100147b7          	lui	a5,0x10014
10002f10:	03078793          	addi	a5,a5,48 # 10014030 <__clz_tab+0x114>
10002f14:	02f12a23          	sw	a5,52(sp)
10002f18:	00000913          	li	s2,0
10002f1c:	002a6a93          	ori	s5,s4,2
10002f20:	00200793          	li	a5,2
10002f24:	07800493          	li	s1,120
10002f28:	00000693          	li	a3,0
10002f2c:	0cd103a3          	sb	a3,199(sp)
10002f30:	fff00693          	li	a3,-1
10002f34:	1cd30863          	beq	t1,a3,10003104 <_svfprintf_r+0xa38>
10002f38:	012de6b3          	or	a3,s11,s2
10002f3c:	f7fafa13          	andi	s4,s5,-129
10002f40:	1c069063          	bnez	a3,10003100 <_svfprintf_r+0xa34>
10002f44:	22031663          	bnez	t1,10003170 <_svfprintf_r+0xaa4>
10002f48:	04079ee3          	bnez	a5,100037a4 <_svfprintf_r+0x10d8>
10002f4c:	001afb93          	andi	s7,s5,1
10002f50:	1b010b13          	addi	s6,sp,432
10002f54:	240b92e3          	bnez	s7,10003998 <_svfprintf_r+0x12cc>
10002f58:	0c714783          	lbu	a5,199(sp)
10002f5c:	00030a93          	mv	s5,t1
10002f60:	01735463          	bge	t1,s7,10002f68 <_svfprintf_r+0x89c>
10002f64:	000b8a93          	mv	s5,s7
10002f68:	00012823          	sw	zero,16(sp)
10002f6c:	02012423          	sw	zero,40(sp)
10002f70:	02012223          	sw	zero,36(sp)
10002f74:	00012e23          	sw	zero,28(sp)
10002f78:	ea079ee3          	bnez	a5,10002e34 <_svfprintf_r+0x768>
10002f7c:	935ff06f          	j	100028b0 <_svfprintf_r+0x1e4>
10002f80:	000d8313          	mv	t1,s11
10002f84:	010a6a13          	ori	s4,s4,16
10002f88:	020a7793          	andi	a5,s4,32
10002f8c:	0c0788e3          	beqz	a5,1000385c <_svfprintf_r+0x1190>
10002f90:	01412783          	lw	a5,20(sp)
10002f94:	00778b13          	addi	s6,a5,7
10002f98:	ff8b7b13          	andi	s6,s6,-8
10002f9c:	000b2d83          	lw	s11,0(s6)
10002fa0:	004b2903          	lw	s2,4(s6)
10002fa4:	008b0793          	addi	a5,s6,8
10002fa8:	00f12a23          	sw	a5,20(sp)
10002fac:	bffa7a93          	andi	s5,s4,-1025
10002fb0:	00000793          	li	a5,0
10002fb4:	f75ff06f          	j	10002f28 <_svfprintf_r+0x85c>
10002fb8:	00044483          	lbu	s1,0(s0)
10002fbc:	06800793          	li	a5,104
10002fc0:	2ef486e3          	beq	s1,a5,10003aac <_svfprintf_r+0x13e0>
10002fc4:	040a6a13          	ori	s4,s4,64
10002fc8:	86dff06f          	j	10002834 <_svfprintf_r+0x168>
10002fcc:	000d8313          	mv	t1,s11
10002fd0:	010a6a93          	ori	s5,s4,16
10002fd4:	020af793          	andi	a5,s5,32
10002fd8:	0a078ae3          	beqz	a5,1000388c <_svfprintf_r+0x11c0>
10002fdc:	01412783          	lw	a5,20(sp)
10002fe0:	00778b13          	addi	s6,a5,7
10002fe4:	ff8b7b13          	andi	s6,s6,-8
10002fe8:	008b0793          	addi	a5,s6,8
10002fec:	00f12a23          	sw	a5,20(sp)
10002ff0:	000b2d83          	lw	s11,0(s6)
10002ff4:	004b2903          	lw	s2,4(s6)
10002ff8:	00100793          	li	a5,1
10002ffc:	f2dff06f          	j	10002f28 <_svfprintf_r+0x85c>
10003000:	00044483          	lbu	s1,0(s0)
10003004:	008a6a13          	ori	s4,s4,8
10003008:	82dff06f          	j	10002834 <_svfprintf_r+0x168>
1000300c:	00044483          	lbu	s1,0(s0)
10003010:	001a6a13          	ori	s4,s4,1
10003014:	821ff06f          	j	10002834 <_svfprintf_r+0x168>
10003018:	0c714783          	lbu	a5,199(sp)
1000301c:	00044483          	lbu	s1,0(s0)
10003020:	80079ae3          	bnez	a5,10002834 <_svfprintf_r+0x168>
10003024:	02000793          	li	a5,32
10003028:	0cf103a3          	sb	a5,199(sp)
1000302c:	809ff06f          	j	10002834 <_svfprintf_r+0x168>
10003030:	00044483          	lbu	s1,0(s0)
10003034:	080a6a13          	ori	s4,s4,128
10003038:	ffcff06f          	j	10002834 <_svfprintf_r+0x168>
1000303c:	00044483          	lbu	s1,0(s0)
10003040:	00140713          	addi	a4,s0,1
10003044:	01749463          	bne	s1,s7,1000304c <_svfprintf_r+0x980>
10003048:	6190106f          	j	10004e60 <_svfprintf_r+0x2794>
1000304c:	fd048693          	addi	a3,s1,-48
10003050:	00070413          	mv	s0,a4
10003054:	00000d93          	li	s11,0
10003058:	fedae063          	bltu	s5,a3,10002838 <_svfprintf_r+0x16c>
1000305c:	00044483          	lbu	s1,0(s0)
10003060:	002d9793          	slli	a5,s11,0x2
10003064:	01b787b3          	add	a5,a5,s11
10003068:	00179793          	slli	a5,a5,0x1
1000306c:	00d78db3          	add	s11,a5,a3
10003070:	fd048693          	addi	a3,s1,-48
10003074:	00140413          	addi	s0,s0,1
10003078:	fedaf2e3          	bgeu	s5,a3,1000305c <_svfprintf_r+0x990>
1000307c:	fbcff06f          	j	10002838 <_svfprintf_r+0x16c>
10003080:	02b00793          	li	a5,43
10003084:	00044483          	lbu	s1,0(s0)
10003088:	0cf103a3          	sb	a5,199(sp)
1000308c:	fa8ff06f          	j	10002834 <_svfprintf_r+0x168>
10003090:	000d8313          	mv	t1,s11
10003094:	010a6a13          	ori	s4,s4,16
10003098:	020a7793          	andi	a5,s4,32
1000309c:	02078ee3          	beqz	a5,100038d8 <_svfprintf_r+0x120c>
100030a0:	01412783          	lw	a5,20(sp)
100030a4:	00778b13          	addi	s6,a5,7
100030a8:	ff8b7b13          	andi	s6,s6,-8
100030ac:	004b2783          	lw	a5,4(s6)
100030b0:	000b2d83          	lw	s11,0(s6)
100030b4:	008b0713          	addi	a4,s6,8
100030b8:	00e12a23          	sw	a4,20(sp)
100030bc:	00078913          	mv	s2,a5
100030c0:	0407c6e3          	bltz	a5,1000390c <_svfprintf_r+0x1240>
100030c4:	fff00793          	li	a5,-1
100030c8:	000a0a93          	mv	s5,s4
100030cc:	00f30863          	beq	t1,a5,100030dc <_svfprintf_r+0xa10>
100030d0:	012de7b3          	or	a5,s11,s2
100030d4:	f7fa7a93          	andi	s5,s4,-129
100030d8:	6c078263          	beqz	a5,1000379c <_svfprintf_r+0x10d0>
100030dc:	48091ae3          	bnez	s2,10003d70 <_svfprintf_r+0x16a4>
100030e0:	00900793          	li	a5,9
100030e4:	49b7e6e3          	bltu	a5,s11,10003d70 <_svfprintf_r+0x16a4>
100030e8:	030d8d93          	addi	s11,s11,48
100030ec:	1bb107a3          	sb	s11,431(sp)
100030f0:	000a8a13          	mv	s4,s5
100030f4:	00100b93          	li	s7,1
100030f8:	1af10b13          	addi	s6,sp,431
100030fc:	e5dff06f          	j	10002f58 <_svfprintf_r+0x88c>
10003100:	000a0a93          	mv	s5,s4
10003104:	00100693          	li	a3,1
10003108:	fcd78ae3          	beq	a5,a3,100030dc <_svfprintf_r+0xa10>
1000310c:	00200693          	li	a3,2
10003110:	06d78c63          	beq	a5,a3,10003188 <_svfprintf_r+0xabc>
10003114:	1b010b13          	addi	s6,sp,432
10003118:	01d91713          	slli	a4,s2,0x1d
1000311c:	007df793          	andi	a5,s11,7
10003120:	003ddd93          	srli	s11,s11,0x3
10003124:	03078793          	addi	a5,a5,48
10003128:	01b76db3          	or	s11,a4,s11
1000312c:	00395913          	srli	s2,s2,0x3
10003130:	fefb0fa3          	sb	a5,-1(s6)
10003134:	012de733          	or	a4,s11,s2
10003138:	000b0613          	mv	a2,s6
1000313c:	fffb0b13          	addi	s6,s6,-1
10003140:	fc071ce3          	bnez	a4,10003118 <_svfprintf_r+0xa4c>
10003144:	001af693          	andi	a3,s5,1
10003148:	06068a63          	beqz	a3,100031bc <_svfprintf_r+0xaf0>
1000314c:	03000693          	li	a3,48
10003150:	06d78663          	beq	a5,a3,100031bc <_svfprintf_r+0xaf0>
10003154:	ffe60613          	addi	a2,a2,-2
10003158:	1b010793          	addi	a5,sp,432
1000315c:	fedb0fa3          	sb	a3,-1(s6)
10003160:	40c78bb3          	sub	s7,a5,a2
10003164:	000a8a13          	mv	s4,s5
10003168:	00060b13          	mv	s6,a2
1000316c:	dedff06f          	j	10002f58 <_svfprintf_r+0x88c>
10003170:	00100713          	li	a4,1
10003174:	00e79463          	bne	a5,a4,1000317c <_svfprintf_r+0xab0>
10003178:	27d0106f          	j	10004bf4 <_svfprintf_r+0x2528>
1000317c:	00200713          	li	a4,2
10003180:	000a0a93          	mv	s5,s4
10003184:	f8e798e3          	bne	a5,a4,10003114 <_svfprintf_r+0xa48>
10003188:	03412683          	lw	a3,52(sp)
1000318c:	1b010b13          	addi	s6,sp,432
10003190:	00fdf793          	andi	a5,s11,15
10003194:	00f687b3          	add	a5,a3,a5
10003198:	0007c703          	lbu	a4,0(a5)
1000319c:	004ddd93          	srli	s11,s11,0x4
100031a0:	01c91793          	slli	a5,s2,0x1c
100031a4:	01b7edb3          	or	s11,a5,s11
100031a8:	00495913          	srli	s2,s2,0x4
100031ac:	feeb0fa3          	sb	a4,-1(s6)
100031b0:	012de7b3          	or	a5,s11,s2
100031b4:	fffb0b13          	addi	s6,s6,-1
100031b8:	fc079ce3          	bnez	a5,10003190 <_svfprintf_r+0xac4>
100031bc:	1b010793          	addi	a5,sp,432
100031c0:	41678bb3          	sub	s7,a5,s6
100031c4:	000a8a13          	mv	s4,s5
100031c8:	d91ff06f          	j	10002f58 <_svfprintf_r+0x88c>
100031cc:	06500713          	li	a4,101
100031d0:	a0975ae3          	bge	a4,s1,10002be4 <_svfprintf_r+0x518>
100031d4:	0f012703          	lw	a4,240(sp)
100031d8:	0a010593          	addi	a1,sp,160
100031dc:	0b010513          	addi	a0,sp,176
100031e0:	0ae12823          	sw	a4,176(sp)
100031e4:	0f412703          	lw	a4,244(sp)
100031e8:	04f12023          	sw	a5,64(sp)
100031ec:	0a012023          	sw	zero,160(sp)
100031f0:	0ae12a23          	sw	a4,180(sp)
100031f4:	0f812703          	lw	a4,248(sp)
100031f8:	0a012223          	sw	zero,164(sp)
100031fc:	0a012423          	sw	zero,168(sp)
10003200:	0ae12c23          	sw	a4,184(sp)
10003204:	0fc12703          	lw	a4,252(sp)
10003208:	0a012623          	sw	zero,172(sp)
1000320c:	0ae12e23          	sw	a4,188(sp)
10003210:	7cc0d0ef          	jal	ra,100109dc <__eqtf2>
10003214:	04012783          	lw	a5,64(sp)
10003218:	40051663          	bnez	a0,10003624 <_svfprintf_r+0xf58>
1000321c:	0e812703          	lw	a4,232(sp)
10003220:	100146b7          	lui	a3,0x10014
10003224:	06068693          	addi	a3,a3,96 # 10014060 <__clz_tab+0x144>
10003228:	00dca023          	sw	a3,0(s9)
1000322c:	00178793          	addi	a5,a5,1
10003230:	00100693          	li	a3,1
10003234:	00170713          	addi	a4,a4,1
10003238:	00dca223          	sw	a3,4(s9)
1000323c:	0ef12623          	sw	a5,236(sp)
10003240:	0ee12423          	sw	a4,232(sp)
10003244:	00700693          	li	a3,7
10003248:	008c8c93          	addi	s9,s9,8
1000324c:	4ce6c6e3          	blt	a3,a4,10003f18 <_svfprintf_r+0x184c>
10003250:	0cc12703          	lw	a4,204(sp)
10003254:	02012683          	lw	a3,32(sp)
10003258:	70d75e63          	bge	a4,a3,10003974 <_svfprintf_r+0x12a8>
1000325c:	03012703          	lw	a4,48(sp)
10003260:	02c12683          	lw	a3,44(sp)
10003264:	008c8c93          	addi	s9,s9,8
10003268:	feecac23          	sw	a4,-8(s9)
1000326c:	0e812703          	lw	a4,232(sp)
10003270:	00d787b3          	add	a5,a5,a3
10003274:	fedcae23          	sw	a3,-4(s9)
10003278:	00170713          	addi	a4,a4,1
1000327c:	0ef12623          	sw	a5,236(sp)
10003280:	0ee12423          	sw	a4,232(sp)
10003284:	00700693          	li	a3,7
10003288:	02e6cae3          	blt	a3,a4,10003abc <_svfprintf_r+0x13f0>
1000328c:	02012703          	lw	a4,32(sp)
10003290:	fff70493          	addi	s1,a4,-1
10003294:	ee905463          	blez	s1,1000297c <_svfprintf_r+0x2b0>
10003298:	01000693          	li	a3,16
1000329c:	0e812703          	lw	a4,232(sp)
100032a0:	4896dce3          	bge	a3,s1,10003f38 <_svfprintf_r+0x186c>
100032a4:	01000913          	li	s2,16
100032a8:	00700b93          	li	s7,7
100032ac:	00c0006f          	j	100032b8 <_svfprintf_r+0xbec>
100032b0:	ff048493          	addi	s1,s1,-16
100032b4:	489952e3          	bge	s2,s1,10003f38 <_svfprintf_r+0x186c>
100032b8:	00812683          	lw	a3,8(sp)
100032bc:	01078793          	addi	a5,a5,16
100032c0:	00170713          	addi	a4,a4,1
100032c4:	00dca023          	sw	a3,0(s9)
100032c8:	012ca223          	sw	s2,4(s9)
100032cc:	0ef12623          	sw	a5,236(sp)
100032d0:	0ee12423          	sw	a4,232(sp)
100032d4:	008c8c93          	addi	s9,s9,8
100032d8:	fcebdce3          	bge	s7,a4,100032b0 <_svfprintf_r+0xbe4>
100032dc:	0e410613          	addi	a2,sp,228
100032e0:	000c0593          	mv	a1,s8
100032e4:	000d0513          	mv	a0,s10
100032e8:	7b1070ef          	jal	ra,1000b298 <__ssprint_r>
100032ec:	1c051663          	bnez	a0,100034b8 <_svfprintf_r+0xdec>
100032f0:	0ec12783          	lw	a5,236(sp)
100032f4:	0e812703          	lw	a4,232(sp)
100032f8:	10c10c93          	addi	s9,sp,268
100032fc:	fb5ff06f          	j	100032b0 <_svfprintf_r+0xbe4>
10003300:	41598933          	sub	s2,s3,s5
10003304:	e5205063          	blez	s2,10002944 <_svfprintf_r+0x278>
10003308:	01000613          	li	a2,16
1000330c:	0e812703          	lw	a4,232(sp)
10003310:	09265463          	bge	a2,s2,10003398 <_svfprintf_r+0xccc>
10003314:	04812023          	sw	s0,64(sp)
10003318:	01000e13          	li	t3,16
1000331c:	000c0413          	mv	s0,s8
10003320:	00700d93          	li	s11,7
10003324:	00090c13          	mv	s8,s2
10003328:	00030913          	mv	s2,t1
1000332c:	00c0006f          	j	10003338 <_svfprintf_r+0xc6c>
10003330:	ff0c0c13          	addi	s8,s8,-16
10003334:	058e5a63          	bge	t3,s8,10003388 <_svfprintf_r+0xcbc>
10003338:	00812683          	lw	a3,8(sp)
1000333c:	01078793          	addi	a5,a5,16
10003340:	00170713          	addi	a4,a4,1
10003344:	00dca023          	sw	a3,0(s9)
10003348:	01cca223          	sw	t3,4(s9)
1000334c:	0ef12623          	sw	a5,236(sp)
10003350:	0ee12423          	sw	a4,232(sp)
10003354:	008c8c93          	addi	s9,s9,8
10003358:	fceddce3          	bge	s11,a4,10003330 <_svfprintf_r+0xc64>
1000335c:	0e410613          	addi	a2,sp,228
10003360:	00040593          	mv	a1,s0
10003364:	000d0513          	mv	a0,s10
10003368:	731070ef          	jal	ra,1000b298 <__ssprint_r>
1000336c:	40051ee3          	bnez	a0,10003f88 <_svfprintf_r+0x18bc>
10003370:	01000e13          	li	t3,16
10003374:	ff0c0c13          	addi	s8,s8,-16
10003378:	0ec12783          	lw	a5,236(sp)
1000337c:	0e812703          	lw	a4,232(sp)
10003380:	10c10c93          	addi	s9,sp,268
10003384:	fb8e4ae3          	blt	t3,s8,10003338 <_svfprintf_r+0xc6c>
10003388:	00090313          	mv	t1,s2
1000338c:	000c0913          	mv	s2,s8
10003390:	00040c13          	mv	s8,s0
10003394:	04012403          	lw	s0,64(sp)
10003398:	00812683          	lw	a3,8(sp)
1000339c:	012787b3          	add	a5,a5,s2
100033a0:	00170713          	addi	a4,a4,1
100033a4:	00dca023          	sw	a3,0(s9)
100033a8:	012ca223          	sw	s2,4(s9)
100033ac:	0ef12623          	sw	a5,236(sp)
100033b0:	0ee12423          	sw	a4,232(sp)
100033b4:	00700693          	li	a3,7
100033b8:	008c8c93          	addi	s9,s9,8
100033bc:	d8e6d463          	bge	a3,a4,10002944 <_svfprintf_r+0x278>
100033c0:	0e410613          	addi	a2,sp,228
100033c4:	000c0593          	mv	a1,s8
100033c8:	000d0513          	mv	a0,s10
100033cc:	04612023          	sw	t1,64(sp)
100033d0:	6c9070ef          	jal	ra,1000b298 <__ssprint_r>
100033d4:	0e051263          	bnez	a0,100034b8 <_svfprintf_r+0xdec>
100033d8:	04012303          	lw	t1,64(sp)
100033dc:	0ec12783          	lw	a5,236(sp)
100033e0:	10c10c93          	addi	s9,sp,268
100033e4:	41730db3          	sub	s11,t1,s7
100033e8:	d7b05263          	blez	s11,1000294c <_svfprintf_r+0x280>
100033ec:	01000613          	li	a2,16
100033f0:	0e812703          	lw	a4,232(sp)
100033f4:	07b65463          	bge	a2,s11,1000345c <_svfprintf_r+0xd90>
100033f8:	01000313          	li	t1,16
100033fc:	00700913          	li	s2,7
10003400:	00c0006f          	j	1000340c <_svfprintf_r+0xd40>
10003404:	ff0d8d93          	addi	s11,s11,-16
10003408:	05b35a63          	bge	t1,s11,1000345c <_svfprintf_r+0xd90>
1000340c:	00812683          	lw	a3,8(sp)
10003410:	01078793          	addi	a5,a5,16
10003414:	00170713          	addi	a4,a4,1
10003418:	00dca023          	sw	a3,0(s9)
1000341c:	006ca223          	sw	t1,4(s9)
10003420:	0ef12623          	sw	a5,236(sp)
10003424:	0ee12423          	sw	a4,232(sp)
10003428:	008c8c93          	addi	s9,s9,8
1000342c:	fce95ce3          	bge	s2,a4,10003404 <_svfprintf_r+0xd38>
10003430:	0e410613          	addi	a2,sp,228
10003434:	000c0593          	mv	a1,s8
10003438:	000d0513          	mv	a0,s10
1000343c:	65d070ef          	jal	ra,1000b298 <__ssprint_r>
10003440:	06051c63          	bnez	a0,100034b8 <_svfprintf_r+0xdec>
10003444:	01000313          	li	t1,16
10003448:	ff0d8d93          	addi	s11,s11,-16
1000344c:	0ec12783          	lw	a5,236(sp)
10003450:	0e812703          	lw	a4,232(sp)
10003454:	10c10c93          	addi	s9,sp,268
10003458:	fbb34ae3          	blt	t1,s11,1000340c <_svfprintf_r+0xd40>
1000345c:	00812683          	lw	a3,8(sp)
10003460:	01b787b3          	add	a5,a5,s11
10003464:	00170713          	addi	a4,a4,1
10003468:	00dca023          	sw	a3,0(s9)
1000346c:	01bca223          	sw	s11,4(s9)
10003470:	0ef12623          	sw	a5,236(sp)
10003474:	0ee12423          	sw	a4,232(sp)
10003478:	00700693          	li	a3,7
1000347c:	008c8c93          	addi	s9,s9,8
10003480:	cce6d663          	bge	a3,a4,1000294c <_svfprintf_r+0x280>
10003484:	0e410613          	addi	a2,sp,228
10003488:	000c0593          	mv	a1,s8
1000348c:	000d0513          	mv	a0,s10
10003490:	609070ef          	jal	ra,1000b298 <__ssprint_r>
10003494:	02051263          	bnez	a0,100034b8 <_svfprintf_r+0xdec>
10003498:	0ec12783          	lw	a5,236(sp)
1000349c:	10c10c93          	addi	s9,sp,268
100034a0:	cacff06f          	j	1000294c <_svfprintf_r+0x280>
100034a4:	0e410613          	addi	a2,sp,228
100034a8:	000c0593          	mv	a1,s8
100034ac:	000d0513          	mv	a0,s10
100034b0:	5e9070ef          	jal	ra,1000b298 <__ssprint_r>
100034b4:	ce050863          	beqz	a0,100029a4 <_svfprintf_r+0x2d8>
100034b8:	01012583          	lw	a1,16(sp)
100034bc:	d0058e63          	beqz	a1,100029d8 <_svfprintf_r+0x30c>
100034c0:	000d0513          	mv	a0,s10
100034c4:	0a8020ef          	jal	ra,1000556c <_free_r>
100034c8:	d10ff06f          	j	100029d8 <_svfprintf_r+0x30c>
100034cc:	01000613          	li	a2,16
100034d0:	0e812703          	lw	a4,232(sp)
100034d4:	00d64463          	blt	a2,a3,100034dc <_svfprintf_r+0xe10>
100034d8:	64c0106f          	j	10004b24 <_svfprintf_r+0x2458>
100034dc:	10014637          	lui	a2,0x10014
100034e0:	26860d93          	addi	s11,a2,616 # 10014268 <blanks.1>
100034e4:	05212623          	sw	s2,76(sp)
100034e8:	04812823          	sw	s0,80(sp)
100034ec:	000d8913          	mv	s2,s11
100034f0:	000d0413          	mv	s0,s10
100034f4:	000a8d93          	mv	s11,s5
100034f8:	01000e13          	li	t3,16
100034fc:	00098a93          	mv	s5,s3
10003500:	00700293          	li	t0,7
10003504:	00048993          	mv	s3,s1
10003508:	05f12023          	sw	t6,64(sp)
1000350c:	000c0493          	mv	s1,s8
10003510:	00068d13          	mv	s10,a3
10003514:	000b0c13          	mv	s8,s6
10003518:	00030b13          	mv	s6,t1
1000351c:	00c0006f          	j	10003528 <_svfprintf_r+0xe5c>
10003520:	ff0d0d13          	addi	s10,s10,-16
10003524:	05ae5a63          	bge	t3,s10,10003578 <_svfprintf_r+0xeac>
10003528:	01078793          	addi	a5,a5,16
1000352c:	00170713          	addi	a4,a4,1
10003530:	012ca023          	sw	s2,0(s9)
10003534:	01cca223          	sw	t3,4(s9)
10003538:	0ef12623          	sw	a5,236(sp)
1000353c:	0ee12423          	sw	a4,232(sp)
10003540:	008c8c93          	addi	s9,s9,8
10003544:	fce2dee3          	bge	t0,a4,10003520 <_svfprintf_r+0xe54>
10003548:	0e410613          	addi	a2,sp,228
1000354c:	00048593          	mv	a1,s1
10003550:	00040513          	mv	a0,s0
10003554:	545070ef          	jal	ra,1000b298 <__ssprint_r>
10003558:	1a051ae3          	bnez	a0,10003f0c <_svfprintf_r+0x1840>
1000355c:	01000e13          	li	t3,16
10003560:	ff0d0d13          	addi	s10,s10,-16
10003564:	0ec12783          	lw	a5,236(sp)
10003568:	0e812703          	lw	a4,232(sp)
1000356c:	10c10c93          	addi	s9,sp,268
10003570:	00700293          	li	t0,7
10003574:	fbae4ae3          	blt	t3,s10,10003528 <_svfprintf_r+0xe5c>
10003578:	000d0693          	mv	a3,s10
1000357c:	000b0313          	mv	t1,s6
10003580:	00040d13          	mv	s10,s0
10003584:	000c0b13          	mv	s6,s8
10003588:	04012f83          	lw	t6,64(sp)
1000358c:	00048c13          	mv	s8,s1
10003590:	05012403          	lw	s0,80(sp)
10003594:	00098493          	mv	s1,s3
10003598:	000a8993          	mv	s3,s5
1000359c:	000d8a93          	mv	s5,s11
100035a0:	00090d93          	mv	s11,s2
100035a4:	04c12903          	lw	s2,76(sp)
100035a8:	00d787b3          	add	a5,a5,a3
100035ac:	00170713          	addi	a4,a4,1
100035b0:	00dca223          	sw	a3,4(s9)
100035b4:	01bca023          	sw	s11,0(s9)
100035b8:	0ef12623          	sw	a5,236(sp)
100035bc:	0ee12423          	sw	a4,232(sp)
100035c0:	00700693          	li	a3,7
100035c4:	008c8c93          	addi	s9,s9,8
100035c8:	b0e6d463          	bge	a3,a4,100028d0 <_svfprintf_r+0x204>
100035cc:	0e410613          	addi	a2,sp,228
100035d0:	000c0593          	mv	a1,s8
100035d4:	000d0513          	mv	a0,s10
100035d8:	04612623          	sw	t1,76(sp)
100035dc:	05f12023          	sw	t6,64(sp)
100035e0:	4b9070ef          	jal	ra,1000b298 <__ssprint_r>
100035e4:	ec051ae3          	bnez	a0,100034b8 <_svfprintf_r+0xdec>
100035e8:	0ec12783          	lw	a5,236(sp)
100035ec:	04c12303          	lw	t1,76(sp)
100035f0:	04012f83          	lw	t6,64(sp)
100035f4:	10c10c93          	addi	s9,sp,268
100035f8:	ad8ff06f          	j	100028d0 <_svfprintf_r+0x204>
100035fc:	0e410613          	addi	a2,sp,228
10003600:	000c0593          	mv	a1,s8
10003604:	000d0513          	mv	a0,s10
10003608:	04612023          	sw	t1,64(sp)
1000360c:	48d070ef          	jal	ra,1000b298 <__ssprint_r>
10003610:	ea0514e3          	bnez	a0,100034b8 <_svfprintf_r+0xdec>
10003614:	0ec12783          	lw	a5,236(sp)
10003618:	04012303          	lw	t1,64(sp)
1000361c:	10c10c93          	addi	s9,sp,268
10003620:	b1cff06f          	j	1000293c <_svfprintf_r+0x270>
10003624:	0cc12603          	lw	a2,204(sp)
10003628:	00c05ae3          	blez	a2,10003e3c <_svfprintf_r+0x1770>
1000362c:	01c12703          	lw	a4,28(sp)
10003630:	02012683          	lw	a3,32(sp)
10003634:	00070493          	mv	s1,a4
10003638:	3ee6ce63          	blt	a3,a4,10003a34 <_svfprintf_r+0x1368>
1000363c:	02905663          	blez	s1,10003668 <_svfprintf_r+0xf9c>
10003640:	0e812703          	lw	a4,232(sp)
10003644:	009787b3          	add	a5,a5,s1
10003648:	016ca023          	sw	s6,0(s9)
1000364c:	00170713          	addi	a4,a4,1
10003650:	009ca223          	sw	s1,4(s9)
10003654:	0ef12623          	sw	a5,236(sp)
10003658:	0ee12423          	sw	a4,232(sp)
1000365c:	00700693          	li	a3,7
10003660:	008c8c93          	addi	s9,s9,8
10003664:	34e6cee3          	blt	a3,a4,100041c0 <_svfprintf_r+0x1af4>
10003668:	fff4c713          	not	a4,s1
1000366c:	41f75713          	srai	a4,a4,0x1f
10003670:	00e4f4b3          	and	s1,s1,a4
10003674:	01c12703          	lw	a4,28(sp)
10003678:	409704b3          	sub	s1,a4,s1
1000367c:	4c904263          	bgtz	s1,10003b40 <_svfprintf_r+0x1474>
10003680:	01c12683          	lw	a3,28(sp)
10003684:	400a7713          	andi	a4,s4,1024
10003688:	00db04b3          	add	s1,s6,a3
1000368c:	50071e63          	bnez	a4,10003ba8 <_svfprintf_r+0x14dc>
10003690:	0cc12683          	lw	a3,204(sp)
10003694:	02012703          	lw	a4,32(sp)
10003698:	00e6c663          	blt	a3,a4,100036a4 <_svfprintf_r+0xfd8>
1000369c:	001a7713          	andi	a4,s4,1
100036a0:	340704e3          	beqz	a4,100041e8 <_svfprintf_r+0x1b1c>
100036a4:	03012703          	lw	a4,48(sp)
100036a8:	02c12603          	lw	a2,44(sp)
100036ac:	008c8c93          	addi	s9,s9,8
100036b0:	feecac23          	sw	a4,-8(s9)
100036b4:	0e812703          	lw	a4,232(sp)
100036b8:	00c787b3          	add	a5,a5,a2
100036bc:	feccae23          	sw	a2,-4(s9)
100036c0:	00170713          	addi	a4,a4,1
100036c4:	0ef12623          	sw	a5,236(sp)
100036c8:	0ee12423          	sw	a4,232(sp)
100036cc:	00700613          	li	a2,7
100036d0:	00e65463          	bge	a2,a4,100036d8 <_svfprintf_r+0x100c>
100036d4:	3f00106f          	j	10004ac4 <_svfprintf_r+0x23f8>
100036d8:	02012703          	lw	a4,32(sp)
100036dc:	00eb0833          	add	a6,s6,a4
100036e0:	40d70633          	sub	a2,a4,a3
100036e4:	40980933          	sub	s2,a6,s1
100036e8:	01265463          	bge	a2,s2,100036f0 <_svfprintf_r+0x1024>
100036ec:	00060913          	mv	s2,a2
100036f0:	03205863          	blez	s2,10003720 <_svfprintf_r+0x1054>
100036f4:	0e812703          	lw	a4,232(sp)
100036f8:	012787b3          	add	a5,a5,s2
100036fc:	009ca023          	sw	s1,0(s9)
10003700:	00170713          	addi	a4,a4,1
10003704:	012ca223          	sw	s2,4(s9)
10003708:	0ef12623          	sw	a5,236(sp)
1000370c:	0ee12423          	sw	a4,232(sp)
10003710:	00700693          	li	a3,7
10003714:	008c8c93          	addi	s9,s9,8
10003718:	00e6d463          	bge	a3,a4,10003720 <_svfprintf_r+0x1054>
1000371c:	4280106f          	j	10004b44 <_svfprintf_r+0x2478>
10003720:	fff94713          	not	a4,s2
10003724:	41f75713          	srai	a4,a4,0x1f
10003728:	00e97933          	and	s2,s2,a4
1000372c:	412604b3          	sub	s1,a2,s2
10003730:	a4905663          	blez	s1,1000297c <_svfprintf_r+0x2b0>
10003734:	01000693          	li	a3,16
10003738:	0e812703          	lw	a4,232(sp)
1000373c:	7e96de63          	bge	a3,s1,10003f38 <_svfprintf_r+0x186c>
10003740:	01000913          	li	s2,16
10003744:	00700b93          	li	s7,7
10003748:	00c0006f          	j	10003754 <_svfprintf_r+0x1088>
1000374c:	ff048493          	addi	s1,s1,-16
10003750:	7e995463          	bge	s2,s1,10003f38 <_svfprintf_r+0x186c>
10003754:	00812683          	lw	a3,8(sp)
10003758:	01078793          	addi	a5,a5,16
1000375c:	00170713          	addi	a4,a4,1
10003760:	00dca023          	sw	a3,0(s9)
10003764:	012ca223          	sw	s2,4(s9)
10003768:	0ef12623          	sw	a5,236(sp)
1000376c:	0ee12423          	sw	a4,232(sp)
10003770:	008c8c93          	addi	s9,s9,8
10003774:	fcebdce3          	bge	s7,a4,1000374c <_svfprintf_r+0x1080>
10003778:	0e410613          	addi	a2,sp,228
1000377c:	000c0593          	mv	a1,s8
10003780:	000d0513          	mv	a0,s10
10003784:	315070ef          	jal	ra,1000b298 <__ssprint_r>
10003788:	d20518e3          	bnez	a0,100034b8 <_svfprintf_r+0xdec>
1000378c:	0ec12783          	lw	a5,236(sp)
10003790:	0e812703          	lw	a4,232(sp)
10003794:	10c10c93          	addi	s9,sp,268
10003798:	fb5ff06f          	j	1000374c <_svfprintf_r+0x1080>
1000379c:	940316e3          	bnez	t1,100030e8 <_svfprintf_r+0xa1c>
100037a0:	000a8a13          	mv	s4,s5
100037a4:	00000313          	li	t1,0
100037a8:	00000b93          	li	s7,0
100037ac:	1b010b13          	addi	s6,sp,432
100037b0:	fa8ff06f          	j	10002f58 <_svfprintf_r+0x88c>
100037b4:	001a7613          	andi	a2,s4,1
100037b8:	c4061663          	bnez	a2,10002c04 <_svfprintf_r+0x538>
100037bc:	00eca223          	sw	a4,4(s9)
100037c0:	0ef12623          	sw	a5,236(sp)
100037c4:	0e912423          	sw	s1,232(sp)
100037c8:	00700713          	li	a4,7
100037cc:	ce975a63          	bge	a4,s1,10002cc0 <_svfprintf_r+0x5f4>
100037d0:	0e410613          	addi	a2,sp,228
100037d4:	000c0593          	mv	a1,s8
100037d8:	000d0513          	mv	a0,s10
100037dc:	2bd070ef          	jal	ra,1000b298 <__ssprint_r>
100037e0:	cc051ce3          	bnez	a0,100034b8 <_svfprintf_r+0xdec>
100037e4:	0ec12783          	lw	a5,236(sp)
100037e8:	0e812483          	lw	s1,232(sp)
100037ec:	10c10d93          	addi	s11,sp,268
100037f0:	cd0ff06f          	j	10002cc0 <_svfprintf_r+0x5f4>
100037f4:	cd205663          	blez	s2,10002cc0 <_svfprintf_r+0x5f4>
100037f8:	01000713          	li	a4,16
100037fc:	052758e3          	bge	a4,s2,1000404c <_svfprintf_r+0x1980>
10003800:	01000b93          	li	s7,16
10003804:	00700b13          	li	s6,7
10003808:	00c0006f          	j	10003814 <_svfprintf_r+0x1148>
1000380c:	ff090913          	addi	s2,s2,-16
10003810:	032bdee3          	bge	s7,s2,1000404c <_svfprintf_r+0x1980>
10003814:	00812703          	lw	a4,8(sp)
10003818:	01078793          	addi	a5,a5,16
1000381c:	00148493          	addi	s1,s1,1
10003820:	00eda023          	sw	a4,0(s11)
10003824:	017da223          	sw	s7,4(s11)
10003828:	0ef12623          	sw	a5,236(sp)
1000382c:	0e912423          	sw	s1,232(sp)
10003830:	008d8d93          	addi	s11,s11,8
10003834:	fc9b5ce3          	bge	s6,s1,1000380c <_svfprintf_r+0x1140>
10003838:	0e410613          	addi	a2,sp,228
1000383c:	000c0593          	mv	a1,s8
10003840:	000d0513          	mv	a0,s10
10003844:	255070ef          	jal	ra,1000b298 <__ssprint_r>
10003848:	c60518e3          	bnez	a0,100034b8 <_svfprintf_r+0xdec>
1000384c:	0ec12783          	lw	a5,236(sp)
10003850:	0e812483          	lw	s1,232(sp)
10003854:	10c10d93          	addi	s11,sp,268
10003858:	fb5ff06f          	j	1000380c <_svfprintf_r+0x1140>
1000385c:	01412703          	lw	a4,20(sp)
10003860:	010a7793          	andi	a5,s4,16
10003864:	00072d83          	lw	s11,0(a4)
10003868:	00470713          	addi	a4,a4,4
1000386c:	00e12a23          	sw	a4,20(sp)
10003870:	14079a63          	bnez	a5,100039c4 <_svfprintf_r+0x12f8>
10003874:	040a7793          	andi	a5,s4,64
10003878:	14078263          	beqz	a5,100039bc <_svfprintf_r+0x12f0>
1000387c:	010d9d93          	slli	s11,s11,0x10
10003880:	010ddd93          	srli	s11,s11,0x10
10003884:	00000913          	li	s2,0
10003888:	f24ff06f          	j	10002fac <_svfprintf_r+0x8e0>
1000388c:	01412703          	lw	a4,20(sp)
10003890:	010af793          	andi	a5,s5,16
10003894:	00072d83          	lw	s11,0(a4)
10003898:	00470713          	addi	a4,a4,4
1000389c:	00e12a23          	sw	a4,20(sp)
100038a0:	02079663          	bnez	a5,100038cc <_svfprintf_r+0x1200>
100038a4:	040af793          	andi	a5,s5,64
100038a8:	00078c63          	beqz	a5,100038c0 <_svfprintf_r+0x11f4>
100038ac:	010d9d93          	slli	s11,s11,0x10
100038b0:	010ddd93          	srli	s11,s11,0x10
100038b4:	00000913          	li	s2,0
100038b8:	00100793          	li	a5,1
100038bc:	e6cff06f          	j	10002f28 <_svfprintf_r+0x85c>
100038c0:	200af793          	andi	a5,s5,512
100038c4:	00078463          	beqz	a5,100038cc <_svfprintf_r+0x1200>
100038c8:	0ffdfd93          	zext.b	s11,s11
100038cc:	00000913          	li	s2,0
100038d0:	00100793          	li	a5,1
100038d4:	e54ff06f          	j	10002f28 <_svfprintf_r+0x85c>
100038d8:	01412703          	lw	a4,20(sp)
100038dc:	010a7793          	andi	a5,s4,16
100038e0:	00072d83          	lw	s11,0(a4)
100038e4:	00470713          	addi	a4,a4,4
100038e8:	00e12a23          	sw	a4,20(sp)
100038ec:	0c079263          	bnez	a5,100039b0 <_svfprintf_r+0x12e4>
100038f0:	040a7793          	andi	a5,s4,64
100038f4:	0a078a63          	beqz	a5,100039a8 <_svfprintf_r+0x12dc>
100038f8:	010d9d93          	slli	s11,s11,0x10
100038fc:	410ddd93          	srai	s11,s11,0x10
10003900:	41fdd913          	srai	s2,s11,0x1f
10003904:	00090793          	mv	a5,s2
10003908:	fa07de63          	bgez	a5,100030c4 <_svfprintf_r+0x9f8>
1000390c:	01b037b3          	snez	a5,s11
10003910:	41200933          	neg	s2,s2
10003914:	40f90933          	sub	s2,s2,a5
10003918:	41b00db3          	neg	s11,s11
1000391c:	000a0a93          	mv	s5,s4
10003920:	02d00693          	li	a3,45
10003924:	00100793          	li	a5,1
10003928:	e04ff06f          	j	10002f2c <_svfprintf_r+0x860>
1000392c:	0e410613          	addi	a2,sp,228
10003930:	000c0593          	mv	a1,s8
10003934:	000d0513          	mv	a0,s10
10003938:	161070ef          	jal	ra,1000b298 <__ssprint_r>
1000393c:	b6051ee3          	bnez	a0,100034b8 <_svfprintf_r+0xdec>
10003940:	0ec12783          	lw	a5,236(sp)
10003944:	0e812483          	lw	s1,232(sp)
10003948:	10c10d93          	addi	s11,sp,268
1000394c:	ad0ff06f          	j	10002c1c <_svfprintf_r+0x550>
10003950:	0e410613          	addi	a2,sp,228
10003954:	000c0593          	mv	a1,s8
10003958:	000d0513          	mv	a0,s10
1000395c:	13d070ef          	jal	ra,1000b298 <__ssprint_r>
10003960:	b4051ce3          	bnez	a0,100034b8 <_svfprintf_r+0xdec>
10003964:	0ec12783          	lw	a5,236(sp)
10003968:	0e812483          	lw	s1,232(sp)
1000396c:	10c10d93          	addi	s11,sp,268
10003970:	ad8ff06f          	j	10002c48 <_svfprintf_r+0x57c>
10003974:	001a7713          	andi	a4,s4,1
10003978:	00071463          	bnez	a4,10003980 <_svfprintf_r+0x12b4>
1000397c:	800ff06f          	j	1000297c <_svfprintf_r+0x2b0>
10003980:	8ddff06f          	j	1000325c <_svfprintf_r+0xb90>
10003984:	000d8313          	mv	t1,s11
10003988:	f10ff06f          	j	10003098 <_svfprintf_r+0x9cc>
1000398c:	00044483          	lbu	s1,0(s0)
10003990:	00f12a23          	sw	a5,20(sp)
10003994:	ea1fe06f          	j	10002834 <_svfprintf_r+0x168>
10003998:	03000793          	li	a5,48
1000399c:	1af107a3          	sb	a5,431(sp)
100039a0:	1af10b13          	addi	s6,sp,431
100039a4:	db4ff06f          	j	10002f58 <_svfprintf_r+0x88c>
100039a8:	200a7793          	andi	a5,s4,512
100039ac:	080790e3          	bnez	a5,1000422c <_svfprintf_r+0x1b60>
100039b0:	41fdd913          	srai	s2,s11,0x1f
100039b4:	00090793          	mv	a5,s2
100039b8:	f08ff06f          	j	100030c0 <_svfprintf_r+0x9f4>
100039bc:	200a7793          	andi	a5,s4,512
100039c0:	080790e3          	bnez	a5,10004240 <_svfprintf_r+0x1b74>
100039c4:	00000913          	li	s2,0
100039c8:	de4ff06f          	j	10002fac <_svfprintf_r+0x8e0>
100039cc:	00c12603          	lw	a2,12(sp)
100039d0:	0006a783          	lw	a5,0(a3)
100039d4:	00e12a23          	sw	a4,20(sp)
100039d8:	41f65693          	srai	a3,a2,0x1f
100039dc:	00c7a023          	sw	a2,0(a5)
100039e0:	00d7a223          	sw	a3,4(a5)
100039e4:	00040b13          	mv	s6,s0
100039e8:	fddfe06f          	j	100029c4 <_svfprintf_r+0x2f8>
100039ec:	01412703          	lw	a4,20(sp)
100039f0:	00072783          	lw	a5,0(a4)
100039f4:	00470713          	addi	a4,a4,4
100039f8:	00e12a23          	sw	a4,20(sp)
100039fc:	0007a603          	lw	a2,0(a5)
10003a00:	0047a683          	lw	a3,4(a5)
10003a04:	0087a703          	lw	a4,8(a5)
10003a08:	00c7a783          	lw	a5,12(a5)
10003a0c:	8e0ff06f          	j	10002aec <_svfprintf_r+0x420>
10003a10:	03c12783          	lw	a5,60(sp)
10003a14:	00044483          	lbu	s1,0(s0)
10003a18:	00079463          	bnez	a5,10003a20 <_svfprintf_r+0x1354>
10003a1c:	e19fe06f          	j	10002834 <_svfprintf_r+0x168>
10003a20:	0007c783          	lbu	a5,0(a5)
10003a24:	00079463          	bnez	a5,10003a2c <_svfprintf_r+0x1360>
10003a28:	e0dfe06f          	j	10002834 <_svfprintf_r+0x168>
10003a2c:	400a6a13          	ori	s4,s4,1024
10003a30:	e05fe06f          	j	10002834 <_svfprintf_r+0x168>
10003a34:	00068493          	mv	s1,a3
10003a38:	c09044e3          	bgtz	s1,10003640 <_svfprintf_r+0xf74>
10003a3c:	c2dff06f          	j	10003668 <_svfprintf_r+0xf9c>
10003a40:	000d8313          	mv	t1,s11
10003a44:	000a0a93          	mv	s5,s4
10003a48:	d8cff06f          	j	10002fd4 <_svfprintf_r+0x908>
10003a4c:	100147b7          	lui	a5,0x10014
10003a50:	03078793          	addi	a5,a5,48 # 10014030 <__clz_tab+0x114>
10003a54:	000d8313          	mv	t1,s11
10003a58:	02f12a23          	sw	a5,52(sp)
10003a5c:	020a7793          	andi	a5,s4,32
10003a60:	2a078863          	beqz	a5,10003d10 <_svfprintf_r+0x1644>
10003a64:	01412783          	lw	a5,20(sp)
10003a68:	00778b13          	addi	s6,a5,7
10003a6c:	ff8b7b13          	andi	s6,s6,-8
10003a70:	000b2d83          	lw	s11,0(s6)
10003a74:	004b2903          	lw	s2,4(s6)
10003a78:	008b0793          	addi	a5,s6,8
10003a7c:	00f12a23          	sw	a5,20(sp)
10003a80:	001a7793          	andi	a5,s4,1
10003a84:	00078e63          	beqz	a5,10003aa0 <_svfprintf_r+0x13d4>
10003a88:	012de7b3          	or	a5,s11,s2
10003a8c:	00078a63          	beqz	a5,10003aa0 <_svfprintf_r+0x13d4>
10003a90:	03000793          	li	a5,48
10003a94:	0cf10423          	sb	a5,200(sp)
10003a98:	0c9104a3          	sb	s1,201(sp)
10003a9c:	002a6a13          	ori	s4,s4,2
10003aa0:	bffa7a93          	andi	s5,s4,-1025
10003aa4:	00200793          	li	a5,2
10003aa8:	c80ff06f          	j	10002f28 <_svfprintf_r+0x85c>
10003aac:	00144483          	lbu	s1,1(s0)
10003ab0:	200a6a13          	ori	s4,s4,512
10003ab4:	00140413          	addi	s0,s0,1
10003ab8:	d7dfe06f          	j	10002834 <_svfprintf_r+0x168>
10003abc:	0e410613          	addi	a2,sp,228
10003ac0:	000c0593          	mv	a1,s8
10003ac4:	000d0513          	mv	a0,s10
10003ac8:	7d0070ef          	jal	ra,1000b298 <__ssprint_r>
10003acc:	9e0516e3          	bnez	a0,100034b8 <_svfprintf_r+0xdec>
10003ad0:	0ec12783          	lw	a5,236(sp)
10003ad4:	10c10c93          	addi	s9,sp,268
10003ad8:	fb4ff06f          	j	1000328c <_svfprintf_r+0xbc0>
10003adc:	00144483          	lbu	s1,1(s0)
10003ae0:	020a6a13          	ori	s4,s4,32
10003ae4:	00140413          	addi	s0,s0,1
10003ae8:	d4dfe06f          	j	10002834 <_svfprintf_r+0x168>
10003aec:	100147b7          	lui	a5,0x10014
10003af0:	04478793          	addi	a5,a5,68 # 10014044 <__clz_tab+0x128>
10003af4:	000d8313          	mv	t1,s11
10003af8:	02f12a23          	sw	a5,52(sp)
10003afc:	f61ff06f          	j	10003a5c <_svfprintf_r+0x1390>
10003b00:	000d8313          	mv	t1,s11
10003b04:	c84ff06f          	j	10002f88 <_svfprintf_r+0x8bc>
10003b08:	04000593          	li	a1,64
10003b0c:	000d0513          	mv	a0,s10
10003b10:	02c050ef          	jal	ra,10008b3c <_malloc_r>
10003b14:	00ac2023          	sw	a0,0(s8)
10003b18:	00ac2823          	sw	a0,16(s8)
10003b1c:	00051463          	bnez	a0,10003b24 <_svfprintf_r+0x1458>
10003b20:	3700106f          	j	10004e90 <_svfprintf_r+0x27c4>
10003b24:	04000793          	li	a5,64
10003b28:	00fc2a23          	sw	a5,20(s8)
10003b2c:	c29fe06f          	j	10002754 <_svfprintf_r+0x88>
10003b30:	000b0513          	mv	a0,s6
10003b34:	b0dfe0ef          	jal	ra,10002640 <strlen>
10003b38:	00050b93          	mv	s7,a0
10003b3c:	accff06f          	j	10002e08 <_svfprintf_r+0x73c>
10003b40:	01000693          	li	a3,16
10003b44:	0e812703          	lw	a4,232(sp)
10003b48:	5c96dc63          	bge	a3,s1,10004120 <_svfprintf_r+0x1a54>
10003b4c:	01000b93          	li	s7,16
10003b50:	00700d93          	li	s11,7
10003b54:	00c0006f          	j	10003b60 <_svfprintf_r+0x1494>
10003b58:	ff048493          	addi	s1,s1,-16
10003b5c:	5c9bd263          	bge	s7,s1,10004120 <_svfprintf_r+0x1a54>
10003b60:	00812683          	lw	a3,8(sp)
10003b64:	01078793          	addi	a5,a5,16
10003b68:	00170713          	addi	a4,a4,1
10003b6c:	00dca023          	sw	a3,0(s9)
10003b70:	017ca223          	sw	s7,4(s9)
10003b74:	0ef12623          	sw	a5,236(sp)
10003b78:	0ee12423          	sw	a4,232(sp)
10003b7c:	008c8c93          	addi	s9,s9,8
10003b80:	fceddce3          	bge	s11,a4,10003b58 <_svfprintf_r+0x148c>
10003b84:	0e410613          	addi	a2,sp,228
10003b88:	000c0593          	mv	a1,s8
10003b8c:	000d0513          	mv	a0,s10
10003b90:	708070ef          	jal	ra,1000b298 <__ssprint_r>
10003b94:	920512e3          	bnez	a0,100034b8 <_svfprintf_r+0xdec>
10003b98:	0ec12783          	lw	a5,236(sp)
10003b9c:	0e812703          	lw	a4,232(sp)
10003ba0:	10c10c93          	addi	s9,sp,268
10003ba4:	fb5ff06f          	j	10003b58 <_svfprintf_r+0x148c>
10003ba8:	02012703          	lw	a4,32(sp)
10003bac:	02412b83          	lw	s7,36(sp)
10003bb0:	00812e23          	sw	s0,28(sp)
10003bb4:	00eb0733          	add	a4,s6,a4
10003bb8:	05412023          	sw	s4,64(sp)
10003bbc:	05312623          	sw	s3,76(sp)
10003bc0:	03512223          	sw	s5,36(sp)
10003bc4:	02812983          	lw	s3,40(sp)
10003bc8:	03612423          	sw	s6,40(sp)
10003bcc:	03c12403          	lw	s0,60(sp)
10003bd0:	04412a03          	lw	s4,68(sp)
10003bd4:	04812a83          	lw	s5,72(sp)
10003bd8:	00700d93          	li	s11,7
10003bdc:	01000913          	li	s2,16
10003be0:	000c8693          	mv	a3,s9
10003be4:	00070b13          	mv	s6,a4
10003be8:	080b8663          	beqz	s7,10003c74 <_svfprintf_r+0x15a8>
10003bec:	08099663          	bnez	s3,10003c78 <_svfprintf_r+0x15ac>
10003bf0:	fff40413          	addi	s0,s0,-1
10003bf4:	fffb8b93          	addi	s7,s7,-1
10003bf8:	0e812703          	lw	a4,232(sp)
10003bfc:	014787b3          	add	a5,a5,s4
10003c00:	0156a023          	sw	s5,0(a3)
10003c04:	00170713          	addi	a4,a4,1
10003c08:	0146a223          	sw	s4,4(a3)
10003c0c:	0ef12623          	sw	a5,236(sp)
10003c10:	0ee12423          	sw	a4,232(sp)
10003c14:	00868693          	addi	a3,a3,8
10003c18:	12edcc63          	blt	s11,a4,10003d50 <_svfprintf_r+0x1684>
10003c1c:	00044603          	lbu	a2,0(s0)
10003c20:	409b0cb3          	sub	s9,s6,s1
10003c24:	01965463          	bge	a2,s9,10003c2c <_svfprintf_r+0x1560>
10003c28:	00060c93          	mv	s9,a2
10003c2c:	03905663          	blez	s9,10003c58 <_svfprintf_r+0x158c>
10003c30:	0e812603          	lw	a2,232(sp)
10003c34:	019787b3          	add	a5,a5,s9
10003c38:	0096a023          	sw	s1,0(a3)
10003c3c:	00160613          	addi	a2,a2,1
10003c40:	0196a223          	sw	s9,4(a3)
10003c44:	0ef12623          	sw	a5,236(sp)
10003c48:	0ec12423          	sw	a2,232(sp)
10003c4c:	30cdcc63          	blt	s11,a2,10003f64 <_svfprintf_r+0x1898>
10003c50:	00044603          	lbu	a2,0(s0)
10003c54:	00868693          	addi	a3,a3,8
10003c58:	fffcc513          	not	a0,s9
10003c5c:	41f55513          	srai	a0,a0,0x1f
10003c60:	00acf733          	and	a4,s9,a0
10003c64:	40e60cb3          	sub	s9,a2,a4
10003c68:	01904c63          	bgtz	s9,10003c80 <_svfprintf_r+0x15b4>
10003c6c:	00c484b3          	add	s1,s1,a2
10003c70:	f60b9ee3          	bnez	s7,10003bec <_svfprintf_r+0x1520>
10003c74:	3c0988e3          	beqz	s3,10004844 <_svfprintf_r+0x2178>
10003c78:	fff98993          	addi	s3,s3,-1
10003c7c:	f7dff06f          	j	10003bf8 <_svfprintf_r+0x152c>
10003c80:	0e812603          	lw	a2,232(sp)
10003c84:	01994863          	blt	s2,s9,10003c94 <_svfprintf_r+0x15c8>
10003c88:	0580006f          	j	10003ce0 <_svfprintf_r+0x1614>
10003c8c:	ff0c8c93          	addi	s9,s9,-16
10003c90:	05995863          	bge	s2,s9,10003ce0 <_svfprintf_r+0x1614>
10003c94:	00812703          	lw	a4,8(sp)
10003c98:	01078793          	addi	a5,a5,16
10003c9c:	00160613          	addi	a2,a2,1
10003ca0:	00e6a023          	sw	a4,0(a3)
10003ca4:	0126a223          	sw	s2,4(a3)
10003ca8:	0ef12623          	sw	a5,236(sp)
10003cac:	0ec12423          	sw	a2,232(sp)
10003cb0:	00868693          	addi	a3,a3,8
10003cb4:	fccddce3          	bge	s11,a2,10003c8c <_svfprintf_r+0x15c0>
10003cb8:	0e410613          	addi	a2,sp,228
10003cbc:	000c0593          	mv	a1,s8
10003cc0:	000d0513          	mv	a0,s10
10003cc4:	5d4070ef          	jal	ra,1000b298 <__ssprint_r>
10003cc8:	fe051863          	bnez	a0,100034b8 <_svfprintf_r+0xdec>
10003ccc:	ff0c8c93          	addi	s9,s9,-16
10003cd0:	0ec12783          	lw	a5,236(sp)
10003cd4:	0e812603          	lw	a2,232(sp)
10003cd8:	10c10693          	addi	a3,sp,268
10003cdc:	fb994ce3          	blt	s2,s9,10003c94 <_svfprintf_r+0x15c8>
10003ce0:	00812703          	lw	a4,8(sp)
10003ce4:	019787b3          	add	a5,a5,s9
10003ce8:	00160613          	addi	a2,a2,1
10003cec:	00e6a023          	sw	a4,0(a3)
10003cf0:	0196a223          	sw	s9,4(a3)
10003cf4:	0ef12623          	sw	a5,236(sp)
10003cf8:	0ec12423          	sw	a2,232(sp)
10003cfc:	42cdc0e3          	blt	s11,a2,1000491c <_svfprintf_r+0x2250>
10003d00:	00044603          	lbu	a2,0(s0)
10003d04:	00868693          	addi	a3,a3,8
10003d08:	00c484b3          	add	s1,s1,a2
10003d0c:	f65ff06f          	j	10003c70 <_svfprintf_r+0x15a4>
10003d10:	01412703          	lw	a4,20(sp)
10003d14:	010a7793          	andi	a5,s4,16
10003d18:	00072d83          	lw	s11,0(a4)
10003d1c:	00470713          	addi	a4,a4,4
10003d20:	00e12a23          	sw	a4,20(sp)
10003d24:	02079263          	bnez	a5,10003d48 <_svfprintf_r+0x167c>
10003d28:	040a7793          	andi	a5,s4,64
10003d2c:	00078a63          	beqz	a5,10003d40 <_svfprintf_r+0x1674>
10003d30:	010d9d93          	slli	s11,s11,0x10
10003d34:	010ddd93          	srli	s11,s11,0x10
10003d38:	00000913          	li	s2,0
10003d3c:	d45ff06f          	j	10003a80 <_svfprintf_r+0x13b4>
10003d40:	200a7793          	andi	a5,s4,512
10003d44:	4c079e63          	bnez	a5,10004220 <_svfprintf_r+0x1b54>
10003d48:	00000913          	li	s2,0
10003d4c:	d35ff06f          	j	10003a80 <_svfprintf_r+0x13b4>
10003d50:	0e410613          	addi	a2,sp,228
10003d54:	000c0593          	mv	a1,s8
10003d58:	000d0513          	mv	a0,s10
10003d5c:	53c070ef          	jal	ra,1000b298 <__ssprint_r>
10003d60:	f4051c63          	bnez	a0,100034b8 <_svfprintf_r+0xdec>
10003d64:	0ec12783          	lw	a5,236(sp)
10003d68:	10c10693          	addi	a3,sp,268
10003d6c:	eb1ff06f          	j	10003c1c <_svfprintf_r+0x1550>
10003d70:	1b010b13          	addi	s6,sp,432
10003d74:	00000793          	li	a5,0
10003d78:	00812823          	sw	s0,16(sp)
10003d7c:	00912e23          	sw	s1,28(sp)
10003d80:	000b0413          	mv	s0,s6
10003d84:	03312223          	sw	s3,36(sp)
10003d88:	000c0b13          	mv	s6,s8
10003d8c:	000d8493          	mv	s1,s11
10003d90:	00090993          	mv	s3,s2
10003d94:	03c12d83          	lw	s11,60(sp)
10003d98:	400afa13          	andi	s4,s5,1024
10003d9c:	0ff00b93          	li	s7,255
10003da0:	00030c13          	mv	s8,t1
10003da4:	00078913          	mv	s2,a5
10003da8:	0240006f          	j	10003dcc <_svfprintf_r+0x1700>
10003dac:	00a00613          	li	a2,10
10003db0:	00000693          	li	a3,0
10003db4:	00048513          	mv	a0,s1
10003db8:	00098593          	mv	a1,s3
10003dbc:	2e40b0ef          	jal	ra,1000f0a0 <__udivdi3>
10003dc0:	3e098463          	beqz	s3,100041a8 <_svfprintf_r+0x1adc>
10003dc4:	00050493          	mv	s1,a0
10003dc8:	00058993          	mv	s3,a1
10003dcc:	00a00613          	li	a2,10
10003dd0:	00000693          	li	a3,0
10003dd4:	00048513          	mv	a0,s1
10003dd8:	00098593          	mv	a1,s3
10003ddc:	0850b0ef          	jal	ra,1000f660 <__umoddi3>
10003de0:	03050513          	addi	a0,a0,48
10003de4:	fea40fa3          	sb	a0,-1(s0)
10003de8:	00190913          	addi	s2,s2,1
10003dec:	fff40413          	addi	s0,s0,-1
10003df0:	fa0a0ee3          	beqz	s4,10003dac <_svfprintf_r+0x16e0>
10003df4:	000dc683          	lbu	a3,0(s11)
10003df8:	fad91ae3          	bne	s2,a3,10003dac <_svfprintf_r+0x16e0>
10003dfc:	fb7908e3          	beq	s2,s7,10003dac <_svfprintf_r+0x16e0>
10003e00:	36099463          	bnez	s3,10004168 <_svfprintf_r+0x1a9c>
10003e04:	00900793          	li	a5,9
10003e08:	3697e063          	bltu	a5,s1,10004168 <_svfprintf_r+0x1a9c>
10003e0c:	000c0313          	mv	t1,s8
10003e10:	1b010793          	addi	a5,sp,432
10003e14:	000b0c13          	mv	s8,s6
10003e18:	00040b13          	mv	s6,s0
10003e1c:	01c12483          	lw	s1,28(sp)
10003e20:	02412983          	lw	s3,36(sp)
10003e24:	01012403          	lw	s0,16(sp)
10003e28:	03b12e23          	sw	s11,60(sp)
10003e2c:	03212023          	sw	s2,32(sp)
10003e30:	41678bb3          	sub	s7,a5,s6
10003e34:	000a8a13          	mv	s4,s5
10003e38:	920ff06f          	j	10002f58 <_svfprintf_r+0x88c>
10003e3c:	0e812703          	lw	a4,232(sp)
10003e40:	100146b7          	lui	a3,0x10014
10003e44:	06068693          	addi	a3,a3,96 # 10014060 <__clz_tab+0x144>
10003e48:	00dca023          	sw	a3,0(s9)
10003e4c:	00178793          	addi	a5,a5,1
10003e50:	00100693          	li	a3,1
10003e54:	00170713          	addi	a4,a4,1
10003e58:	00dca223          	sw	a3,4(s9)
10003e5c:	0ef12623          	sw	a5,236(sp)
10003e60:	0ee12423          	sw	a4,232(sp)
10003e64:	00700693          	li	a3,7
10003e68:	008c8c93          	addi	s9,s9,8
10003e6c:	06e6ce63          	blt	a3,a4,10003ee8 <_svfprintf_r+0x181c>
10003e70:	1e061863          	bnez	a2,10004060 <_svfprintf_r+0x1994>
10003e74:	02012683          	lw	a3,32(sp)
10003e78:	001a7713          	andi	a4,s4,1
10003e7c:	00d76733          	or	a4,a4,a3
10003e80:	00071463          	bnez	a4,10003e88 <_svfprintf_r+0x17bc>
10003e84:	af9fe06f          	j	1000297c <_svfprintf_r+0x2b0>
10003e88:	03012703          	lw	a4,48(sp)
10003e8c:	02c12683          	lw	a3,44(sp)
10003e90:	008c8893          	addi	a7,s9,8
10003e94:	00eca023          	sw	a4,0(s9)
10003e98:	0e812703          	lw	a4,232(sp)
10003e9c:	00f687b3          	add	a5,a3,a5
10003ea0:	00dca223          	sw	a3,4(s9)
10003ea4:	00170713          	addi	a4,a4,1
10003ea8:	0ef12623          	sw	a5,236(sp)
10003eac:	0ee12423          	sw	a4,232(sp)
10003eb0:	00700693          	li	a3,7
10003eb4:	60e6c263          	blt	a3,a4,100044b8 <_svfprintf_r+0x1dec>
10003eb8:	02012683          	lw	a3,32(sp)
10003ebc:	00170713          	addi	a4,a4,1
10003ec0:	0168a023          	sw	s6,0(a7)
10003ec4:	00f687b3          	add	a5,a3,a5
10003ec8:	00d8a223          	sw	a3,4(a7)
10003ecc:	0ef12623          	sw	a5,236(sp)
10003ed0:	0ee12423          	sw	a4,232(sp)
10003ed4:	00700693          	li	a3,7
10003ed8:	00888c93          	addi	s9,a7,8
10003edc:	00e6c463          	blt	a3,a4,10003ee4 <_svfprintf_r+0x1818>
10003ee0:	a9dfe06f          	j	1000297c <_svfprintf_r+0x2b0>
10003ee4:	e09fe06f          	j	10002cec <_svfprintf_r+0x620>
10003ee8:	0e410613          	addi	a2,sp,228
10003eec:	000c0593          	mv	a1,s8
10003ef0:	000d0513          	mv	a0,s10
10003ef4:	3a4070ef          	jal	ra,1000b298 <__ssprint_r>
10003ef8:	dc051063          	bnez	a0,100034b8 <_svfprintf_r+0xdec>
10003efc:	0cc12603          	lw	a2,204(sp)
10003f00:	0ec12783          	lw	a5,236(sp)
10003f04:	10c10c93          	addi	s9,sp,268
10003f08:	f69ff06f          	j	10003e70 <_svfprintf_r+0x17a4>
10003f0c:	00040d13          	mv	s10,s0
10003f10:	00048c13          	mv	s8,s1
10003f14:	da4ff06f          	j	100034b8 <_svfprintf_r+0xdec>
10003f18:	0e410613          	addi	a2,sp,228
10003f1c:	000c0593          	mv	a1,s8
10003f20:	000d0513          	mv	a0,s10
10003f24:	374070ef          	jal	ra,1000b298 <__ssprint_r>
10003f28:	d8051863          	bnez	a0,100034b8 <_svfprintf_r+0xdec>
10003f2c:	0ec12783          	lw	a5,236(sp)
10003f30:	10c10c93          	addi	s9,sp,268
10003f34:	b1cff06f          	j	10003250 <_svfprintf_r+0xb84>
10003f38:	00812683          	lw	a3,8(sp)
10003f3c:	009787b3          	add	a5,a5,s1
10003f40:	009ca223          	sw	s1,4(s9)
10003f44:	00dca023          	sw	a3,0(s9)
10003f48:	00170713          	addi	a4,a4,1
10003f4c:	0ef12623          	sw	a5,236(sp)
10003f50:	0ee12423          	sw	a4,232(sp)
10003f54:	00700693          	li	a3,7
10003f58:	00e6c463          	blt	a3,a4,10003f60 <_svfprintf_r+0x1894>
10003f5c:	a1dfe06f          	j	10002978 <_svfprintf_r+0x2ac>
10003f60:	d8dfe06f          	j	10002cec <_svfprintf_r+0x620>
10003f64:	0e410613          	addi	a2,sp,228
10003f68:	000c0593          	mv	a1,s8
10003f6c:	000d0513          	mv	a0,s10
10003f70:	328070ef          	jal	ra,1000b298 <__ssprint_r>
10003f74:	d4051263          	bnez	a0,100034b8 <_svfprintf_r+0xdec>
10003f78:	00044603          	lbu	a2,0(s0)
10003f7c:	0ec12783          	lw	a5,236(sp)
10003f80:	10c10693          	addi	a3,sp,268
10003f84:	cd5ff06f          	j	10003c58 <_svfprintf_r+0x158c>
10003f88:	00040c13          	mv	s8,s0
10003f8c:	d2cff06f          	j	100034b8 <_svfprintf_r+0xdec>
10003f90:	0f012783          	lw	a5,240(sp)
10003f94:	0a010593          	addi	a1,sp,160
10003f98:	0b010513          	addi	a0,sp,176
10003f9c:	0af12823          	sw	a5,176(sp)
10003fa0:	0f412783          	lw	a5,244(sp)
10003fa4:	0a012023          	sw	zero,160(sp)
10003fa8:	0a012223          	sw	zero,164(sp)
10003fac:	0af12a23          	sw	a5,180(sp)
10003fb0:	0f812783          	lw	a5,248(sp)
10003fb4:	0a012423          	sw	zero,168(sp)
10003fb8:	0a012623          	sw	zero,172(sp)
10003fbc:	0af12c23          	sw	a5,184(sp)
10003fc0:	0fc12783          	lw	a5,252(sp)
10003fc4:	0af12e23          	sw	a5,188(sp)
10003fc8:	4250c0ef          	jal	ra,10010bec <__letf2>
10003fcc:	320540e3          	bltz	a0,10004aec <_svfprintf_r+0x2420>
10003fd0:	0c714783          	lbu	a5,199(sp)
10003fd4:	04700713          	li	a4,71
10003fd8:	1c975e63          	bge	a4,s1,100041b4 <_svfprintf_r+0x1ae8>
10003fdc:	10014837          	lui	a6,0x10014
10003fe0:	02480b13          	addi	s6,a6,36 # 10014024 <__clz_tab+0x108>
10003fe4:	00012823          	sw	zero,16(sp)
10003fe8:	02012423          	sw	zero,40(sp)
10003fec:	02012223          	sw	zero,36(sp)
10003ff0:	00012e23          	sw	zero,28(sp)
10003ff4:	f7fa7a13          	andi	s4,s4,-129
10003ff8:	00300a93          	li	s5,3
10003ffc:	00300b93          	li	s7,3
10004000:	00000313          	li	t1,0
10004004:	00078463          	beqz	a5,1000400c <_svfprintf_r+0x1940>
10004008:	e2dfe06f          	j	10002e34 <_svfprintf_r+0x768>
1000400c:	8a5fe06f          	j	100028b0 <_svfprintf_r+0x1e4>
10004010:	01412783          	lw	a5,20(sp)
10004014:	00040b13          	mv	s6,s0
10004018:	0007a783          	lw	a5,0(a5)
1000401c:	00e12a23          	sw	a4,20(sp)
10004020:	00c12703          	lw	a4,12(sp)
10004024:	00e7a023          	sw	a4,0(a5)
10004028:	99dfe06f          	j	100029c4 <_svfprintf_r+0x2f8>
1000402c:	00600793          	li	a5,6
10004030:	000d8b93          	mv	s7,s11
10004034:	1bb7e663          	bltu	a5,s11,100041e0 <_svfprintf_r+0x1b14>
10004038:	10014837          	lui	a6,0x10014
1000403c:	000b8a93          	mv	s5,s7
10004040:	01212a23          	sw	s2,20(sp)
10004044:	05880b13          	addi	s6,a6,88 # 10014058 <__clz_tab+0x13c>
10004048:	855fe06f          	j	1000289c <_svfprintf_r+0x1d0>
1000404c:	00812703          	lw	a4,8(sp)
10004050:	012787b3          	add	a5,a5,s2
10004054:	00148493          	addi	s1,s1,1
10004058:	00eda023          	sw	a4,0(s11)
1000405c:	c4dfe06f          	j	10002ca8 <_svfprintf_r+0x5dc>
10004060:	03012703          	lw	a4,48(sp)
10004064:	02c12683          	lw	a3,44(sp)
10004068:	008c8893          	addi	a7,s9,8
1000406c:	00eca023          	sw	a4,0(s9)
10004070:	0e812703          	lw	a4,232(sp)
10004074:	00f687b3          	add	a5,a3,a5
10004078:	00dca223          	sw	a3,4(s9)
1000407c:	00170713          	addi	a4,a4,1
10004080:	0ef12623          	sw	a5,236(sp)
10004084:	0ee12423          	sw	a4,232(sp)
10004088:	00700693          	li	a3,7
1000408c:	42e6c663          	blt	a3,a4,100044b8 <_svfprintf_r+0x1dec>
10004090:	e20654e3          	bgez	a2,10003eb8 <_svfprintf_r+0x17ec>
10004094:	ff000693          	li	a3,-16
10004098:	40c004b3          	neg	s1,a2
1000409c:	3ed658e3          	bge	a2,a3,10004c8c <_svfprintf_r+0x25c0>
100040a0:	01000913          	li	s2,16
100040a4:	00700b93          	li	s7,7
100040a8:	00c0006f          	j	100040b4 <_svfprintf_r+0x19e8>
100040ac:	ff048493          	addi	s1,s1,-16
100040b0:	3c995ee3          	bge	s2,s1,10004c8c <_svfprintf_r+0x25c0>
100040b4:	00812683          	lw	a3,8(sp)
100040b8:	01078793          	addi	a5,a5,16
100040bc:	00170713          	addi	a4,a4,1
100040c0:	00d8a023          	sw	a3,0(a7)
100040c4:	0128a223          	sw	s2,4(a7)
100040c8:	0ef12623          	sw	a5,236(sp)
100040cc:	0ee12423          	sw	a4,232(sp)
100040d0:	00888893          	addi	a7,a7,8
100040d4:	fcebdce3          	bge	s7,a4,100040ac <_svfprintf_r+0x19e0>
100040d8:	0e410613          	addi	a2,sp,228
100040dc:	000c0593          	mv	a1,s8
100040e0:	000d0513          	mv	a0,s10
100040e4:	1b4070ef          	jal	ra,1000b298 <__ssprint_r>
100040e8:	bc051863          	bnez	a0,100034b8 <_svfprintf_r+0xdec>
100040ec:	0ec12783          	lw	a5,236(sp)
100040f0:	0e812703          	lw	a4,232(sp)
100040f4:	10c10893          	addi	a7,sp,268
100040f8:	fb5ff06f          	j	100040ac <_svfprintf_r+0x19e0>
100040fc:	0fc12783          	lw	a5,252(sp)
10004100:	3a07d863          	bgez	a5,100044b0 <_svfprintf_r+0x1de4>
10004104:	02d00793          	li	a5,45
10004108:	0cf103a3          	sb	a5,199(sp)
1000410c:	04700713          	li	a4,71
10004110:	229750e3          	bge	a4,s1,10004b30 <_svfprintf_r+0x2464>
10004114:	10014837          	lui	a6,0x10014
10004118:	02c80b13          	addi	s6,a6,44 # 1001402c <__clz_tab+0x110>
1000411c:	ec9ff06f          	j	10003fe4 <_svfprintf_r+0x1918>
10004120:	00812683          	lw	a3,8(sp)
10004124:	009787b3          	add	a5,a5,s1
10004128:	00170713          	addi	a4,a4,1
1000412c:	00dca023          	sw	a3,0(s9)
10004130:	009ca223          	sw	s1,4(s9)
10004134:	0ef12623          	sw	a5,236(sp)
10004138:	0ee12423          	sw	a4,232(sp)
1000413c:	00700693          	li	a3,7
10004140:	008c8c93          	addi	s9,s9,8
10004144:	d2e6de63          	bge	a3,a4,10003680 <_svfprintf_r+0xfb4>
10004148:	0e410613          	addi	a2,sp,228
1000414c:	000c0593          	mv	a1,s8
10004150:	000d0513          	mv	a0,s10
10004154:	144070ef          	jal	ra,1000b298 <__ssprint_r>
10004158:	b6051063          	bnez	a0,100034b8 <_svfprintf_r+0xdec>
1000415c:	0ec12783          	lw	a5,236(sp)
10004160:	10c10c93          	addi	s9,sp,268
10004164:	d1cff06f          	j	10003680 <_svfprintf_r+0xfb4>
10004168:	04412783          	lw	a5,68(sp)
1000416c:	04812583          	lw	a1,72(sp)
10004170:	00000913          	li	s2,0
10004174:	40f40433          	sub	s0,s0,a5
10004178:	00078613          	mv	a2,a5
1000417c:	00040513          	mv	a0,s0
10004180:	070070ef          	jal	ra,1000b1f0 <strncpy>
10004184:	001dc583          	lbu	a1,1(s11)
10004188:	00a00613          	li	a2,10
1000418c:	00000693          	li	a3,0
10004190:	00b03833          	snez	a6,a1
10004194:	00048513          	mv	a0,s1
10004198:	00098593          	mv	a1,s3
1000419c:	010d8db3          	add	s11,s11,a6
100041a0:	7010a0ef          	jal	ra,1000f0a0 <__udivdi3>
100041a4:	c21ff06f          	j	10003dc4 <_svfprintf_r+0x16f8>
100041a8:	00900793          	li	a5,9
100041ac:	c097ece3          	bltu	a5,s1,10003dc4 <_svfprintf_r+0x16f8>
100041b0:	c5dff06f          	j	10003e0c <_svfprintf_r+0x1740>
100041b4:	10014837          	lui	a6,0x10014
100041b8:	02080b13          	addi	s6,a6,32 # 10014020 <__clz_tab+0x104>
100041bc:	e29ff06f          	j	10003fe4 <_svfprintf_r+0x1918>
100041c0:	0e410613          	addi	a2,sp,228
100041c4:	000c0593          	mv	a1,s8
100041c8:	000d0513          	mv	a0,s10
100041cc:	0cc070ef          	jal	ra,1000b298 <__ssprint_r>
100041d0:	ae051463          	bnez	a0,100034b8 <_svfprintf_r+0xdec>
100041d4:	0ec12783          	lw	a5,236(sp)
100041d8:	10c10c93          	addi	s9,sp,268
100041dc:	c8cff06f          	j	10003668 <_svfprintf_r+0xf9c>
100041e0:	00600b93          	li	s7,6
100041e4:	e55ff06f          	j	10004038 <_svfprintf_r+0x196c>
100041e8:	02012703          	lw	a4,32(sp)
100041ec:	00eb0833          	add	a6,s6,a4
100041f0:	40d70633          	sub	a2,a4,a3
100041f4:	40980933          	sub	s2,a6,s1
100041f8:	d3265463          	bge	a2,s2,10003720 <_svfprintf_r+0x1054>
100041fc:	00060913          	mv	s2,a2
10004200:	d20ff06f          	j	10003720 <_svfprintf_r+0x1054>
10004204:	01412783          	lw	a5,20(sp)
10004208:	00e12a23          	sw	a4,20(sp)
1000420c:	00c12703          	lw	a4,12(sp)
10004210:	0007a783          	lw	a5,0(a5)
10004214:	00040b13          	mv	s6,s0
10004218:	00e79023          	sh	a4,0(a5)
1000421c:	fa8fe06f          	j	100029c4 <_svfprintf_r+0x2f8>
10004220:	0ffdfd93          	zext.b	s11,s11
10004224:	00000913          	li	s2,0
10004228:	859ff06f          	j	10003a80 <_svfprintf_r+0x13b4>
1000422c:	018d9d93          	slli	s11,s11,0x18
10004230:	418ddd93          	srai	s11,s11,0x18
10004234:	41fdd913          	srai	s2,s11,0x1f
10004238:	00090793          	mv	a5,s2
1000423c:	e85fe06f          	j	100030c0 <_svfprintf_r+0x9f4>
10004240:	0ffdfd93          	zext.b	s11,s11
10004244:	00000913          	li	s2,0
10004248:	d65fe06f          	j	10002fac <_svfprintf_r+0x8e0>
1000424c:	00030693          	mv	a3,t1
10004250:	00200613          	li	a2,2
10004254:	0b010a93          	addi	s5,sp,176
10004258:	0d010793          	addi	a5,sp,208
1000425c:	0cc10713          	addi	a4,sp,204
10004260:	0dc10813          	addi	a6,sp,220
10004264:	000a8593          	mv	a1,s5
10004268:	000d0513          	mv	a0,s10
1000426c:	04612823          	sw	t1,80(sp)
10004270:	04d12623          	sw	a3,76(sp)
10004274:	0bc12823          	sw	t3,176(sp)
10004278:	03c12223          	sw	t3,36(sp)
1000427c:	0bd12a23          	sw	t4,180(sp)
10004280:	03d12023          	sw	t4,32(sp)
10004284:	0be12c23          	sw	t5,184(sp)
10004288:	01e12e23          	sw	t5,28(sp)
1000428c:	0bb12e23          	sw	s11,188(sp)
10004290:	478030ef          	jal	ra,10007708 <_ldtoa_r>
10004294:	02812703          	lw	a4,40(sp)
10004298:	04700793          	li	a5,71
1000429c:	01c12f03          	lw	t5,28(sp)
100042a0:	02012e83          	lw	t4,32(sp)
100042a4:	02412e03          	lw	t3,36(sp)
100042a8:	04c12683          	lw	a3,76(sp)
100042ac:	05012303          	lw	t1,80(sp)
100042b0:	00050b13          	mv	s6,a0
100042b4:	64f70863          	beq	a4,a5,10004904 <_svfprintf_r+0x2238>
100042b8:	04600793          	li	a5,70
100042bc:	00d50933          	add	s2,a0,a3
100042c0:	06f71ee3          	bne	a4,a5,10004b3c <_svfprintf_r+0x2470>
100042c4:	00054703          	lbu	a4,0(a0)
100042c8:	03000793          	li	a5,48
100042cc:	2ef700e3          	beq	a4,a5,10004dac <_svfprintf_r+0x26e0>
100042d0:	0a010b93          	addi	s7,sp,160
100042d4:	0cc12783          	lw	a5,204(sp)
100042d8:	00f90933          	add	s2,s2,a5
100042dc:	000b8593          	mv	a1,s7
100042e0:	000a8513          	mv	a0,s5
100042e4:	00612e23          	sw	t1,28(sp)
100042e8:	0bc12823          	sw	t3,176(sp)
100042ec:	0bd12a23          	sw	t4,180(sp)
100042f0:	0be12c23          	sw	t5,184(sp)
100042f4:	0bb12e23          	sw	s11,188(sp)
100042f8:	0a012023          	sw	zero,160(sp)
100042fc:	0a012223          	sw	zero,164(sp)
10004300:	0a012423          	sw	zero,168(sp)
10004304:	0a012623          	sw	zero,172(sp)
10004308:	6d40c0ef          	jal	ra,100109dc <__eqtf2>
1000430c:	01c12303          	lw	t1,28(sp)
10004310:	00090693          	mv	a3,s2
10004314:	02050263          	beqz	a0,10004338 <_svfprintf_r+0x1c6c>
10004318:	0dc12683          	lw	a3,220(sp)
1000431c:	0126fe63          	bgeu	a3,s2,10004338 <_svfprintf_r+0x1c6c>
10004320:	03000713          	li	a4,48
10004324:	00168793          	addi	a5,a3,1
10004328:	0cf12e23          	sw	a5,220(sp)
1000432c:	00e68023          	sb	a4,0(a3)
10004330:	0dc12683          	lw	a3,220(sp)
10004334:	ff26e8e3          	bltu	a3,s2,10004324 <_svfprintf_r+0x1c58>
10004338:	416687b3          	sub	a5,a3,s6
1000433c:	02f12023          	sw	a5,32(sp)
10004340:	0cc12703          	lw	a4,204(sp)
10004344:	04700793          	li	a5,71
10004348:	00e12e23          	sw	a4,28(sp)
1000434c:	02812703          	lw	a4,40(sp)
10004350:	52f70463          	beq	a4,a5,10004878 <_svfprintf_r+0x21ac>
10004354:	02812703          	lw	a4,40(sp)
10004358:	04600793          	li	a5,70
1000435c:	02f700e3          	beq	a4,a5,10004b7c <_svfprintf_r+0x24b0>
10004360:	01c12783          	lw	a5,28(sp)
10004364:	02812603          	lw	a2,40(sp)
10004368:	04100693          	li	a3,65
1000436c:	fff78b93          	addi	s7,a5,-1
10004370:	0d712623          	sw	s7,204(sp)
10004374:	0ff4f793          	zext.b	a5,s1
10004378:	00000713          	li	a4,0
1000437c:	00d61863          	bne	a2,a3,1000438c <_svfprintf_r+0x1cc0>
10004380:	00f78793          	addi	a5,a5,15
10004384:	0ff7f793          	zext.b	a5,a5
10004388:	00100713          	li	a4,1
1000438c:	0cf10a23          	sb	a5,212(sp)
10004390:	02b00793          	li	a5,43
10004394:	000bda63          	bgez	s7,100043a8 <_svfprintf_r+0x1cdc>
10004398:	01c12783          	lw	a5,28(sp)
1000439c:	00100b93          	li	s7,1
100043a0:	40fb8bb3          	sub	s7,s7,a5
100043a4:	02d00793          	li	a5,45
100043a8:	0cf10aa3          	sb	a5,213(sp)
100043ac:	00900793          	li	a5,9
100043b0:	0b77d6e3          	bge	a5,s7,10004c5c <_svfprintf_r+0x2590>
100043b4:	0e310a13          	addi	s4,sp,227
100043b8:	000a0913          	mv	s2,s4
100043bc:	00a00593          	li	a1,10
100043c0:	000b8513          	mv	a0,s7
100043c4:	2a10f0ef          	jal	ra,10013e64 <__modsi3>
100043c8:	03050793          	addi	a5,a0,48
100043cc:	fef90fa3          	sb	a5,-1(s2)
100043d0:	000b8513          	mv	a0,s7
100043d4:	00a00593          	li	a1,10
100043d8:	2090f0ef          	jal	ra,10013de0 <__divsi3>
100043dc:	000b8a93          	mv	s5,s7
100043e0:	06300793          	li	a5,99
100043e4:	00090d93          	mv	s11,s2
100043e8:	00050b93          	mv	s7,a0
100043ec:	fff90913          	addi	s2,s2,-1
100043f0:	fd57c6e3          	blt	a5,s5,100043bc <_svfprintf_r+0x1cf0>
100043f4:	03050693          	addi	a3,a0,48
100043f8:	0ff6f693          	zext.b	a3,a3
100043fc:	ffed8793          	addi	a5,s11,-2
10004400:	fed90fa3          	sb	a3,-1(s2)
10004404:	2947f0e3          	bgeu	a5,s4,10004e84 <_svfprintf_r+0x27b8>
10004408:	0d610713          	addi	a4,sp,214
1000440c:	0080006f          	j	10004414 <_svfprintf_r+0x1d48>
10004410:	0007c683          	lbu	a3,0(a5)
10004414:	00d70023          	sb	a3,0(a4)
10004418:	00178793          	addi	a5,a5,1
1000441c:	00170713          	addi	a4,a4,1
10004420:	ff4798e3          	bne	a5,s4,10004410 <_svfprintf_r+0x1d44>
10004424:	0e510793          	addi	a5,sp,229
10004428:	0d610713          	addi	a4,sp,214
1000442c:	41b787b3          	sub	a5,a5,s11
10004430:	00f707b3          	add	a5,a4,a5
10004434:	0d410713          	addi	a4,sp,212
10004438:	40e787b3          	sub	a5,a5,a4
1000443c:	02f12c23          	sw	a5,56(sp)
10004440:	02012703          	lw	a4,32(sp)
10004444:	03812683          	lw	a3,56(sp)
10004448:	00100793          	li	a5,1
1000444c:	00d70bb3          	add	s7,a4,a3
10004450:	0ce7d6e3          	bge	a5,a4,10004d1c <_svfprintf_r+0x2650>
10004454:	02c12783          	lw	a5,44(sp)
10004458:	00fb8bb3          	add	s7,s7,a5
1000445c:	04012783          	lw	a5,64(sp)
10004460:	fffbca93          	not	s5,s7
10004464:	41fada93          	srai	s5,s5,0x1f
10004468:	bff7fa13          	andi	s4,a5,-1025
1000446c:	100a6a13          	ori	s4,s4,256
10004470:	015bfab3          	and	s5,s7,s5
10004474:	02012423          	sw	zero,40(sp)
10004478:	02012223          	sw	zero,36(sp)
1000447c:	00012e23          	sw	zero,28(sp)
10004480:	05812783          	lw	a5,88(sp)
10004484:	40078a63          	beqz	a5,10004898 <_svfprintf_r+0x21cc>
10004488:	02d00793          	li	a5,45
1000448c:	0cf103a3          	sb	a5,199(sp)
10004490:	00000313          	li	t1,0
10004494:	001a8a93          	addi	s5,s5,1
10004498:	c18fe06f          	j	100028b0 <_svfprintf_r+0x1e4>
1000449c:	0e410613          	addi	a2,sp,228
100044a0:	000c0593          	mv	a1,s8
100044a4:	000d0513          	mv	a0,s10
100044a8:	5f1060ef          	jal	ra,1000b298 <__ssprint_r>
100044ac:	d2cfe06f          	j	100029d8 <_svfprintf_r+0x30c>
100044b0:	0c714783          	lbu	a5,199(sp)
100044b4:	c59ff06f          	j	1000410c <_svfprintf_r+0x1a40>
100044b8:	0e410613          	addi	a2,sp,228
100044bc:	000c0593          	mv	a1,s8
100044c0:	000d0513          	mv	a0,s10
100044c4:	5d5060ef          	jal	ra,1000b298 <__ssprint_r>
100044c8:	00050463          	beqz	a0,100044d0 <_svfprintf_r+0x1e04>
100044cc:	fedfe06f          	j	100034b8 <_svfprintf_r+0xdec>
100044d0:	0cc12603          	lw	a2,204(sp)
100044d4:	0ec12783          	lw	a5,236(sp)
100044d8:	0e812703          	lw	a4,232(sp)
100044dc:	10c10893          	addi	a7,sp,268
100044e0:	9c065ce3          	bgez	a2,10003eb8 <_svfprintf_r+0x17ec>
100044e4:	bb1ff06f          	j	10004094 <_svfprintf_r+0x19c8>
100044e8:	00600313          	li	t1,6
100044ec:	e74fe06f          	j	10002b60 <_svfprintf_r+0x494>
100044f0:	00130693          	addi	a3,t1,1 # 80000001 <_sp+0x6ffd7a95>
100044f4:	00200613          	li	a2,2
100044f8:	d5dff06f          	j	10004254 <_svfprintf_r+0x1b88>
100044fc:	00030693          	mv	a3,t1
10004500:	00300613          	li	a2,3
10004504:	d51ff06f          	j	10004254 <_svfprintf_r+0x1b88>
10004508:	0b010a93          	addi	s5,sp,176
1000450c:	000a8513          	mv	a0,s5
10004510:	04612e23          	sw	t1,92(sp)
10004514:	0bc12823          	sw	t3,176(sp)
10004518:	0bd12a23          	sw	t4,180(sp)
1000451c:	0be12c23          	sw	t5,184(sp)
10004520:	0bb12e23          	sw	s11,188(sp)
10004524:	54c0f0ef          	jal	ra,10013a70 <__trunctfdf2>
10004528:	0cc10613          	addi	a2,sp,204
1000452c:	091060ef          	jal	ra,1000adbc <frexp>
10004530:	00058613          	mv	a2,a1
10004534:	00050593          	mv	a1,a0
10004538:	000a8513          	mv	a0,s5
1000453c:	33c0f0ef          	jal	ra,10013878 <__extenddftf2>
10004540:	09010793          	addi	a5,sp,144
10004544:	00078593          	mv	a1,a5
10004548:	00f12e23          	sw	a5,28(sp)
1000454c:	0b012783          	lw	a5,176(sp)
10004550:	0a010b93          	addi	s7,sp,160
10004554:	08010613          	addi	a2,sp,128
10004558:	08f12823          	sw	a5,144(sp)
1000455c:	0b412783          	lw	a5,180(sp)
10004560:	000b8513          	mv	a0,s7
10004564:	04c12623          	sw	a2,76(sp)
10004568:	08f12a23          	sw	a5,148(sp)
1000456c:	0b812783          	lw	a5,184(sp)
10004570:	08012023          	sw	zero,128(sp)
10004574:	08012223          	sw	zero,132(sp)
10004578:	08f12c23          	sw	a5,152(sp)
1000457c:	0bc12783          	lw	a5,188(sp)
10004580:	08012423          	sw	zero,136(sp)
10004584:	08f12e23          	sw	a5,156(sp)
10004588:	3ffc07b7          	lui	a5,0x3ffc0
1000458c:	08f12623          	sw	a5,140(sp)
10004590:	7a00c0ef          	jal	ra,10010d30 <__multf3>
10004594:	0a012683          	lw	a3,160(sp)
10004598:	0a412e03          	lw	t3,164(sp)
1000459c:	0a812e83          	lw	t4,168(sp)
100045a0:	0ac12f03          	lw	t5,172(sp)
100045a4:	000b8593          	mv	a1,s7
100045a8:	000a8513          	mv	a0,s5
100045ac:	0ad12823          	sw	a3,176(sp)
100045b0:	04d12a23          	sw	a3,84(sp)
100045b4:	0bc12a23          	sw	t3,180(sp)
100045b8:	05c12823          	sw	t3,80(sp)
100045bc:	0bd12c23          	sw	t4,184(sp)
100045c0:	03d12223          	sw	t4,36(sp)
100045c4:	0be12e23          	sw	t5,188(sp)
100045c8:	03e12023          	sw	t5,32(sp)
100045cc:	0a012023          	sw	zero,160(sp)
100045d0:	0a012223          	sw	zero,164(sp)
100045d4:	0a012423          	sw	zero,168(sp)
100045d8:	0a012623          	sw	zero,172(sp)
100045dc:	4000c0ef          	jal	ra,100109dc <__eqtf2>
100045e0:	02012f03          	lw	t5,32(sp)
100045e4:	02412e83          	lw	t4,36(sp)
100045e8:	05012e03          	lw	t3,80(sp)
100045ec:	05412683          	lw	a3,84(sp)
100045f0:	05c12303          	lw	t1,92(sp)
100045f4:	00051663          	bnez	a0,10004600 <_svfprintf_r+0x1f34>
100045f8:	00100793          	li	a5,1
100045fc:	0cf12623          	sw	a5,204(sp)
10004600:	100147b7          	lui	a5,0x10014
10004604:	04478793          	addi	a5,a5,68 # 10014044 <__clz_tab+0x128>
10004608:	02f12223          	sw	a5,36(sp)
1000460c:	fff30913          	addi	s2,t1,-1
10004610:	06912023          	sw	s1,96(sp)
10004614:	07312423          	sw	s3,104(sp)
10004618:	07912823          	sw	s9,112(sp)
1000461c:	07a12a23          	sw	s10,116(sp)
10004620:	07812c23          	sw	s8,120(sp)
10004624:	01c12483          	lw	s1,28(sp)
10004628:	00090c13          	mv	s8,s2
1000462c:	04812e23          	sw	s0,92(sp)
10004630:	07412223          	sw	s4,100(sp)
10004634:	06612623          	sw	t1,108(sp)
10004638:	000b0c93          	mv	s9,s6
1000463c:	07612e23          	sw	s6,124(sp)
10004640:	00068d13          	mv	s10,a3
10004644:	000e0d93          	mv	s11,t3
10004648:	000e8913          	mv	s2,t4
1000464c:	000f0993          	mv	s3,t5
10004650:	0480006f          	j	10004698 <_svfprintf_r+0x1fcc>
10004654:	000b8593          	mv	a1,s7
10004658:	000a8513          	mv	a0,s5
1000465c:	02c12023          	sw	a2,32(sp)
10004660:	01f12e23          	sw	t6,28(sp)
10004664:	0bf12c23          	sw	t6,184(sp)
10004668:	0ac12e23          	sw	a2,188(sp)
1000466c:	0b612823          	sw	s6,176(sp)
10004670:	0b412a23          	sw	s4,180(sp)
10004674:	0a012023          	sw	zero,160(sp)
10004678:	0a012223          	sw	zero,164(sp)
1000467c:	0a012423          	sw	zero,168(sp)
10004680:	0a012623          	sw	zero,172(sp)
10004684:	3580c0ef          	jal	ra,100109dc <__eqtf2>
10004688:	fffc0c13          	addi	s8,s8,-1
1000468c:	00090f93          	mv	t6,s2
10004690:	00098613          	mv	a2,s3
10004694:	0e050263          	beqz	a0,10004778 <_svfprintf_r+0x20ac>
10004698:	400307b7          	lui	a5,0x40030
1000469c:	00048613          	mv	a2,s1
100046a0:	000b8593          	mv	a1,s7
100046a4:	000a8513          	mv	a0,s5
100046a8:	08f12e23          	sw	a5,156(sp)
100046ac:	0ba12023          	sw	s10,160(sp)
100046b0:	0bb12223          	sw	s11,164(sp)
100046b4:	0b212423          	sw	s2,168(sp)
100046b8:	0b312623          	sw	s3,172(sp)
100046bc:	08012823          	sw	zero,144(sp)
100046c0:	08012a23          	sw	zero,148(sp)
100046c4:	08012c23          	sw	zero,152(sp)
100046c8:	6680c0ef          	jal	ra,10010d30 <__multf3>
100046cc:	000a8513          	mv	a0,s5
100046d0:	7410e0ef          	jal	ra,10013610 <__fixtfsi>
100046d4:	00050593          	mv	a1,a0
100046d8:	00050413          	mv	s0,a0
100046dc:	000a8513          	mv	a0,s5
100046e0:	0b012a03          	lw	s4,176(sp)
100046e4:	0b412983          	lw	s3,180(sp)
100046e8:	0b812b03          	lw	s6,184(sp)
100046ec:	0bc12903          	lw	s2,188(sp)
100046f0:	0340f0ef          	jal	ra,10013724 <__floatsitf>
100046f4:	0b012683          	lw	a3,176(sp)
100046f8:	04c12603          	lw	a2,76(sp)
100046fc:	00048593          	mv	a1,s1
10004700:	08d12023          	sw	a3,128(sp)
10004704:	0b412683          	lw	a3,180(sp)
10004708:	000b8513          	mv	a0,s7
1000470c:	09412823          	sw	s4,144(sp)
10004710:	08d12223          	sw	a3,132(sp)
10004714:	0b812683          	lw	a3,184(sp)
10004718:	09312a23          	sw	s3,148(sp)
1000471c:	09612c23          	sw	s6,152(sp)
10004720:	08d12423          	sw	a3,136(sp)
10004724:	0bc12683          	lw	a3,188(sp)
10004728:	09212e23          	sw	s2,156(sp)
1000472c:	08d12623          	sw	a3,140(sp)
10004730:	1c50d0ef          	jal	ra,100120f4 <__subtf3>
10004734:	02412783          	lw	a5,36(sp)
10004738:	0a012b03          	lw	s6,160(sp)
1000473c:	0a412a03          	lw	s4,164(sp)
10004740:	008786b3          	add	a3,a5,s0
10004744:	0006c683          	lbu	a3,0(a3)
10004748:	0a812f83          	lw	t6,168(sp)
1000474c:	0ac12603          	lw	a2,172(sp)
10004750:	05912a23          	sw	s9,84(sp)
10004754:	00dc8023          	sb	a3,0(s9)
10004758:	05812823          	sw	s8,80(sp)
1000475c:	fff00793          	li	a5,-1
10004760:	001c8c93          	addi	s9,s9,1
10004764:	000b0d13          	mv	s10,s6
10004768:	000a0d93          	mv	s11,s4
1000476c:	000f8913          	mv	s2,t6
10004770:	00060993          	mv	s3,a2
10004774:	eefc10e3          	bne	s8,a5,10004654 <_svfprintf_r+0x1f88>
10004778:	06c12303          	lw	t1,108(sp)
1000477c:	000b0393          	mv	t2,s6
10004780:	000a0293          	mv	t0,s4
10004784:	3ffe0937          	lui	s2,0x3ffe0
10004788:	000b8593          	mv	a1,s7
1000478c:	000a8513          	mv	a0,s5
10004790:	02612023          	sw	t1,32(sp)
10004794:	00812e23          	sw	s0,28(sp)
10004798:	06012483          	lw	s1,96(sp)
1000479c:	05c12403          	lw	s0,92(sp)
100047a0:	06412a03          	lw	s4,100(sp)
100047a4:	0a712823          	sw	t2,176(sp)
100047a8:	06712223          	sw	t2,100(sp)
100047ac:	0a512a23          	sw	t0,180(sp)
100047b0:	06512023          	sw	t0,96(sp)
100047b4:	0bf12c23          	sw	t6,184(sp)
100047b8:	05f12e23          	sw	t6,92(sp)
100047bc:	0ac12e23          	sw	a2,188(sp)
100047c0:	04c12623          	sw	a2,76(sp)
100047c4:	0a012023          	sw	zero,160(sp)
100047c8:	0a012223          	sw	zero,164(sp)
100047cc:	0a012423          	sw	zero,168(sp)
100047d0:	0b212623          	sw	s2,172(sp)
100047d4:	2d40c0ef          	jal	ra,10010aa8 <__getf2>
100047d8:	000c8d93          	mv	s11,s9
100047dc:	06812983          	lw	s3,104(sp)
100047e0:	07012c83          	lw	s9,112(sp)
100047e4:	07412d03          	lw	s10,116(sp)
100047e8:	07812c03          	lw	s8,120(sp)
100047ec:	07c12b03          	lw	s6,124(sp)
100047f0:	02012303          	lw	t1,32(sp)
100047f4:	40a04463          	bgtz	a0,10004bfc <_svfprintf_r+0x2530>
100047f8:	000b8593          	mv	a1,s7
100047fc:	000a8513          	mv	a0,s5
10004800:	1dc0c0ef          	jal	ra,100109dc <__eqtf2>
10004804:	02012303          	lw	t1,32(sp)
10004808:	00051863          	bnez	a0,10004818 <_svfprintf_r+0x214c>
1000480c:	01c12783          	lw	a5,28(sp)
10004810:	0017f913          	andi	s2,a5,1
10004814:	3e091463          	bnez	s2,10004bfc <_svfprintf_r+0x2530>
10004818:	05012783          	lw	a5,80(sp)
1000481c:	03000693          	li	a3,48
10004820:	00178713          	addi	a4,a5,1 # 40030001 <_sp+0x30007a95>
10004824:	00ed8733          	add	a4,s11,a4
10004828:	0007c863          	bltz	a5,10004838 <_svfprintf_r+0x216c>
1000482c:	001d8d93          	addi	s11,s11,1
10004830:	fedd8fa3          	sb	a3,-1(s11)
10004834:	ffb71ce3          	bne	a4,s11,1000482c <_svfprintf_r+0x2160>
10004838:	416d87b3          	sub	a5,s11,s6
1000483c:	02f12023          	sw	a5,32(sp)
10004840:	b01ff06f          	j	10004340 <_svfprintf_r+0x1c74>
10004844:	02812b03          	lw	s6,40(sp)
10004848:	02012703          	lw	a4,32(sp)
1000484c:	02812e23          	sw	s0,60(sp)
10004850:	04012a03          	lw	s4,64(sp)
10004854:	00eb0733          	add	a4,s6,a4
10004858:	01c12403          	lw	s0,28(sp)
1000485c:	04c12983          	lw	s3,76(sp)
10004860:	02412a83          	lw	s5,36(sp)
10004864:	00068c93          	mv	s9,a3
10004868:	00976463          	bltu	a4,s1,10004870 <_svfprintf_r+0x21a4>
1000486c:	e25fe06f          	j	10003690 <_svfprintf_r+0xfc4>
10004870:	00070493          	mv	s1,a4
10004874:	e1dfe06f          	j	10003690 <_svfprintf_r+0xfc4>
10004878:	01c12703          	lw	a4,28(sp)
1000487c:	ffd00793          	li	a5,-3
10004880:	00f74463          	blt	a4,a5,10004888 <_svfprintf_r+0x21bc>
10004884:	02e35463          	bge	t1,a4,100048ac <_svfprintf_r+0x21e0>
10004888:	ffe48493          	addi	s1,s1,-2
1000488c:	fdf4f793          	andi	a5,s1,-33
10004890:	02f12423          	sw	a5,40(sp)
10004894:	acdff06f          	j	10004360 <_svfprintf_r+0x1c94>
10004898:	0c714783          	lbu	a5,199(sp)
1000489c:	00000313          	li	t1,0
100048a0:	00078463          	beqz	a5,100048a8 <_svfprintf_r+0x21dc>
100048a4:	d90fe06f          	j	10002e34 <_svfprintf_r+0x768>
100048a8:	808fe06f          	j	100028b0 <_svfprintf_r+0x1e4>
100048ac:	02012783          	lw	a5,32(sp)
100048b0:	01c12703          	lw	a4,28(sp)
100048b4:	30f74263          	blt	a4,a5,10004bb8 <_svfprintf_r+0x24ec>
100048b8:	04012783          	lw	a5,64(sp)
100048bc:	01c12703          	lw	a4,28(sp)
100048c0:	0017f793          	andi	a5,a5,1
100048c4:	00070b93          	mv	s7,a4
100048c8:	00078663          	beqz	a5,100048d4 <_svfprintf_r+0x2208>
100048cc:	02c12783          	lw	a5,44(sp)
100048d0:	00f70bb3          	add	s7,a4,a5
100048d4:	04012783          	lw	a5,64(sp)
100048d8:	4007f793          	andi	a5,a5,1024
100048dc:	00078663          	beqz	a5,100048e8 <_svfprintf_r+0x221c>
100048e0:	01c12783          	lw	a5,28(sp)
100048e4:	44f04463          	bgtz	a5,10004d2c <_svfprintf_r+0x2660>
100048e8:	fffbca93          	not	s5,s7
100048ec:	41fada93          	srai	s5,s5,0x1f
100048f0:	015bfab3          	and	s5,s7,s5
100048f4:	06700493          	li	s1,103
100048f8:	02012423          	sw	zero,40(sp)
100048fc:	02012223          	sw	zero,36(sp)
10004900:	b81ff06f          	j	10004480 <_svfprintf_r+0x1db4>
10004904:	04012783          	lw	a5,64(sp)
10004908:	00d50933          	add	s2,a0,a3
1000490c:	0017f793          	andi	a5,a5,1
10004910:	22079663          	bnez	a5,10004b3c <_svfprintf_r+0x2470>
10004914:	0dc12683          	lw	a3,220(sp)
10004918:	a21ff06f          	j	10004338 <_svfprintf_r+0x1c6c>
1000491c:	0e410613          	addi	a2,sp,228
10004920:	000c0593          	mv	a1,s8
10004924:	000d0513          	mv	a0,s10
10004928:	171060ef          	jal	ra,1000b298 <__ssprint_r>
1000492c:	00050463          	beqz	a0,10004934 <_svfprintf_r+0x2268>
10004930:	b89fe06f          	j	100034b8 <_svfprintf_r+0xdec>
10004934:	00044603          	lbu	a2,0(s0)
10004938:	0ec12783          	lw	a5,236(sp)
1000493c:	10c10693          	addi	a3,sp,268
10004940:	00c484b3          	add	s1,s1,a2
10004944:	b2cff06f          	j	10003c70 <_svfprintf_r+0x15a4>
10004948:	07800793          	li	a5,120
1000494c:	03000713          	li	a4,48
10004950:	0ce10423          	sb	a4,200(sp)
10004954:	002a6713          	ori	a4,s4,2
10004958:	0cf104a3          	sb	a5,201(sp)
1000495c:	04e12023          	sw	a4,64(sp)
10004960:	06300793          	li	a5,99
10004964:	00012823          	sw	zero,16(sp)
10004968:	14c10b13          	addi	s6,sp,332
1000496c:	3667c863          	blt	a5,t1,10004cdc <_svfprintf_r+0x2610>
10004970:	0fc12d83          	lw	s11,252(sp)
10004974:	fdf4f793          	andi	a5,s1,-33
10004978:	02f12423          	sw	a5,40(sp)
1000497c:	04012c23          	sw	zero,88(sp)
10004980:	0f012e03          	lw	t3,240(sp)
10004984:	0f412e83          	lw	t4,244(sp)
10004988:	0f812f03          	lw	t5,248(sp)
1000498c:	102a6a13          	ori	s4,s4,258
10004990:	120dc063          	bltz	s11,10004ab0 <_svfprintf_r+0x23e4>
10004994:	06100793          	li	a5,97
10004998:	00f48463          	beq	s1,a5,100049a0 <_svfprintf_r+0x22d4>
1000499c:	9f0fe06f          	j	10002b8c <_svfprintf_r+0x4c0>
100049a0:	0b010a93          	addi	s5,sp,176
100049a4:	000a8513          	mv	a0,s5
100049a8:	04612e23          	sw	t1,92(sp)
100049ac:	0bc12823          	sw	t3,176(sp)
100049b0:	0bd12a23          	sw	t4,180(sp)
100049b4:	0be12c23          	sw	t5,184(sp)
100049b8:	0bb12e23          	sw	s11,188(sp)
100049bc:	0b40f0ef          	jal	ra,10013a70 <__trunctfdf2>
100049c0:	0cc10613          	addi	a2,sp,204
100049c4:	3f8060ef          	jal	ra,1000adbc <frexp>
100049c8:	00058613          	mv	a2,a1
100049cc:	00050593          	mv	a1,a0
100049d0:	000a8513          	mv	a0,s5
100049d4:	6a50e0ef          	jal	ra,10013878 <__extenddftf2>
100049d8:	09010793          	addi	a5,sp,144
100049dc:	00078593          	mv	a1,a5
100049e0:	00f12e23          	sw	a5,28(sp)
100049e4:	0b012783          	lw	a5,176(sp)
100049e8:	0a010b93          	addi	s7,sp,160
100049ec:	08010613          	addi	a2,sp,128
100049f0:	08f12823          	sw	a5,144(sp)
100049f4:	0b412783          	lw	a5,180(sp)
100049f8:	000b8513          	mv	a0,s7
100049fc:	04c12623          	sw	a2,76(sp)
10004a00:	08f12a23          	sw	a5,148(sp)
10004a04:	0b812783          	lw	a5,184(sp)
10004a08:	08012023          	sw	zero,128(sp)
10004a0c:	08012223          	sw	zero,132(sp)
10004a10:	08f12c23          	sw	a5,152(sp)
10004a14:	0bc12783          	lw	a5,188(sp)
10004a18:	08012423          	sw	zero,136(sp)
10004a1c:	08f12e23          	sw	a5,156(sp)
10004a20:	3ffc07b7          	lui	a5,0x3ffc0
10004a24:	08f12623          	sw	a5,140(sp)
10004a28:	3080c0ef          	jal	ra,10010d30 <__multf3>
10004a2c:	0a012683          	lw	a3,160(sp)
10004a30:	0a412e03          	lw	t3,164(sp)
10004a34:	0a812e83          	lw	t4,168(sp)
10004a38:	0ac12f03          	lw	t5,172(sp)
10004a3c:	000b8593          	mv	a1,s7
10004a40:	000a8513          	mv	a0,s5
10004a44:	0ad12823          	sw	a3,176(sp)
10004a48:	04d12a23          	sw	a3,84(sp)
10004a4c:	0bc12a23          	sw	t3,180(sp)
10004a50:	05c12823          	sw	t3,80(sp)
10004a54:	0bd12c23          	sw	t4,184(sp)
10004a58:	03d12223          	sw	t4,36(sp)
10004a5c:	0be12e23          	sw	t5,188(sp)
10004a60:	03e12023          	sw	t5,32(sp)
10004a64:	0a012023          	sw	zero,160(sp)
10004a68:	0a012223          	sw	zero,164(sp)
10004a6c:	0a012423          	sw	zero,168(sp)
10004a70:	0a012623          	sw	zero,172(sp)
10004a74:	7690b0ef          	jal	ra,100109dc <__eqtf2>
10004a78:	02012f03          	lw	t5,32(sp)
10004a7c:	02412e83          	lw	t4,36(sp)
10004a80:	05012e03          	lw	t3,80(sp)
10004a84:	05412683          	lw	a3,84(sp)
10004a88:	05c12303          	lw	t1,92(sp)
10004a8c:	00051663          	bnez	a0,10004a98 <_svfprintf_r+0x23cc>
10004a90:	00100793          	li	a5,1
10004a94:	0cf12623          	sw	a5,204(sp)
10004a98:	100147b7          	lui	a5,0x10014
10004a9c:	03078793          	addi	a5,a5,48 # 10014030 <__clz_tab+0x114>
10004aa0:	02f12223          	sw	a5,36(sp)
10004aa4:	b69ff06f          	j	1000460c <_svfprintf_r+0x1f40>
10004aa8:	00012823          	sw	zero,16(sp)
10004aac:	00078a13          	mv	s4,a5
10004ab0:	800007b7          	lui	a5,0x80000
10004ab4:	01b7cdb3          	xor	s11,a5,s11
10004ab8:	02d00793          	li	a5,45
10004abc:	04f12c23          	sw	a5,88(sp)
10004ac0:	ed5ff06f          	j	10004994 <_svfprintf_r+0x22c8>
10004ac4:	0e410613          	addi	a2,sp,228
10004ac8:	000c0593          	mv	a1,s8
10004acc:	000d0513          	mv	a0,s10
10004ad0:	7c8060ef          	jal	ra,1000b298 <__ssprint_r>
10004ad4:	00050463          	beqz	a0,10004adc <_svfprintf_r+0x2410>
10004ad8:	9e1fe06f          	j	100034b8 <_svfprintf_r+0xdec>
10004adc:	0cc12683          	lw	a3,204(sp)
10004ae0:	0ec12783          	lw	a5,236(sp)
10004ae4:	10c10c93          	addi	s9,sp,268
10004ae8:	bf1fe06f          	j	100036d8 <_svfprintf_r+0x100c>
10004aec:	02d00793          	li	a5,45
10004af0:	0cf103a3          	sb	a5,199(sp)
10004af4:	ce0ff06f          	j	10003fd4 <_svfprintf_r+0x1908>
10004af8:	0c714783          	lbu	a5,199(sp)
10004afc:	01212a23          	sw	s2,20(sp)
10004b00:	02012423          	sw	zero,40(sp)
10004b04:	02012223          	sw	zero,36(sp)
10004b08:	00012e23          	sw	zero,28(sp)
10004b0c:	00030a93          	mv	s5,t1
10004b10:	00030b93          	mv	s7,t1
10004b14:	00000313          	li	t1,0
10004b18:	00078463          	beqz	a5,10004b20 <_svfprintf_r+0x2454>
10004b1c:	b18fe06f          	j	10002e34 <_svfprintf_r+0x768>
10004b20:	d91fd06f          	j	100028b0 <_svfprintf_r+0x1e4>
10004b24:	10014637          	lui	a2,0x10014
10004b28:	26860d93          	addi	s11,a2,616 # 10014268 <blanks.1>
10004b2c:	a7dfe06f          	j	100035a8 <_svfprintf_r+0xedc>
10004b30:	10014837          	lui	a6,0x10014
10004b34:	02880b13          	addi	s6,a6,40 # 10014028 <__clz_tab+0x10c>
10004b38:	cacff06f          	j	10003fe4 <_svfprintf_r+0x1918>
10004b3c:	0a010b93          	addi	s7,sp,160
10004b40:	f9cff06f          	j	100042dc <_svfprintf_r+0x1c10>
10004b44:	0e410613          	addi	a2,sp,228
10004b48:	000c0593          	mv	a1,s8
10004b4c:	000d0513          	mv	a0,s10
10004b50:	748060ef          	jal	ra,1000b298 <__ssprint_r>
10004b54:	00050463          	beqz	a0,10004b5c <_svfprintf_r+0x2490>
10004b58:	961fe06f          	j	100034b8 <_svfprintf_r+0xdec>
10004b5c:	0cc12483          	lw	s1,204(sp)
10004b60:	02012703          	lw	a4,32(sp)
10004b64:	0ec12783          	lw	a5,236(sp)
10004b68:	10c10c93          	addi	s9,sp,268
10004b6c:	40970633          	sub	a2,a4,s1
10004b70:	bb1fe06f          	j	10003720 <_svfprintf_r+0x1054>
10004b74:	05800793          	li	a5,88
10004b78:	dd5ff06f          	j	1000494c <_svfprintf_r+0x2280>
10004b7c:	04012783          	lw	a5,64(sp)
10004b80:	01c12703          	lw	a4,28(sp)
10004b84:	0017f793          	andi	a5,a5,1
10004b88:	0067e7b3          	or	a5,a5,t1
10004b8c:	2ae05063          	blez	a4,10004e2c <_svfprintf_r+0x2760>
10004b90:	28079463          	bnez	a5,10004e18 <_svfprintf_r+0x274c>
10004b94:	01c12b83          	lw	s7,28(sp)
10004b98:	06600493          	li	s1,102
10004b9c:	04012783          	lw	a5,64(sp)
10004ba0:	4007f793          	andi	a5,a5,1024
10004ba4:	18079663          	bnez	a5,10004d30 <_svfprintf_r+0x2664>
10004ba8:	fffbca93          	not	s5,s7
10004bac:	41fada93          	srai	s5,s5,0x1f
10004bb0:	015bfab3          	and	s5,s7,s5
10004bb4:	d45ff06f          	j	100048f8 <_svfprintf_r+0x222c>
10004bb8:	02012783          	lw	a5,32(sp)
10004bbc:	02c12703          	lw	a4,44(sp)
10004bc0:	06700493          	li	s1,103
10004bc4:	00e78bb3          	add	s7,a5,a4
10004bc8:	01c12783          	lw	a5,28(sp)
10004bcc:	fcf048e3          	bgtz	a5,10004b9c <_svfprintf_r+0x24d0>
10004bd0:	40fb8bb3          	sub	s7,s7,a5
10004bd4:	001b8b93          	addi	s7,s7,1
10004bd8:	fffbca93          	not	s5,s7
10004bdc:	41fada93          	srai	s5,s5,0x1f
10004be0:	015bfab3          	and	s5,s7,s5
10004be4:	d15ff06f          	j	100048f8 <_svfprintf_r+0x222c>
10004be8:	100146b7          	lui	a3,0x10014
10004bec:	26868d93          	addi	s11,a3,616 # 10014268 <blanks.1>
10004bf0:	990fe06f          	j	10002d80 <_svfprintf_r+0x6b4>
10004bf4:	000a0a93          	mv	s5,s4
10004bf8:	cf0fe06f          	j	100030e8 <_svfprintf_r+0xa1c>
10004bfc:	05412783          	lw	a5,84(sp)
10004c00:	000d8713          	mv	a4,s11
10004c04:	0cf12e23          	sw	a5,220(sp)
10004c08:	02412783          	lw	a5,36(sp)
10004c0c:	fffdc683          	lbu	a3,-1(s11)
10004c10:	00f7c603          	lbu	a2,15(a5) # 8000000f <_sp+0x6ffd7aa3>
10004c14:	02d61063          	bne	a2,a3,10004c34 <_svfprintf_r+0x2568>
10004c18:	03000593          	li	a1,48
10004c1c:	feb70fa3          	sb	a1,-1(a4)
10004c20:	0dc12703          	lw	a4,220(sp)
10004c24:	fff70793          	addi	a5,a4,-1
10004c28:	0cf12e23          	sw	a5,220(sp)
10004c2c:	fff74683          	lbu	a3,-1(a4)
10004c30:	fed606e3          	beq	a2,a3,10004c1c <_svfprintf_r+0x2550>
10004c34:	00168613          	addi	a2,a3,1
10004c38:	03900593          	li	a1,57
10004c3c:	0ff67613          	zext.b	a2,a2
10004c40:	00b68663          	beq	a3,a1,10004c4c <_svfprintf_r+0x2580>
10004c44:	fec70fa3          	sb	a2,-1(a4)
10004c48:	bf1ff06f          	j	10004838 <_svfprintf_r+0x216c>
10004c4c:	02412783          	lw	a5,36(sp)
10004c50:	00a7c603          	lbu	a2,10(a5)
10004c54:	fec70fa3          	sb	a2,-1(a4)
10004c58:	be1ff06f          	j	10004838 <_svfprintf_r+0x216c>
10004c5c:	0d610793          	addi	a5,sp,214
10004c60:	00071863          	bnez	a4,10004c70 <_svfprintf_r+0x25a4>
10004c64:	03000793          	li	a5,48
10004c68:	0cf10b23          	sb	a5,214(sp)
10004c6c:	0d710793          	addi	a5,sp,215
10004c70:	1b010713          	addi	a4,sp,432
10004c74:	030b8b93          	addi	s7,s7,48
10004c78:	40e78733          	sub	a4,a5,a4
10004c7c:	01778023          	sb	s7,0(a5)
10004c80:	0dd70793          	addi	a5,a4,221
10004c84:	02f12c23          	sw	a5,56(sp)
10004c88:	fb8ff06f          	j	10004440 <_svfprintf_r+0x1d74>
10004c8c:	00812683          	lw	a3,8(sp)
10004c90:	009787b3          	add	a5,a5,s1
10004c94:	00170713          	addi	a4,a4,1
10004c98:	00d8a023          	sw	a3,0(a7)
10004c9c:	0098a223          	sw	s1,4(a7)
10004ca0:	0ef12623          	sw	a5,236(sp)
10004ca4:	0ee12423          	sw	a4,232(sp)
10004ca8:	00700693          	li	a3,7
10004cac:	00888893          	addi	a7,a7,8
10004cb0:	a0e6d463          	bge	a3,a4,10003eb8 <_svfprintf_r+0x17ec>
10004cb4:	0e410613          	addi	a2,sp,228
10004cb8:	000c0593          	mv	a1,s8
10004cbc:	000d0513          	mv	a0,s10
10004cc0:	5d8060ef          	jal	ra,1000b298 <__ssprint_r>
10004cc4:	00050463          	beqz	a0,10004ccc <_svfprintf_r+0x2600>
10004cc8:	ff0fe06f          	j	100034b8 <_svfprintf_r+0xdec>
10004ccc:	0ec12783          	lw	a5,236(sp)
10004cd0:	0e812703          	lw	a4,232(sp)
10004cd4:	10c10893          	addi	a7,sp,268
10004cd8:	9e0ff06f          	j	10003eb8 <_svfprintf_r+0x17ec>
10004cdc:	00130593          	addi	a1,t1,1
10004ce0:	000d0513          	mv	a0,s10
10004ce4:	00612823          	sw	t1,16(sp)
10004ce8:	655030ef          	jal	ra,10008b3c <_malloc_r>
10004cec:	01012303          	lw	t1,16(sp)
10004cf0:	00050b13          	mv	s6,a0
10004cf4:	1a050e63          	beqz	a0,10004eb0 <_svfprintf_r+0x27e4>
10004cf8:	00a12823          	sw	a0,16(sp)
10004cfc:	c75ff06f          	j	10004970 <_svfprintf_r+0x22a4>
10004d00:	00030463          	beqz	t1,10004d08 <_svfprintf_r+0x263c>
10004d04:	e5dfd06f          	j	10002b60 <_svfprintf_r+0x494>
10004d08:	00100313          	li	t1,1
10004d0c:	e55fd06f          	j	10002b60 <_svfprintf_r+0x494>
10004d10:	fff00793          	li	a5,-1
10004d14:	00f12623          	sw	a5,12(sp)
10004d18:	cd1fd06f          	j	100029e8 <_svfprintf_r+0x31c>
10004d1c:	04012783          	lw	a5,64(sp)
10004d20:	0017f793          	andi	a5,a5,1
10004d24:	f2078c63          	beqz	a5,1000445c <_svfprintf_r+0x1d90>
10004d28:	f2cff06f          	j	10004454 <_svfprintf_r+0x1d88>
10004d2c:	06700493          	li	s1,103
10004d30:	03c12603          	lw	a2,60(sp)
10004d34:	0ff00713          	li	a4,255
10004d38:	00064783          	lbu	a5,0(a2)
10004d3c:	16e78463          	beq	a5,a4,10004ea4 <_svfprintf_r+0x27d8>
10004d40:	01c12683          	lw	a3,28(sp)
10004d44:	00000513          	li	a0,0
10004d48:	00000593          	li	a1,0
10004d4c:	00d7de63          	bge	a5,a3,10004d68 <_svfprintf_r+0x269c>
10004d50:	40f686b3          	sub	a3,a3,a5
10004d54:	00164783          	lbu	a5,1(a2)
10004d58:	04078463          	beqz	a5,10004da0 <_svfprintf_r+0x26d4>
10004d5c:	00158593          	addi	a1,a1,1
10004d60:	00160613          	addi	a2,a2,1
10004d64:	fee794e3          	bne	a5,a4,10004d4c <_svfprintf_r+0x2680>
10004d68:	02c12e23          	sw	a2,60(sp)
10004d6c:	00d12e23          	sw	a3,28(sp)
10004d70:	02b12223          	sw	a1,36(sp)
10004d74:	02a12423          	sw	a0,40(sp)
10004d78:	02812783          	lw	a5,40(sp)
10004d7c:	02412703          	lw	a4,36(sp)
10004d80:	04412583          	lw	a1,68(sp)
10004d84:	00e78533          	add	a0,a5,a4
10004d88:	0340f0ef          	jal	ra,10013dbc <__mulsi3>
10004d8c:	01750bb3          	add	s7,a0,s7
10004d90:	fffbca93          	not	s5,s7
10004d94:	41fada93          	srai	s5,s5,0x1f
10004d98:	015bfab3          	and	s5,s7,s5
10004d9c:	ee4ff06f          	j	10004480 <_svfprintf_r+0x1db4>
10004da0:	00064783          	lbu	a5,0(a2)
10004da4:	00150513          	addi	a0,a0,1
10004da8:	fbdff06f          	j	10004d64 <_svfprintf_r+0x2698>
10004dac:	0a010b93          	addi	s7,sp,160
10004db0:	000b8593          	mv	a1,s7
10004db4:	000a8513          	mv	a0,s5
10004db8:	04612623          	sw	t1,76(sp)
10004dbc:	0bc12823          	sw	t3,176(sp)
10004dc0:	03c12223          	sw	t3,36(sp)
10004dc4:	0bd12a23          	sw	t4,180(sp)
10004dc8:	03d12023          	sw	t4,32(sp)
10004dcc:	0be12c23          	sw	t5,184(sp)
10004dd0:	01e12e23          	sw	t5,28(sp)
10004dd4:	04d12823          	sw	a3,80(sp)
10004dd8:	0bb12e23          	sw	s11,188(sp)
10004ddc:	0a012023          	sw	zero,160(sp)
10004de0:	0a012223          	sw	zero,164(sp)
10004de4:	0a012423          	sw	zero,168(sp)
10004de8:	0a012623          	sw	zero,172(sp)
10004dec:	3f10b0ef          	jal	ra,100109dc <__eqtf2>
10004df0:	01c12f03          	lw	t5,28(sp)
10004df4:	02012e83          	lw	t4,32(sp)
10004df8:	02412e03          	lw	t3,36(sp)
10004dfc:	04c12303          	lw	t1,76(sp)
10004e00:	cc050a63          	beqz	a0,100042d4 <_svfprintf_r+0x1c08>
10004e04:	05012683          	lw	a3,80(sp)
10004e08:	00100793          	li	a5,1
10004e0c:	40d787b3          	sub	a5,a5,a3
10004e10:	0cf12623          	sw	a5,204(sp)
10004e14:	cc4ff06f          	j	100042d8 <_svfprintf_r+0x1c0c>
10004e18:	02c12783          	lw	a5,44(sp)
10004e1c:	06600493          	li	s1,102
10004e20:	00f70bb3          	add	s7,a4,a5
10004e24:	006b8bb3          	add	s7,s7,t1
10004e28:	d75ff06f          	j	10004b9c <_svfprintf_r+0x24d0>
10004e2c:	00079a63          	bnez	a5,10004e40 <_svfprintf_r+0x2774>
10004e30:	00100a93          	li	s5,1
10004e34:	06600493          	li	s1,102
10004e38:	00100b93          	li	s7,1
10004e3c:	abdff06f          	j	100048f8 <_svfprintf_r+0x222c>
10004e40:	02c12783          	lw	a5,44(sp)
10004e44:	06600493          	li	s1,102
10004e48:	00178b93          	addi	s7,a5,1
10004e4c:	006b8bb3          	add	s7,s7,t1
10004e50:	fffbca93          	not	s5,s7
10004e54:	41fada93          	srai	s5,s5,0x1f
10004e58:	015bfab3          	and	s5,s7,s5
10004e5c:	a9dff06f          	j	100048f8 <_svfprintf_r+0x222c>
10004e60:	01412783          	lw	a5,20(sp)
10004e64:	0007ad83          	lw	s11,0(a5)
10004e68:	00478793          	addi	a5,a5,4
10004e6c:	000dd463          	bgez	s11,10004e74 <_svfprintf_r+0x27a8>
10004e70:	fff00d93          	li	s11,-1
10004e74:	00144483          	lbu	s1,1(s0)
10004e78:	00f12a23          	sw	a5,20(sp)
10004e7c:	00070413          	mv	s0,a4
10004e80:	9b5fd06f          	j	10002834 <_svfprintf_r+0x168>
10004e84:	00200793          	li	a5,2
10004e88:	02f12c23          	sw	a5,56(sp)
10004e8c:	db4ff06f          	j	10004440 <_svfprintf_r+0x1d74>
10004e90:	00c00793          	li	a5,12
10004e94:	00fd2023          	sw	a5,0(s10)
10004e98:	fff00793          	li	a5,-1
10004e9c:	00f12623          	sw	a5,12(sp)
10004ea0:	b49fd06f          	j	100029e8 <_svfprintf_r+0x31c>
10004ea4:	02012423          	sw	zero,40(sp)
10004ea8:	02012223          	sw	zero,36(sp)
10004eac:	ecdff06f          	j	10004d78 <_svfprintf_r+0x26ac>
10004eb0:	00cc5783          	lhu	a5,12(s8)
10004eb4:	0407e793          	ori	a5,a5,64
10004eb8:	00fc1623          	sh	a5,12(s8)
10004ebc:	b1dfd06f          	j	100029d8 <_svfprintf_r+0x30c>

10004ec0 <__register_exitproc>:
10004ec0:	100157b7          	lui	a5,0x10015
10004ec4:	6007a703          	lw	a4,1536(a5) # 10015600 <_global_impure_ptr>
10004ec8:	14872783          	lw	a5,328(a4)
10004ecc:	04078c63          	beqz	a5,10004f24 <__register_exitproc+0x64>
10004ed0:	0047a703          	lw	a4,4(a5)
10004ed4:	01f00813          	li	a6,31
10004ed8:	06e84e63          	blt	a6,a4,10004f54 <__register_exitproc+0x94>
10004edc:	00271813          	slli	a6,a4,0x2
10004ee0:	02050663          	beqz	a0,10004f0c <__register_exitproc+0x4c>
10004ee4:	01078333          	add	t1,a5,a6
10004ee8:	08c32423          	sw	a2,136(t1)
10004eec:	1887a883          	lw	a7,392(a5)
10004ef0:	00100613          	li	a2,1
10004ef4:	00e61633          	sll	a2,a2,a4
10004ef8:	00c8e8b3          	or	a7,a7,a2
10004efc:	1917a423          	sw	a7,392(a5)
10004f00:	10d32423          	sw	a3,264(t1)
10004f04:	00200693          	li	a3,2
10004f08:	02d50463          	beq	a0,a3,10004f30 <__register_exitproc+0x70>
10004f0c:	00170713          	addi	a4,a4,1
10004f10:	00e7a223          	sw	a4,4(a5)
10004f14:	010787b3          	add	a5,a5,a6
10004f18:	00b7a423          	sw	a1,8(a5)
10004f1c:	00000513          	li	a0,0
10004f20:	00008067          	ret
10004f24:	14c70793          	addi	a5,a4,332
10004f28:	14f72423          	sw	a5,328(a4)
10004f2c:	fa5ff06f          	j	10004ed0 <__register_exitproc+0x10>
10004f30:	18c7a683          	lw	a3,396(a5)
10004f34:	00170713          	addi	a4,a4,1
10004f38:	00e7a223          	sw	a4,4(a5)
10004f3c:	00c6e6b3          	or	a3,a3,a2
10004f40:	18d7a623          	sw	a3,396(a5)
10004f44:	010787b3          	add	a5,a5,a6
10004f48:	00b7a423          	sw	a1,8(a5)
10004f4c:	00000513          	li	a0,0
10004f50:	00008067          	ret
10004f54:	fff00513          	li	a0,-1
10004f58:	00008067          	ret

10004f5c <__call_exitprocs>:
10004f5c:	fd010113          	addi	sp,sp,-48
10004f60:	100157b7          	lui	a5,0x10015
10004f64:	01412c23          	sw	s4,24(sp)
10004f68:	6007aa03          	lw	s4,1536(a5) # 10015600 <_global_impure_ptr>
10004f6c:	03212023          	sw	s2,32(sp)
10004f70:	02112623          	sw	ra,44(sp)
10004f74:	148a2903          	lw	s2,328(s4)
10004f78:	02812423          	sw	s0,40(sp)
10004f7c:	02912223          	sw	s1,36(sp)
10004f80:	01312e23          	sw	s3,28(sp)
10004f84:	01512a23          	sw	s5,20(sp)
10004f88:	01612823          	sw	s6,16(sp)
10004f8c:	01712623          	sw	s7,12(sp)
10004f90:	01812423          	sw	s8,8(sp)
10004f94:	04090063          	beqz	s2,10004fd4 <__call_exitprocs+0x78>
10004f98:	00050b13          	mv	s6,a0
10004f9c:	00058b93          	mv	s7,a1
10004fa0:	00100a93          	li	s5,1
10004fa4:	fff00993          	li	s3,-1
10004fa8:	00492483          	lw	s1,4(s2) # 3ffe0004 <_sp+0x2ffb7a98>
10004fac:	fff48413          	addi	s0,s1,-1
10004fb0:	02044263          	bltz	s0,10004fd4 <__call_exitprocs+0x78>
10004fb4:	00249493          	slli	s1,s1,0x2
10004fb8:	009904b3          	add	s1,s2,s1
10004fbc:	040b8463          	beqz	s7,10005004 <__call_exitprocs+0xa8>
10004fc0:	1044a783          	lw	a5,260(s1)
10004fc4:	05778063          	beq	a5,s7,10005004 <__call_exitprocs+0xa8>
10004fc8:	fff40413          	addi	s0,s0,-1
10004fcc:	ffc48493          	addi	s1,s1,-4
10004fd0:	ff3416e3          	bne	s0,s3,10004fbc <__call_exitprocs+0x60>
10004fd4:	02c12083          	lw	ra,44(sp)
10004fd8:	02812403          	lw	s0,40(sp)
10004fdc:	02412483          	lw	s1,36(sp)
10004fe0:	02012903          	lw	s2,32(sp)
10004fe4:	01c12983          	lw	s3,28(sp)
10004fe8:	01812a03          	lw	s4,24(sp)
10004fec:	01412a83          	lw	s5,20(sp)
10004ff0:	01012b03          	lw	s6,16(sp)
10004ff4:	00c12b83          	lw	s7,12(sp)
10004ff8:	00812c03          	lw	s8,8(sp)
10004ffc:	03010113          	addi	sp,sp,48
10005000:	00008067          	ret
10005004:	00492783          	lw	a5,4(s2)
10005008:	0044a683          	lw	a3,4(s1)
1000500c:	fff78793          	addi	a5,a5,-1
10005010:	04878e63          	beq	a5,s0,1000506c <__call_exitprocs+0x110>
10005014:	0004a223          	sw	zero,4(s1)
10005018:	fa0688e3          	beqz	a3,10004fc8 <__call_exitprocs+0x6c>
1000501c:	18892783          	lw	a5,392(s2)
10005020:	008a9733          	sll	a4,s5,s0
10005024:	00492c03          	lw	s8,4(s2)
10005028:	00f777b3          	and	a5,a4,a5
1000502c:	02079263          	bnez	a5,10005050 <__call_exitprocs+0xf4>
10005030:	000680e7          	jalr	a3
10005034:	00492703          	lw	a4,4(s2)
10005038:	148a2783          	lw	a5,328(s4)
1000503c:	01871463          	bne	a4,s8,10005044 <__call_exitprocs+0xe8>
10005040:	f92784e3          	beq	a5,s2,10004fc8 <__call_exitprocs+0x6c>
10005044:	f80788e3          	beqz	a5,10004fd4 <__call_exitprocs+0x78>
10005048:	00078913          	mv	s2,a5
1000504c:	f5dff06f          	j	10004fa8 <__call_exitprocs+0x4c>
10005050:	18c92783          	lw	a5,396(s2)
10005054:	0844a583          	lw	a1,132(s1)
10005058:	00f77733          	and	a4,a4,a5
1000505c:	00071c63          	bnez	a4,10005074 <__call_exitprocs+0x118>
10005060:	000b0513          	mv	a0,s6
10005064:	000680e7          	jalr	a3
10005068:	fcdff06f          	j	10005034 <__call_exitprocs+0xd8>
1000506c:	00892223          	sw	s0,4(s2)
10005070:	fa9ff06f          	j	10005018 <__call_exitprocs+0xbc>
10005074:	00058513          	mv	a0,a1
10005078:	000680e7          	jalr	a3
1000507c:	fb9ff06f          	j	10005034 <__call_exitprocs+0xd8>

10005080 <__fp_lock>:
10005080:	00000513          	li	a0,0
10005084:	00008067          	ret

10005088 <_cleanup_r>:
10005088:	1000d5b7          	lui	a1,0x1000d
1000508c:	95858593          	addi	a1,a1,-1704 # 1000c958 <_fclose_r>
10005090:	5510006f          	j	10005de0 <_fwalk_reent>

10005094 <__fp_unlock>:
10005094:	00000513          	li	a0,0
10005098:	00008067          	ret

1000509c <__sinit.part.0>:
1000509c:	fe010113          	addi	sp,sp,-32
100050a0:	100057b7          	lui	a5,0x10005
100050a4:	00112e23          	sw	ra,28(sp)
100050a8:	00812c23          	sw	s0,24(sp)
100050ac:	00912a23          	sw	s1,20(sp)
100050b0:	01212823          	sw	s2,16(sp)
100050b4:	01312623          	sw	s3,12(sp)
100050b8:	01412423          	sw	s4,8(sp)
100050bc:	01512223          	sw	s5,4(sp)
100050c0:	01612023          	sw	s6,0(sp)
100050c4:	00452403          	lw	s0,4(a0)
100050c8:	08878793          	addi	a5,a5,136 # 10005088 <_cleanup_r>
100050cc:	02f52e23          	sw	a5,60(a0)
100050d0:	2ec50713          	addi	a4,a0,748
100050d4:	00300793          	li	a5,3
100050d8:	2ee52423          	sw	a4,744(a0)
100050dc:	2ef52223          	sw	a5,740(a0)
100050e0:	2e052023          	sw	zero,736(a0)
100050e4:	00400793          	li	a5,4
100050e8:	00050913          	mv	s2,a0
100050ec:	00f42623          	sw	a5,12(s0)
100050f0:	00800613          	li	a2,8
100050f4:	00000593          	li	a1,0
100050f8:	06042223          	sw	zero,100(s0)
100050fc:	00042023          	sw	zero,0(s0)
10005100:	00042223          	sw	zero,4(s0)
10005104:	00042423          	sw	zero,8(s0)
10005108:	00042823          	sw	zero,16(s0)
1000510c:	00042a23          	sw	zero,20(s0)
10005110:	00042c23          	sw	zero,24(s0)
10005114:	05c40513          	addi	a0,s0,92
10005118:	a88fd0ef          	jal	ra,100023a0 <memset>
1000511c:	1000bb37          	lui	s6,0x1000b
10005120:	00892483          	lw	s1,8(s2)
10005124:	1000bab7          	lui	s5,0x1000b
10005128:	1000ba37          	lui	s4,0x1000b
1000512c:	1000b9b7          	lui	s3,0x1000b
10005130:	e68b0b13          	addi	s6,s6,-408 # 1000ae68 <__sread>
10005134:	ecca8a93          	addi	s5,s5,-308 # 1000aecc <__swrite>
10005138:	f54a0a13          	addi	s4,s4,-172 # 1000af54 <__sseek>
1000513c:	fbc98993          	addi	s3,s3,-68 # 1000afbc <__sclose>
10005140:	000107b7          	lui	a5,0x10
10005144:	03642023          	sw	s6,32(s0)
10005148:	03542223          	sw	s5,36(s0)
1000514c:	03442423          	sw	s4,40(s0)
10005150:	03342623          	sw	s3,44(s0)
10005154:	00842e23          	sw	s0,28(s0)
10005158:	00978793          	addi	a5,a5,9 # 10009 <__heap_size+0xf009>
1000515c:	00f4a623          	sw	a5,12(s1)
10005160:	00800613          	li	a2,8
10005164:	00000593          	li	a1,0
10005168:	0604a223          	sw	zero,100(s1)
1000516c:	0004a023          	sw	zero,0(s1)
10005170:	0004a223          	sw	zero,4(s1)
10005174:	0004a423          	sw	zero,8(s1)
10005178:	0004a823          	sw	zero,16(s1)
1000517c:	0004aa23          	sw	zero,20(s1)
10005180:	0004ac23          	sw	zero,24(s1)
10005184:	05c48513          	addi	a0,s1,92
10005188:	a18fd0ef          	jal	ra,100023a0 <memset>
1000518c:	00c92403          	lw	s0,12(s2)
10005190:	000207b7          	lui	a5,0x20
10005194:	0364a023          	sw	s6,32(s1)
10005198:	0354a223          	sw	s5,36(s1)
1000519c:	0344a423          	sw	s4,40(s1)
100051a0:	0334a623          	sw	s3,44(s1)
100051a4:	0094ae23          	sw	s1,28(s1)
100051a8:	01278793          	addi	a5,a5,18 # 20012 <__heap_size+0x1f012>
100051ac:	00f42623          	sw	a5,12(s0)
100051b0:	06042223          	sw	zero,100(s0)
100051b4:	00042023          	sw	zero,0(s0)
100051b8:	00042223          	sw	zero,4(s0)
100051bc:	00042423          	sw	zero,8(s0)
100051c0:	00042823          	sw	zero,16(s0)
100051c4:	00042a23          	sw	zero,20(s0)
100051c8:	00042c23          	sw	zero,24(s0)
100051cc:	05c40513          	addi	a0,s0,92
100051d0:	00800613          	li	a2,8
100051d4:	00000593          	li	a1,0
100051d8:	9c8fd0ef          	jal	ra,100023a0 <memset>
100051dc:	01c12083          	lw	ra,28(sp)
100051e0:	03642023          	sw	s6,32(s0)
100051e4:	03542223          	sw	s5,36(s0)
100051e8:	03442423          	sw	s4,40(s0)
100051ec:	03342623          	sw	s3,44(s0)
100051f0:	00842e23          	sw	s0,28(s0)
100051f4:	01812403          	lw	s0,24(sp)
100051f8:	00100793          	li	a5,1
100051fc:	02f92c23          	sw	a5,56(s2)
10005200:	01412483          	lw	s1,20(sp)
10005204:	01012903          	lw	s2,16(sp)
10005208:	00c12983          	lw	s3,12(sp)
1000520c:	00812a03          	lw	s4,8(sp)
10005210:	00412a83          	lw	s5,4(sp)
10005214:	00012b03          	lw	s6,0(sp)
10005218:	02010113          	addi	sp,sp,32
1000521c:	00008067          	ret

10005220 <__sfmoreglue>:
10005220:	ff010113          	addi	sp,sp,-16
10005224:	fff58793          	addi	a5,a1,-1
10005228:	00812423          	sw	s0,8(sp)
1000522c:	00179413          	slli	s0,a5,0x1
10005230:	00f40433          	add	s0,s0,a5
10005234:	00241413          	slli	s0,s0,0x2
10005238:	00f40433          	add	s0,s0,a5
1000523c:	00341413          	slli	s0,s0,0x3
10005240:	01212023          	sw	s2,0(sp)
10005244:	00058913          	mv	s2,a1
10005248:	07440593          	addi	a1,s0,116
1000524c:	00912223          	sw	s1,4(sp)
10005250:	00112623          	sw	ra,12(sp)
10005254:	0e9030ef          	jal	ra,10008b3c <_malloc_r>
10005258:	00050493          	mv	s1,a0
1000525c:	02050063          	beqz	a0,1000527c <__sfmoreglue+0x5c>
10005260:	00c50513          	addi	a0,a0,12
10005264:	0004a023          	sw	zero,0(s1)
10005268:	0124a223          	sw	s2,4(s1)
1000526c:	00a4a423          	sw	a0,8(s1)
10005270:	06840613          	addi	a2,s0,104
10005274:	00000593          	li	a1,0
10005278:	928fd0ef          	jal	ra,100023a0 <memset>
1000527c:	00c12083          	lw	ra,12(sp)
10005280:	00812403          	lw	s0,8(sp)
10005284:	00012903          	lw	s2,0(sp)
10005288:	00048513          	mv	a0,s1
1000528c:	00412483          	lw	s1,4(sp)
10005290:	01010113          	addi	sp,sp,16
10005294:	00008067          	ret

10005298 <__sfp>:
10005298:	fe010113          	addi	sp,sp,-32
1000529c:	100157b7          	lui	a5,0x10015
100052a0:	01212823          	sw	s2,16(sp)
100052a4:	6007a903          	lw	s2,1536(a5) # 10015600 <_global_impure_ptr>
100052a8:	01312623          	sw	s3,12(sp)
100052ac:	00112e23          	sw	ra,28(sp)
100052b0:	03892783          	lw	a5,56(s2)
100052b4:	00812c23          	sw	s0,24(sp)
100052b8:	00912a23          	sw	s1,20(sp)
100052bc:	01412423          	sw	s4,8(sp)
100052c0:	00050993          	mv	s3,a0
100052c4:	0a078a63          	beqz	a5,10005378 <__sfp+0xe0>
100052c8:	2e090913          	addi	s2,s2,736
100052cc:	fff00493          	li	s1,-1
100052d0:	00400a13          	li	s4,4
100052d4:	00492783          	lw	a5,4(s2)
100052d8:	00892403          	lw	s0,8(s2)
100052dc:	fff78793          	addi	a5,a5,-1
100052e0:	0007d863          	bgez	a5,100052f0 <__sfp+0x58>
100052e4:	0840006f          	j	10005368 <__sfp+0xd0>
100052e8:	06840413          	addi	s0,s0,104
100052ec:	06978e63          	beq	a5,s1,10005368 <__sfp+0xd0>
100052f0:	00c41703          	lh	a4,12(s0)
100052f4:	fff78793          	addi	a5,a5,-1
100052f8:	fe0718e3          	bnez	a4,100052e8 <__sfp+0x50>
100052fc:	ffff07b7          	lui	a5,0xffff0
10005300:	00178793          	addi	a5,a5,1 # ffff0001 <_sp+0xeffc7a95>
10005304:	06042223          	sw	zero,100(s0)
10005308:	00042023          	sw	zero,0(s0)
1000530c:	00042223          	sw	zero,4(s0)
10005310:	00042423          	sw	zero,8(s0)
10005314:	00f42623          	sw	a5,12(s0)
10005318:	00042823          	sw	zero,16(s0)
1000531c:	00042a23          	sw	zero,20(s0)
10005320:	00042c23          	sw	zero,24(s0)
10005324:	00800613          	li	a2,8
10005328:	00000593          	li	a1,0
1000532c:	05c40513          	addi	a0,s0,92
10005330:	870fd0ef          	jal	ra,100023a0 <memset>
10005334:	02042823          	sw	zero,48(s0)
10005338:	02042a23          	sw	zero,52(s0)
1000533c:	04042223          	sw	zero,68(s0)
10005340:	04042423          	sw	zero,72(s0)
10005344:	01c12083          	lw	ra,28(sp)
10005348:	00040513          	mv	a0,s0
1000534c:	01812403          	lw	s0,24(sp)
10005350:	01412483          	lw	s1,20(sp)
10005354:	01012903          	lw	s2,16(sp)
10005358:	00c12983          	lw	s3,12(sp)
1000535c:	00812a03          	lw	s4,8(sp)
10005360:	02010113          	addi	sp,sp,32
10005364:	00008067          	ret
10005368:	00092403          	lw	s0,0(s2)
1000536c:	00040c63          	beqz	s0,10005384 <__sfp+0xec>
10005370:	00040913          	mv	s2,s0
10005374:	f61ff06f          	j	100052d4 <__sfp+0x3c>
10005378:	00090513          	mv	a0,s2
1000537c:	d21ff0ef          	jal	ra,1000509c <__sinit.part.0>
10005380:	f49ff06f          	j	100052c8 <__sfp+0x30>
10005384:	1ac00593          	li	a1,428
10005388:	00098513          	mv	a0,s3
1000538c:	7b0030ef          	jal	ra,10008b3c <_malloc_r>
10005390:	00050413          	mv	s0,a0
10005394:	02050663          	beqz	a0,100053c0 <__sfp+0x128>
10005398:	00c50513          	addi	a0,a0,12
1000539c:	00042023          	sw	zero,0(s0)
100053a0:	01442223          	sw	s4,4(s0)
100053a4:	00a42423          	sw	a0,8(s0)
100053a8:	1a000613          	li	a2,416
100053ac:	00000593          	li	a1,0
100053b0:	ff1fc0ef          	jal	ra,100023a0 <memset>
100053b4:	00892023          	sw	s0,0(s2)
100053b8:	00040913          	mv	s2,s0
100053bc:	f19ff06f          	j	100052d4 <__sfp+0x3c>
100053c0:	00092023          	sw	zero,0(s2)
100053c4:	00c00793          	li	a5,12
100053c8:	00f9a023          	sw	a5,0(s3)
100053cc:	f79ff06f          	j	10005344 <__sfp+0xac>

100053d0 <_cleanup>:
100053d0:	100157b7          	lui	a5,0x10015
100053d4:	6007a503          	lw	a0,1536(a5) # 10015600 <_global_impure_ptr>
100053d8:	1000d5b7          	lui	a1,0x1000d
100053dc:	95858593          	addi	a1,a1,-1704 # 1000c958 <_fclose_r>
100053e0:	2010006f          	j	10005de0 <_fwalk_reent>

100053e4 <__sinit>:
100053e4:	03852783          	lw	a5,56(a0)
100053e8:	00078463          	beqz	a5,100053f0 <__sinit+0xc>
100053ec:	00008067          	ret
100053f0:	cadff06f          	j	1000509c <__sinit.part.0>

100053f4 <__sfp_lock_acquire>:
100053f4:	00008067          	ret

100053f8 <__sfp_lock_release>:
100053f8:	00008067          	ret

100053fc <__sinit_lock_acquire>:
100053fc:	00008067          	ret

10005400 <__sinit_lock_release>:
10005400:	00008067          	ret

10005404 <__fp_lock_all>:
10005404:	100157b7          	lui	a5,0x10015
10005408:	6187a503          	lw	a0,1560(a5) # 10015618 <_impure_ptr>
1000540c:	100055b7          	lui	a1,0x10005
10005410:	08058593          	addi	a1,a1,128 # 10005080 <__fp_lock>
10005414:	1290006f          	j	10005d3c <_fwalk>

10005418 <__fp_unlock_all>:
10005418:	100157b7          	lui	a5,0x10015
1000541c:	6187a503          	lw	a0,1560(a5) # 10015618 <_impure_ptr>
10005420:	100055b7          	lui	a1,0x10005
10005424:	09458593          	addi	a1,a1,148 # 10005094 <__fp_unlock>
10005428:	1150006f          	j	10005d3c <_fwalk>

1000542c <_malloc_trim_r>:
1000542c:	fe010113          	addi	sp,sp,-32
10005430:	01312623          	sw	s3,12(sp)
10005434:	100159b7          	lui	s3,0x10015
10005438:	00812c23          	sw	s0,24(sp)
1000543c:	00912a23          	sw	s1,20(sp)
10005440:	01212823          	sw	s2,16(sp)
10005444:	01412423          	sw	s4,8(sp)
10005448:	00112e23          	sw	ra,28(sp)
1000544c:	00058a13          	mv	s4,a1
10005450:	00050913          	mv	s2,a0
10005454:	1d498993          	addi	s3,s3,468 # 100151d4 <__malloc_av_>
10005458:	0f8040ef          	jal	ra,10009550 <__malloc_lock>
1000545c:	0089a703          	lw	a4,8(s3)
10005460:	000017b7          	lui	a5,0x1
10005464:	fef78413          	addi	s0,a5,-17 # fef <__stack_size+0xec3>
10005468:	00472483          	lw	s1,4(a4)
1000546c:	41440433          	sub	s0,s0,s4
10005470:	ffc4f493          	andi	s1,s1,-4
10005474:	00940433          	add	s0,s0,s1
10005478:	00c45413          	srli	s0,s0,0xc
1000547c:	fff40413          	addi	s0,s0,-1
10005480:	00c41413          	slli	s0,s0,0xc
10005484:	00f44e63          	blt	s0,a5,100054a0 <_malloc_trim_r+0x74>
10005488:	00000593          	li	a1,0
1000548c:	00090513          	mv	a0,s2
10005490:	0cd050ef          	jal	ra,1000ad5c <_sbrk_r>
10005494:	0089a783          	lw	a5,8(s3)
10005498:	009787b3          	add	a5,a5,s1
1000549c:	02f50863          	beq	a0,a5,100054cc <_malloc_trim_r+0xa0>
100054a0:	00090513          	mv	a0,s2
100054a4:	0b0040ef          	jal	ra,10009554 <__malloc_unlock>
100054a8:	01c12083          	lw	ra,28(sp)
100054ac:	01812403          	lw	s0,24(sp)
100054b0:	01412483          	lw	s1,20(sp)
100054b4:	01012903          	lw	s2,16(sp)
100054b8:	00c12983          	lw	s3,12(sp)
100054bc:	00812a03          	lw	s4,8(sp)
100054c0:	00000513          	li	a0,0
100054c4:	02010113          	addi	sp,sp,32
100054c8:	00008067          	ret
100054cc:	408005b3          	neg	a1,s0
100054d0:	00090513          	mv	a0,s2
100054d4:	089050ef          	jal	ra,1000ad5c <_sbrk_r>
100054d8:	fff00793          	li	a5,-1
100054dc:	04f50a63          	beq	a0,a5,10005530 <_malloc_trim_r+0x104>
100054e0:	100277b7          	lui	a5,0x10027
100054e4:	41078793          	addi	a5,a5,1040 # 10027410 <__malloc_current_mallinfo>
100054e8:	0007a703          	lw	a4,0(a5)
100054ec:	0089a683          	lw	a3,8(s3)
100054f0:	408484b3          	sub	s1,s1,s0
100054f4:	0014e493          	ori	s1,s1,1
100054f8:	40870733          	sub	a4,a4,s0
100054fc:	00090513          	mv	a0,s2
10005500:	0096a223          	sw	s1,4(a3)
10005504:	00e7a023          	sw	a4,0(a5)
10005508:	04c040ef          	jal	ra,10009554 <__malloc_unlock>
1000550c:	01c12083          	lw	ra,28(sp)
10005510:	01812403          	lw	s0,24(sp)
10005514:	01412483          	lw	s1,20(sp)
10005518:	01012903          	lw	s2,16(sp)
1000551c:	00c12983          	lw	s3,12(sp)
10005520:	00812a03          	lw	s4,8(sp)
10005524:	00100513          	li	a0,1
10005528:	02010113          	addi	sp,sp,32
1000552c:	00008067          	ret
10005530:	00000593          	li	a1,0
10005534:	00090513          	mv	a0,s2
10005538:	025050ef          	jal	ra,1000ad5c <_sbrk_r>
1000553c:	0089a703          	lw	a4,8(s3)
10005540:	00f00693          	li	a3,15
10005544:	40e507b3          	sub	a5,a0,a4
10005548:	f4f6dce3          	bge	a3,a5,100054a0 <_malloc_trim_r+0x74>
1000554c:	100156b7          	lui	a3,0x10015
10005550:	61c6a683          	lw	a3,1564(a3) # 1001561c <__malloc_sbrk_base>
10005554:	0017e793          	ori	a5,a5,1
10005558:	00f72223          	sw	a5,4(a4)
1000555c:	40d50533          	sub	a0,a0,a3
10005560:	100276b7          	lui	a3,0x10027
10005564:	40a6a823          	sw	a0,1040(a3) # 10027410 <__malloc_current_mallinfo>
10005568:	f39ff06f          	j	100054a0 <_malloc_trim_r+0x74>

1000556c <_free_r>:
1000556c:	12058a63          	beqz	a1,100056a0 <_free_r+0x134>
10005570:	ff010113          	addi	sp,sp,-16
10005574:	00812423          	sw	s0,8(sp)
10005578:	00912223          	sw	s1,4(sp)
1000557c:	00058413          	mv	s0,a1
10005580:	00050493          	mv	s1,a0
10005584:	00112623          	sw	ra,12(sp)
10005588:	7c9030ef          	jal	ra,10009550 <__malloc_lock>
1000558c:	ffc42803          	lw	a6,-4(s0)
10005590:	ff840713          	addi	a4,s0,-8
10005594:	100155b7          	lui	a1,0x10015
10005598:	ffe87793          	andi	a5,a6,-2
1000559c:	00f70633          	add	a2,a4,a5
100055a0:	1d458593          	addi	a1,a1,468 # 100151d4 <__malloc_av_>
100055a4:	00462683          	lw	a3,4(a2)
100055a8:	0085a503          	lw	a0,8(a1)
100055ac:	ffc6f693          	andi	a3,a3,-4
100055b0:	1ac50a63          	beq	a0,a2,10005764 <_free_r+0x1f8>
100055b4:	00d62223          	sw	a3,4(a2)
100055b8:	00187813          	andi	a6,a6,1
100055bc:	00d60533          	add	a0,a2,a3
100055c0:	0a081063          	bnez	a6,10005660 <_free_r+0xf4>
100055c4:	ff842303          	lw	t1,-8(s0)
100055c8:	00452803          	lw	a6,4(a0)
100055cc:	10015537          	lui	a0,0x10015
100055d0:	40670733          	sub	a4,a4,t1
100055d4:	00872883          	lw	a7,8(a4)
100055d8:	1dc50513          	addi	a0,a0,476 # 100151dc <__malloc_av_+0x8>
100055dc:	006787b3          	add	a5,a5,t1
100055e0:	00187813          	andi	a6,a6,1
100055e4:	14a88063          	beq	a7,a0,10005724 <_free_r+0x1b8>
100055e8:	00c72303          	lw	t1,12(a4)
100055ec:	0068a623          	sw	t1,12(a7)
100055f0:	01132423          	sw	a7,8(t1)
100055f4:	1e080463          	beqz	a6,100057dc <_free_r+0x270>
100055f8:	0017e693          	ori	a3,a5,1
100055fc:	00d72223          	sw	a3,4(a4)
10005600:	00f62023          	sw	a5,0(a2)
10005604:	1ff00693          	li	a3,511
10005608:	0af6e863          	bltu	a3,a5,100056b8 <_free_r+0x14c>
1000560c:	ff87f693          	andi	a3,a5,-8
10005610:	00868693          	addi	a3,a3,8
10005614:	0045a503          	lw	a0,4(a1)
10005618:	00d586b3          	add	a3,a1,a3
1000561c:	0006a603          	lw	a2,0(a3)
10005620:	0057d813          	srli	a6,a5,0x5
10005624:	00100793          	li	a5,1
10005628:	010797b3          	sll	a5,a5,a6
1000562c:	00a7e7b3          	or	a5,a5,a0
10005630:	ff868513          	addi	a0,a3,-8
10005634:	00a72623          	sw	a0,12(a4)
10005638:	00c72423          	sw	a2,8(a4)
1000563c:	00f5a223          	sw	a5,4(a1)
10005640:	00e6a023          	sw	a4,0(a3)
10005644:	00e62623          	sw	a4,12(a2)
10005648:	00812403          	lw	s0,8(sp)
1000564c:	00c12083          	lw	ra,12(sp)
10005650:	00048513          	mv	a0,s1
10005654:	00412483          	lw	s1,4(sp)
10005658:	01010113          	addi	sp,sp,16
1000565c:	6f90306f          	j	10009554 <__malloc_unlock>
10005660:	00452503          	lw	a0,4(a0)
10005664:	00157513          	andi	a0,a0,1
10005668:	02051e63          	bnez	a0,100056a4 <_free_r+0x138>
1000566c:	10015537          	lui	a0,0x10015
10005670:	00d787b3          	add	a5,a5,a3
10005674:	1dc50513          	addi	a0,a0,476 # 100151dc <__malloc_av_+0x8>
10005678:	00862683          	lw	a3,8(a2)
1000567c:	0017e893          	ori	a7,a5,1
10005680:	00f70833          	add	a6,a4,a5
10005684:	16a68863          	beq	a3,a0,100057f4 <_free_r+0x288>
10005688:	00c62603          	lw	a2,12(a2)
1000568c:	00c6a623          	sw	a2,12(a3)
10005690:	00d62423          	sw	a3,8(a2)
10005694:	01172223          	sw	a7,4(a4)
10005698:	00f82023          	sw	a5,0(a6)
1000569c:	f69ff06f          	j	10005604 <_free_r+0x98>
100056a0:	00008067          	ret
100056a4:	0017e693          	ori	a3,a5,1
100056a8:	fed42e23          	sw	a3,-4(s0)
100056ac:	00f62023          	sw	a5,0(a2)
100056b0:	1ff00693          	li	a3,511
100056b4:	f4f6fce3          	bgeu	a3,a5,1000560c <_free_r+0xa0>
100056b8:	0097d693          	srli	a3,a5,0x9
100056bc:	00400613          	li	a2,4
100056c0:	0ed66c63          	bltu	a2,a3,100057b8 <_free_r+0x24c>
100056c4:	0067d693          	srli	a3,a5,0x6
100056c8:	03968813          	addi	a6,a3,57
100056cc:	03868613          	addi	a2,a3,56
100056d0:	00381813          	slli	a6,a6,0x3
100056d4:	01058833          	add	a6,a1,a6
100056d8:	00082683          	lw	a3,0(a6)
100056dc:	ff880813          	addi	a6,a6,-8
100056e0:	12d80863          	beq	a6,a3,10005810 <_free_r+0x2a4>
100056e4:	0046a603          	lw	a2,4(a3)
100056e8:	ffc67613          	andi	a2,a2,-4
100056ec:	00c7f663          	bgeu	a5,a2,100056f8 <_free_r+0x18c>
100056f0:	0086a683          	lw	a3,8(a3)
100056f4:	fed818e3          	bne	a6,a3,100056e4 <_free_r+0x178>
100056f8:	00c6a803          	lw	a6,12(a3)
100056fc:	01072623          	sw	a6,12(a4)
10005700:	00d72423          	sw	a3,8(a4)
10005704:	00812403          	lw	s0,8(sp)
10005708:	00c12083          	lw	ra,12(sp)
1000570c:	00e82423          	sw	a4,8(a6)
10005710:	00048513          	mv	a0,s1
10005714:	00412483          	lw	s1,4(sp)
10005718:	00e6a623          	sw	a4,12(a3)
1000571c:	01010113          	addi	sp,sp,16
10005720:	6350306f          	j	10009554 <__malloc_unlock>
10005724:	14081663          	bnez	a6,10005870 <_free_r+0x304>
10005728:	00c62583          	lw	a1,12(a2)
1000572c:	00862603          	lw	a2,8(a2)
10005730:	00f686b3          	add	a3,a3,a5
10005734:	00812403          	lw	s0,8(sp)
10005738:	00b62623          	sw	a1,12(a2)
1000573c:	00c5a423          	sw	a2,8(a1)
10005740:	0016e793          	ori	a5,a3,1
10005744:	00c12083          	lw	ra,12(sp)
10005748:	00f72223          	sw	a5,4(a4)
1000574c:	00048513          	mv	a0,s1
10005750:	00d70733          	add	a4,a4,a3
10005754:	00412483          	lw	s1,4(sp)
10005758:	00d72023          	sw	a3,0(a4)
1000575c:	01010113          	addi	sp,sp,16
10005760:	5f50306f          	j	10009554 <__malloc_unlock>
10005764:	00187813          	andi	a6,a6,1
10005768:	00d786b3          	add	a3,a5,a3
1000576c:	02081063          	bnez	a6,1000578c <_free_r+0x220>
10005770:	ff842503          	lw	a0,-8(s0)
10005774:	40a70733          	sub	a4,a4,a0
10005778:	00c72783          	lw	a5,12(a4)
1000577c:	00872603          	lw	a2,8(a4)
10005780:	00a686b3          	add	a3,a3,a0
10005784:	00f62623          	sw	a5,12(a2)
10005788:	00c7a423          	sw	a2,8(a5)
1000578c:	100157b7          	lui	a5,0x10015
10005790:	0016e613          	ori	a2,a3,1
10005794:	6207a783          	lw	a5,1568(a5) # 10015620 <__malloc_trim_threshold>
10005798:	00c72223          	sw	a2,4(a4)
1000579c:	00e5a423          	sw	a4,8(a1)
100057a0:	eaf6e4e3          	bltu	a3,a5,10005648 <_free_r+0xdc>
100057a4:	100157b7          	lui	a5,0x10015
100057a8:	6b87a583          	lw	a1,1720(a5) # 100156b8 <__malloc_top_pad>
100057ac:	00048513          	mv	a0,s1
100057b0:	c7dff0ef          	jal	ra,1000542c <_malloc_trim_r>
100057b4:	e95ff06f          	j	10005648 <_free_r+0xdc>
100057b8:	01400613          	li	a2,20
100057bc:	02d67463          	bgeu	a2,a3,100057e4 <_free_r+0x278>
100057c0:	05400613          	li	a2,84
100057c4:	06d66463          	bltu	a2,a3,1000582c <_free_r+0x2c0>
100057c8:	00c7d693          	srli	a3,a5,0xc
100057cc:	06f68813          	addi	a6,a3,111
100057d0:	06e68613          	addi	a2,a3,110
100057d4:	00381813          	slli	a6,a6,0x3
100057d8:	efdff06f          	j	100056d4 <_free_r+0x168>
100057dc:	00d787b3          	add	a5,a5,a3
100057e0:	e99ff06f          	j	10005678 <_free_r+0x10c>
100057e4:	05c68813          	addi	a6,a3,92
100057e8:	05b68613          	addi	a2,a3,91
100057ec:	00381813          	slli	a6,a6,0x3
100057f0:	ee5ff06f          	j	100056d4 <_free_r+0x168>
100057f4:	00e5aa23          	sw	a4,20(a1)
100057f8:	00e5a823          	sw	a4,16(a1)
100057fc:	00a72623          	sw	a0,12(a4)
10005800:	00a72423          	sw	a0,8(a4)
10005804:	01172223          	sw	a7,4(a4)
10005808:	00f82023          	sw	a5,0(a6)
1000580c:	e3dff06f          	j	10005648 <_free_r+0xdc>
10005810:	0045a503          	lw	a0,4(a1)
10005814:	40265613          	srai	a2,a2,0x2
10005818:	00100793          	li	a5,1
1000581c:	00c797b3          	sll	a5,a5,a2
10005820:	00a7e7b3          	or	a5,a5,a0
10005824:	00f5a223          	sw	a5,4(a1)
10005828:	ed5ff06f          	j	100056fc <_free_r+0x190>
1000582c:	15400613          	li	a2,340
10005830:	00d66c63          	bltu	a2,a3,10005848 <_free_r+0x2dc>
10005834:	00f7d693          	srli	a3,a5,0xf
10005838:	07868813          	addi	a6,a3,120
1000583c:	07768613          	addi	a2,a3,119
10005840:	00381813          	slli	a6,a6,0x3
10005844:	e91ff06f          	j	100056d4 <_free_r+0x168>
10005848:	55400613          	li	a2,1364
1000584c:	00d66c63          	bltu	a2,a3,10005864 <_free_r+0x2f8>
10005850:	0127d693          	srli	a3,a5,0x12
10005854:	07d68813          	addi	a6,a3,125
10005858:	07c68613          	addi	a2,a3,124
1000585c:	00381813          	slli	a6,a6,0x3
10005860:	e75ff06f          	j	100056d4 <_free_r+0x168>
10005864:	3f800813          	li	a6,1016
10005868:	07e00613          	li	a2,126
1000586c:	e69ff06f          	j	100056d4 <_free_r+0x168>
10005870:	0017e693          	ori	a3,a5,1
10005874:	00d72223          	sw	a3,4(a4)
10005878:	00f62023          	sw	a5,0(a2)
1000587c:	dcdff06f          	j	10005648 <_free_r+0xdc>

10005880 <__sfvwrite_r>:
10005880:	00862783          	lw	a5,8(a2)
10005884:	32078063          	beqz	a5,10005ba4 <__sfvwrite_r+0x324>
10005888:	00c5d683          	lhu	a3,12(a1)
1000588c:	fd010113          	addi	sp,sp,-48
10005890:	02812423          	sw	s0,40(sp)
10005894:	01412c23          	sw	s4,24(sp)
10005898:	01712623          	sw	s7,12(sp)
1000589c:	02112623          	sw	ra,44(sp)
100058a0:	02912223          	sw	s1,36(sp)
100058a4:	03212023          	sw	s2,32(sp)
100058a8:	01312e23          	sw	s3,28(sp)
100058ac:	01512a23          	sw	s5,20(sp)
100058b0:	01612823          	sw	s6,16(sp)
100058b4:	01812423          	sw	s8,8(sp)
100058b8:	01912223          	sw	s9,4(sp)
100058bc:	01a12023          	sw	s10,0(sp)
100058c0:	0086f793          	andi	a5,a3,8
100058c4:	00060b93          	mv	s7,a2
100058c8:	00050a13          	mv	s4,a0
100058cc:	00058413          	mv	s0,a1
100058d0:	08078663          	beqz	a5,1000595c <__sfvwrite_r+0xdc>
100058d4:	0105a783          	lw	a5,16(a1)
100058d8:	08078263          	beqz	a5,1000595c <__sfvwrite_r+0xdc>
100058dc:	0026f793          	andi	a5,a3,2
100058e0:	000ba483          	lw	s1,0(s7)
100058e4:	08078c63          	beqz	a5,1000597c <__sfvwrite_r+0xfc>
100058e8:	02442783          	lw	a5,36(s0)
100058ec:	01c42583          	lw	a1,28(s0)
100058f0:	80000ab7          	lui	s5,0x80000
100058f4:	00000993          	li	s3,0
100058f8:	00000913          	li	s2,0
100058fc:	c00aca93          	xori	s5,s5,-1024
10005900:	00098613          	mv	a2,s3
10005904:	000a0513          	mv	a0,s4
10005908:	04090263          	beqz	s2,1000594c <__sfvwrite_r+0xcc>
1000590c:	00090693          	mv	a3,s2
10005910:	012af463          	bgeu	s5,s2,10005918 <__sfvwrite_r+0x98>
10005914:	000a8693          	mv	a3,s5
10005918:	000780e7          	jalr	a5
1000591c:	26a05a63          	blez	a0,10005b90 <__sfvwrite_r+0x310>
10005920:	008ba783          	lw	a5,8(s7)
10005924:	00a989b3          	add	s3,s3,a0
10005928:	40a90933          	sub	s2,s2,a0
1000592c:	40a787b3          	sub	a5,a5,a0
10005930:	00fba423          	sw	a5,8(s7)
10005934:	20078863          	beqz	a5,10005b44 <__sfvwrite_r+0x2c4>
10005938:	02442783          	lw	a5,36(s0)
1000593c:	01c42583          	lw	a1,28(s0)
10005940:	00098613          	mv	a2,s3
10005944:	000a0513          	mv	a0,s4
10005948:	fc0912e3          	bnez	s2,1000590c <__sfvwrite_r+0x8c>
1000594c:	0004a983          	lw	s3,0(s1)
10005950:	0044a903          	lw	s2,4(s1)
10005954:	00848493          	addi	s1,s1,8
10005958:	fa9ff06f          	j	10005900 <__sfvwrite_r+0x80>
1000595c:	00040593          	mv	a1,s0
10005960:	000a0513          	mv	a0,s4
10005964:	425060ef          	jal	ra,1000c588 <__swsetup_r>
10005968:	3c051663          	bnez	a0,10005d34 <__sfvwrite_r+0x4b4>
1000596c:	00c45683          	lhu	a3,12(s0)
10005970:	000ba483          	lw	s1,0(s7)
10005974:	0026f793          	andi	a5,a3,2
10005978:	f60798e3          	bnez	a5,100058e8 <__sfvwrite_r+0x68>
1000597c:	0016f793          	andi	a5,a3,1
10005980:	12079e63          	bnez	a5,10005abc <__sfvwrite_r+0x23c>
10005984:	00042783          	lw	a5,0(s0)
10005988:	00842703          	lw	a4,8(s0)
1000598c:	80000ab7          	lui	s5,0x80000
10005990:	ffeacb13          	xori	s6,s5,-2
10005994:	00000c13          	li	s8,0
10005998:	00000993          	li	s3,0
1000599c:	fffaca93          	not	s5,s5
100059a0:	00078513          	mv	a0,a5
100059a4:	00070c93          	mv	s9,a4
100059a8:	10098263          	beqz	s3,10005aac <__sfvwrite_r+0x22c>
100059ac:	2006f613          	andi	a2,a3,512
100059b0:	24060e63          	beqz	a2,10005c0c <__sfvwrite_r+0x38c>
100059b4:	00070d13          	mv	s10,a4
100059b8:	2ee9ec63          	bltu	s3,a4,10005cb0 <__sfvwrite_r+0x430>
100059bc:	4806f713          	andi	a4,a3,1152
100059c0:	08070a63          	beqz	a4,10005a54 <__sfvwrite_r+0x1d4>
100059c4:	01442603          	lw	a2,20(s0)
100059c8:	01042583          	lw	a1,16(s0)
100059cc:	00161713          	slli	a4,a2,0x1
100059d0:	00c70733          	add	a4,a4,a2
100059d4:	40b78933          	sub	s2,a5,a1
100059d8:	01f75c93          	srli	s9,a4,0x1f
100059dc:	00ec8cb3          	add	s9,s9,a4
100059e0:	00190793          	addi	a5,s2,1
100059e4:	401cdc93          	srai	s9,s9,0x1
100059e8:	013787b3          	add	a5,a5,s3
100059ec:	000c8613          	mv	a2,s9
100059f0:	00fcf663          	bgeu	s9,a5,100059fc <__sfvwrite_r+0x17c>
100059f4:	00078c93          	mv	s9,a5
100059f8:	00078613          	mv	a2,a5
100059fc:	4006f693          	andi	a3,a3,1024
10005a00:	2e068463          	beqz	a3,10005ce8 <__sfvwrite_r+0x468>
10005a04:	00060593          	mv	a1,a2
10005a08:	000a0513          	mv	a0,s4
10005a0c:	130030ef          	jal	ra,10008b3c <_malloc_r>
10005a10:	00050d13          	mv	s10,a0
10005a14:	30050863          	beqz	a0,10005d24 <__sfvwrite_r+0x4a4>
10005a18:	01042583          	lw	a1,16(s0)
10005a1c:	00090613          	mv	a2,s2
10005a20:	859fc0ef          	jal	ra,10002278 <memcpy>
10005a24:	00c45783          	lhu	a5,12(s0)
10005a28:	b7f7f793          	andi	a5,a5,-1153
10005a2c:	0807e793          	ori	a5,a5,128
10005a30:	00f41623          	sh	a5,12(s0)
10005a34:	012d0533          	add	a0,s10,s2
10005a38:	412c87b3          	sub	a5,s9,s2
10005a3c:	01a42823          	sw	s10,16(s0)
10005a40:	01942a23          	sw	s9,20(s0)
10005a44:	00a42023          	sw	a0,0(s0)
10005a48:	00098c93          	mv	s9,s3
10005a4c:	00f42423          	sw	a5,8(s0)
10005a50:	00098d13          	mv	s10,s3
10005a54:	000d0613          	mv	a2,s10
10005a58:	000c0593          	mv	a1,s8
10005a5c:	1d5030ef          	jal	ra,10009430 <memmove>
10005a60:	00842703          	lw	a4,8(s0)
10005a64:	00042783          	lw	a5,0(s0)
10005a68:	00098913          	mv	s2,s3
10005a6c:	41970733          	sub	a4,a4,s9
10005a70:	01a787b3          	add	a5,a5,s10
10005a74:	00e42423          	sw	a4,8(s0)
10005a78:	00f42023          	sw	a5,0(s0)
10005a7c:	00000993          	li	s3,0
10005a80:	008ba783          	lw	a5,8(s7)
10005a84:	012c0c33          	add	s8,s8,s2
10005a88:	412787b3          	sub	a5,a5,s2
10005a8c:	00fba423          	sw	a5,8(s7)
10005a90:	0a078a63          	beqz	a5,10005b44 <__sfvwrite_r+0x2c4>
10005a94:	00042783          	lw	a5,0(s0)
10005a98:	00842703          	lw	a4,8(s0)
10005a9c:	00c45683          	lhu	a3,12(s0)
10005aa0:	00078513          	mv	a0,a5
10005aa4:	00070c93          	mv	s9,a4
10005aa8:	f00992e3          	bnez	s3,100059ac <__sfvwrite_r+0x12c>
10005aac:	0004ac03          	lw	s8,0(s1)
10005ab0:	0044a983          	lw	s3,4(s1)
10005ab4:	00848493          	addi	s1,s1,8
10005ab8:	ee9ff06f          	j	100059a0 <__sfvwrite_r+0x120>
10005abc:	00000a93          	li	s5,0
10005ac0:	00000513          	li	a0,0
10005ac4:	00000c13          	li	s8,0
10005ac8:	00000993          	li	s3,0
10005acc:	0e098063          	beqz	s3,10005bac <__sfvwrite_r+0x32c>
10005ad0:	0e050863          	beqz	a0,10005bc0 <__sfvwrite_r+0x340>
10005ad4:	000a8793          	mv	a5,s5
10005ad8:	00098b13          	mv	s6,s3
10005adc:	0137f463          	bgeu	a5,s3,10005ae4 <__sfvwrite_r+0x264>
10005ae0:	00078b13          	mv	s6,a5
10005ae4:	00042503          	lw	a0,0(s0)
10005ae8:	01042783          	lw	a5,16(s0)
10005aec:	00842903          	lw	s2,8(s0)
10005af0:	01442683          	lw	a3,20(s0)
10005af4:	00a7f663          	bgeu	a5,a0,10005b00 <__sfvwrite_r+0x280>
10005af8:	00d90933          	add	s2,s2,a3
10005afc:	0f694263          	blt	s2,s6,10005be0 <__sfvwrite_r+0x360>
10005b00:	1adb4e63          	blt	s6,a3,10005cbc <__sfvwrite_r+0x43c>
10005b04:	02442783          	lw	a5,36(s0)
10005b08:	01c42583          	lw	a1,28(s0)
10005b0c:	000c0613          	mv	a2,s8
10005b10:	000a0513          	mv	a0,s4
10005b14:	000780e7          	jalr	a5
10005b18:	00050913          	mv	s2,a0
10005b1c:	06a05a63          	blez	a0,10005b90 <__sfvwrite_r+0x310>
10005b20:	412a8ab3          	sub	s5,s5,s2
10005b24:	00100513          	li	a0,1
10005b28:	040a8c63          	beqz	s5,10005b80 <__sfvwrite_r+0x300>
10005b2c:	008ba783          	lw	a5,8(s7)
10005b30:	012c0c33          	add	s8,s8,s2
10005b34:	412989b3          	sub	s3,s3,s2
10005b38:	412787b3          	sub	a5,a5,s2
10005b3c:	00fba423          	sw	a5,8(s7)
10005b40:	f80796e3          	bnez	a5,10005acc <__sfvwrite_r+0x24c>
10005b44:	00000513          	li	a0,0
10005b48:	02c12083          	lw	ra,44(sp)
10005b4c:	02812403          	lw	s0,40(sp)
10005b50:	02412483          	lw	s1,36(sp)
10005b54:	02012903          	lw	s2,32(sp)
10005b58:	01c12983          	lw	s3,28(sp)
10005b5c:	01812a03          	lw	s4,24(sp)
10005b60:	01412a83          	lw	s5,20(sp)
10005b64:	01012b03          	lw	s6,16(sp)
10005b68:	00c12b83          	lw	s7,12(sp)
10005b6c:	00812c03          	lw	s8,8(sp)
10005b70:	00412c83          	lw	s9,4(sp)
10005b74:	00012d03          	lw	s10,0(sp)
10005b78:	03010113          	addi	sp,sp,48
10005b7c:	00008067          	ret
10005b80:	00040593          	mv	a1,s0
10005b84:	000a0513          	mv	a0,s4
10005b88:	154070ef          	jal	ra,1000ccdc <_fflush_r>
10005b8c:	fa0500e3          	beqz	a0,10005b2c <__sfvwrite_r+0x2ac>
10005b90:	00c41783          	lh	a5,12(s0)
10005b94:	0407e793          	ori	a5,a5,64
10005b98:	00f41623          	sh	a5,12(s0)
10005b9c:	fff00513          	li	a0,-1
10005ba0:	fa9ff06f          	j	10005b48 <__sfvwrite_r+0x2c8>
10005ba4:	00000513          	li	a0,0
10005ba8:	00008067          	ret
10005bac:	0044a983          	lw	s3,4(s1)
10005bb0:	00048793          	mv	a5,s1
10005bb4:	00848493          	addi	s1,s1,8
10005bb8:	fe098ae3          	beqz	s3,10005bac <__sfvwrite_r+0x32c>
10005bbc:	0007ac03          	lw	s8,0(a5)
10005bc0:	00098613          	mv	a2,s3
10005bc4:	00a00593          	li	a1,10
10005bc8:	000c0513          	mv	a0,s8
10005bcc:	79c030ef          	jal	ra,10009368 <memchr>
10005bd0:	14050463          	beqz	a0,10005d18 <__sfvwrite_r+0x498>
10005bd4:	00150513          	addi	a0,a0,1
10005bd8:	41850ab3          	sub	s5,a0,s8
10005bdc:	ef9ff06f          	j	10005ad4 <__sfvwrite_r+0x254>
10005be0:	000c0593          	mv	a1,s8
10005be4:	00090613          	mv	a2,s2
10005be8:	049030ef          	jal	ra,10009430 <memmove>
10005bec:	00042783          	lw	a5,0(s0)
10005bf0:	00040593          	mv	a1,s0
10005bf4:	000a0513          	mv	a0,s4
10005bf8:	012787b3          	add	a5,a5,s2
10005bfc:	00f42023          	sw	a5,0(s0)
10005c00:	0dc070ef          	jal	ra,1000ccdc <_fflush_r>
10005c04:	f0050ee3          	beqz	a0,10005b20 <__sfvwrite_r+0x2a0>
10005c08:	f89ff06f          	j	10005b90 <__sfvwrite_r+0x310>
10005c0c:	01042683          	lw	a3,16(s0)
10005c10:	04f6e863          	bltu	a3,a5,10005c60 <__sfvwrite_r+0x3e0>
10005c14:	01442903          	lw	s2,20(s0)
10005c18:	0529e463          	bltu	s3,s2,10005c60 <__sfvwrite_r+0x3e0>
10005c1c:	00098513          	mv	a0,s3
10005c20:	013b7463          	bgeu	s6,s3,10005c28 <__sfvwrite_r+0x3a8>
10005c24:	000a8513          	mv	a0,s5
10005c28:	00090593          	mv	a1,s2
10005c2c:	1b40e0ef          	jal	ra,10013de0 <__divsi3>
10005c30:	00090593          	mv	a1,s2
10005c34:	1880e0ef          	jal	ra,10013dbc <__mulsi3>
10005c38:	02442783          	lw	a5,36(s0)
10005c3c:	01c42583          	lw	a1,28(s0)
10005c40:	00050693          	mv	a3,a0
10005c44:	000c0613          	mv	a2,s8
10005c48:	000a0513          	mv	a0,s4
10005c4c:	000780e7          	jalr	a5
10005c50:	00050913          	mv	s2,a0
10005c54:	f2a05ee3          	blez	a0,10005b90 <__sfvwrite_r+0x310>
10005c58:	412989b3          	sub	s3,s3,s2
10005c5c:	e25ff06f          	j	10005a80 <__sfvwrite_r+0x200>
10005c60:	00070913          	mv	s2,a4
10005c64:	00e9f463          	bgeu	s3,a4,10005c6c <__sfvwrite_r+0x3ec>
10005c68:	00098913          	mv	s2,s3
10005c6c:	00078513          	mv	a0,a5
10005c70:	00090613          	mv	a2,s2
10005c74:	000c0593          	mv	a1,s8
10005c78:	7b8030ef          	jal	ra,10009430 <memmove>
10005c7c:	00842703          	lw	a4,8(s0)
10005c80:	00042783          	lw	a5,0(s0)
10005c84:	41270733          	sub	a4,a4,s2
10005c88:	012787b3          	add	a5,a5,s2
10005c8c:	00e42423          	sw	a4,8(s0)
10005c90:	00f42023          	sw	a5,0(s0)
10005c94:	fc0712e3          	bnez	a4,10005c58 <__sfvwrite_r+0x3d8>
10005c98:	00040593          	mv	a1,s0
10005c9c:	000a0513          	mv	a0,s4
10005ca0:	03c070ef          	jal	ra,1000ccdc <_fflush_r>
10005ca4:	ee0516e3          	bnez	a0,10005b90 <__sfvwrite_r+0x310>
10005ca8:	412989b3          	sub	s3,s3,s2
10005cac:	dd5ff06f          	j	10005a80 <__sfvwrite_r+0x200>
10005cb0:	00098c93          	mv	s9,s3
10005cb4:	00098d13          	mv	s10,s3
10005cb8:	d9dff06f          	j	10005a54 <__sfvwrite_r+0x1d4>
10005cbc:	000b0613          	mv	a2,s6
10005cc0:	000c0593          	mv	a1,s8
10005cc4:	76c030ef          	jal	ra,10009430 <memmove>
10005cc8:	00842703          	lw	a4,8(s0)
10005ccc:	00042783          	lw	a5,0(s0)
10005cd0:	000b0913          	mv	s2,s6
10005cd4:	41670733          	sub	a4,a4,s6
10005cd8:	016787b3          	add	a5,a5,s6
10005cdc:	00e42423          	sw	a4,8(s0)
10005ce0:	00f42023          	sw	a5,0(s0)
10005ce4:	e3dff06f          	j	10005b20 <__sfvwrite_r+0x2a0>
10005ce8:	000a0513          	mv	a0,s4
10005cec:	315040ef          	jal	ra,1000a800 <_realloc_r>
10005cf0:	00050d13          	mv	s10,a0
10005cf4:	d40510e3          	bnez	a0,10005a34 <__sfvwrite_r+0x1b4>
10005cf8:	01042583          	lw	a1,16(s0)
10005cfc:	000a0513          	mv	a0,s4
10005d00:	86dff0ef          	jal	ra,1000556c <_free_r>
10005d04:	00c41783          	lh	a5,12(s0)
10005d08:	00c00713          	li	a4,12
10005d0c:	00ea2023          	sw	a4,0(s4)
10005d10:	f7f7f793          	andi	a5,a5,-129
10005d14:	e81ff06f          	j	10005b94 <__sfvwrite_r+0x314>
10005d18:	00198793          	addi	a5,s3,1
10005d1c:	00078a93          	mv	s5,a5
10005d20:	db9ff06f          	j	10005ad8 <__sfvwrite_r+0x258>
10005d24:	00c00713          	li	a4,12
10005d28:	00c41783          	lh	a5,12(s0)
10005d2c:	00ea2023          	sw	a4,0(s4)
10005d30:	e65ff06f          	j	10005b94 <__sfvwrite_r+0x314>
10005d34:	fff00513          	li	a0,-1
10005d38:	e11ff06f          	j	10005b48 <__sfvwrite_r+0x2c8>

10005d3c <_fwalk>:
10005d3c:	fe010113          	addi	sp,sp,-32
10005d40:	01212823          	sw	s2,16(sp)
10005d44:	01312623          	sw	s3,12(sp)
10005d48:	01412423          	sw	s4,8(sp)
10005d4c:	01512223          	sw	s5,4(sp)
10005d50:	01612023          	sw	s6,0(sp)
10005d54:	00112e23          	sw	ra,28(sp)
10005d58:	00812c23          	sw	s0,24(sp)
10005d5c:	00912a23          	sw	s1,20(sp)
10005d60:	00058b13          	mv	s6,a1
10005d64:	2e050a93          	addi	s5,a0,736
10005d68:	00000a13          	li	s4,0
10005d6c:	00100993          	li	s3,1
10005d70:	fff00913          	li	s2,-1
10005d74:	004aa483          	lw	s1,4(s5) # 80000004 <_sp+0x6ffd7a98>
10005d78:	008aa403          	lw	s0,8(s5)
10005d7c:	fff48493          	addi	s1,s1,-1
10005d80:	0204c663          	bltz	s1,10005dac <_fwalk+0x70>
10005d84:	00c45783          	lhu	a5,12(s0)
10005d88:	fff48493          	addi	s1,s1,-1
10005d8c:	00f9fc63          	bgeu	s3,a5,10005da4 <_fwalk+0x68>
10005d90:	00e41783          	lh	a5,14(s0)
10005d94:	00040513          	mv	a0,s0
10005d98:	01278663          	beq	a5,s2,10005da4 <_fwalk+0x68>
10005d9c:	000b00e7          	jalr	s6
10005da0:	00aa6a33          	or	s4,s4,a0
10005da4:	06840413          	addi	s0,s0,104
10005da8:	fd249ee3          	bne	s1,s2,10005d84 <_fwalk+0x48>
10005dac:	000aaa83          	lw	s5,0(s5)
10005db0:	fc0a92e3          	bnez	s5,10005d74 <_fwalk+0x38>
10005db4:	01c12083          	lw	ra,28(sp)
10005db8:	01812403          	lw	s0,24(sp)
10005dbc:	01412483          	lw	s1,20(sp)
10005dc0:	01012903          	lw	s2,16(sp)
10005dc4:	00c12983          	lw	s3,12(sp)
10005dc8:	00412a83          	lw	s5,4(sp)
10005dcc:	00012b03          	lw	s6,0(sp)
10005dd0:	000a0513          	mv	a0,s4
10005dd4:	00812a03          	lw	s4,8(sp)
10005dd8:	02010113          	addi	sp,sp,32
10005ddc:	00008067          	ret

10005de0 <_fwalk_reent>:
10005de0:	fd010113          	addi	sp,sp,-48
10005de4:	03212023          	sw	s2,32(sp)
10005de8:	01312e23          	sw	s3,28(sp)
10005dec:	01412c23          	sw	s4,24(sp)
10005df0:	01512a23          	sw	s5,20(sp)
10005df4:	01612823          	sw	s6,16(sp)
10005df8:	01712623          	sw	s7,12(sp)
10005dfc:	02112623          	sw	ra,44(sp)
10005e00:	02812423          	sw	s0,40(sp)
10005e04:	02912223          	sw	s1,36(sp)
10005e08:	00050a93          	mv	s5,a0
10005e0c:	00058b93          	mv	s7,a1
10005e10:	2e050b13          	addi	s6,a0,736
10005e14:	00000a13          	li	s4,0
10005e18:	00100993          	li	s3,1
10005e1c:	fff00913          	li	s2,-1
10005e20:	004b2483          	lw	s1,4(s6)
10005e24:	008b2403          	lw	s0,8(s6)
10005e28:	fff48493          	addi	s1,s1,-1
10005e2c:	0204c863          	bltz	s1,10005e5c <_fwalk_reent+0x7c>
10005e30:	00c45783          	lhu	a5,12(s0)
10005e34:	fff48493          	addi	s1,s1,-1
10005e38:	00f9fe63          	bgeu	s3,a5,10005e54 <_fwalk_reent+0x74>
10005e3c:	00e41783          	lh	a5,14(s0)
10005e40:	00040593          	mv	a1,s0
10005e44:	000a8513          	mv	a0,s5
10005e48:	01278663          	beq	a5,s2,10005e54 <_fwalk_reent+0x74>
10005e4c:	000b80e7          	jalr	s7
10005e50:	00aa6a33          	or	s4,s4,a0
10005e54:	06840413          	addi	s0,s0,104
10005e58:	fd249ce3          	bne	s1,s2,10005e30 <_fwalk_reent+0x50>
10005e5c:	000b2b03          	lw	s6,0(s6)
10005e60:	fc0b10e3          	bnez	s6,10005e20 <_fwalk_reent+0x40>
10005e64:	02c12083          	lw	ra,44(sp)
10005e68:	02812403          	lw	s0,40(sp)
10005e6c:	02412483          	lw	s1,36(sp)
10005e70:	02012903          	lw	s2,32(sp)
10005e74:	01c12983          	lw	s3,28(sp)
10005e78:	01412a83          	lw	s5,20(sp)
10005e7c:	01012b03          	lw	s6,16(sp)
10005e80:	00c12b83          	lw	s7,12(sp)
10005e84:	000a0513          	mv	a0,s4
10005e88:	01812a03          	lw	s4,24(sp)
10005e8c:	03010113          	addi	sp,sp,48
10005e90:	00008067          	ret

10005e94 <eshdn1>:
10005e94:	00450693          	addi	a3,a0,4
10005e98:	00000793          	li	a5,0
10005e9c:	01a50513          	addi	a0,a0,26
10005ea0:	ffff8837          	lui	a6,0xffff8
10005ea4:	01c0006f          	j	10005ec0 <eshdn1+0x2c>
10005ea8:	00179793          	slli	a5,a5,0x1
10005eac:	00e69023          	sh	a4,0(a3)
10005eb0:	01079793          	slli	a5,a5,0x10
10005eb4:	00268693          	addi	a3,a3,2
10005eb8:	0107d793          	srli	a5,a5,0x10
10005ebc:	02d50e63          	beq	a0,a3,10005ef8 <eshdn1+0x64>
10005ec0:	0006d703          	lhu	a4,0(a3)
10005ec4:	00177613          	andi	a2,a4,1
10005ec8:	00060463          	beqz	a2,10005ed0 <eshdn1+0x3c>
10005ecc:	0017e793          	ori	a5,a5,1
10005ed0:	00175713          	srli	a4,a4,0x1
10005ed4:	0027f613          	andi	a2,a5,2
10005ed8:	010765b3          	or	a1,a4,a6
10005edc:	fc0606e3          	beqz	a2,10005ea8 <eshdn1+0x14>
10005ee0:	00179793          	slli	a5,a5,0x1
10005ee4:	00b69023          	sh	a1,0(a3)
10005ee8:	01079793          	slli	a5,a5,0x10
10005eec:	00268693          	addi	a3,a3,2
10005ef0:	0107d793          	srli	a5,a5,0x10
10005ef4:	fcd516e3          	bne	a0,a3,10005ec0 <eshdn1+0x2c>
10005ef8:	00008067          	ret

10005efc <eshup1>:
10005efc:	01850693          	addi	a3,a0,24
10005f00:	00000713          	li	a4,0
10005f04:	00250513          	addi	a0,a0,2
10005f08:	01c0006f          	j	10005f24 <eshup1+0x28>
10005f0c:	00171713          	slli	a4,a4,0x1
10005f10:	00f69023          	sh	a5,0(a3)
10005f14:	01071713          	slli	a4,a4,0x10
10005f18:	ffe68693          	addi	a3,a3,-2
10005f1c:	01075713          	srli	a4,a4,0x10
10005f20:	04d50463          	beq	a0,a3,10005f68 <eshup1+0x6c>
10005f24:	0006d783          	lhu	a5,0(a3)
10005f28:	01079613          	slli	a2,a5,0x10
10005f2c:	41065613          	srai	a2,a2,0x10
10005f30:	00179793          	slli	a5,a5,0x1
10005f34:	00065463          	bgez	a2,10005f3c <eshup1+0x40>
10005f38:	00176713          	ori	a4,a4,1
10005f3c:	01079793          	slli	a5,a5,0x10
10005f40:	0107d793          	srli	a5,a5,0x10
10005f44:	00277613          	andi	a2,a4,2
10005f48:	0017e593          	ori	a1,a5,1
10005f4c:	fc0600e3          	beqz	a2,10005f0c <eshup1+0x10>
10005f50:	00171713          	slli	a4,a4,0x1
10005f54:	00b69023          	sh	a1,0(a3)
10005f58:	01071713          	slli	a4,a4,0x10
10005f5c:	ffe68693          	addi	a3,a3,-2
10005f60:	01075713          	srli	a4,a4,0x10
10005f64:	fcd510e3          	bne	a0,a3,10005f24 <eshup1+0x28>
10005f68:	00008067          	ret

10005f6c <m16m>:
10005f6c:	fc010113          	addi	sp,sp,-64
10005f70:	03312623          	sw	s3,44(sp)
10005f74:	000109b7          	lui	s3,0x10
10005f78:	02812c23          	sw	s0,56(sp)
10005f7c:	02912a23          	sw	s1,52(sp)
10005f80:	03212823          	sw	s2,48(sp)
10005f84:	03412423          	sw	s4,40(sp)
10005f88:	03512223          	sw	s5,36(sp)
10005f8c:	02112e23          	sw	ra,60(sp)
10005f90:	00050a13          	mv	s4,a0
10005f94:	00060493          	mv	s1,a2
10005f98:	00011d23          	sh	zero,26(sp)
10005f9c:	00011e23          	sh	zero,28(sp)
10005fa0:	01858913          	addi	s2,a1,24
10005fa4:	01c10413          	addi	s0,sp,28
10005fa8:	00810a93          	addi	s5,sp,8
10005fac:	fff98993          	addi	s3,s3,-1 # ffff <__heap_size+0xefff>
10005fb0:	00095503          	lhu	a0,0(s2)
10005fb4:	000a0593          	mv	a1,s4
10005fb8:	ffe40413          	addi	s0,s0,-2
10005fbc:	ffe90913          	addi	s2,s2,-2
10005fc0:	02050a63          	beqz	a0,10005ff4 <m16m+0x88>
10005fc4:	5f90d0ef          	jal	ra,10013dbc <__mulsi3>
10005fc8:	00245703          	lhu	a4,2(s0)
10005fcc:	00045683          	lhu	a3,0(s0)
10005fd0:	013577b3          	and	a5,a0,s3
10005fd4:	00e787b3          	add	a5,a5,a4
10005fd8:	01055513          	srli	a0,a0,0x10
10005fdc:	0107d713          	srli	a4,a5,0x10
10005fe0:	00d50533          	add	a0,a0,a3
10005fe4:	00e50533          	add	a0,a0,a4
10005fe8:	00a41023          	sh	a0,0(s0)
10005fec:	00f41123          	sh	a5,2(s0)
10005ff0:	01055513          	srli	a0,a0,0x10
10005ff4:	fea41f23          	sh	a0,-2(s0)
10005ff8:	fb541ce3          	bne	s0,s5,10005fb0 <m16m+0x44>
10005ffc:	00448613          	addi	a2,s1,4
10006000:	01e10713          	addi	a4,sp,30
10006004:	00045783          	lhu	a5,0(s0)
10006008:	00240413          	addi	s0,s0,2
1000600c:	00260613          	addi	a2,a2,2
10006010:	fef61f23          	sh	a5,-2(a2)
10006014:	fee418e3          	bne	s0,a4,10006004 <m16m+0x98>
10006018:	03c12083          	lw	ra,60(sp)
1000601c:	03812403          	lw	s0,56(sp)
10006020:	03412483          	lw	s1,52(sp)
10006024:	03012903          	lw	s2,48(sp)
10006028:	02c12983          	lw	s3,44(sp)
1000602c:	02812a03          	lw	s4,40(sp)
10006030:	02412a83          	lw	s5,36(sp)
10006034:	04010113          	addi	sp,sp,64
10006038:	00008067          	ret

1000603c <emovo.constprop.0>:
1000603c:	00055703          	lhu	a4,0(a0)
10006040:	00255783          	lhu	a5,2(a0)
10006044:	00070663          	beqz	a4,10006050 <emovo.constprop.0+0x14>
10006048:	00008737          	lui	a4,0x8
1000604c:	00e7e7b3          	or	a5,a5,a4
10006050:	00f59923          	sh	a5,18(a1)
10006054:	00255703          	lhu	a4,2(a0)
10006058:	000087b7          	lui	a5,0x8
1000605c:	fff78793          	addi	a5,a5,-1 # 7fff <__heap_size+0x6fff>
10006060:	02f70463          	beq	a4,a5,10006088 <emovo.constprop.0+0x4c>
10006064:	00650793          	addi	a5,a0,6
10006068:	01058593          	addi	a1,a1,16
1000606c:	01850513          	addi	a0,a0,24
10006070:	0007d703          	lhu	a4,0(a5)
10006074:	00278793          	addi	a5,a5,2
10006078:	ffe58593          	addi	a1,a1,-2
1000607c:	00e59123          	sh	a4,2(a1)
10006080:	fea798e3          	bne	a5,a0,10006070 <emovo.constprop.0+0x34>
10006084:	00008067          	ret
10006088:	00650793          	addi	a5,a0,6
1000608c:	01a50513          	addi	a0,a0,26
10006090:	0007d703          	lhu	a4,0(a5)
10006094:	00278793          	addi	a5,a5,2
10006098:	02071a63          	bnez	a4,100060cc <emovo.constprop.0+0x90>
1000609c:	fea79ae3          	bne	a5,a0,10006090 <emovo.constprop.0+0x54>
100060a0:	01258713          	addi	a4,a1,18
100060a4:	00058793          	mv	a5,a1
100060a8:	00278793          	addi	a5,a5,2
100060ac:	fe079f23          	sh	zero,-2(a5)
100060b0:	fef71ce3          	bne	a4,a5,100060a8 <emovo.constprop.0+0x6c>
100060b4:	0125d783          	lhu	a5,18(a1)
100060b8:	00008737          	lui	a4,0x8
100060bc:	fff70713          	addi	a4,a4,-1 # 7fff <__heap_size+0x6fff>
100060c0:	00e7e7b3          	or	a5,a5,a4
100060c4:	00f59923          	sh	a5,18(a1)
100060c8:	00008067          	ret
100060cc:	01058713          	addi	a4,a1,16
100060d0:	00058793          	mv	a5,a1
100060d4:	00278793          	addi	a5,a5,2
100060d8:	fe079f23          	sh	zero,-2(a5)
100060dc:	fef71ce3          	bne	a4,a5,100060d4 <emovo.constprop.0+0x98>
100060e0:	ffffc7b7          	lui	a5,0xffffc
100060e4:	00f59823          	sh	a5,16(a1)
100060e8:	ffff87b7          	lui	a5,0xffff8
100060ec:	fff7c793          	not	a5,a5
100060f0:	00f59923          	sh	a5,18(a1)
100060f4:	00008067          	ret

100060f8 <enormlz>:
100060f8:	00455783          	lhu	a5,4(a0)
100060fc:	ff010113          	addi	sp,sp,-16
10006100:	00912223          	sw	s1,4(sp)
10006104:	00112623          	sw	ra,12(sp)
10006108:	00812423          	sw	s0,8(sp)
1000610c:	01212023          	sw	s2,0(sp)
10006110:	00050493          	mv	s1,a0
10006114:	0c079c63          	bnez	a5,100061ec <enormlz+0xf4>
10006118:	00655703          	lhu	a4,6(a0)
1000611c:	00000413          	li	s0,0
10006120:	01071793          	slli	a5,a4,0x10
10006124:	4107d793          	srai	a5,a5,0x10
10006128:	0a07c463          	bltz	a5,100061d0 <enormlz+0xd8>
1000612c:	01a50693          	addi	a3,a0,26
10006130:	0a000613          	li	a2,160
10006134:	02071863          	bnez	a4,10006164 <enormlz+0x6c>
10006138:	00648793          	addi	a5,s1,6
1000613c:	0080006f          	j	10006144 <enormlz+0x4c>
10006140:	0007d703          	lhu	a4,0(a5) # ffff8000 <_sp+0xeffcfa94>
10006144:	00278793          	addi	a5,a5,2
10006148:	fee79e23          	sh	a4,-4(a5)
1000614c:	fed79ae3          	bne	a5,a3,10006140 <enormlz+0x48>
10006150:	00049c23          	sh	zero,24(s1)
10006154:	01040413          	addi	s0,s0,16
10006158:	06c40c63          	beq	s0,a2,100061d0 <enormlz+0xd8>
1000615c:	0064d703          	lhu	a4,6(s1)
10006160:	fc070ce3          	beqz	a4,10006138 <enormlz+0x40>
10006164:	f0077793          	andi	a5,a4,-256
10006168:	04079063          	bnez	a5,100061a8 <enormlz+0xb0>
1000616c:	01848513          	addi	a0,s1,24
10006170:	00248593          	addi	a1,s1,2
10006174:	00000793          	li	a5,0
10006178:	00050713          	mv	a4,a0
1000617c:	00075683          	lhu	a3,0(a4)
10006180:	ffe70713          	addi	a4,a4,-2
10006184:	00869613          	slli	a2,a3,0x8
10006188:	00c7e7b3          	or	a5,a5,a2
1000618c:	00f71123          	sh	a5,2(a4)
10006190:	0086d793          	srli	a5,a3,0x8
10006194:	feb714e3          	bne	a4,a1,1000617c <enormlz+0x84>
10006198:	0064d703          	lhu	a4,6(s1)
1000619c:	00840413          	addi	s0,s0,8
100061a0:	f0077793          	andi	a5,a4,-256
100061a4:	fc0788e3          	beqz	a5,10006174 <enormlz+0x7c>
100061a8:	0a000913          	li	s2,160
100061ac:	0140006f          	j	100061c0 <enormlz+0xc8>
100061b0:	00140413          	addi	s0,s0,1
100061b4:	d49ff0ef          	jal	ra,10005efc <eshup1>
100061b8:	00894c63          	blt	s2,s0,100061d0 <enormlz+0xd8>
100061bc:	0064d703          	lhu	a4,6(s1)
100061c0:	01071713          	slli	a4,a4,0x10
100061c4:	41075713          	srai	a4,a4,0x10
100061c8:	00048513          	mv	a0,s1
100061cc:	fe0752e3          	bgez	a4,100061b0 <enormlz+0xb8>
100061d0:	00c12083          	lw	ra,12(sp)
100061d4:	00040513          	mv	a0,s0
100061d8:	00812403          	lw	s0,8(sp)
100061dc:	00412483          	lw	s1,4(sp)
100061e0:	00012903          	lw	s2,0(sp)
100061e4:	01010113          	addi	sp,sp,16
100061e8:	00008067          	ret
100061ec:	f007f713          	andi	a4,a5,-256
100061f0:	00000413          	li	s0,0
100061f4:	04071063          	bnez	a4,10006234 <enormlz+0x13c>
100061f8:	f6f00913          	li	s2,-145
100061fc:	0140006f          	j	10006210 <enormlz+0x118>
10006200:	fff40413          	addi	s0,s0,-1
10006204:	c91ff0ef          	jal	ra,10005e94 <eshdn1>
10006208:	fd2404e3          	beq	s0,s2,100061d0 <enormlz+0xd8>
1000620c:	0044d783          	lhu	a5,4(s1)
10006210:	00048513          	mv	a0,s1
10006214:	fe0796e3          	bnez	a5,10006200 <enormlz+0x108>
10006218:	00c12083          	lw	ra,12(sp)
1000621c:	00040513          	mv	a0,s0
10006220:	00812403          	lw	s0,8(sp)
10006224:	00412483          	lw	s1,4(sp)
10006228:	00012903          	lw	s2,0(sp)
1000622c:	01010113          	addi	sp,sp,16
10006230:	00008067          	ret
10006234:	00450693          	addi	a3,a0,4
10006238:	01a50593          	addi	a1,a0,26
1000623c:	00000713          	li	a4,0
10006240:	0080006f          	j	10006248 <enormlz+0x150>
10006244:	0006d783          	lhu	a5,0(a3)
10006248:	0087d613          	srli	a2,a5,0x8
1000624c:	00c76733          	or	a4,a4,a2
10006250:	00879793          	slli	a5,a5,0x8
10006254:	00e69023          	sh	a4,0(a3)
10006258:	01079713          	slli	a4,a5,0x10
1000625c:	00268693          	addi	a3,a3,2
10006260:	01075713          	srli	a4,a4,0x10
10006264:	fed590e3          	bne	a1,a3,10006244 <enormlz+0x14c>
10006268:	0044d783          	lhu	a5,4(s1)
1000626c:	ff800413          	li	s0,-8
10006270:	f89ff06f          	j	100061f8 <enormlz+0x100>

10006274 <eshift.part.0>:
10006274:	fe010113          	addi	sp,sp,-32
10006278:	00812c23          	sw	s0,24(sp)
1000627c:	00912a23          	sw	s1,20(sp)
10006280:	00112e23          	sw	ra,28(sp)
10006284:	01212823          	sw	s2,16(sp)
10006288:	01312623          	sw	s3,12(sp)
1000628c:	00058493          	mv	s1,a1
10006290:	00050413          	mv	s0,a0
10006294:	0a05c463          	bltz	a1,1000633c <eshift.part.0+0xc8>
10006298:	00f00793          	li	a5,15
1000629c:	00058613          	mv	a2,a1
100062a0:	00450513          	addi	a0,a0,4
100062a4:	01840693          	addi	a3,s0,24
100062a8:	00f00593          	li	a1,15
100062ac:	0297d463          	bge	a5,s1,100062d4 <eshift.part.0+0x60>
100062b0:	00050793          	mv	a5,a0
100062b4:	0027d703          	lhu	a4,2(a5)
100062b8:	00278793          	addi	a5,a5,2
100062bc:	fee79f23          	sh	a4,-2(a5)
100062c0:	fef69ae3          	bne	a3,a5,100062b4 <eshift.part.0+0x40>
100062c4:	00041c23          	sh	zero,24(s0)
100062c8:	ff060613          	addi	a2,a2,-16
100062cc:	fec5c2e3          	blt	a1,a2,100062b0 <eshift.part.0+0x3c>
100062d0:	00f4f493          	andi	s1,s1,15
100062d4:	00700793          	li	a5,7
100062d8:	0297d863          	bge	a5,s1,10006308 <eshift.part.0+0x94>
100062dc:	01840713          	addi	a4,s0,24
100062e0:	00240593          	addi	a1,s0,2
100062e4:	00000793          	li	a5,0
100062e8:	00075683          	lhu	a3,0(a4)
100062ec:	ffe70713          	addi	a4,a4,-2
100062f0:	00869613          	slli	a2,a3,0x8
100062f4:	00c7e7b3          	or	a5,a5,a2
100062f8:	00f71123          	sh	a5,2(a4)
100062fc:	0086d793          	srli	a5,a3,0x8
10006300:	fee594e3          	bne	a1,a4,100062e8 <eshift.part.0+0x74>
10006304:	ff848493          	addi	s1,s1,-8
10006308:	00048a63          	beqz	s1,1000631c <eshift.part.0+0xa8>
1000630c:	fff48493          	addi	s1,s1,-1
10006310:	00040513          	mv	a0,s0
10006314:	be9ff0ef          	jal	ra,10005efc <eshup1>
10006318:	fe049ae3          	bnez	s1,1000630c <eshift.part.0+0x98>
1000631c:	01c12083          	lw	ra,28(sp)
10006320:	01812403          	lw	s0,24(sp)
10006324:	01412483          	lw	s1,20(sp)
10006328:	01012903          	lw	s2,16(sp)
1000632c:	00c12983          	lw	s3,12(sp)
10006330:	00000513          	li	a0,0
10006334:	02010113          	addi	sp,sp,32
10006338:	00008067          	ret
1000633c:	ff100793          	li	a5,-15
10006340:	40b00933          	neg	s2,a1
10006344:	08f5de63          	bge	a1,a5,100063e0 <eshift.part.0+0x16c>
10006348:	01850593          	addi	a1,a0,24
1000634c:	00000993          	li	s3,0
10006350:	00450693          	addi	a3,a0,4
10006354:	00f00613          	li	a2,15
10006358:	01845703          	lhu	a4,24(s0)
1000635c:	00058793          	mv	a5,a1
10006360:	00e9e9b3          	or	s3,s3,a4
10006364:	ffe7d703          	lhu	a4,-2(a5)
10006368:	ffe78793          	addi	a5,a5,-2
1000636c:	00e79123          	sh	a4,2(a5)
10006370:	fed79ae3          	bne	a5,a3,10006364 <eshift.part.0+0xf0>
10006374:	00041223          	sh	zero,4(s0)
10006378:	ff090913          	addi	s2,s2,-16
1000637c:	fd264ee3          	blt	a2,s2,10006358 <eshift.part.0+0xe4>
10006380:	ff000913          	li	s2,-16
10006384:	ff100713          	li	a4,-15
10006388:	40990933          	sub	s2,s2,s1
1000638c:	00000793          	li	a5,0
10006390:	08e4ce63          	blt	s1,a4,1000642c <eshift.part.0+0x1b8>
10006394:	00f90933          	add	s2,s2,a5
10006398:	00700793          	li	a5,7
1000639c:	0527ca63          	blt	a5,s2,100063f0 <eshift.part.0+0x17c>
100063a0:	02090063          	beqz	s2,100063c0 <eshift.part.0+0x14c>
100063a4:	01845783          	lhu	a5,24(s0)
100063a8:	fff90913          	addi	s2,s2,-1
100063ac:	00040513          	mv	a0,s0
100063b0:	0017f793          	andi	a5,a5,1
100063b4:	00f9e9b3          	or	s3,s3,a5
100063b8:	addff0ef          	jal	ra,10005e94 <eshdn1>
100063bc:	fe0914e3          	bnez	s2,100063a4 <eshift.part.0+0x130>
100063c0:	01c12083          	lw	ra,28(sp)
100063c4:	01812403          	lw	s0,24(sp)
100063c8:	01412483          	lw	s1,20(sp)
100063cc:	01012903          	lw	s2,16(sp)
100063d0:	01303533          	snez	a0,s3
100063d4:	00c12983          	lw	s3,12(sp)
100063d8:	02010113          	addi	sp,sp,32
100063dc:	00008067          	ret
100063e0:	ff900793          	li	a5,-7
100063e4:	00000993          	li	s3,0
100063e8:	00450693          	addi	a3,a0,4
100063ec:	faf5dce3          	bge	a1,a5,100063a4 <eshift.part.0+0x130>
100063f0:	01844783          	lbu	a5,24(s0)
100063f4:	01a40593          	addi	a1,s0,26
100063f8:	00f9e9b3          	or	s3,s3,a5
100063fc:	00000793          	li	a5,0
10006400:	0006d703          	lhu	a4,0(a3)
10006404:	00268693          	addi	a3,a3,2
10006408:	00875613          	srli	a2,a4,0x8
1000640c:	00c7e7b3          	or	a5,a5,a2
10006410:	00871713          	slli	a4,a4,0x8
10006414:	fef69f23          	sh	a5,-2(a3)
10006418:	01071793          	slli	a5,a4,0x10
1000641c:	0107d793          	srli	a5,a5,0x10
10006420:	feb690e3          	bne	a3,a1,10006400 <eshift.part.0+0x18c>
10006424:	ff890913          	addi	s2,s2,-8
10006428:	f79ff06f          	j	100063a0 <eshift.part.0+0x12c>
1000642c:	ff097793          	andi	a5,s2,-16
10006430:	40f007b3          	neg	a5,a5
10006434:	00f90933          	add	s2,s2,a5
10006438:	00700793          	li	a5,7
1000643c:	f727d2e3          	bge	a5,s2,100063a0 <eshift.part.0+0x12c>
10006440:	fb1ff06f          	j	100063f0 <eshift.part.0+0x17c>

10006444 <emovi>:
10006444:	01255783          	lhu	a5,18(a0)
10006448:	00008637          	lui	a2,0x8
1000644c:	fff60613          	addi	a2,a2,-1 # 7fff <__heap_size+0x6fff>
10006450:	00f7d793          	srli	a5,a5,0xf
10006454:	40f007b3          	neg	a5,a5
10006458:	00f59023          	sh	a5,0(a1)
1000645c:	01255683          	lhu	a3,18(a0)
10006460:	01050793          	addi	a5,a0,16
10006464:	00458713          	addi	a4,a1,4
10006468:	00c6f6b3          	and	a3,a3,a2
1000646c:	00d59123          	sh	a3,2(a1)
10006470:	02c68663          	beq	a3,a2,1000649c <emovi+0x58>
10006474:	00658713          	addi	a4,a1,6
10006478:	00059223          	sh	zero,4(a1)
1000647c:	ffe50513          	addi	a0,a0,-2
10006480:	0007d683          	lhu	a3,0(a5)
10006484:	ffe78793          	addi	a5,a5,-2
10006488:	00270713          	addi	a4,a4,2
1000648c:	fed71f23          	sh	a3,-2(a4)
10006490:	fef518e3          	bne	a0,a5,10006480 <emovi+0x3c>
10006494:	00059c23          	sh	zero,24(a1)
10006498:	00008067          	ret
1000649c:	01255603          	lhu	a2,18(a0)
100064a0:	00d67633          	and	a2,a2,a3
100064a4:	00d61e63          	bne	a2,a3,100064c0 <emovi+0x7c>
100064a8:	01250813          	addi	a6,a0,18
100064ac:	00050693          	mv	a3,a0
100064b0:	0006d603          	lhu	a2,0(a3)
100064b4:	00268693          	addi	a3,a3,2
100064b8:	00061e63          	bnez	a2,100064d4 <emovi+0x90>
100064bc:	ff069ae3          	bne	a3,a6,100064b0 <emovi+0x6c>
100064c0:	01a58593          	addi	a1,a1,26
100064c4:	00270713          	addi	a4,a4,2
100064c8:	fe071f23          	sh	zero,-2(a4)
100064cc:	fee59ce3          	bne	a1,a4,100064c4 <emovi+0x80>
100064d0:	00008067          	ret
100064d4:	00658713          	addi	a4,a1,6
100064d8:	00059223          	sh	zero,4(a1)
100064dc:	ffc50513          	addi	a0,a0,-4
100064e0:	0007d683          	lhu	a3,0(a5)
100064e4:	ffe78793          	addi	a5,a5,-2
100064e8:	00270713          	addi	a4,a4,2
100064ec:	fed71f23          	sh	a3,-2(a4)
100064f0:	fea798e3          	bne	a5,a0,100064e0 <emovi+0x9c>
100064f4:	00008067          	ret

100064f8 <ecmp>:
100064f8:	01255783          	lhu	a5,18(a0)
100064fc:	fb010113          	addi	sp,sp,-80
10006500:	04812423          	sw	s0,72(sp)
10006504:	fff7c793          	not	a5,a5
10006508:	04112623          	sw	ra,76(sp)
1000650c:	01179713          	slli	a4,a5,0x11
10006510:	00058413          	mv	s0,a1
10006514:	00071e63          	bnez	a4,10006530 <ecmp+0x38>
10006518:	01250693          	addi	a3,a0,18
1000651c:	00050793          	mv	a5,a0
10006520:	0007d703          	lhu	a4,0(a5)
10006524:	00278793          	addi	a5,a5,2
10006528:	08071c63          	bnez	a4,100065c0 <ecmp+0xc8>
1000652c:	fed79ae3          	bne	a5,a3,10006520 <ecmp+0x28>
10006530:	01245783          	lhu	a5,18(s0)
10006534:	fff7c793          	not	a5,a5
10006538:	01179713          	slli	a4,a5,0x11
1000653c:	06070063          	beqz	a4,1000659c <ecmp+0xa4>
10006540:	00810593          	addi	a1,sp,8
10006544:	f01ff0ef          	jal	ra,10006444 <emovi>
10006548:	02410593          	addi	a1,sp,36
1000654c:	00040513          	mv	a0,s0
10006550:	ef5ff0ef          	jal	ra,10006444 <emovi>
10006554:	00815583          	lhu	a1,8(sp)
10006558:	02415503          	lhu	a0,36(sp)
1000655c:	06b50c63          	beq	a0,a1,100065d4 <ecmp+0xdc>
10006560:	00a10793          	addi	a5,sp,10
10006564:	02610713          	addi	a4,sp,38
10006568:	02010613          	addi	a2,sp,32
1000656c:	0007d683          	lhu	a3,0(a5)
10006570:	00278793          	addi	a5,a5,2
10006574:	0a069863          	bnez	a3,10006624 <ecmp+0x12c>
10006578:	00075683          	lhu	a3,0(a4)
1000657c:	00270713          	addi	a4,a4,2
10006580:	0a069263          	bnez	a3,10006624 <ecmp+0x12c>
10006584:	fef614e3          	bne	a2,a5,1000656c <ecmp+0x74>
10006588:	00000513          	li	a0,0
1000658c:	04c12083          	lw	ra,76(sp)
10006590:	04812403          	lw	s0,72(sp)
10006594:	05010113          	addi	sp,sp,80
10006598:	00008067          	ret
1000659c:	00040793          	mv	a5,s0
100065a0:	0007d703          	lhu	a4,0(a5)
100065a4:	01240693          	addi	a3,s0,18
100065a8:	00278793          	addi	a5,a5,2
100065ac:	00071a63          	bnez	a4,100065c0 <ecmp+0xc8>
100065b0:	f8d788e3          	beq	a5,a3,10006540 <ecmp+0x48>
100065b4:	0007d703          	lhu	a4,0(a5)
100065b8:	00278793          	addi	a5,a5,2
100065bc:	fe070ae3          	beqz	a4,100065b0 <ecmp+0xb8>
100065c0:	04c12083          	lw	ra,76(sp)
100065c4:	04812403          	lw	s0,72(sp)
100065c8:	ffe00513          	li	a0,-2
100065cc:	05010113          	addi	sp,sp,80
100065d0:	00008067          	ret
100065d4:	00a15603          	lhu	a2,10(sp)
100065d8:	02615683          	lhu	a3,38(sp)
100065dc:	00153513          	seqz	a0,a0
100065e0:	00a10713          	addi	a4,sp,10
100065e4:	02610793          	addi	a5,sp,38
100065e8:	00151513          	slli	a0,a0,0x1
100065ec:	fff50513          	addi	a0,a0,-1
100065f0:	03c10593          	addi	a1,sp,60
100065f4:	00278793          	addi	a5,a5,2
100065f8:	00270713          	addi	a4,a4,2
100065fc:	00d61e63          	bne	a2,a3,10006618 <ecmp+0x120>
10006600:	f8b784e3          	beq	a5,a1,10006588 <ecmp+0x90>
10006604:	00075603          	lhu	a2,0(a4)
10006608:	0007d683          	lhu	a3,0(a5)
1000660c:	00270713          	addi	a4,a4,2
10006610:	00278793          	addi	a5,a5,2
10006614:	fed606e3          	beq	a2,a3,10006600 <ecmp+0x108>
10006618:	f6c6eae3          	bltu	a3,a2,1000658c <ecmp+0x94>
1000661c:	40a00533          	neg	a0,a0
10006620:	f6dff06f          	j	1000658c <ecmp+0x94>
10006624:	00100513          	li	a0,1
10006628:	f60582e3          	beqz	a1,1000658c <ecmp+0x94>
1000662c:	fff00513          	li	a0,-1
10006630:	f5dff06f          	j	1000658c <ecmp+0x94>

10006634 <emdnorm>:
10006634:	fd010113          	addi	sp,sp,-48
10006638:	02812423          	sw	s0,40(sp)
1000663c:	03212023          	sw	s2,32(sp)
10006640:	01312e23          	sw	s3,28(sp)
10006644:	01412c23          	sw	s4,24(sp)
10006648:	01512a23          	sw	s5,20(sp)
1000664c:	01712623          	sw	s7,12(sp)
10006650:	00078913          	mv	s2,a5
10006654:	00068b93          	mv	s7,a3
10006658:	02112623          	sw	ra,44(sp)
1000665c:	02912223          	sw	s1,36(sp)
10006660:	01612823          	sw	s6,16(sp)
10006664:	00050413          	mv	s0,a0
10006668:	00058993          	mv	s3,a1
1000666c:	00060a13          	mv	s4,a2
10006670:	00070a93          	mv	s5,a4
10006674:	a85ff0ef          	jal	ra,100060f8 <enormlz>
10006678:	09000793          	li	a5,144
1000667c:	40ab8bb3          	sub	s7,s7,a0
10006680:	14a7d463          	bge	a5,a0,100067c8 <emdnorm+0x194>
10006684:	000087b7          	lui	a5,0x8
10006688:	ffe78793          	addi	a5,a5,-2 # 7ffe <__heap_size+0x6ffe>
1000668c:	2777d263          	bge	a5,s7,100068f0 <emdnorm+0x2bc>
10006690:	220a8c63          	beqz	s5,100068c8 <emdnorm+0x294>
10006694:	00492a83          	lw	s5,4(s2)
10006698:	00092683          	lw	a3,0(s2)
1000669c:	01a90713          	addi	a4,s2,26
100066a0:	03490793          	addi	a5,s2,52
100066a4:	2ada8063          	beq	s5,a3,10006944 <emdnorm+0x310>
100066a8:	00270713          	addi	a4,a4,2
100066ac:	fe071f23          	sh	zero,-2(a4)
100066b0:	fee79ce3          	bne	a5,a4,100066a8 <emdnorm+0x74>
100066b4:	03800793          	li	a5,56
100066b8:	32fa8263          	beq	s5,a5,100069dc <emdnorm+0x3a8>
100066bc:	1357d863          	bge	a5,s5,100067ec <emdnorm+0x1b8>
100066c0:	04000793          	li	a5,64
100066c4:	2afa8863          	beq	s5,a5,10006974 <emdnorm+0x340>
100066c8:	07100793          	li	a5,113
100066cc:	32fa9663          	bne	s5,a5,100069f8 <emdnorm+0x3c4>
100066d0:	00008737          	lui	a4,0x8
100066d4:	fff70713          	addi	a4,a4,-1 # 7fff <__heap_size+0x6fff>
100066d8:	000045b7          	lui	a1,0x4
100066dc:	01400b13          	li	s6,20
100066e0:	00a00493          	li	s1,10
100066e4:	000087b7          	lui	a5,0x8
100066e8:	00a00613          	li	a2,10
100066ec:	00860693          	addi	a3,a2,8
100066f0:	00169693          	slli	a3,a3,0x1
100066f4:	00e91a23          	sh	a4,20(s2)
100066f8:	00992423          	sw	s1,8(s2)
100066fc:	00b91b23          	sh	a1,22(s2)
10006700:	00f91c23          	sh	a5,24(s2)
10006704:	00c92623          	sw	a2,12(s2)
10006708:	00d90733          	add	a4,s2,a3
1000670c:	00f71523          	sh	a5,10(a4)
10006710:	01592023          	sw	s5,0(s2)
10006714:	01640b33          	add	s6,s0,s6
10006718:	23705e63          	blez	s7,10006954 <emdnorm+0x320>
1000671c:	000b5783          	lhu	a5,0(s6)
10006720:	01495703          	lhu	a4,20(s2)
10006724:	08f00693          	li	a3,143
10006728:	00e7f633          	and	a2,a5,a4
1000672c:	0356cc63          	blt	a3,s5,10006764 <emdnorm+0x130>
10006730:	00b00693          	li	a3,11
10006734:	0296c863          	blt	a3,s1,10006764 <emdnorm+0x130>
10006738:	00149713          	slli	a4,s1,0x1
1000673c:	00e40733          	add	a4,s0,a4
10006740:	01840693          	addi	a3,s0,24
10006744:	00275783          	lhu	a5,2(a4)
10006748:	00078463          	beqz	a5,10006750 <emdnorm+0x11c>
1000674c:	00166613          	ori	a2,a2,1
10006750:	00071123          	sh	zero,2(a4)
10006754:	00270713          	addi	a4,a4,2
10006758:	fee696e3          	bne	a3,a4,10006744 <emdnorm+0x110>
1000675c:	000b5783          	lhu	a5,0(s6)
10006760:	01495703          	lhu	a4,20(s2)
10006764:	fff74713          	not	a4,a4
10006768:	00e7f7b3          	and	a5,a5,a4
1000676c:	00fb1023          	sh	a5,0(s6)
10006770:	01695783          	lhu	a5,22(s2)
10006774:	00c7f733          	and	a4,a5,a2
10006778:	0c071463          	bnez	a4,10006840 <emdnorm+0x20c>
1000677c:	13705263          	blez	s7,100068a0 <emdnorm+0x26c>
10006780:	00445783          	lhu	a5,4(s0)
10006784:	22079663          	bnez	a5,100069b0 <emdnorm+0x37c>
10006788:	000087b7          	lui	a5,0x8
1000678c:	00041c23          	sh	zero,24(s0)
10006790:	ffe78793          	addi	a5,a5,-2 # 7ffe <__heap_size+0x6ffe>
10006794:	1377cc63          	blt	a5,s7,100068cc <emdnorm+0x298>
10006798:	01741123          	sh	s7,2(s0)
1000679c:	02c12083          	lw	ra,44(sp)
100067a0:	02812403          	lw	s0,40(sp)
100067a4:	02412483          	lw	s1,36(sp)
100067a8:	02012903          	lw	s2,32(sp)
100067ac:	01c12983          	lw	s3,28(sp)
100067b0:	01812a03          	lw	s4,24(sp)
100067b4:	01412a83          	lw	s5,20(sp)
100067b8:	01012b03          	lw	s6,16(sp)
100067bc:	00c12b83          	lw	s7,12(sp)
100067c0:	03010113          	addi	sp,sp,48
100067c4:	00008067          	ret
100067c8:	160bd263          	bgez	s7,1000692c <emdnorm+0x2f8>
100067cc:	f7000793          	li	a5,-144
100067d0:	12fbdc63          	bge	s7,a5,10006908 <emdnorm+0x2d4>
100067d4:	00240793          	addi	a5,s0,2
100067d8:	01a40413          	addi	s0,s0,26
100067dc:	00278793          	addi	a5,a5,2
100067e0:	fe079f23          	sh	zero,-2(a5)
100067e4:	fe879ce3          	bne	a5,s0,100067dc <emdnorm+0x1a8>
100067e8:	fb5ff06f          	j	1000679c <emdnorm+0x168>
100067ec:	01800793          	li	a5,24
100067f0:	1afa8263          	beq	s5,a5,10006994 <emdnorm+0x360>
100067f4:	03500793          	li	a5,53
100067f8:	20fa9063          	bne	s5,a5,100069f8 <emdnorm+0x3c4>
100067fc:	000017b7          	lui	a5,0x1
10006800:	7ff00713          	li	a4,2047
10006804:	40000593          	li	a1,1024
10006808:	00c00b13          	li	s6,12
1000680c:	00600493          	li	s1,6
10006810:	80078793          	addi	a5,a5,-2048 # 800 <__stack_size+0x6d4>
10006814:	00600613          	li	a2,6
10006818:	ed5ff06f          	j	100066ec <emdnorm+0xb8>
1000681c:	01495703          	lhu	a4,20(s2)
10006820:	000b5603          	lhu	a2,0(s6)
10006824:	fff74793          	not	a5,a4
10006828:	00f677b3          	and	a5,a2,a5
1000682c:	00fb1023          	sh	a5,0(s6)
10006830:	01695783          	lhu	a5,22(s2)
10006834:	00e67633          	and	a2,a2,a4
10006838:	00c7f733          	and	a4,a5,a2
1000683c:	06070a63          	beqz	a4,100068b0 <emdnorm+0x27c>
10006840:	02c79263          	bne	a5,a2,10006864 <emdnorm+0x230>
10006844:	18099863          	bnez	s3,100069d4 <emdnorm+0x3a0>
10006848:	00c92783          	lw	a5,12(s2)
1000684c:	01895703          	lhu	a4,24(s2)
10006850:	00179793          	slli	a5,a5,0x1
10006854:	00f407b3          	add	a5,s0,a5
10006858:	0007d783          	lhu	a5,0(a5)
1000685c:	00e7f7b3          	and	a5,a5,a4
10006860:	f0078ee3          	beqz	a5,1000677c <emdnorm+0x148>
10006864:	03290513          	addi	a0,s2,50
10006868:	01840613          	addi	a2,s0,24
1000686c:	01c90913          	addi	s2,s2,28
10006870:	00000793          	li	a5,0
10006874:	00055703          	lhu	a4,0(a0)
10006878:	00065803          	lhu	a6,0(a2)
1000687c:	ffe60613          	addi	a2,a2,-2
10006880:	ffe50513          	addi	a0,a0,-2
10006884:	01070733          	add	a4,a4,a6
10006888:	00f70733          	add	a4,a4,a5
1000688c:	01075793          	srli	a5,a4,0x10
10006890:	00e61123          	sh	a4,2(a2)
10006894:	0017f793          	andi	a5,a5,1
10006898:	fca91ee3          	bne	s2,a0,10006874 <emdnorm+0x240>
1000689c:	ef7042e3          	bgtz	s7,10006780 <emdnorm+0x14c>
100068a0:	09000793          	li	a5,144
100068a4:	00fa8663          	beq	s5,a5,100068b0 <emdnorm+0x27c>
100068a8:	00040513          	mv	a0,s0
100068ac:	e50ff0ef          	jal	ra,10005efc <eshup1>
100068b0:	00445783          	lhu	a5,4(s0)
100068b4:	0e079e63          	bnez	a5,100069b0 <emdnorm+0x37c>
100068b8:	00041c23          	sh	zero,24(s0)
100068bc:	ec0bdee3          	bgez	s7,10006798 <emdnorm+0x164>
100068c0:	00041123          	sh	zero,2(s0)
100068c4:	ed9ff06f          	j	1000679c <emdnorm+0x168>
100068c8:	00041c23          	sh	zero,24(s0)
100068cc:	ffff87b7          	lui	a5,0xffff8
100068d0:	fff7c793          	not	a5,a5
100068d4:	00f41123          	sh	a5,2(s0)
100068d8:	00440793          	addi	a5,s0,4
100068dc:	01840413          	addi	s0,s0,24
100068e0:	00079023          	sh	zero,0(a5) # ffff8000 <_sp+0xeffcfa94>
100068e4:	00278793          	addi	a5,a5,2
100068e8:	fe879ce3          	bne	a5,s0,100068e0 <emdnorm+0x2ac>
100068ec:	eb1ff06f          	j	1000679c <emdnorm+0x168>
100068f0:	00240793          	addi	a5,s0,2
100068f4:	01a40413          	addi	s0,s0,26
100068f8:	00278793          	addi	a5,a5,2
100068fc:	fe079f23          	sh	zero,-2(a5)
10006900:	fef41ce3          	bne	s0,a5,100068f8 <emdnorm+0x2c4>
10006904:	e99ff06f          	j	1000679c <emdnorm+0x168>
10006908:	000b8593          	mv	a1,s7
1000690c:	00040513          	mv	a0,s0
10006910:	965ff0ef          	jal	ra,10006274 <eshift.part.0>
10006914:	00050463          	beqz	a0,1000691c <emdnorm+0x2e8>
10006918:	00100993          	li	s3,1
1000691c:	d60a9ce3          	bnez	s5,10006694 <emdnorm+0x60>
10006920:	00041c23          	sh	zero,24(s0)
10006924:	00041123          	sh	zero,2(s0)
10006928:	e75ff06f          	j	1000679c <emdnorm+0x168>
1000692c:	e40a8ee3          	beqz	s5,10006788 <emdnorm+0x154>
10006930:	00492a83          	lw	s5,4(s2)
10006934:	00092683          	lw	a3,0(s2)
10006938:	01a90713          	addi	a4,s2,26
1000693c:	03490793          	addi	a5,s2,52
10006940:	d6da94e3          	bne	s5,a3,100066a8 <emdnorm+0x74>
10006944:	00892483          	lw	s1,8(s2)
10006948:	00149b13          	slli	s6,s1,0x1
1000694c:	01640b33          	add	s6,s0,s6
10006950:	dd7046e3          	bgtz	s7,1000671c <emdnorm+0xe8>
10006954:	09000793          	li	a5,144
10006958:	ecfa82e3          	beq	s5,a5,1000681c <emdnorm+0x1e8>
1000695c:	01845783          	lhu	a5,24(s0)
10006960:	00040513          	mv	a0,s0
10006964:	0017f793          	andi	a5,a5,1
10006968:	00f9e9b3          	or	s3,s3,a5
1000696c:	d28ff0ef          	jal	ra,10005e94 <eshdn1>
10006970:	dadff06f          	j	1000671c <emdnorm+0xe8>
10006974:	00010737          	lui	a4,0x10
10006978:	fff70713          	addi	a4,a4,-1 # ffff <__heap_size+0xefff>
1000697c:	000085b7          	lui	a1,0x8
10006980:	00e00b13          	li	s6,14
10006984:	00700493          	li	s1,7
10006988:	00100793          	li	a5,1
1000698c:	00600613          	li	a2,6
10006990:	d5dff06f          	j	100066ec <emdnorm+0xb8>
10006994:	0ff00713          	li	a4,255
10006998:	08000593          	li	a1,128
1000699c:	00800b13          	li	s6,8
100069a0:	00400493          	li	s1,4
100069a4:	10000793          	li	a5,256
100069a8:	00400613          	li	a2,4
100069ac:	d41ff06f          	j	100066ec <emdnorm+0xb8>
100069b0:	00040513          	mv	a0,s0
100069b4:	ce0ff0ef          	jal	ra,10005e94 <eshdn1>
100069b8:	000087b7          	lui	a5,0x8
100069bc:	001b8b93          	addi	s7,s7,1
100069c0:	00041c23          	sh	zero,24(s0)
100069c4:	ffe78793          	addi	a5,a5,-2 # 7ffe <__heap_size+0x6ffe>
100069c8:	f177c2e3          	blt	a5,s7,100068cc <emdnorm+0x298>
100069cc:	ee0bcae3          	bltz	s7,100068c0 <emdnorm+0x28c>
100069d0:	dc9ff06f          	j	10006798 <emdnorm+0x164>
100069d4:	e80a08e3          	beqz	s4,10006864 <emdnorm+0x230>
100069d8:	da5ff06f          	j	1000677c <emdnorm+0x148>
100069dc:	0ff00713          	li	a4,255
100069e0:	08000593          	li	a1,128
100069e4:	00c00b13          	li	s6,12
100069e8:	00600493          	li	s1,6
100069ec:	10000793          	li	a5,256
100069f0:	00600613          	li	a2,6
100069f4:	cf9ff06f          	j	100066ec <emdnorm+0xb8>
100069f8:	00010737          	lui	a4,0x10
100069fc:	fff70713          	addi	a4,a4,-1 # ffff <__heap_size+0xefff>
10006a00:	000085b7          	lui	a1,0x8
10006a04:	01800b13          	li	s6,24
10006a08:	00c00493          	li	s1,12
10006a0c:	00100793          	li	a5,1
10006a10:	00b00613          	li	a2,11
10006a14:	cd9ff06f          	j	100066ec <emdnorm+0xb8>

10006a18 <eiremain>:
10006a18:	fd010113          	addi	sp,sp,-48
10006a1c:	03212023          	sw	s2,32(sp)
10006a20:	01312e23          	sw	s3,28(sp)
10006a24:	00058913          	mv	s2,a1
10006a28:	00255983          	lhu	s3,2(a0)
10006a2c:	02112623          	sw	ra,44(sp)
10006a30:	02812423          	sw	s0,40(sp)
10006a34:	02912223          	sw	s1,36(sp)
10006a38:	01412c23          	sw	s4,24(sp)
10006a3c:	00060493          	mv	s1,a2
10006a40:	01712623          	sw	s7,12(sp)
10006a44:	01512a23          	sw	s5,20(sp)
10006a48:	01612823          	sw	s6,16(sp)
10006a4c:	01812423          	sw	s8,8(sp)
10006a50:	01912223          	sw	s9,4(sp)
10006a54:	01a12023          	sw	s10,0(sp)
10006a58:	00050b93          	mv	s7,a0
10006a5c:	e9cff0ef          	jal	ra,100060f8 <enormlz>
10006a60:	00295403          	lhu	s0,2(s2)
10006a64:	00050793          	mv	a5,a0
10006a68:	00090513          	mv	a0,s2
10006a6c:	40f989b3          	sub	s3,s3,a5
10006a70:	03448a13          	addi	s4,s1,52
10006a74:	e84ff0ef          	jal	ra,100060f8 <enormlz>
10006a78:	40a40433          	sub	s0,s0,a0
10006a7c:	04e48713          	addi	a4,s1,78
10006a80:	000a0793          	mv	a5,s4
10006a84:	00278793          	addi	a5,a5,2
10006a88:	fe079f23          	sh	zero,-2(a5)
10006a8c:	fee79ce3          	bne	a5,a4,10006a84 <eiremain+0x6c>
10006a90:	09344863          	blt	s0,s3,10006b20 <eiremain+0x108>
10006a94:	004b8b13          	addi	s6,s7,4
10006a98:	00490a93          	addi	s5,s2,4
10006a9c:	01ab8c13          	addi	s8,s7,26
10006aa0:	00290d13          	addi	s10,s2,2
10006aa4:	000a8713          	mv	a4,s5
10006aa8:	000b0793          	mv	a5,s6
10006aac:	0007d603          	lhu	a2,0(a5)
10006ab0:	00075683          	lhu	a3,0(a4)
10006ab4:	00278793          	addi	a5,a5,2
10006ab8:	00270713          	addi	a4,a4,2
10006abc:	0ad61a63          	bne	a2,a3,10006b70 <eiremain+0x158>
10006ac0:	ff8796e3          	bne	a5,s8,10006aac <eiremain+0x94>
10006ac4:	018b8613          	addi	a2,s7,24
10006ac8:	01890713          	addi	a4,s2,24
10006acc:	00000693          	li	a3,0
10006ad0:	00075783          	lhu	a5,0(a4)
10006ad4:	00065583          	lhu	a1,0(a2)
10006ad8:	ffe70713          	addi	a4,a4,-2
10006adc:	40d787b3          	sub	a5,a5,a3
10006ae0:	40b787b3          	sub	a5,a5,a1
10006ae4:	0107d693          	srli	a3,a5,0x10
10006ae8:	00f71123          	sh	a5,2(a4)
10006aec:	0016f693          	andi	a3,a3,1
10006af0:	ffe60613          	addi	a2,a2,-2
10006af4:	fced1ee3          	bne	s10,a4,10006ad0 <eiremain+0xb8>
10006af8:	00100c93          	li	s9,1
10006afc:	000a0513          	mv	a0,s4
10006b00:	bfcff0ef          	jal	ra,10005efc <eshup1>
10006b04:	04c4d783          	lhu	a5,76(s1)
10006b08:	fff40413          	addi	s0,s0,-1
10006b0c:	00090513          	mv	a0,s2
10006b10:	00fce7b3          	or	a5,s9,a5
10006b14:	04f49623          	sh	a5,76(s1)
10006b18:	be4ff0ef          	jal	ra,10005efc <eshup1>
10006b1c:	f93454e3          	bge	s0,s3,10006aa4 <eiremain+0x8c>
10006b20:	00040693          	mv	a3,s0
10006b24:	02812403          	lw	s0,40(sp)
10006b28:	02c12083          	lw	ra,44(sp)
10006b2c:	01c12983          	lw	s3,28(sp)
10006b30:	01812a03          	lw	s4,24(sp)
10006b34:	01412a83          	lw	s5,20(sp)
10006b38:	01012b03          	lw	s6,16(sp)
10006b3c:	00c12b83          	lw	s7,12(sp)
10006b40:	00812c03          	lw	s8,8(sp)
10006b44:	00412c83          	lw	s9,4(sp)
10006b48:	00012d03          	lw	s10,0(sp)
10006b4c:	00048793          	mv	a5,s1
10006b50:	00090513          	mv	a0,s2
10006b54:	02412483          	lw	s1,36(sp)
10006b58:	02012903          	lw	s2,32(sp)
10006b5c:	00000713          	li	a4,0
10006b60:	00000613          	li	a2,0
10006b64:	00000593          	li	a1,0
10006b68:	03010113          	addi	sp,sp,48
10006b6c:	ac9ff06f          	j	10006634 <emdnorm>
10006b70:	00000c93          	li	s9,0
10006b74:	f8c6e4e3          	bltu	a3,a2,10006afc <eiremain+0xe4>
10006b78:	f4dff06f          	j	10006ac4 <eiremain+0xac>

10006b7c <e113toe.isra.0>:
10006b7c:	fd010113          	addi	sp,sp,-48
10006b80:	02812423          	sw	s0,40(sp)
10006b84:	02112623          	sw	ra,44(sp)
10006b88:	00058413          	mv	s0,a1
10006b8c:	00410793          	addi	a5,sp,4
10006b90:	01e10713          	addi	a4,sp,30
10006b94:	00278793          	addi	a5,a5,2
10006b98:	fe079f23          	sh	zero,-2(a5)
10006b9c:	fee79ce3          	bne	a5,a4,10006b94 <e113toe.isra.0+0x18>
10006ba0:	00e55603          	lhu	a2,14(a0)
10006ba4:	000087b7          	lui	a5,0x8
10006ba8:	fff78793          	addi	a5,a5,-1 # 7fff <__heap_size+0x6fff>
10006bac:	00f65713          	srli	a4,a2,0xf
10006bb0:	40e00733          	neg	a4,a4
10006bb4:	00e11223          	sh	a4,4(sp)
10006bb8:	00f67633          	and	a2,a2,a5
10006bbc:	06f60063          	beq	a2,a5,10006c1c <e113toe.isra.0+0xa0>
10006bc0:	00e50793          	addi	a5,a0,14
10006bc4:	00c11323          	sh	a2,6(sp)
10006bc8:	00a10713          	addi	a4,sp,10
10006bcc:	ffe7d683          	lhu	a3,-2(a5)
10006bd0:	ffe78793          	addi	a5,a5,-2
10006bd4:	00270713          	addi	a4,a4,2
10006bd8:	fed71f23          	sh	a3,-2(a4)
10006bdc:	fef518e3          	bne	a0,a5,10006bcc <e113toe.isra.0+0x50>
10006be0:	02061263          	bnez	a2,10006c04 <e113toe.isra.0+0x88>
10006be4:	00011423          	sh	zero,8(sp)
10006be8:	00040593          	mv	a1,s0
10006bec:	00410513          	addi	a0,sp,4
10006bf0:	c4cff0ef          	jal	ra,1000603c <emovo.constprop.0>
10006bf4:	02c12083          	lw	ra,44(sp)
10006bf8:	02812403          	lw	s0,40(sp)
10006bfc:	03010113          	addi	sp,sp,48
10006c00:	00008067          	ret
10006c04:	00100793          	li	a5,1
10006c08:	fff00593          	li	a1,-1
10006c0c:	00410513          	addi	a0,sp,4
10006c10:	00f11423          	sh	a5,8(sp)
10006c14:	e60ff0ef          	jal	ra,10006274 <eshift.part.0>
10006c18:	fd1ff06f          	j	10006be8 <e113toe.isra.0+0x6c>
10006c1c:	00050793          	mv	a5,a0
10006c20:	00e50693          	addi	a3,a0,14
10006c24:	0007d703          	lhu	a4,0(a5)
10006c28:	00278793          	addi	a5,a5,2
10006c2c:	06071c63          	bnez	a4,10006ca4 <e113toe.isra.0+0x128>
10006c30:	fef69ae3          	bne	a3,a5,10006c24 <e113toe.isra.0+0xa8>
10006c34:	01440713          	addi	a4,s0,20
10006c38:	00040793          	mv	a5,s0
10006c3c:	00278793          	addi	a5,a5,2
10006c40:	fe079f23          	sh	zero,-2(a5)
10006c44:	fee79ce3          	bne	a5,a4,10006c3c <e113toe.isra.0+0xc0>
10006c48:	01240713          	addi	a4,s0,18
10006c4c:	00040793          	mv	a5,s0
10006c50:	00278793          	addi	a5,a5,2
10006c54:	fe079f23          	sh	zero,-2(a5)
10006c58:	fef71ce3          	bne	a4,a5,10006c50 <e113toe.isra.0+0xd4>
10006c5c:	01245783          	lhu	a5,18(s0)
10006c60:	000086b7          	lui	a3,0x8
10006c64:	fff68693          	addi	a3,a3,-1 # 7fff <__heap_size+0x6fff>
10006c68:	00d7e7b3          	or	a5,a5,a3
10006c6c:	01079793          	slli	a5,a5,0x10
10006c70:	0107d793          	srli	a5,a5,0x10
10006c74:	00f41923          	sh	a5,18(s0)
10006c78:	00e51683          	lh	a3,14(a0)
10006c7c:	f606dce3          	bgez	a3,10006bf4 <e113toe.isra.0+0x78>
10006c80:	00040693          	mv	a3,s0
10006c84:	0006d603          	lhu	a2,0(a3)
10006c88:	00268693          	addi	a3,a3,2
10006c8c:	f60614e3          	bnez	a2,10006bf4 <e113toe.isra.0+0x78>
10006c90:	fed71ae3          	bne	a4,a3,10006c84 <e113toe.isra.0+0x108>
10006c94:	ffff8737          	lui	a4,0xffff8
10006c98:	00e7c7b3          	xor	a5,a5,a4
10006c9c:	00f41923          	sh	a5,18(s0)
10006ca0:	f55ff06f          	j	10006bf4 <e113toe.isra.0+0x78>
10006ca4:	01040713          	addi	a4,s0,16
10006ca8:	00040793          	mv	a5,s0
10006cac:	00278793          	addi	a5,a5,2
10006cb0:	fe079f23          	sh	zero,-2(a5)
10006cb4:	fee79ce3          	bne	a5,a4,10006cac <e113toe.isra.0+0x130>
10006cb8:	ffffc7b7          	lui	a5,0xffffc
10006cbc:	00f41823          	sh	a5,16(s0)
10006cc0:	ffff87b7          	lui	a5,0xffff8
10006cc4:	fff7c793          	not	a5,a5
10006cc8:	00f41923          	sh	a5,18(s0)
10006ccc:	f29ff06f          	j	10006bf4 <e113toe.isra.0+0x78>

10006cd0 <ediv>:
10006cd0:	01255783          	lhu	a5,18(a0)
10006cd4:	f5010113          	addi	sp,sp,-176
10006cd8:	0a812423          	sw	s0,168(sp)
10006cdc:	fff7c793          	not	a5,a5
10006ce0:	0a912223          	sw	s1,164(sp)
10006ce4:	0b212023          	sw	s2,160(sp)
10006ce8:	09312e23          	sw	s3,156(sp)
10006cec:	0a112623          	sw	ra,172(sp)
10006cf0:	09412c23          	sw	s4,152(sp)
10006cf4:	09512a23          	sw	s5,148(sp)
10006cf8:	09612823          	sw	s6,144(sp)
10006cfc:	09712623          	sw	s7,140(sp)
10006d00:	09812423          	sw	s8,136(sp)
10006d04:	09912223          	sw	s9,132(sp)
10006d08:	09a12023          	sw	s10,128(sp)
10006d0c:	07b12e23          	sw	s11,124(sp)
10006d10:	01179713          	slli	a4,a5,0x11
10006d14:	00050493          	mv	s1,a0
10006d18:	00058993          	mv	s3,a1
10006d1c:	00060413          	mv	s0,a2
10006d20:	00068913          	mv	s2,a3
10006d24:	00071e63          	bnez	a4,10006d40 <ediv+0x70>
10006d28:	01250693          	addi	a3,a0,18
10006d2c:	00050793          	mv	a5,a0
10006d30:	0007d703          	lhu	a4,0(a5) # ffff8000 <_sp+0xeffcfa94>
10006d34:	00278793          	addi	a5,a5,2
10006d38:	2e071a63          	bnez	a4,1000702c <ediv+0x35c>
10006d3c:	fed79ae3          	bne	a5,a3,10006d30 <ediv+0x60>
10006d40:	0129d783          	lhu	a5,18(s3)
10006d44:	fff7c793          	not	a5,a5
10006d48:	01179713          	slli	a4,a5,0x11
10006d4c:	00071e63          	bnez	a4,10006d68 <ediv+0x98>
10006d50:	01298693          	addi	a3,s3,18
10006d54:	00098793          	mv	a5,s3
10006d58:	0007d703          	lhu	a4,0(a5)
10006d5c:	00278793          	addi	a5,a5,2
10006d60:	2e071463          	bnez	a4,10007048 <ediv+0x378>
10006d64:	fed79ae3          	bne	a5,a3,10006d58 <ediv+0x88>
10006d68:	10014a37          	lui	s4,0x10014
10006d6c:	314a0593          	addi	a1,s4,788 # 10014314 <ezero>
10006d70:	00048513          	mv	a0,s1
10006d74:	f84ff0ef          	jal	ra,100064f8 <ecmp>
10006d78:	2e050663          	beqz	a0,10007064 <ediv+0x394>
10006d7c:	0124d603          	lhu	a2,18(s1)
10006d80:	0129d703          	lhu	a4,18(s3)
10006d84:	000087b7          	lui	a5,0x8
10006d88:	fff78793          	addi	a5,a5,-1 # 7fff <__heap_size+0x6fff>
10006d8c:	00f67533          	and	a0,a2,a5
10006d90:	00f775b3          	and	a1,a4,a5
10006d94:	0af51663          	bne	a0,a5,10006e40 <ediv+0x170>
10006d98:	01248813          	addi	a6,s1,18
10006d9c:	00048793          	mv	a5,s1
10006da0:	0007d683          	lhu	a3,0(a5)
10006da4:	00278793          	addi	a5,a5,2
10006da8:	08069863          	bnez	a3,10006e38 <ediv+0x168>
10006dac:	ff079ae3          	bne	a5,a6,10006da0 <ediv+0xd0>
10006db0:	000087b7          	lui	a5,0x8
10006db4:	fff78793          	addi	a5,a5,-1 # 7fff <__heap_size+0x6fff>
10006db8:	2cf59263          	bne	a1,a5,1000707c <ediv+0x3ac>
10006dbc:	01298693          	addi	a3,s3,18
10006dc0:	00098793          	mv	a5,s3
10006dc4:	0007d583          	lhu	a1,0(a5)
10006dc8:	00278793          	addi	a5,a5,2
10006dcc:	48059663          	bnez	a1,10007258 <ediv+0x588>
10006dd0:	fed79ae3          	bne	a5,a3,10006dc4 <ediv+0xf4>
10006dd4:	01040713          	addi	a4,s0,16
10006dd8:	00040793          	mv	a5,s0
10006ddc:	00278793          	addi	a5,a5,2
10006de0:	fe079f23          	sh	zero,-2(a5)
10006de4:	fee79ce3          	bne	a5,a4,10006ddc <ediv+0x10c>
10006de8:	ffffc7b7          	lui	a5,0xffffc
10006dec:	00f41823          	sh	a5,16(s0)
10006df0:	ffff87b7          	lui	a5,0xffff8
10006df4:	fff7c793          	not	a5,a5
10006df8:	00f41923          	sh	a5,18(s0)
10006dfc:	0ac12083          	lw	ra,172(sp)
10006e00:	0a812403          	lw	s0,168(sp)
10006e04:	0a412483          	lw	s1,164(sp)
10006e08:	0a012903          	lw	s2,160(sp)
10006e0c:	09c12983          	lw	s3,156(sp)
10006e10:	09812a03          	lw	s4,152(sp)
10006e14:	09412a83          	lw	s5,148(sp)
10006e18:	09012b03          	lw	s6,144(sp)
10006e1c:	08c12b83          	lw	s7,140(sp)
10006e20:	08812c03          	lw	s8,136(sp)
10006e24:	08412c83          	lw	s9,132(sp)
10006e28:	08012d03          	lw	s10,128(sp)
10006e2c:	07c12d83          	lw	s11,124(sp)
10006e30:	0b010113          	addi	sp,sp,176
10006e34:	00008067          	ret
10006e38:	000087b7          	lui	a5,0x8
10006e3c:	fff78793          	addi	a5,a5,-1 # 7fff <__heap_size+0x6fff>
10006e40:	24f58863          	beq	a1,a5,10007090 <ediv+0x3c0>
10006e44:	00048513          	mv	a0,s1
10006e48:	01c10593          	addi	a1,sp,28
10006e4c:	df8ff0ef          	jal	ra,10006444 <emovi>
10006e50:	03810593          	addi	a1,sp,56
10006e54:	00098513          	mv	a0,s3
10006e58:	decff0ef          	jal	ra,10006444 <emovi>
10006e5c:	03a15a83          	lhu	s5,58(sp)
10006e60:	01e15483          	lhu	s1,30(sp)
10006e64:	2a0a8e63          	beqz	s5,10007120 <ediv+0x450>
10006e68:	01512623          	sw	s5,12(sp)
10006e6c:	00048713          	mv	a4,s1
10006e70:	00912423          	sw	s1,8(sp)
10006e74:	02010793          	addi	a5,sp,32
10006e78:	03410693          	addi	a3,sp,52
10006e7c:	02071263          	bnez	a4,10006ea0 <ediv+0x1d0>
10006e80:	38d78c63          	beq	a5,a3,10007218 <ediv+0x548>
10006e84:	0007d703          	lhu	a4,0(a5)
10006e88:	00278793          	addi	a5,a5,2
10006e8c:	fe070ae3          	beqz	a4,10006e80 <ediv+0x1b0>
10006e90:	01c10513          	addi	a0,sp,28
10006e94:	a64ff0ef          	jal	ra,100060f8 <enormlz>
10006e98:	40a487b3          	sub	a5,s1,a0
10006e9c:	00f12423          	sw	a5,8(sp)
10006ea0:	03812703          	lw	a4,56(sp)
10006ea4:	03890a93          	addi	s5,s2,56
10006ea8:	000a8793          	mv	a5,s5
10006eac:	02e92a23          	sw	a4,52(s2)
10006eb0:	04e90493          	addi	s1,s2,78
10006eb4:	00278793          	addi	a5,a5,2
10006eb8:	fe079f23          	sh	zero,-2(a5)
10006ebc:	fef49ce3          	bne	s1,a5,10006eb4 <ediv+0x1e4>
10006ec0:	03810513          	addi	a0,sp,56
10006ec4:	fd1fe0ef          	jal	ra,10005e94 <eshdn1>
10006ec8:	02215b03          	lhu	s6,34(sp)
10006ecc:	000109b7          	lui	s3,0x10
10006ed0:	05010c13          	addi	s8,sp,80
10006ed4:	010b1a13          	slli	s4,s6,0x10
10006ed8:	416a0a33          	sub	s4,s4,s6
10006edc:	03a10c93          	addi	s9,sp,58
10006ee0:	fff98993          	addi	s3,s3,-1 # ffff <__heap_size+0xefff>
10006ee4:	06e10d13          	addi	s10,sp,110
10006ee8:	05610d93          	addi	s11,sp,86
10006eec:	03c15503          	lhu	a0,60(sp)
10006ef0:	03e15783          	lhu	a5,62(sp)
10006ef4:	00098b93          	mv	s7,s3
10006ef8:	01051513          	slli	a0,a0,0x10
10006efc:	00f50533          	add	a0,a0,a5
10006f00:	00aa6a63          	bltu	s4,a0,10006f14 <ediv+0x244>
10006f04:	000b0593          	mv	a1,s6
10006f08:	6e10c0ef          	jal	ra,10013de8 <__udivsi3>
10006f0c:	01051b93          	slli	s7,a0,0x10
10006f10:	010bdb93          	srli	s7,s7,0x10
10006f14:	05410613          	addi	a2,sp,84
10006f18:	01c10593          	addi	a1,sp,28
10006f1c:	000b8513          	mv	a0,s7
10006f20:	84cff0ef          	jal	ra,10005f6c <m16m>
10006f24:	03c10713          	addi	a4,sp,60
10006f28:	05810793          	addi	a5,sp,88
10006f2c:	0007d603          	lhu	a2,0(a5)
10006f30:	00075683          	lhu	a3,0(a4) # ffff8000 <_sp+0xeffcfa94>
10006f34:	00278793          	addi	a5,a5,2
10006f38:	00270713          	addi	a4,a4,2
10006f3c:	20d61a63          	bne	a2,a3,10007150 <ediv+0x480>
10006f40:	ffa796e3          	bne	a5,s10,10006f2c <ediv+0x25c>
10006f44:	00000793          	li	a5,0
10006f48:	06c10693          	addi	a3,sp,108
10006f4c:	000c0613          	mv	a2,s8
10006f50:	00065703          	lhu	a4,0(a2)
10006f54:	0006d583          	lhu	a1,0(a3)
10006f58:	ffe60613          	addi	a2,a2,-2
10006f5c:	40f70733          	sub	a4,a4,a5
10006f60:	40b70733          	sub	a4,a4,a1
10006f64:	01075793          	srli	a5,a4,0x10
10006f68:	00e61123          	sh	a4,2(a2)
10006f6c:	0017f793          	andi	a5,a5,1
10006f70:	ffe68693          	addi	a3,a3,-2
10006f74:	fd961ee3          	bne	a2,s9,10006f50 <ediv+0x280>
10006f78:	017a9023          	sh	s7,0(s5)
10006f7c:	03c10793          	addi	a5,sp,60
10006f80:	0027d703          	lhu	a4,2(a5)
10006f84:	00278793          	addi	a5,a5,2
10006f88:	fee79f23          	sh	a4,-2(a5)
10006f8c:	ff879ae3          	bne	a5,s8,10006f80 <ediv+0x2b0>
10006f90:	04011823          	sh	zero,80(sp)
10006f94:	002a8a93          	addi	s5,s5,2
10006f98:	f5549ae3          	bne	s1,s5,10006eec <ediv+0x21c>
10006f9c:	00000713          	li	a4,0
10006fa0:	03c10793          	addi	a5,sp,60
10006fa4:	05210613          	addi	a2,sp,82
10006fa8:	0007d683          	lhu	a3,0(a5)
10006fac:	00278793          	addi	a5,a5,2
10006fb0:	00d76733          	or	a4,a4,a3
10006fb4:	fec79ae3          	bne	a5,a2,10006fa8 <ediv+0x2d8>
10006fb8:	00e035b3          	snez	a1,a4
10006fbc:	03810793          	addi	a5,sp,56
10006fc0:	03490713          	addi	a4,s2,52
10006fc4:	00075683          	lhu	a3,0(a4)
10006fc8:	00278793          	addi	a5,a5,2
10006fcc:	00270713          	addi	a4,a4,2
10006fd0:	fed79f23          	sh	a3,-2(a5)
10006fd4:	fef618e3          	bne	a2,a5,10006fc4 <ediv+0x2f4>
10006fd8:	00c12783          	lw	a5,12(sp)
10006fdc:	00812703          	lw	a4,8(sp)
10006fe0:	000046b7          	lui	a3,0x4
10006fe4:	fff68693          	addi	a3,a3,-1 # 3fff <__heap_size+0x2fff>
10006fe8:	40e78ab3          	sub	s5,a5,a4
10006fec:	03810513          	addi	a0,sp,56
10006ff0:	00090793          	mv	a5,s2
10006ff4:	04000713          	li	a4,64
10006ff8:	00da86b3          	add	a3,s5,a3
10006ffc:	00000613          	li	a2,0
10007000:	e34ff0ef          	jal	ra,10006634 <emdnorm>
10007004:	03815703          	lhu	a4,56(sp)
10007008:	01c15783          	lhu	a5,28(sp)
1000700c:	00040593          	mv	a1,s0
10007010:	03810513          	addi	a0,sp,56
10007014:	40e787b3          	sub	a5,a5,a4
10007018:	00f037b3          	snez	a5,a5
1000701c:	40f007b3          	neg	a5,a5
10007020:	02f11c23          	sh	a5,56(sp)
10007024:	818ff0ef          	jal	ra,1000603c <emovo.constprop.0>
10007028:	dd5ff06f          	j	10006dfc <ediv+0x12c>
1000702c:	01448713          	addi	a4,s1,20
10007030:	0004d783          	lhu	a5,0(s1)
10007034:	00248493          	addi	s1,s1,2
10007038:	00240413          	addi	s0,s0,2
1000703c:	fef41f23          	sh	a5,-2(s0)
10007040:	fee498e3          	bne	s1,a4,10007030 <ediv+0x360>
10007044:	db9ff06f          	j	10006dfc <ediv+0x12c>
10007048:	01440713          	addi	a4,s0,20
1000704c:	0009d783          	lhu	a5,0(s3)
10007050:	00240413          	addi	s0,s0,2
10007054:	00298993          	addi	s3,s3,2
10007058:	fef41f23          	sh	a5,-2(s0)
1000705c:	fee418e3          	bne	s0,a4,1000704c <ediv+0x37c>
10007060:	d9dff06f          	j	10006dfc <ediv+0x12c>
10007064:	314a0593          	addi	a1,s4,788
10007068:	00098513          	mv	a0,s3
1000706c:	c8cff0ef          	jal	ra,100064f8 <ecmp>
10007070:	d00516e3          	bnez	a0,10006d7c <ediv+0xac>
10007074:	d61ff06f          	j	10006dd4 <ediv+0x104>
10007078:	dc0806e3          	beqz	a6,10006e44 <ediv+0x174>
1000707c:	01440793          	addi	a5,s0,20
10007080:	00240413          	addi	s0,s0,2
10007084:	fe041f23          	sh	zero,-2(s0)
10007088:	fef41ce3          	bne	s0,a5,10007080 <ediv+0x3b0>
1000708c:	d71ff06f          	j	10006dfc <ediv+0x12c>
10007090:	00000813          	li	a6,0
10007094:	01298693          	addi	a3,s3,18
10007098:	00098793          	mv	a5,s3
1000709c:	0007d583          	lhu	a1,0(a5)
100070a0:	00278793          	addi	a5,a5,2
100070a4:	fc059ae3          	bnez	a1,10007078 <ediv+0x3a8>
100070a8:	fed79ae3          	bne	a5,a3,1000709c <ediv+0x3cc>
100070ac:	000087b7          	lui	a5,0x8
100070b0:	fff78793          	addi	a5,a5,-1 # 7fff <__heap_size+0x6fff>
100070b4:	04f50a63          	beq	a0,a5,10007108 <ediv+0x438>
100070b8:	00f65613          	srli	a2,a2,0xf
100070bc:	0009d783          	lhu	a5,0(s3)
100070c0:	00298993          	addi	s3,s3,2
100070c4:	18079263          	bnez	a5,10007248 <ediv+0x578>
100070c8:	fed99ae3          	bne	s3,a3,100070bc <ediv+0x3ec>
100070cc:	00f75793          	srli	a5,a4,0xf
100070d0:	00c7c7b3          	xor	a5,a5,a2
100070d4:	00f79793          	slli	a5,a5,0xf
100070d8:	00f41923          	sh	a5,18(s0)
100070dc:	01240713          	addi	a4,s0,18
100070e0:	00040793          	mv	a5,s0
100070e4:	00278793          	addi	a5,a5,2
100070e8:	fe079f23          	sh	zero,-2(a5)
100070ec:	fee79ce3          	bne	a5,a4,100070e4 <ediv+0x414>
100070f0:	01245783          	lhu	a5,18(s0)
100070f4:	00008737          	lui	a4,0x8
100070f8:	fff70713          	addi	a4,a4,-1 # 7fff <__heap_size+0x6fff>
100070fc:	00e7e7b3          	or	a5,a5,a4
10007100:	00f41923          	sh	a5,18(s0)
10007104:	cf9ff06f          	j	10006dfc <ediv+0x12c>
10007108:	01248593          	addi	a1,s1,18
1000710c:	0004d783          	lhu	a5,0(s1)
10007110:	00248493          	addi	s1,s1,2
10007114:	12079e63          	bnez	a5,10007250 <ediv+0x580>
10007118:	feb49ae3          	bne	s1,a1,1000710c <ediv+0x43c>
1000711c:	f9dff06f          	j	100070b8 <ediv+0x3e8>
10007120:	03c10793          	addi	a5,sp,60
10007124:	05010c13          	addi	s8,sp,80
10007128:	0cfc0e63          	beq	s8,a5,10007204 <ediv+0x534>
1000712c:	0007d703          	lhu	a4,0(a5)
10007130:	00278793          	addi	a5,a5,2
10007134:	fe070ae3          	beqz	a4,10007128 <ediv+0x458>
10007138:	03810513          	addi	a0,sp,56
1000713c:	fbdfe0ef          	jal	ra,100060f8 <enormlz>
10007140:	40a007b3          	neg	a5,a0
10007144:	01e15703          	lhu	a4,30(sp)
10007148:	00f12623          	sw	a5,12(sp)
1000714c:	d25ff06f          	j	10006e70 <ediv+0x1a0>
10007150:	dec6fae3          	bgeu	a3,a2,10006f44 <ediv+0x274>
10007154:	fffb8793          	addi	a5,s7,-1
10007158:	01079513          	slli	a0,a5,0x10
1000715c:	01055513          	srli	a0,a0,0x10
10007160:	00000693          	li	a3,0
10007164:	03410613          	addi	a2,sp,52
10007168:	06c10713          	addi	a4,sp,108
1000716c:	00075783          	lhu	a5,0(a4)
10007170:	00065583          	lhu	a1,0(a2)
10007174:	ffe70713          	addi	a4,a4,-2
10007178:	40d787b3          	sub	a5,a5,a3
1000717c:	40b787b3          	sub	a5,a5,a1
10007180:	0107d693          	srli	a3,a5,0x10
10007184:	00f71123          	sh	a5,2(a4)
10007188:	0016f693          	andi	a3,a3,1
1000718c:	ffe60613          	addi	a2,a2,-2
10007190:	fdb71ee3          	bne	a4,s11,1000716c <ediv+0x49c>
10007194:	03c10713          	addi	a4,sp,60
10007198:	05810793          	addi	a5,sp,88
1000719c:	0007d603          	lhu	a2,0(a5)
100071a0:	00075683          	lhu	a3,0(a4)
100071a4:	00278793          	addi	a5,a5,2
100071a8:	00270713          	addi	a4,a4,2
100071ac:	00d61863          	bne	a2,a3,100071bc <ediv+0x4ec>
100071b0:	ffa796e3          	bne	a5,s10,1000719c <ediv+0x4cc>
100071b4:	00050b93          	mv	s7,a0
100071b8:	d8dff06f          	j	10006f44 <ediv+0x274>
100071bc:	fec6fce3          	bgeu	a3,a2,100071b4 <ediv+0x4e4>
100071c0:	ffeb8893          	addi	a7,s7,-2
100071c4:	01089b93          	slli	s7,a7,0x10
100071c8:	010bdb93          	srli	s7,s7,0x10
100071cc:	00000693          	li	a3,0
100071d0:	03410613          	addi	a2,sp,52
100071d4:	06c10713          	addi	a4,sp,108
100071d8:	00075783          	lhu	a5,0(a4)
100071dc:	00065583          	lhu	a1,0(a2)
100071e0:	ffe70713          	addi	a4,a4,-2
100071e4:	40d787b3          	sub	a5,a5,a3
100071e8:	40b787b3          	sub	a5,a5,a1
100071ec:	0107d693          	srli	a3,a5,0x10
100071f0:	00f71123          	sh	a5,2(a4)
100071f4:	0016f693          	andi	a3,a3,1
100071f8:	ffe60613          	addi	a2,a2,-2
100071fc:	fdb71ee3          	bne	a4,s11,100071d8 <ediv+0x508>
10007200:	d45ff06f          	j	10006f44 <ediv+0x274>
10007204:	01440793          	addi	a5,s0,20
10007208:	00240413          	addi	s0,s0,2
1000720c:	fe041f23          	sh	zero,-2(s0)
10007210:	fef41ce3          	bne	s0,a5,10007208 <ediv+0x538>
10007214:	be9ff06f          	j	10006dfc <ediv+0x12c>
10007218:	01c15683          	lhu	a3,28(sp)
1000721c:	03815603          	lhu	a2,56(sp)
10007220:	01240713          	addi	a4,s0,18
10007224:	00040793          	mv	a5,s0
10007228:	40c686b3          	sub	a3,a3,a2
1000722c:	00d036b3          	snez	a3,a3
10007230:	00f69693          	slli	a3,a3,0xf
10007234:	00d41923          	sh	a3,18(s0)
10007238:	00278793          	addi	a5,a5,2
1000723c:	fe079f23          	sh	zero,-2(a5)
10007240:	fef71ce3          	bne	a4,a5,10007238 <ediv+0x568>
10007244:	eadff06f          	j	100070f0 <ediv+0x420>
10007248:	00000793          	li	a5,0
1000724c:	e85ff06f          	j	100070d0 <ediv+0x400>
10007250:	00000613          	li	a2,0
10007254:	e69ff06f          	j	100070bc <ediv+0x3ec>
10007258:	00100813          	li	a6,1
1000725c:	e3dff06f          	j	10007098 <ediv+0x3c8>

10007260 <emul>:
10007260:	f7010113          	addi	sp,sp,-144
10007264:	08912223          	sw	s1,132(sp)
10007268:	00050493          	mv	s1,a0
1000726c:	01255503          	lhu	a0,18(a0)
10007270:	00008737          	lui	a4,0x8
10007274:	fff70713          	addi	a4,a4,-1 # 7fff <__heap_size+0x6fff>
10007278:	08812423          	sw	s0,136(sp)
1000727c:	09212023          	sw	s2,128(sp)
10007280:	07412c23          	sw	s4,120(sp)
10007284:	08112623          	sw	ra,140(sp)
10007288:	07312e23          	sw	s3,124(sp)
1000728c:	07512a23          	sw	s5,116(sp)
10007290:	07612823          	sw	s6,112(sp)
10007294:	07712623          	sw	s7,108(sp)
10007298:	07812423          	sw	s8,104(sp)
1000729c:	07912223          	sw	s9,100(sp)
100072a0:	00e57833          	and	a6,a0,a4
100072a4:	00058913          	mv	s2,a1
100072a8:	00060413          	mv	s0,a2
100072ac:	00068a13          	mv	s4,a3
100072b0:	00e81e63          	bne	a6,a4,100072cc <emul+0x6c>
100072b4:	01248993          	addi	s3,s1,18
100072b8:	00048713          	mv	a4,s1
100072bc:	00075603          	lhu	a2,0(a4)
100072c0:	00270713          	addi	a4,a4,2
100072c4:	1e061463          	bnez	a2,100074ac <emul+0x24c>
100072c8:	ff371ae3          	bne	a4,s3,100072bc <emul+0x5c>
100072cc:	01295603          	lhu	a2,18(s2)
100072d0:	000087b7          	lui	a5,0x8
100072d4:	fff78793          	addi	a5,a5,-1 # 7fff <__heap_size+0x6fff>
100072d8:	00f675b3          	and	a1,a2,a5
100072dc:	08f58863          	beq	a1,a5,1000736c <emul+0x10c>
100072e0:	1ef81463          	bne	a6,a5,100074c8 <emul+0x268>
100072e4:	01248993          	addi	s3,s1,18
100072e8:	00048793          	mv	a5,s1
100072ec:	0007d703          	lhu	a4,0(a5)
100072f0:	00278793          	addi	a5,a5,2
100072f4:	26071663          	bnez	a4,10007560 <emul+0x300>
100072f8:	fef99ae3          	bne	s3,a5,100072ec <emul+0x8c>
100072fc:	100145b7          	lui	a1,0x10014
10007300:	31458593          	addi	a1,a1,788 # 10014314 <ezero>
10007304:	00090513          	mv	a0,s2
10007308:	9f0ff0ef          	jal	ra,100064f8 <ecmp>
1000730c:	22050463          	beqz	a0,10007534 <emul+0x2d4>
10007310:	01295603          	lhu	a2,18(s2)
10007314:	000087b7          	lui	a5,0x8
10007318:	fff78793          	addi	a5,a5,-1 # 7fff <__heap_size+0x6fff>
1000731c:	00f675b3          	and	a1,a2,a5
10007320:	24f58663          	beq	a1,a5,1000756c <emul+0x30c>
10007324:	0124d503          	lhu	a0,18(s1)
10007328:	00f57733          	and	a4,a0,a5
1000732c:	18f71e63          	bne	a4,a5,100074c8 <emul+0x268>
10007330:	00048793          	mv	a5,s1
10007334:	0007d703          	lhu	a4,0(a5)
10007338:	00278793          	addi	a5,a5,2
1000733c:	3c071063          	bnez	a4,100076fc <emul+0x49c>
10007340:	fef99ae3          	bne	s3,a5,10007334 <emul+0xd4>
10007344:	0004d783          	lhu	a5,0(s1)
10007348:	00248493          	addi	s1,s1,2
1000734c:	36079c63          	bnez	a5,100076c4 <emul+0x464>
10007350:	ff349ae3          	bne	s1,s3,10007344 <emul+0xe4>
10007354:	00f55713          	srli	a4,a0,0xf
10007358:	000087b7          	lui	a5,0x8
1000735c:	fff78793          	addi	a5,a5,-1 # 7fff <__heap_size+0x6fff>
10007360:	0cf59063          	bne	a1,a5,10007420 <emul+0x1c0>
10007364:	01290693          	addi	a3,s2,18
10007368:	0a80006f          	j	10007410 <emul+0x1b0>
1000736c:	01290693          	addi	a3,s2,18
10007370:	00090713          	mv	a4,s2
10007374:	00075783          	lhu	a5,0(a4)
10007378:	00270713          	addi	a4,a4,2
1000737c:	18079e63          	bnez	a5,10007518 <emul+0x2b8>
10007380:	fee69ae3          	bne	a3,a4,10007374 <emul+0x114>
10007384:	000087b7          	lui	a5,0x8
10007388:	fff78793          	addi	a5,a5,-1 # 7fff <__heap_size+0x6fff>
1000738c:	f4f80ce3          	beq	a6,a5,100072e4 <emul+0x84>
10007390:	00090793          	mv	a5,s2
10007394:	0007d703          	lhu	a4,0(a5)
10007398:	00278793          	addi	a5,a5,2
1000739c:	0e071863          	bnez	a4,1000748c <emul+0x22c>
100073a0:	fef69ae3          	bne	a3,a5,10007394 <emul+0x134>
100073a4:	100145b7          	lui	a1,0x10014
100073a8:	31458593          	addi	a1,a1,788 # 10014314 <ezero>
100073ac:	00048513          	mv	a0,s1
100073b0:	948ff0ef          	jal	ra,100064f8 <ecmp>
100073b4:	18050063          	beqz	a0,10007534 <emul+0x2d4>
100073b8:	0124d503          	lhu	a0,18(s1)
100073bc:	01295603          	lhu	a2,18(s2)
100073c0:	000087b7          	lui	a5,0x8
100073c4:	fff78793          	addi	a5,a5,-1 # 7fff <__heap_size+0x6fff>
100073c8:	00f57833          	and	a6,a0,a5
100073cc:	00f675b3          	and	a1,a2,a5
100073d0:	0cf80a63          	beq	a6,a5,100074a4 <emul+0x244>
100073d4:	000087b7          	lui	a5,0x8
100073d8:	fff78793          	addi	a5,a5,-1 # 7fff <__heap_size+0x6fff>
100073dc:	0ef59663          	bne	a1,a5,100074c8 <emul+0x268>
100073e0:	01290693          	addi	a3,s2,18
100073e4:	00090793          	mv	a5,s2
100073e8:	0007d703          	lhu	a4,0(a5)
100073ec:	00278793          	addi	a5,a5,2
100073f0:	0c071c63          	bnez	a4,100074c8 <emul+0x268>
100073f4:	fed79ae3          	bne	a5,a3,100073e8 <emul+0x188>
100073f8:	000087b7          	lui	a5,0x8
100073fc:	fff78793          	addi	a5,a5,-1 # 7fff <__heap_size+0x6fff>
10007400:	00f55713          	srli	a4,a0,0xf
10007404:	00080593          	mv	a1,a6
10007408:	01248993          	addi	s3,s1,18
1000740c:	f2f80ce3          	beq	a6,a5,10007344 <emul+0xe4>
10007410:	00095783          	lhu	a5,0(s2)
10007414:	00290913          	addi	s2,s2,2
10007418:	2a079a63          	bnez	a5,100076cc <emul+0x46c>
1000741c:	fed91ae3          	bne	s2,a3,10007410 <emul+0x1b0>
10007420:	00f65793          	srli	a5,a2,0xf
10007424:	00e7c7b3          	xor	a5,a5,a4
10007428:	00f79793          	slli	a5,a5,0xf
1000742c:	00f41923          	sh	a5,18(s0)
10007430:	01240713          	addi	a4,s0,18
10007434:	00040793          	mv	a5,s0
10007438:	00278793          	addi	a5,a5,2
1000743c:	fe079f23          	sh	zero,-2(a5)
10007440:	fee79ce3          	bne	a5,a4,10007438 <emul+0x1d8>
10007444:	01245783          	lhu	a5,18(s0)
10007448:	00008737          	lui	a4,0x8
1000744c:	fff70713          	addi	a4,a4,-1 # 7fff <__heap_size+0x6fff>
10007450:	00e7e7b3          	or	a5,a5,a4
10007454:	00f41923          	sh	a5,18(s0)
10007458:	08c12083          	lw	ra,140(sp)
1000745c:	08812403          	lw	s0,136(sp)
10007460:	08412483          	lw	s1,132(sp)
10007464:	08012903          	lw	s2,128(sp)
10007468:	07c12983          	lw	s3,124(sp)
1000746c:	07812a03          	lw	s4,120(sp)
10007470:	07412a83          	lw	s5,116(sp)
10007474:	07012b03          	lw	s6,112(sp)
10007478:	06c12b83          	lw	s7,108(sp)
1000747c:	06812c03          	lw	s8,104(sp)
10007480:	06412c83          	lw	s9,100(sp)
10007484:	09010113          	addi	sp,sp,144
10007488:	00008067          	ret
1000748c:	0124d503          	lhu	a0,18(s1)
10007490:	000087b7          	lui	a5,0x8
10007494:	fff78793          	addi	a5,a5,-1 # 7fff <__heap_size+0x6fff>
10007498:	00f575b3          	and	a1,a0,a5
1000749c:	00058813          	mv	a6,a1
100074a0:	f4f592e3          	bne	a1,a5,100073e4 <emul+0x184>
100074a4:	01248993          	addi	s3,s1,18
100074a8:	e89ff06f          	j	10007330 <emul+0xd0>
100074ac:	01440713          	addi	a4,s0,20
100074b0:	0004d783          	lhu	a5,0(s1)
100074b4:	00240413          	addi	s0,s0,2
100074b8:	00248493          	addi	s1,s1,2
100074bc:	fef41f23          	sh	a5,-2(s0)
100074c0:	fee418e3          	bne	s0,a4,100074b0 <emul+0x250>
100074c4:	f95ff06f          	j	10007458 <emul+0x1f8>
100074c8:	00048513          	mv	a0,s1
100074cc:	00c10593          	addi	a1,sp,12
100074d0:	f75fe0ef          	jal	ra,10006444 <emovi>
100074d4:	02810593          	addi	a1,sp,40
100074d8:	00090513          	mv	a0,s2
100074dc:	f69fe0ef          	jal	ra,10006444 <emovi>
100074e0:	00e15483          	lhu	s1,14(sp)
100074e4:	02a15983          	lhu	s3,42(sp)
100074e8:	08049663          	bnez	s1,10007574 <emul+0x314>
100074ec:	01010793          	addi	a5,sp,16
100074f0:	02410693          	addi	a3,sp,36
100074f4:	1ef68063          	beq	a3,a5,100076d4 <emul+0x474>
100074f8:	0007d703          	lhu	a4,0(a5)
100074fc:	00278793          	addi	a5,a5,2
10007500:	fe070ae3          	beqz	a4,100074f4 <emul+0x294>
10007504:	00c10513          	addi	a0,sp,12
10007508:	bf1fe0ef          	jal	ra,100060f8 <enormlz>
1000750c:	02a15703          	lhu	a4,42(sp)
10007510:	40a004b3          	neg	s1,a0
10007514:	0640006f          	j	10007578 <emul+0x318>
10007518:	01490713          	addi	a4,s2,20
1000751c:	00095783          	lhu	a5,0(s2)
10007520:	00290913          	addi	s2,s2,2
10007524:	00240413          	addi	s0,s0,2
10007528:	fef41f23          	sh	a5,-2(s0)
1000752c:	fee918e3          	bne	s2,a4,1000751c <emul+0x2bc>
10007530:	f29ff06f          	j	10007458 <emul+0x1f8>
10007534:	01040713          	addi	a4,s0,16
10007538:	00040793          	mv	a5,s0
1000753c:	00278793          	addi	a5,a5,2
10007540:	fe079f23          	sh	zero,-2(a5)
10007544:	fee79ce3          	bne	a5,a4,1000753c <emul+0x2dc>
10007548:	ffffc7b7          	lui	a5,0xffffc
1000754c:	00f41823          	sh	a5,16(s0)
10007550:	ffff87b7          	lui	a5,0xffff8
10007554:	fff7c793          	not	a5,a5
10007558:	00f41923          	sh	a5,18(s0)
1000755c:	efdff06f          	j	10007458 <emul+0x1f8>
10007560:	000087b7          	lui	a5,0x8
10007564:	fff78793          	addi	a5,a5,-1 # 7fff <__heap_size+0x6fff>
10007568:	dcf594e3          	bne	a1,a5,10007330 <emul+0xd0>
1000756c:	01290693          	addi	a3,s2,18
10007570:	e21ff06f          	j	10007390 <emul+0x130>
10007574:	00098713          	mv	a4,s3
10007578:	00098913          	mv	s2,s3
1000757c:	02c10793          	addi	a5,sp,44
10007580:	04010693          	addi	a3,sp,64
10007584:	02071263          	bnez	a4,100075a8 <emul+0x348>
10007588:	16d78063          	beq	a5,a3,100076e8 <emul+0x488>
1000758c:	0007d703          	lhu	a4,0(a5)
10007590:	00278793          	addi	a5,a5,2
10007594:	fe070ae3          	beqz	a4,10007588 <emul+0x328>
10007598:	02810513          	addi	a0,sp,40
1000759c:	b5dfe0ef          	jal	ra,100060f8 <enormlz>
100075a0:	02a15703          	lhu	a4,42(sp)
100075a4:	40a98933          	sub	s2,s3,a0
100075a8:	02815783          	lhu	a5,40(sp)
100075ac:	038a0993          	addi	s3,s4,56
100075b0:	02ea1b23          	sh	a4,54(s4)
100075b4:	02fa1a23          	sh	a5,52(s4)
100075b8:	04ea0713          	addi	a4,s4,78
100075bc:	00098793          	mv	a5,s3
100075c0:	00079023          	sh	zero,0(a5)
100075c4:	00278793          	addi	a5,a5,2
100075c8:	fee79ce3          	bne	a5,a4,100075c0 <emul+0x360>
100075cc:	04ca0c13          	addi	s8,s4,76
100075d0:	00000b93          	li	s7,0
100075d4:	02410a93          	addi	s5,sp,36
100075d8:	01010c93          	addi	s9,sp,16
100075dc:	04610b13          	addi	s6,sp,70
100075e0:	000ad503          	lhu	a0,0(s5)
100075e4:	ffea8a93          	addi	s5,s5,-2
100075e8:	08051c63          	bnez	a0,10007680 <emul+0x420>
100075ec:	04ca5783          	lhu	a5,76(s4)
100075f0:	000c0713          	mv	a4,s8
100075f4:	00fbebb3          	or	s7,s7,a5
100075f8:	ffe75603          	lhu	a2,-2(a4)
100075fc:	ffe70713          	addi	a4,a4,-2
10007600:	00c71123          	sh	a2,2(a4)
10007604:	fee99ae3          	bne	s3,a4,100075f8 <emul+0x398>
10007608:	020a1c23          	sh	zero,56(s4)
1000760c:	fd9a9ae3          	bne	s5,s9,100075e0 <emul+0x380>
10007610:	034a0713          	addi	a4,s4,52
10007614:	02810793          	addi	a5,sp,40
10007618:	04210613          	addi	a2,sp,66
1000761c:	00075683          	lhu	a3,0(a4)
10007620:	00278793          	addi	a5,a5,2
10007624:	00270713          	addi	a4,a4,2
10007628:	fed79f23          	sh	a3,-2(a5)
1000762c:	fec798e3          	bne	a5,a2,1000761c <emul+0x3bc>
10007630:	ffffc6b7          	lui	a3,0xffffc
10007634:	012484b3          	add	s1,s1,s2
10007638:	00268693          	addi	a3,a3,2 # ffffc002 <_sp+0xeffd3a96>
1000763c:	000b8593          	mv	a1,s7
10007640:	02810513          	addi	a0,sp,40
10007644:	000a0793          	mv	a5,s4
10007648:	04000713          	li	a4,64
1000764c:	00d486b3          	add	a3,s1,a3
10007650:	00000613          	li	a2,0
10007654:	fe1fe0ef          	jal	ra,10006634 <emdnorm>
10007658:	02815703          	lhu	a4,40(sp)
1000765c:	00c15783          	lhu	a5,12(sp)
10007660:	00040593          	mv	a1,s0
10007664:	02810513          	addi	a0,sp,40
10007668:	40e787b3          	sub	a5,a5,a4
1000766c:	00f037b3          	snez	a5,a5
10007670:	40f007b3          	neg	a5,a5
10007674:	02f11423          	sh	a5,40(sp)
10007678:	9c5fe0ef          	jal	ra,1000603c <emovo.constprop.0>
1000767c:	dddff06f          	j	10007458 <emul+0x1f8>
10007680:	04410613          	addi	a2,sp,68
10007684:	02810593          	addi	a1,sp,40
10007688:	8e5fe0ef          	jal	ra,10005f6c <m16m>
1000768c:	000c0513          	mv	a0,s8
10007690:	00000593          	li	a1,0
10007694:	05c10613          	addi	a2,sp,92
10007698:	00055783          	lhu	a5,0(a0)
1000769c:	00065703          	lhu	a4,0(a2)
100076a0:	ffe50513          	addi	a0,a0,-2
100076a4:	ffe60613          	addi	a2,a2,-2
100076a8:	00f70733          	add	a4,a4,a5
100076ac:	00b70733          	add	a4,a4,a1
100076b0:	01075593          	srli	a1,a4,0x10
100076b4:	00e51123          	sh	a4,2(a0)
100076b8:	0015f593          	andi	a1,a1,1
100076bc:	fd661ee3          	bne	a2,s6,10007698 <emul+0x438>
100076c0:	f2dff06f          	j	100075ec <emul+0x38c>
100076c4:	00000713          	li	a4,0
100076c8:	c91ff06f          	j	10007358 <emul+0xf8>
100076cc:	00000793          	li	a5,0
100076d0:	d55ff06f          	j	10007424 <emul+0x1c4>
100076d4:	01440793          	addi	a5,s0,20
100076d8:	00240413          	addi	s0,s0,2
100076dc:	fe041f23          	sh	zero,-2(s0)
100076e0:	fef41ce3          	bne	s0,a5,100076d8 <emul+0x478>
100076e4:	d75ff06f          	j	10007458 <emul+0x1f8>
100076e8:	01440793          	addi	a5,s0,20
100076ec:	00240413          	addi	s0,s0,2
100076f0:	fe041f23          	sh	zero,-2(s0)
100076f4:	fef41ce3          	bne	s0,a5,100076ec <emul+0x48c>
100076f8:	d61ff06f          	j	10007458 <emul+0x1f8>
100076fc:	00008837          	lui	a6,0x8
10007700:	fff80813          	addi	a6,a6,-1 # 7fff <__heap_size+0x6fff>
10007704:	cd1ff06f          	j	100073d4 <emul+0x174>

10007708 <_ldtoa_r>:
10007708:	00c5a883          	lw	a7,12(a1)
1000770c:	e1010113          	addi	sp,sp,-496
10007710:	0005ae83          	lw	t4,0(a1)
10007714:	0045ae03          	lw	t3,4(a1)
10007718:	0085a303          	lw	t1,8(a1)
1000771c:	03112e23          	sw	a7,60(sp)
10007720:	04052583          	lw	a1,64(a0)
10007724:	fff00893          	li	a7,-1
10007728:	1e812423          	sw	s0,488(sp)
1000772c:	17112023          	sw	a7,352(sp)
10007730:	00078413          	mv	s0,a5
10007734:	09000893          	li	a7,144
10007738:	09000793          	li	a5,144
1000773c:	1d412c23          	sw	s4,472(sp)
10007740:	1e112623          	sw	ra,492(sp)
10007744:	1e912223          	sw	s1,484(sp)
10007748:	1f212023          	sw	s2,480(sp)
1000774c:	1d312e23          	sw	s3,476(sp)
10007750:	1d512a23          	sw	s5,468(sp)
10007754:	1d612823          	sw	s6,464(sp)
10007758:	1d712623          	sw	s7,460(sp)
1000775c:	1d812423          	sw	s8,456(sp)
10007760:	1d912223          	sw	s9,452(sp)
10007764:	1da12023          	sw	s10,448(sp)
10007768:	1bb12e23          	sw	s11,444(sp)
1000776c:	03d12823          	sw	t4,48(sp)
10007770:	03c12a23          	sw	t3,52(sp)
10007774:	02612c23          	sw	t1,56(sp)
10007778:	17112223          	sw	a7,356(sp)
1000777c:	00c12023          	sw	a2,0(sp)
10007780:	00d12423          	sw	a3,8(sp)
10007784:	00e12823          	sw	a4,16(sp)
10007788:	01012a23          	sw	a6,20(sp)
1000778c:	00f12623          	sw	a5,12(sp)
10007790:	00050a13          	mv	s4,a0
10007794:	02058463          	beqz	a1,100077bc <_ldtoa_r+0xb4>
10007798:	04452703          	lw	a4,68(a0)
1000779c:	00100793          	li	a5,1
100077a0:	00e797b3          	sll	a5,a5,a4
100077a4:	00f5a423          	sw	a5,8(a1)
100077a8:	00e5a223          	sw	a4,4(a1)
100077ac:	655010ef          	jal	ra,10009600 <_Bfree>
100077b0:	16412783          	lw	a5,356(sp)
100077b4:	040a2023          	sw	zero,64(s4)
100077b8:	00f12623          	sw	a5,12(sp)
100077bc:	06010913          	addi	s2,sp,96
100077c0:	00090593          	mv	a1,s2
100077c4:	03010513          	addi	a0,sp,48
100077c8:	bb4ff0ef          	jal	ra,10006b7c <e113toe.isra.0>
100077cc:	07215783          	lhu	a5,114(sp)
100077d0:	00008737          	lui	a4,0x8
100077d4:	fff70713          	addi	a4,a4,-1 # 7fff <__heap_size+0x6fff>
100077d8:	00e7f5b3          	and	a1,a5,a4
100077dc:	00e59e63          	bne	a1,a4,100077f8 <_ldtoa_r+0xf0>
100077e0:	00090713          	mv	a4,s2
100077e4:	07210613          	addi	a2,sp,114
100077e8:	00075683          	lhu	a3,0(a4)
100077ec:	00270713          	addi	a4,a4,2
100077f0:	3c0694e3          	bnez	a3,100083b8 <_ldtoa_r+0xcb0>
100077f4:	fec71ae3          	bne	a4,a2,100077e8 <_ldtoa_r+0xe0>
100077f8:	00f7d793          	srli	a5,a5,0xf
100077fc:	00012703          	lw	a4,0(sp)
10007800:	00f42023          	sw	a5,0(s0)
10007804:	00300793          	li	a5,3
10007808:	08f70ae3          	beq	a4,a5,1000809c <_ldtoa_r+0x994>
1000780c:	01400793          	li	a5,20
10007810:	00f12223          	sw	a5,4(sp)
10007814:	3a0716e3          	bnez	a4,100083c0 <_ldtoa_r+0xcb8>
10007818:	000087b7          	lui	a5,0x8
1000781c:	fff78793          	addi	a5,a5,-1 # 7fff <__heap_size+0x6fff>
10007820:	00f59e63          	bne	a1,a5,1000783c <_ldtoa_r+0x134>
10007824:	00090793          	mv	a5,s2
10007828:	07210693          	addi	a3,sp,114
1000782c:	0007d703          	lhu	a4,0(a5)
10007830:	00278793          	addi	a5,a5,2
10007834:	0e0712e3          	bnez	a4,10008118 <_ldtoa_r+0xa10>
10007838:	fed79ae3          	bne	a5,a3,1000782c <_ldtoa_r+0x124>
1000783c:	09000793          	li	a5,144
10007840:	16f12223          	sw	a5,356(sp)
10007844:	07c10713          	addi	a4,sp,124
10007848:	00090793          	mv	a5,s2
1000784c:	07410613          	addi	a2,sp,116
10007850:	0007d683          	lhu	a3,0(a5)
10007854:	00278793          	addi	a5,a5,2
10007858:	00270713          	addi	a4,a4,2
1000785c:	fed71f23          	sh	a3,-2(a4)
10007860:	fec798e3          	bne	a5,a2,10007850 <_ldtoa_r+0x148>
10007864:	08e15603          	lhu	a2,142(sp)
10007868:	00012c23          	sw	zero,24(sp)
1000786c:	01061793          	slli	a5,a2,0x10
10007870:	4107d793          	srai	a5,a5,0x10
10007874:	5607c863          	bltz	a5,10007de4 <_ldtoa_r+0x6dc>
10007878:	10014bb7          	lui	s7,0x10014
1000787c:	314b8d93          	addi	s11,s7,788 # 10014314 <ezero>
10007880:	014d8c13          	addi	s8,s11,20
10007884:	00000693          	li	a3,0
10007888:	09810793          	addi	a5,sp,152
1000788c:	000c0713          	mv	a4,s8
10007890:	0ac10d13          	addi	s10,sp,172
10007894:	0080006f          	j	1000789c <_ldtoa_r+0x194>
10007898:	00075683          	lhu	a3,0(a4)
1000789c:	00278793          	addi	a5,a5,2
100078a0:	fed79f23          	sh	a3,-2(a5)
100078a4:	00270713          	addi	a4,a4,2
100078a8:	ffa798e3          	bne	a5,s10,10007898 <_ldtoa_r+0x190>
100078ac:	14060463          	beqz	a2,100079f4 <_ldtoa_r+0x2ec>
100078b0:	000087b7          	lui	a5,0x8
100078b4:	fff78793          	addi	a5,a5,-1 # 7fff <__heap_size+0x6fff>
100078b8:	4af60ee3          	beq	a2,a5,10008574 <_ldtoa_r+0xe6c>
100078bc:	08c11783          	lh	a5,140(sp)
100078c0:	5207dce3          	bgez	a5,100085f8 <_ldtoa_r+0xef0>
100078c4:	07c10593          	addi	a1,sp,124
100078c8:	000c0513          	mv	a0,s8
100078cc:	c2dfe0ef          	jal	ra,100064f8 <ecmp>
100078d0:	12050e63          	beqz	a0,10007a0c <_ldtoa_r+0x304>
100078d4:	060542e3          	bltz	a0,10008138 <_ldtoa_r+0xa30>
100078d8:	08e15783          	lhu	a5,142(sp)
100078dc:	5c0796e3          	bnez	a5,100086a8 <_ldtoa_r+0xfa0>
100078e0:	08c11783          	lh	a5,140(sp)
100078e4:	00000493          	li	s1,0
100078e8:	16010993          	addi	s3,sp,352
100078ec:	0207c463          	bltz	a5,10007914 <_ldtoa_r+0x20c>
100078f0:	118d8413          	addi	s0,s11,280
100078f4:	07c10613          	addi	a2,sp,124
100078f8:	00098693          	mv	a3,s3
100078fc:	00060593          	mv	a1,a2
10007900:	00040513          	mv	a0,s0
10007904:	95dff0ef          	jal	ra,10007260 <emul>
10007908:	08c11783          	lh	a5,140(sp)
1000790c:	fff48493          	addi	s1,s1,-1
10007910:	fe07d2e3          	bgez	a5,100078f4 <_ldtoa_r+0x1ec>
10007914:	0d010413          	addi	s0,sp,208
10007918:	0e810b13          	addi	s6,sp,232
1000791c:	00040713          	mv	a4,s0
10007920:	07c10793          	addi	a5,sp,124
10007924:	09010613          	addi	a2,sp,144
10007928:	0007d683          	lhu	a3,0(a5)
1000792c:	00278793          	addi	a5,a5,2
10007930:	00270713          	addi	a4,a4,2
10007934:	fed71f23          	sh	a3,-2(a4)
10007938:	fec798e3          	bne	a5,a2,10007928 <_ldtoa_r+0x220>
1000793c:	00000693          	li	a3,0
10007940:	09810793          	addi	a5,sp,152
10007944:	000c0713          	mv	a4,s8
10007948:	0080006f          	j	10007950 <_ldtoa_r+0x248>
1000794c:	00075683          	lhu	a3,0(a4)
10007950:	00278793          	addi	a5,a5,2
10007954:	fed79f23          	sh	a3,-2(a5)
10007958:	00270713          	addi	a4,a4,2
1000795c:	ffa798e3          	bne	a5,s10,1000794c <_ldtoa_r+0x244>
10007960:	028d8d13          	addi	s10,s11,40
10007964:	12cd8c93          	addi	s9,s11,300
10007968:	fffffab7          	lui	s5,0xfffff
1000796c:	21cd8d93          	addi	s11,s11,540
10007970:	00c0006f          	j	1000797c <_ldtoa_r+0x274>
10007974:	014c8c93          	addi	s9,s9,20
10007978:	014d0d13          	addi	s10,s10,20
1000797c:	00040593          	mv	a1,s0
10007980:	000c0513          	mv	a0,s8
10007984:	b75fe0ef          	jal	ra,100064f8 <ecmp>
10007988:	04a05863          	blez	a0,100079d8 <_ldtoa_r+0x2d0>
1000798c:	00040593          	mv	a1,s0
10007990:	000c8513          	mv	a0,s9
10007994:	b65fe0ef          	jal	ra,100064f8 <ecmp>
10007998:	02054863          	bltz	a0,100079c8 <_ldtoa_r+0x2c0>
1000799c:	00098693          	mv	a3,s3
100079a0:	00040613          	mv	a2,s0
100079a4:	00040593          	mv	a1,s0
100079a8:	000d0513          	mv	a0,s10
100079ac:	8b5ff0ef          	jal	ra,10007260 <emul>
100079b0:	09810613          	addi	a2,sp,152
100079b4:	00098693          	mv	a3,s3
100079b8:	00060593          	mv	a1,a2
100079bc:	000d0513          	mv	a0,s10
100079c0:	8a1ff0ef          	jal	ra,10007260 <emul>
100079c4:	015484b3          	add	s1,s1,s5
100079c8:	01fad793          	srli	a5,s5,0x1f
100079cc:	015787b3          	add	a5,a5,s5
100079d0:	4017da93          	srai	s5,a5,0x1
100079d4:	fbbc90e3          	bne	s9,s11,10007974 <_ldtoa_r+0x26c>
100079d8:	09810613          	addi	a2,sp,152
100079dc:	00098693          	mv	a3,s3
100079e0:	000c0593          	mv	a1,s8
100079e4:	00060513          	mv	a0,a2
100079e8:	ae8ff0ef          	jal	ra,10006cd0 <ediv>
100079ec:	12410a93          	addi	s5,sp,292
100079f0:	0300006f          	j	10007a20 <_ldtoa_r+0x318>
100079f4:	07c10793          	addi	a5,sp,124
100079f8:	08e10693          	addi	a3,sp,142
100079fc:	0007d703          	lhu	a4,0(a5)
10007a00:	ec0712e3          	bnez	a4,100078c4 <_ldtoa_r+0x1bc>
10007a04:	00278793          	addi	a5,a5,2
10007a08:	fed79ae3          	bne	a5,a3,100079fc <_ldtoa_r+0x2f4>
10007a0c:	00000493          	li	s1,0
10007a10:	12410a93          	addi	s5,sp,292
10007a14:	16010993          	addi	s3,sp,352
10007a18:	0d010413          	addi	s0,sp,208
10007a1c:	0e810b13          	addi	s6,sp,232
10007a20:	00040593          	mv	a1,s0
10007a24:	09810513          	addi	a0,sp,152
10007a28:	a1dfe0ef          	jal	ra,10006444 <emovi>
10007a2c:	09810713          	addi	a4,sp,152
10007a30:	00040793          	mv	a5,s0
10007a34:	0007d683          	lhu	a3,0(a5)
10007a38:	00278793          	addi	a5,a5,2
10007a3c:	00270713          	addi	a4,a4,2
10007a40:	fed71f23          	sh	a3,-2(a4)
10007a44:	ff6798e3          	bne	a5,s6,10007a34 <_ldtoa_r+0x32c>
10007a48:	00040593          	mv	a1,s0
10007a4c:	07c10513          	addi	a0,sp,124
10007a50:	0a011823          	sh	zero,176(sp)
10007a54:	9f1fe0ef          	jal	ra,10006444 <emovi>
10007a58:	07c10793          	addi	a5,sp,124
10007a5c:	00045703          	lhu	a4,0(s0)
10007a60:	00240413          	addi	s0,s0,2
10007a64:	00278793          	addi	a5,a5,2
10007a68:	fee79f23          	sh	a4,-2(a5)
10007a6c:	ff6418e3          	bne	s0,s6,10007a5c <_ldtoa_r+0x354>
10007a70:	09810513          	addi	a0,sp,152
10007a74:	00098613          	mv	a2,s3
10007a78:	07c10593          	addi	a1,sp,124
10007a7c:	08011a23          	sh	zero,148(sp)
10007a80:	f99fe0ef          	jal	ra,10006a18 <eiremain>
10007a84:	1ac15503          	lhu	a0,428(sp)
10007a88:	16051a63          	bnez	a0,10007bfc <_ldtoa_r+0x4f4>
10007a8c:	09410c13          	addi	s8,sp,148
10007a90:	07e10c93          	addi	s9,sp,126
10007a94:	0b610413          	addi	s0,sp,182
10007a98:	314b8593          	addi	a1,s7,788
10007a9c:	07c10513          	addi	a0,sp,124
10007aa0:	a59fe0ef          	jal	ra,100064f8 <ecmp>
10007aa4:	14050c63          	beqz	a0,10007bfc <_ldtoa_r+0x4f4>
10007aa8:	00000713          	li	a4,0
10007aac:	000c0693          	mv	a3,s8
10007ab0:	0006d783          	lhu	a5,0(a3)
10007ab4:	01079613          	slli	a2,a5,0x10
10007ab8:	41065613          	srai	a2,a2,0x10
10007abc:	00065463          	bgez	a2,10007ac4 <_ldtoa_r+0x3bc>
10007ac0:	00176713          	ori	a4,a4,1
10007ac4:	00179793          	slli	a5,a5,0x1
10007ac8:	01079793          	slli	a5,a5,0x10
10007acc:	00277613          	andi	a2,a4,2
10007ad0:	0107d793          	srli	a5,a5,0x10
10007ad4:	00060463          	beqz	a2,10007adc <_ldtoa_r+0x3d4>
10007ad8:	0017e793          	ori	a5,a5,1
10007adc:	00171713          	slli	a4,a4,0x1
10007ae0:	00f69023          	sh	a5,0(a3)
10007ae4:	01071713          	slli	a4,a4,0x10
10007ae8:	ffe68693          	addi	a3,a3,-2
10007aec:	01075713          	srli	a4,a4,0x10
10007af0:	fd9690e3          	bne	a3,s9,10007ab0 <_ldtoa_r+0x3a8>
10007af4:	0b410713          	addi	a4,sp,180
10007af8:	07c10793          	addi	a5,sp,124
10007afc:	0007d683          	lhu	a3,0(a5)
10007b00:	00278793          	addi	a5,a5,2
10007b04:	00270713          	addi	a4,a4,2
10007b08:	fed71f23          	sh	a3,-2(a4)
10007b0c:	ff8798e3          	bne	a5,s8,10007afc <_ldtoa_r+0x3f4>
10007b10:	0c011623          	sh	zero,204(sp)
10007b14:	00000713          	li	a4,0
10007b18:	0cc10693          	addi	a3,sp,204
10007b1c:	0006d783          	lhu	a5,0(a3)
10007b20:	01079613          	slli	a2,a5,0x10
10007b24:	41065613          	srai	a2,a2,0x10
10007b28:	00065463          	bgez	a2,10007b30 <_ldtoa_r+0x428>
10007b2c:	00176713          	ori	a4,a4,1
10007b30:	00179793          	slli	a5,a5,0x1
10007b34:	01079793          	slli	a5,a5,0x10
10007b38:	00277613          	andi	a2,a4,2
10007b3c:	0107d793          	srli	a5,a5,0x10
10007b40:	00060463          	beqz	a2,10007b48 <_ldtoa_r+0x440>
10007b44:	0017e793          	ori	a5,a5,1
10007b48:	00171713          	slli	a4,a4,0x1
10007b4c:	00f69023          	sh	a5,0(a3)
10007b50:	01071713          	slli	a4,a4,0x10
10007b54:	ffe68693          	addi	a3,a3,-2
10007b58:	01075713          	srli	a4,a4,0x10
10007b5c:	fc8690e3          	bne	a3,s0,10007b1c <_ldtoa_r+0x414>
10007b60:	00000713          	li	a4,0
10007b64:	0cc10693          	addi	a3,sp,204
10007b68:	0006d783          	lhu	a5,0(a3)
10007b6c:	01079613          	slli	a2,a5,0x10
10007b70:	41065613          	srai	a2,a2,0x10
10007b74:	00065463          	bgez	a2,10007b7c <_ldtoa_r+0x474>
10007b78:	00176713          	ori	a4,a4,1
10007b7c:	00179793          	slli	a5,a5,0x1
10007b80:	01079793          	slli	a5,a5,0x10
10007b84:	00277613          	andi	a2,a4,2
10007b88:	0107d793          	srli	a5,a5,0x10
10007b8c:	00060463          	beqz	a2,10007b94 <_ldtoa_r+0x48c>
10007b90:	0017e793          	ori	a5,a5,1
10007b94:	00171713          	slli	a4,a4,0x1
10007b98:	00f69023          	sh	a5,0(a3)
10007b9c:	01071713          	slli	a4,a4,0x10
10007ba0:	ffe68693          	addi	a3,a3,-2
10007ba4:	01075713          	srli	a4,a4,0x10
10007ba8:	fc8690e3          	bne	a3,s0,10007b68 <_ldtoa_r+0x460>
10007bac:	00000613          	li	a2,0
10007bb0:	000c0693          	mv	a3,s8
10007bb4:	0cc10713          	addi	a4,sp,204
10007bb8:	0006d583          	lhu	a1,0(a3)
10007bbc:	00075783          	lhu	a5,0(a4)
10007bc0:	ffe68693          	addi	a3,a3,-2
10007bc4:	ffe70713          	addi	a4,a4,-2
10007bc8:	00b787b3          	add	a5,a5,a1
10007bcc:	00c787b3          	add	a5,a5,a2
10007bd0:	0107d613          	srli	a2,a5,0x10
10007bd4:	00f69123          	sh	a5,2(a3)
10007bd8:	00167613          	andi	a2,a2,1
10007bdc:	fc871ee3          	bne	a4,s0,10007bb8 <_ldtoa_r+0x4b0>
10007be0:	09810513          	addi	a0,sp,152
10007be4:	00098613          	mv	a2,s3
10007be8:	07c10593          	addi	a1,sp,124
10007bec:	e2dfe0ef          	jal	ra,10006a18 <eiremain>
10007bf0:	1ac15503          	lhu	a0,428(sp)
10007bf4:	fff48493          	addi	s1,s1,-1
10007bf8:	ea0500e3          	beqz	a0,10007a98 <_ldtoa_r+0x390>
10007bfc:	01812783          	lw	a5,24(sp)
10007c00:	00012683          	lw	a3,0(sp)
10007c04:	00300713          	li	a4,3
10007c08:	00f037b3          	snez	a5,a5
10007c0c:	40f007b3          	neg	a5,a5
10007c10:	00d7f793          	andi	a5,a5,13
10007c14:	02078793          	addi	a5,a5,32
10007c18:	12f10223          	sb	a5,292(sp)
10007c1c:	00412783          	lw	a5,4(sp)
10007c20:	00e69463          	bne	a3,a4,10007c28 <_ldtoa_r+0x520>
10007c24:	009787b3          	add	a5,a5,s1
10007c28:	02a00713          	li	a4,42
10007c2c:	00f12c23          	sw	a5,24(sp)
10007c30:	00f75463          	bge	a4,a5,10007c38 <_ldtoa_r+0x530>
10007c34:	00e12c23          	sw	a4,24(sp)
10007c38:	00a00713          	li	a4,10
10007c3c:	4ae50463          	beq	a0,a4,100080e4 <_ldtoa_r+0x9dc>
10007c40:	03050513          	addi	a0,a0,48
10007c44:	02e00713          	li	a4,46
10007c48:	12a102a3          	sb	a0,293(sp)
10007c4c:	12e10323          	sb	a4,294(sp)
10007c50:	1c07c4e3          	bltz	a5,10008618 <_ldtoa_r+0xf10>
10007c54:	12710b13          	addi	s6,sp,295
10007c58:	00000413          	li	s0,0
10007c5c:	00912e23          	sw	s1,28(sp)
10007c60:	000b0493          	mv	s1,s6
10007c64:	00040b13          	mv	s6,s0
10007c68:	01812403          	lw	s0,24(sp)
10007c6c:	0b410c93          	addi	s9,sp,180
10007c70:	09410d13          	addi	s10,sp,148
10007c74:	07e10d93          	addi	s11,sp,126
10007c78:	0b610c13          	addi	s8,sp,182
10007c7c:	00000693          	li	a3,0
10007c80:	000d0613          	mv	a2,s10
10007c84:	00065783          	lhu	a5,0(a2)
10007c88:	01079593          	slli	a1,a5,0x10
10007c8c:	4105d593          	srai	a1,a1,0x10
10007c90:	0005d463          	bgez	a1,10007c98 <_ldtoa_r+0x590>
10007c94:	0016e693          	ori	a3,a3,1
10007c98:	00179793          	slli	a5,a5,0x1
10007c9c:	01079793          	slli	a5,a5,0x10
10007ca0:	0026f593          	andi	a1,a3,2
10007ca4:	0107d793          	srli	a5,a5,0x10
10007ca8:	00058463          	beqz	a1,10007cb0 <_ldtoa_r+0x5a8>
10007cac:	0017e793          	ori	a5,a5,1
10007cb0:	00169693          	slli	a3,a3,0x1
10007cb4:	00f61023          	sh	a5,0(a2)
10007cb8:	01069693          	slli	a3,a3,0x10
10007cbc:	ffe60613          	addi	a2,a2,-2
10007cc0:	0106d693          	srli	a3,a3,0x10
10007cc4:	fdb610e3          	bne	a2,s11,10007c84 <_ldtoa_r+0x57c>
10007cc8:	000c8693          	mv	a3,s9
10007ccc:	07c10793          	addi	a5,sp,124
10007cd0:	0007d603          	lhu	a2,0(a5)
10007cd4:	00278793          	addi	a5,a5,2
10007cd8:	00268693          	addi	a3,a3,2
10007cdc:	fec69f23          	sh	a2,-2(a3)
10007ce0:	ffa798e3          	bne	a5,s10,10007cd0 <_ldtoa_r+0x5c8>
10007ce4:	0c011623          	sh	zero,204(sp)
10007ce8:	00000693          	li	a3,0
10007cec:	0cc10613          	addi	a2,sp,204
10007cf0:	00065783          	lhu	a5,0(a2)
10007cf4:	01079593          	slli	a1,a5,0x10
10007cf8:	4105d593          	srai	a1,a1,0x10
10007cfc:	0005d463          	bgez	a1,10007d04 <_ldtoa_r+0x5fc>
10007d00:	0016e693          	ori	a3,a3,1
10007d04:	00179793          	slli	a5,a5,0x1
10007d08:	01079793          	slli	a5,a5,0x10
10007d0c:	0026f593          	andi	a1,a3,2
10007d10:	0107d793          	srli	a5,a5,0x10
10007d14:	00058463          	beqz	a1,10007d1c <_ldtoa_r+0x614>
10007d18:	0017e793          	ori	a5,a5,1
10007d1c:	00169693          	slli	a3,a3,0x1
10007d20:	00f61023          	sh	a5,0(a2)
10007d24:	01069693          	slli	a3,a3,0x10
10007d28:	ffe60613          	addi	a2,a2,-2
10007d2c:	0106d693          	srli	a3,a3,0x10
10007d30:	fd8610e3          	bne	a2,s8,10007cf0 <_ldtoa_r+0x5e8>
10007d34:	00000693          	li	a3,0
10007d38:	0cc10613          	addi	a2,sp,204
10007d3c:	00065783          	lhu	a5,0(a2)
10007d40:	01079593          	slli	a1,a5,0x10
10007d44:	4105d593          	srai	a1,a1,0x10
10007d48:	0005d463          	bgez	a1,10007d50 <_ldtoa_r+0x648>
10007d4c:	0016e693          	ori	a3,a3,1
10007d50:	00179793          	slli	a5,a5,0x1
10007d54:	01079793          	slli	a5,a5,0x10
10007d58:	0026f593          	andi	a1,a3,2
10007d5c:	0107d793          	srli	a5,a5,0x10
10007d60:	00058463          	beqz	a1,10007d68 <_ldtoa_r+0x660>
10007d64:	0017e793          	ori	a5,a5,1
10007d68:	00169693          	slli	a3,a3,0x1
10007d6c:	00f61023          	sh	a5,0(a2)
10007d70:	01069693          	slli	a3,a3,0x10
10007d74:	ffe60613          	addi	a2,a2,-2
10007d78:	0106d693          	srli	a3,a3,0x10
10007d7c:	fd8610e3          	bne	a2,s8,10007d3c <_ldtoa_r+0x634>
10007d80:	00000593          	li	a1,0
10007d84:	000d0613          	mv	a2,s10
10007d88:	0cc10693          	addi	a3,sp,204
10007d8c:	00065503          	lhu	a0,0(a2)
10007d90:	0006d783          	lhu	a5,0(a3)
10007d94:	ffe60613          	addi	a2,a2,-2
10007d98:	ffe68693          	addi	a3,a3,-2
10007d9c:	00a787b3          	add	a5,a5,a0
10007da0:	00b787b3          	add	a5,a5,a1
10007da4:	0107d593          	srli	a1,a5,0x10
10007da8:	00f61123          	sh	a5,2(a2)
10007dac:	0015f593          	andi	a1,a1,1
10007db0:	fd869ee3          	bne	a3,s8,10007d8c <_ldtoa_r+0x684>
10007db4:	00098613          	mv	a2,s3
10007db8:	07c10593          	addi	a1,sp,124
10007dbc:	09810513          	addi	a0,sp,152
10007dc0:	c59fe0ef          	jal	ra,10006a18 <eiremain>
10007dc4:	1ac15603          	lhu	a2,428(sp)
10007dc8:	00148793          	addi	a5,s1,1
10007dcc:	001b0b13          	addi	s6,s6,1
10007dd0:	03060693          	addi	a3,a2,48
10007dd4:	fed78fa3          	sb	a3,-1(a5)
10007dd8:	03644463          	blt	s0,s6,10007e00 <_ldtoa_r+0x6f8>
10007ddc:	00078493          	mv	s1,a5
10007de0:	e9dff06f          	j	10007c7c <_ldtoa_r+0x574>
10007de4:	01161613          	slli	a2,a2,0x11
10007de8:	000107b7          	lui	a5,0x10
10007dec:	01165613          	srli	a2,a2,0x11
10007df0:	fff78793          	addi	a5,a5,-1 # ffff <__heap_size+0xefff>
10007df4:	08c11723          	sh	a2,142(sp)
10007df8:	00f12c23          	sw	a5,24(sp)
10007dfc:	a7dff06f          	j	10007878 <_ldtoa_r+0x170>
10007e00:	00048b13          	mv	s6,s1
10007e04:	01c12483          	lw	s1,28(sp)
10007e08:	00400713          	li	a4,4
10007e0c:	04c75a63          	bge	a4,a2,10007e60 <_ldtoa_r+0x758>
10007e10:	00500713          	li	a4,5
10007e14:	00e60ae3          	beq	a2,a4,10008628 <_ldtoa_r+0xf20>
10007e18:	ffe7c703          	lbu	a4,-2(a5)
10007e1c:	01812683          	lw	a3,24(sp)
10007e20:	ffe78613          	addi	a2,a5,-2
10007e24:	07f77713          	andi	a4,a4,127
10007e28:	0206c663          	bltz	a3,10007e54 <_ldtoa_r+0x74c>
10007e2c:	02e00793          	li	a5,46
10007e30:	03800593          	li	a1,56
10007e34:	03000513          	li	a0,48
10007e38:	76f70663          	beq	a4,a5,100085a4 <_ldtoa_r+0xe9c>
10007e3c:	78e5d263          	bge	a1,a4,100085c0 <_ldtoa_r+0xeb8>
10007e40:	fff64703          	lbu	a4,-1(a2)
10007e44:	00a60023          	sb	a0,0(a2)
10007e48:	fff60613          	addi	a2,a2,-1
10007e4c:	07f77713          	andi	a4,a4,127
10007e50:	fe9ff06f          	j	10007e38 <_ldtoa_r+0x730>
10007e54:	03100713          	li	a4,49
10007e58:	fee78f23          	sb	a4,-2(a5)
10007e5c:	00148493          	addi	s1,s1,1
10007e60:	100145b7          	lui	a1,0x10014
10007e64:	00048613          	mv	a2,s1
10007e68:	2a458593          	addi	a1,a1,676 # 100142a4 <zeroes.0+0x2c>
10007e6c:	000b0513          	mv	a0,s6
10007e70:	f54fa0ef          	jal	ra,100025c4 <sprintf>
10007e74:	07215783          	lhu	a5,114(sp)
10007e78:	00c12703          	lw	a4,12(sp)
10007e7c:	16912823          	sw	s1,368(sp)
10007e80:	fff7c793          	not	a5,a5
10007e84:	16e12223          	sw	a4,356(sp)
10007e88:	01179713          	slli	a4,a5,0x11
10007e8c:	18070863          	beqz	a4,1000801c <_ldtoa_r+0x914>
10007e90:	01012683          	lw	a3,16(sp)
10007e94:	12414703          	lbu	a4,292(sp)
10007e98:	00148793          	addi	a5,s1,1
10007e9c:	00f6a023          	sw	a5,0(a3)
10007ea0:	000a8793          	mv	a5,s5
10007ea4:	02070a63          	beqz	a4,10007ed8 <_ldtoa_r+0x7d0>
10007ea8:	02e00693          	li	a3,46
10007eac:	20d70663          	beq	a4,a3,100080b8 <_ldtoa_r+0x9b0>
10007eb0:	0017c703          	lbu	a4,1(a5)
10007eb4:	00178793          	addi	a5,a5,1
10007eb8:	fe071ae3          	bnez	a4,10007eac <_ldtoa_r+0x7a4>
10007ebc:	04500693          	li	a3,69
10007ec0:	00fae663          	bltu	s5,a5,10007ecc <_ldtoa_r+0x7c4>
10007ec4:	0140006f          	j	10007ed8 <_ldtoa_r+0x7d0>
10007ec8:	01578863          	beq	a5,s5,10007ed8 <_ldtoa_r+0x7d0>
10007ecc:	fff7c703          	lbu	a4,-1(a5)
10007ed0:	fff78793          	addi	a5,a5,-1
10007ed4:	fed71ae3          	bne	a4,a3,10007ec8 <_ldtoa_r+0x7c0>
10007ed8:	00078023          	sb	zero,0(a5)
10007edc:	000a8793          	mv	a5,s5
10007ee0:	02000693          	li	a3,32
10007ee4:	02d00613          	li	a2,45
10007ee8:	0007c703          	lbu	a4,0(a5)
10007eec:	00d70463          	beq	a4,a3,10007ef4 <_ldtoa_r+0x7ec>
10007ef0:	00c71663          	bne	a4,a2,10007efc <_ldtoa_r+0x7f4>
10007ef4:	00178793          	addi	a5,a5,1
10007ef8:	ff1ff06f          	j	10007ee8 <_ldtoa_r+0x7e0>
10007efc:	000a8413          	mv	s0,s5
10007f00:	00c0006f          	j	10007f0c <_ldtoa_r+0x804>
10007f04:	0007c703          	lbu	a4,0(a5)
10007f08:	00068413          	mv	s0,a3
10007f0c:	00e40023          	sb	a4,0(s0)
10007f10:	00140693          	addi	a3,s0,1
10007f14:	00178793          	addi	a5,a5,1
10007f18:	fe0716e3          	bnez	a4,10007f04 <_ldtoa_r+0x7fc>
10007f1c:	00012703          	lw	a4,0(sp)
10007f20:	00200793          	li	a5,2
10007f24:	fff44683          	lbu	a3,-1(s0)
10007f28:	12f70063          	beq	a4,a5,10008048 <_ldtoa_r+0x940>
10007f2c:	00412783          	lw	a5,4(sp)
10007f30:	00078713          	mv	a4,a5
10007f34:	0097d463          	bge	a5,s1,10007f3c <_ldtoa_r+0x834>
10007f38:	00048713          	mv	a4,s1
10007f3c:	03000793          	li	a5,48
10007f40:	02f69663          	bne	a3,a5,10007f6c <_ldtoa_r+0x864>
10007f44:	415407b3          	sub	a5,s0,s5
10007f48:	02f75263          	bge	a4,a5,10007f6c <_ldtoa_r+0x864>
10007f4c:	03000693          	li	a3,48
10007f50:	00c0006f          	j	10007f5c <_ldtoa_r+0x854>
10007f54:	415407b3          	sub	a5,s0,s5
10007f58:	00f75a63          	bge	a4,a5,10007f6c <_ldtoa_r+0x864>
10007f5c:	ffe44783          	lbu	a5,-2(s0)
10007f60:	fe040fa3          	sb	zero,-1(s0)
10007f64:	fff40413          	addi	s0,s0,-1
10007f68:	fed786e3          	beq	a5,a3,10007f54 <_ldtoa_r+0x84c>
10007f6c:	00012703          	lw	a4,0(sp)
10007f70:	00300793          	li	a5,3
10007f74:	0ef70663          	beq	a4,a5,10008060 <_ldtoa_r+0x958>
10007f78:	00812783          	lw	a5,8(sp)
10007f7c:	040a2223          	sw	zero,68(s4)
10007f80:	00978613          	addi	a2,a5,9
10007f84:	01700793          	li	a5,23
10007f88:	10c7f663          	bgeu	a5,a2,10008094 <_ldtoa_r+0x98c>
10007f8c:	00100713          	li	a4,1
10007f90:	00400793          	li	a5,4
10007f94:	00179793          	slli	a5,a5,0x1
10007f98:	01478693          	addi	a3,a5,20
10007f9c:	00070593          	mv	a1,a4
10007fa0:	00170713          	addi	a4,a4,1
10007fa4:	fed678e3          	bgeu	a2,a3,10007f94 <_ldtoa_r+0x88c>
10007fa8:	04ba2223          	sw	a1,68(s4)
10007fac:	000a0513          	mv	a0,s4
10007fb0:	5a8010ef          	jal	ra,10009558 <_Balloc>
10007fb4:	00050493          	mv	s1,a0
10007fb8:	080502e3          	beqz	a0,1000883c <_ldtoa_r+0x1134>
10007fbc:	04aa2023          	sw	a0,64(s4)
10007fc0:	000a8593          	mv	a1,s5
10007fc4:	17c030ef          	jal	ra,1000b140 <strcpy>
10007fc8:	01412703          	lw	a4,20(sp)
10007fcc:	00070863          	beqz	a4,10007fdc <_ldtoa_r+0x8d4>
10007fd0:	415407b3          	sub	a5,s0,s5
10007fd4:	00f487b3          	add	a5,s1,a5
10007fd8:	00f72023          	sw	a5,0(a4)
10007fdc:	1ec12083          	lw	ra,492(sp)
10007fe0:	1e812403          	lw	s0,488(sp)
10007fe4:	1e012903          	lw	s2,480(sp)
10007fe8:	1dc12983          	lw	s3,476(sp)
10007fec:	1d812a03          	lw	s4,472(sp)
10007ff0:	1d412a83          	lw	s5,468(sp)
10007ff4:	1d012b03          	lw	s6,464(sp)
10007ff8:	1cc12b83          	lw	s7,460(sp)
10007ffc:	1c812c03          	lw	s8,456(sp)
10008000:	1c412c83          	lw	s9,452(sp)
10008004:	1c012d03          	lw	s10,448(sp)
10008008:	1bc12d83          	lw	s11,444(sp)
1000800c:	00048513          	mv	a0,s1
10008010:	1e412483          	lw	s1,484(sp)
10008014:	1f010113          	addi	sp,sp,496
10008018:	00008067          	ret
1000801c:	00090793          	mv	a5,s2
10008020:	07210693          	addi	a3,sp,114
10008024:	0007d703          	lhu	a4,0(a5)
10008028:	00278793          	addi	a5,a5,2
1000802c:	5a071063          	bnez	a4,100085cc <_ldtoa_r+0xec4>
10008030:	fed79ae3          	bne	a5,a3,10008024 <_ldtoa_r+0x91c>
10008034:	01012703          	lw	a4,16(sp)
10008038:	000027b7          	lui	a5,0x2
1000803c:	70f78793          	addi	a5,a5,1807 # 270f <__heap_size+0x170f>
10008040:	00f72023          	sw	a5,0(a4)
10008044:	e99ff06f          	j	10007edc <_ldtoa_r+0x7d4>
10008048:	03000793          	li	a5,48
1000804c:	f2f696e3          	bne	a3,a5,10007f78 <_ldtoa_r+0x870>
10008050:	415407b3          	sub	a5,s0,s5
10008054:	00100713          	li	a4,1
10008058:	eef74ae3          	blt	a4,a5,10007f4c <_ldtoa_r+0x844>
1000805c:	f1dff06f          	j	10007f78 <_ldtoa_r+0x870>
10008060:	00412783          	lw	a5,4(sp)
10008064:	009784b3          	add	s1,a5,s1
10008068:	4e04c063          	bltz	s1,10008548 <_ldtoa_r+0xe40>
1000806c:	01012783          	lw	a5,16(sp)
10008070:	00812703          	lw	a4,8(sp)
10008074:	0007a783          	lw	a5,0(a5)
10008078:	00f707b3          	add	a5,a4,a5
1000807c:	00f12423          	sw	a5,8(sp)
10008080:	00812783          	lw	a5,8(sp)
10008084:	040a2223          	sw	zero,68(s4)
10008088:	00378613          	addi	a2,a5,3
1000808c:	01700793          	li	a5,23
10008090:	eec7eee3          	bltu	a5,a2,10007f8c <_ldtoa_r+0x884>
10008094:	00000593          	li	a1,0
10008098:	f15ff06f          	j	10007fac <_ldtoa_r+0x8a4>
1000809c:	00812783          	lw	a5,8(sp)
100080a0:	00078713          	mv	a4,a5
100080a4:	00f12223          	sw	a5,4(sp)
100080a8:	02a00793          	li	a5,42
100080ac:	f6e7d663          	bge	a5,a4,10007818 <_ldtoa_r+0x110>
100080b0:	00f12223          	sw	a5,4(sp)
100080b4:	f64ff06f          	j	10007818 <_ldtoa_r+0x110>
100080b8:	0007c703          	lbu	a4,0(a5)
100080bc:	e00700e3          	beqz	a4,10007ebc <_ldtoa_r+0x7b4>
100080c0:	0017c703          	lbu	a4,1(a5)
100080c4:	00178793          	addi	a5,a5,1
100080c8:	fee78fa3          	sb	a4,-1(a5)
100080cc:	de0708e3          	beqz	a4,10007ebc <_ldtoa_r+0x7b4>
100080d0:	0017c703          	lbu	a4,1(a5)
100080d4:	00178793          	addi	a5,a5,1
100080d8:	fee78fa3          	sb	a4,-1(a5)
100080dc:	fe0712e3          	bnez	a4,100080c0 <_ldtoa_r+0x9b8>
100080e0:	dddff06f          	j	10007ebc <_ldtoa_r+0x7b4>
100080e4:	03100713          	li	a4,49
100080e8:	12e102a3          	sb	a4,293(sp)
100080ec:	02e00713          	li	a4,46
100080f0:	12e10323          	sb	a4,294(sp)
100080f4:	00148493          	addi	s1,s1,1
100080f8:	2af05a63          	blez	a5,100083ac <_ldtoa_r+0xca4>
100080fc:	03000793          	li	a5,48
10008100:	12f103a3          	sb	a5,295(sp)
10008104:	01812783          	lw	a5,24(sp)
10008108:	12810b13          	addi	s6,sp,296
1000810c:	fff78793          	addi	a5,a5,-1
10008110:	00f12c23          	sw	a5,24(sp)
10008114:	b45ff06f          	j	10007c58 <_ldtoa_r+0x550>
10008118:	12410a93          	addi	s5,sp,292
1000811c:	100145b7          	lui	a1,0x10014
10008120:	30c58593          	addi	a1,a1,780 # 1001430c <zeroes.0+0x94>
10008124:	000a8513          	mv	a0,s5
10008128:	000024b7          	lui	s1,0x2
1000812c:	c98fa0ef          	jal	ra,100025c4 <sprintf>
10008130:	70f48493          	addi	s1,s1,1807 # 270f <__heap_size+0x170f>
10008134:	d41ff06f          	j	10007e74 <_ldtoa_r+0x76c>
10008138:	0b410c93          	addi	s9,sp,180
1000813c:	000c8713          	mv	a4,s9
10008140:	07c10793          	addi	a5,sp,124
10008144:	09010613          	addi	a2,sp,144
10008148:	0007d683          	lhu	a3,0(a5)
1000814c:	00278793          	addi	a5,a5,2
10008150:	00270713          	addi	a4,a4,2
10008154:	fed71f23          	sh	a3,-2(a4)
10008158:	fec798e3          	bne	a5,a2,10008148 <_ldtoa_r+0xa40>
1000815c:	000047b7          	lui	a5,0x4
10008160:	08e78793          	addi	a5,a5,142 # 408e <__heap_size+0x308e>
10008164:	0cf11323          	sh	a5,198(sp)
10008168:	000087b7          	lui	a5,0x8
1000816c:	fff78793          	addi	a5,a5,-1 # 7fff <__heap_size+0x6fff>
10008170:	00f12e23          	sw	a5,28(sp)
10008174:	ffffc7b7          	lui	a5,0xffffc
10008178:	12410a93          	addi	s5,sp,292
1000817c:	0d010413          	addi	s0,sp,208
10008180:	01000713          	li	a4,16
10008184:	0c8d8313          	addi	t1,s11,200
10008188:	00278793          	addi	a5,a5,2 # ffffc002 <_sp+0xeffd3a96>
1000818c:	03412423          	sw	s4,40(sp)
10008190:	03512223          	sw	s5,36(sp)
10008194:	00000493          	li	s1,0
10008198:	00040a93          	mv	s5,s0
1000819c:	16010993          	addi	s3,sp,352
100081a0:	0aa10b13          	addi	s6,sp,170
100081a4:	02f12023          	sw	a5,32(sp)
100081a8:	00030a13          	mv	s4,t1
100081ac:	00070413          	mv	s0,a4
100081b0:	00098693          	mv	a3,s3
100081b4:	09810613          	addi	a2,sp,152
100081b8:	000c8593          	mv	a1,s9
100081bc:	000a0513          	mv	a0,s4
100081c0:	b11fe0ef          	jal	ra,10006cd0 <ediv>
100081c4:	04c10713          	addi	a4,sp,76
100081c8:	09810793          	addi	a5,sp,152
100081cc:	0007d683          	lhu	a3,0(a5)
100081d0:	00278793          	addi	a5,a5,2
100081d4:	00270713          	addi	a4,a4,2
100081d8:	fed71f23          	sh	a3,-2(a4)
100081dc:	ffa798e3          	bne	a5,s10,100081cc <_ldtoa_r+0xac4>
100081e0:	01c12783          	lw	a5,28(sp)
100081e4:	05e15583          	lhu	a1,94(sp)
100081e8:	00f5f533          	and	a0,a1,a5
100081ec:	02012783          	lw	a5,32(sp)
100081f0:	00f50533          	add	a0,a0,a5
100081f4:	36a05463          	blez	a0,1000855c <_ldtoa_r+0xe54>
100081f8:	09000613          	li	a2,144
100081fc:	40a60633          	sub	a2,a2,a0
10008200:	000a8713          	mv	a4,s5
10008204:	04c10793          	addi	a5,sp,76
10008208:	0007d683          	lhu	a3,0(a5)
1000820c:	00278793          	addi	a5,a5,2
10008210:	00270713          	addi	a4,a4,2
10008214:	fed71f23          	sh	a3,-2(a4)
10008218:	ff2798e3          	bne	a5,s2,10008208 <_ldtoa_r+0xb00>
1000821c:	06c05663          	blez	a2,10008288 <_ldtoa_r+0xb80>
10008220:	00f00793          	li	a5,15
10008224:	000a8713          	mv	a4,s5
10008228:	02c7de63          	bge	a5,a2,10008264 <_ldtoa_r+0xb5c>
1000822c:	08000693          	li	a3,128
10008230:	40a686b3          	sub	a3,a3,a0
10008234:	0046d693          	srli	a3,a3,0x4
10008238:	00168713          	addi	a4,a3,1
1000823c:	00171713          	slli	a4,a4,0x1
10008240:	00ea8733          	add	a4,s5,a4
10008244:	000a8793          	mv	a5,s5
10008248:	00278793          	addi	a5,a5,2
1000824c:	fe079f23          	sh	zero,-2(a5)
10008250:	fef71ce3          	bne	a4,a5,10008248 <_ldtoa_r+0xb40>
10008254:	08000613          	li	a2,128
10008258:	40a60633          	sub	a2,a2,a0
1000825c:	00469693          	slli	a3,a3,0x4
10008260:	40d60633          	sub	a2,a2,a3
10008264:	00161793          	slli	a5,a2,0x1
10008268:	00fd87b3          	add	a5,s11,a5
1000826c:	00075683          	lhu	a3,0(a4)
10008270:	2307d783          	lhu	a5,560(a5)
10008274:	00f6f7b3          	and	a5,a3,a5
10008278:	00f71023          	sh	a5,0(a4)
1000827c:	01059593          	slli	a1,a1,0x10
10008280:	4105d593          	srai	a1,a1,0x10
10008284:	1405c463          	bltz	a1,100083cc <_ldtoa_r+0xcc4>
10008288:	09810793          	addi	a5,sp,152
1000828c:	000a8713          	mv	a4,s5
10008290:	0007d603          	lhu	a2,0(a5)
10008294:	00075683          	lhu	a3,0(a4)
10008298:	02d61863          	bne	a2,a3,100082c8 <_ldtoa_r+0xbc0>
1000829c:	00278793          	addi	a5,a5,2
100082a0:	00270713          	addi	a4,a4,2
100082a4:	fefb16e3          	bne	s6,a5,10008290 <_ldtoa_r+0xb88>
100082a8:	000c8713          	mv	a4,s9
100082ac:	09810793          	addi	a5,sp,152
100082b0:	0007d683          	lhu	a3,0(a5)
100082b4:	00278793          	addi	a5,a5,2
100082b8:	00270713          	addi	a4,a4,2
100082bc:	fed71f23          	sh	a3,-2(a4)
100082c0:	ffa798e3          	bne	a5,s10,100082b0 <_ldtoa_r+0xba8>
100082c4:	008484b3          	add	s1,s1,s0
100082c8:	014a0a13          	addi	s4,s4,20
100082cc:	12cd8793          	addi	a5,s11,300
100082d0:	00145413          	srli	s0,s0,0x1
100082d4:	ecfa1ee3          	bne	s4,a5,100081b0 <_ldtoa_r+0xaa8>
100082d8:	0c615783          	lhu	a5,198(sp)
100082dc:	08e15703          	lhu	a4,142(sp)
100082e0:	000a8413          	mv	s0,s5
100082e4:	02812a03          	lw	s4,40(sp)
100082e8:	00e787b3          	add	a5,a5,a4
100082ec:	ffffc737          	lui	a4,0xffffc
100082f0:	f7270713          	addi	a4,a4,-142 # ffffbf72 <_sp+0xeffd3a06>
100082f4:	02412a83          	lw	s5,36(sp)
100082f8:	00e787b3          	add	a5,a5,a4
100082fc:	0cf11323          	sh	a5,198(sp)
10008300:	07c10713          	addi	a4,sp,124
10008304:	000c8793          	mv	a5,s9
10008308:	0c810613          	addi	a2,sp,200
1000830c:	0007d683          	lhu	a3,0(a5)
10008310:	00278793          	addi	a5,a5,2
10008314:	00270713          	addi	a4,a4,2
10008318:	fed71f23          	sh	a3,-2(a4)
1000831c:	fec798e3          	bne	a5,a2,1000830c <_ldtoa_r+0xc04>
10008320:	00000713          	li	a4,0
10008324:	09810793          	addi	a5,sp,152
10008328:	0080006f          	j	10008330 <_ldtoa_r+0xc28>
1000832c:	000c5703          	lhu	a4,0(s8)
10008330:	00278793          	addi	a5,a5,2
10008334:	fee79f23          	sh	a4,-2(a5)
10008338:	002c0c13          	addi	s8,s8,2
1000833c:	ffa798e3          	bne	a5,s10,1000832c <_ldtoa_r+0xc24>
10008340:	028d8b13          	addi	s6,s11,40
10008344:	00001c37          	lui	s8,0x1
10008348:	118d8d93          	addi	s11,s11,280
1000834c:	0100006f          	j	1000835c <_ldtoa_r+0xc54>
10008350:	001c5c13          	srli	s8,s8,0x1
10008354:	25bb0463          	beq	s6,s11,1000859c <_ldtoa_r+0xe94>
10008358:	014b0b13          	addi	s6,s6,20
1000835c:	000c8593          	mv	a1,s9
10008360:	000d8513          	mv	a0,s11
10008364:	994fe0ef          	jal	ra,100064f8 <ecmp>
10008368:	22a04a63          	bgtz	a0,1000859c <_ldtoa_r+0xe94>
1000836c:	000c8593          	mv	a1,s9
10008370:	000b0513          	mv	a0,s6
10008374:	984fe0ef          	jal	ra,100064f8 <ecmp>
10008378:	fca04ce3          	bgtz	a0,10008350 <_ldtoa_r+0xc48>
1000837c:	00098693          	mv	a3,s3
10008380:	000c8613          	mv	a2,s9
10008384:	000c8593          	mv	a1,s9
10008388:	000b0513          	mv	a0,s6
1000838c:	945fe0ef          	jal	ra,10006cd0 <ediv>
10008390:	09810613          	addi	a2,sp,152
10008394:	00098693          	mv	a3,s3
10008398:	00060593          	mv	a1,a2
1000839c:	000b0513          	mv	a0,s6
100083a0:	ec1fe0ef          	jal	ra,10007260 <emul>
100083a4:	018484b3          	add	s1,s1,s8
100083a8:	fa9ff06f          	j	10008350 <_ldtoa_r+0xc48>
100083ac:	12710b13          	addi	s6,sp,295
100083b0:	aa0798e3          	bnez	a5,10007e60 <_ldtoa_r+0x758>
100083b4:	8a5ff06f          	j	10007c58 <_ldtoa_r+0x550>
100083b8:	00000793          	li	a5,0
100083bc:	c40ff06f          	j	100077fc <_ldtoa_r+0xf4>
100083c0:	00812783          	lw	a5,8(sp)
100083c4:	fff78793          	addi	a5,a5,-1
100083c8:	cd9ff06f          	j	100080a0 <_ldtoa_r+0x998>
100083cc:	04c10793          	addi	a5,sp,76
100083d0:	000a8713          	mv	a4,s5
100083d4:	0140006f          	j	100083e8 <_ldtoa_r+0xce0>
100083d8:	00278793          	addi	a5,a5,2
100083dc:	05e10693          	addi	a3,sp,94
100083e0:	00270713          	addi	a4,a4,2
100083e4:	ead782e3          	beq	a5,a3,10008288 <_ldtoa_r+0xb80>
100083e8:	0007d603          	lhu	a2,0(a5)
100083ec:	00075683          	lhu	a3,0(a4)
100083f0:	fed604e3          	beq	a2,a3,100083d8 <_ldtoa_r+0xcd0>
100083f4:	0e215783          	lhu	a5,226(sp)
100083f8:	01c12703          	lw	a4,28(sp)
100083fc:	00e7f7b3          	and	a5,a5,a4
10008400:	3ce78063          	beq	a5,a4,100087c0 <_ldtoa_r+0x10b8>
10008404:	0ec10593          	addi	a1,sp,236
10008408:	000c0513          	mv	a0,s8
1000840c:	838fe0ef          	jal	ra,10006444 <emovi>
10008410:	10810593          	addi	a1,sp,264
10008414:	000a8513          	mv	a0,s5
10008418:	82cfe0ef          	jal	ra,10006444 <emovi>
1000841c:	0ec15703          	lhu	a4,236(sp)
10008420:	10a15603          	lhu	a2,266(sp)
10008424:	0ee15883          	lhu	a7,238(sp)
10008428:	fff74713          	not	a4,a4
1000842c:	01071713          	slli	a4,a4,0x10
10008430:	01075713          	srli	a4,a4,0x10
10008434:	0ee11623          	sh	a4,236(sp)
10008438:	40c885b3          	sub	a1,a7,a2
1000843c:	00060693          	mv	a3,a2
10008440:	06b05e63          	blez	a1,100084bc <_ldtoa_r+0xdb4>
10008444:	02412583          	lw	a1,36(sp)
10008448:	10810693          	addi	a3,sp,264
1000844c:	12010793          	addi	a5,sp,288
10008450:	0006d503          	lhu	a0,0(a3)
10008454:	00268693          	addi	a3,a3,2
10008458:	00258593          	addi	a1,a1,2
1000845c:	fea59f23          	sh	a0,-2(a1)
10008460:	fef698e3          	bne	a3,a5,10008450 <_ldtoa_r+0xd48>
10008464:	12011e23          	sh	zero,316(sp)
10008468:	10810693          	addi	a3,sp,264
1000846c:	0ec10593          	addi	a1,sp,236
10008470:	0080006f          	j	10008478 <_ldtoa_r+0xd70>
10008474:	0005d703          	lhu	a4,0(a1)
10008478:	00268693          	addi	a3,a3,2
1000847c:	fee69f23          	sh	a4,-2(a3)
10008480:	00258593          	addi	a1,a1,2
10008484:	fef698e3          	bne	a3,a5,10008474 <_ldtoa_r+0xd6c>
10008488:	02412783          	lw	a5,36(sp)
1000848c:	12011023          	sh	zero,288(sp)
10008490:	0ec10713          	addi	a4,sp,236
10008494:	13c10513          	addi	a0,sp,316
10008498:	0007d683          	lhu	a3,0(a5)
1000849c:	00278793          	addi	a5,a5,2
100084a0:	00270713          	addi	a4,a4,2
100084a4:	fed71f23          	sh	a3,-2(a4)
100084a8:	fea798e3          	bne	a5,a0,10008498 <_ldtoa_r+0xd90>
100084ac:	10a15683          	lhu	a3,266(sp)
100084b0:	411605b3          	sub	a1,a2,a7
100084b4:	10011223          	sh	zero,260(sp)
100084b8:	00068613          	mv	a2,a3
100084bc:	32058c63          	beqz	a1,100087f4 <_ldtoa_r+0x10ec>
100084c0:	02d12623          	sw	a3,44(sp)
100084c4:	f6f00793          	li	a5,-145
100084c8:	06f5c863          	blt	a1,a5,10008538 <_ldtoa_r+0xe30>
100084cc:	0ec10513          	addi	a0,sp,236
100084d0:	da5fd0ef          	jal	ra,10006274 <eshift.part.0>
100084d4:	02c12683          	lw	a3,44(sp)
100084d8:	00050593          	mv	a1,a0
100084dc:	12010793          	addi	a5,sp,288
100084e0:	10410713          	addi	a4,sp,260
100084e4:	0ec15503          	lhu	a0,236(sp)
100084e8:	10815603          	lhu	a2,264(sp)
100084ec:	3ac50863          	beq	a0,a2,1000889c <_ldtoa_r+0x1194>
100084f0:	00000613          	li	a2,0
100084f4:	10a10893          	addi	a7,sp,266
100084f8:	00060513          	mv	a0,a2
100084fc:	0007d603          	lhu	a2,0(a5)
10008500:	00075803          	lhu	a6,0(a4)
10008504:	ffe78793          	addi	a5,a5,-2
10008508:	40a60633          	sub	a2,a2,a0
1000850c:	41060633          	sub	a2,a2,a6
10008510:	01065513          	srli	a0,a2,0x10
10008514:	00c79123          	sh	a2,2(a5)
10008518:	00157513          	andi	a0,a0,1
1000851c:	ffe70713          	addi	a4,a4,-2
10008520:	fd179ee3          	bne	a5,a7,100084fc <_ldtoa_r+0xdf4>
10008524:	00100613          	li	a2,1
10008528:	00098793          	mv	a5,s3
1000852c:	04000713          	li	a4,64
10008530:	10810513          	addi	a0,sp,264
10008534:	900fe0ef          	jal	ra,10006634 <emdnorm>
10008538:	000a8593          	mv	a1,s5
1000853c:	10810513          	addi	a0,sp,264
10008540:	afdfd0ef          	jal	ra,1000603c <emovo.constprop.0>
10008544:	d45ff06f          	j	10008288 <_ldtoa_r+0xb80>
10008548:	01012783          	lw	a5,16(sp)
1000854c:	12010223          	sb	zero,292(sp)
10008550:	000a8413          	mv	s0,s5
10008554:	0007a023          	sw	zero,0(a5)
10008558:	b29ff06f          	j	10008080 <_ldtoa_r+0x978>
1000855c:	000a8793          	mv	a5,s5
10008560:	0e410713          	addi	a4,sp,228
10008564:	00278793          	addi	a5,a5,2
10008568:	fe079f23          	sh	zero,-2(a5)
1000856c:	fee79ce3          	bne	a5,a4,10008564 <_ldtoa_r+0xe5c>
10008570:	d0dff06f          	j	1000827c <_ldtoa_r+0xb74>
10008574:	01812783          	lw	a5,24(sp)
10008578:	12410a93          	addi	s5,sp,292
1000857c:	10078263          	beqz	a5,10008680 <_ldtoa_r+0xf78>
10008580:	100145b7          	lui	a1,0x10014
10008584:	28858593          	addi	a1,a1,648 # 10014288 <zeroes.0+0x10>
10008588:	000a8513          	mv	a0,s5
1000858c:	000024b7          	lui	s1,0x2
10008590:	834fa0ef          	jal	ra,100025c4 <sprintf>
10008594:	70f48493          	addi	s1,s1,1807 # 270f <__heap_size+0x170f>
10008598:	8ddff06f          	j	10007e74 <_ldtoa_r+0x76c>
1000859c:	0e810b13          	addi	s6,sp,232
100085a0:	c80ff06f          	j	10007a20 <_ldtoa_r+0x318>
100085a4:	fff64783          	lbu	a5,-1(a2)
100085a8:	03800713          	li	a4,56
100085ac:	0ef77863          	bgeu	a4,a5,1000869c <_ldtoa_r+0xf94>
100085b0:	03100793          	li	a5,49
100085b4:	00148493          	addi	s1,s1,1
100085b8:	fef60fa3          	sb	a5,-1(a2)
100085bc:	8a5ff06f          	j	10007e60 <_ldtoa_r+0x758>
100085c0:	00170713          	addi	a4,a4,1
100085c4:	00e60023          	sb	a4,0(a2)
100085c8:	899ff06f          	j	10007e60 <_ldtoa_r+0x758>
100085cc:	07210713          	addi	a4,sp,114
100085d0:	0080006f          	j	100085d8 <_ldtoa_r+0xed0>
100085d4:	8ae90ee3          	beq	s2,a4,10007e90 <_ldtoa_r+0x788>
100085d8:	00095783          	lhu	a5,0(s2)
100085dc:	00290913          	addi	s2,s2,2
100085e0:	fe078ae3          	beqz	a5,100085d4 <_ldtoa_r+0xecc>
100085e4:	01012703          	lw	a4,16(sp)
100085e8:	000027b7          	lui	a5,0x2
100085ec:	70f78793          	addi	a5,a5,1807 # 270f <__heap_size+0x170f>
100085f0:	00f72023          	sw	a5,0(a4)
100085f4:	8e9ff06f          	j	10007edc <_ldtoa_r+0x7d4>
100085f8:	12410a93          	addi	s5,sp,292
100085fc:	100145b7          	lui	a1,0x10014
10008600:	2a058593          	addi	a1,a1,672 # 100142a0 <zeroes.0+0x28>
10008604:	000a8513          	mv	a0,s5
10008608:	000024b7          	lui	s1,0x2
1000860c:	fb9f90ef          	jal	ra,100025c4 <sprintf>
10008610:	70f48493          	addi	s1,s1,1807 # 270f <__heap_size+0x170f>
10008614:	861ff06f          	j	10007e74 <_ldtoa_r+0x76c>
10008618:	1ac15603          	lhu	a2,428(sp)
1000861c:	12610b13          	addi	s6,sp,294
10008620:	12710793          	addi	a5,sp,295
10008624:	fe4ff06f          	j	10007e08 <_ldtoa_r+0x700>
10008628:	09810593          	addi	a1,sp,152
1000862c:	07c10513          	addi	a0,sp,124
10008630:	00f12e23          	sw	a5,28(sp)
10008634:	a09fd0ef          	jal	ra,1000603c <emovo.constprop.0>
10008638:	314b8593          	addi	a1,s7,788
1000863c:	09810513          	addi	a0,sp,152
10008640:	eb9fd0ef          	jal	ra,100064f8 <ecmp>
10008644:	01c12783          	lw	a5,28(sp)
10008648:	fc051863          	bnez	a0,10007e18 <_ldtoa_r+0x710>
1000864c:	01812703          	lw	a4,24(sp)
10008650:	800748e3          	bltz	a4,10007e60 <_ldtoa_r+0x758>
10008654:	ffe7c703          	lbu	a4,-2(a5)
10008658:	fd270613          	addi	a2,a4,-46
1000865c:	00163613          	seqz	a2,a2
10008660:	fff64613          	not	a2,a2
10008664:	00cb0633          	add	a2,s6,a2
10008668:	00064603          	lbu	a2,0(a2)
1000866c:	00167613          	andi	a2,a2,1
10008670:	fe060863          	beqz	a2,10007e60 <_ldtoa_r+0x758>
10008674:	ffe78613          	addi	a2,a5,-2
10008678:	07f77713          	andi	a4,a4,127
1000867c:	fb0ff06f          	j	10007e2c <_ldtoa_r+0x724>
10008680:	100145b7          	lui	a1,0x10014
10008684:	29458593          	addi	a1,a1,660 # 10014294 <zeroes.0+0x1c>
10008688:	000a8513          	mv	a0,s5
1000868c:	000024b7          	lui	s1,0x2
10008690:	f35f90ef          	jal	ra,100025c4 <sprintf>
10008694:	70f48493          	addi	s1,s1,1807 # 270f <__heap_size+0x170f>
10008698:	fdcff06f          	j	10007e74 <_ldtoa_r+0x76c>
1000869c:	00178793          	addi	a5,a5,1
100086a0:	fef60fa3          	sb	a5,-1(a2)
100086a4:	fbcff06f          	j	10007e60 <_ldtoa_r+0x758>
100086a8:	0d010413          	addi	s0,sp,208
100086ac:	00040593          	mv	a1,s0
100086b0:	07c10513          	addi	a0,sp,124
100086b4:	00004cb7          	lui	s9,0x4
100086b8:	d8dfd0ef          	jal	ra,10006444 <emovi>
100086bc:	00000493          	li	s1,0
100086c0:	0e810b13          	addi	s6,sp,232
100086c4:	0cc10993          	addi	s3,sp,204
100086c8:	0d210a93          	addi	s5,sp,210
100086cc:	ffec8c93          	addi	s9,s9,-2 # 3ffe <__heap_size+0x2ffe>
100086d0:	0e815783          	lhu	a5,232(sp)
100086d4:	0077f793          	andi	a5,a5,7
100086d8:	0c079a63          	bnez	a5,100087ac <_ldtoa_r+0x10a4>
100086dc:	0b410713          	addi	a4,sp,180
100086e0:	00040793          	mv	a5,s0
100086e4:	0007d683          	lhu	a3,0(a5)
100086e8:	00278793          	addi	a5,a5,2
100086ec:	00270713          	addi	a4,a4,2
100086f0:	fed71f23          	sh	a3,-2(a4)
100086f4:	ff6798e3          	bne	a5,s6,100086e4 <_ldtoa_r+0xfdc>
100086f8:	0b410513          	addi	a0,sp,180
100086fc:	0c011623          	sh	zero,204(sp)
10008700:	f94fd0ef          	jal	ra,10005e94 <eshdn1>
10008704:	0b410513          	addi	a0,sp,180
10008708:	f8cfd0ef          	jal	ra,10005e94 <eshdn1>
1000870c:	00000613          	li	a2,0
10008710:	00098693          	mv	a3,s3
10008714:	000b0713          	mv	a4,s6
10008718:	0006d583          	lhu	a1,0(a3)
1000871c:	00075783          	lhu	a5,0(a4)
10008720:	ffe68693          	addi	a3,a3,-2
10008724:	ffe70713          	addi	a4,a4,-2
10008728:	00b787b3          	add	a5,a5,a1
1000872c:	00c787b3          	add	a5,a5,a2
10008730:	0107d613          	srli	a2,a5,0x10
10008734:	00f69123          	sh	a5,2(a3)
10008738:	00167613          	andi	a2,a2,1
1000873c:	fd571ee3          	bne	a4,s5,10008718 <_ldtoa_r+0x1010>
10008740:	0b615783          	lhu	a5,182(sp)
10008744:	0b815703          	lhu	a4,184(sp)
10008748:	00378793          	addi	a5,a5,3
1000874c:	0af11b23          	sh	a5,182(sp)
10008750:	02070063          	beqz	a4,10008770 <_ldtoa_r+0x1068>
10008754:	0b410513          	addi	a0,sp,180
10008758:	f3cfd0ef          	jal	ra,10005e94 <eshdn1>
1000875c:	0b615783          	lhu	a5,182(sp)
10008760:	0b815703          	lhu	a4,184(sp)
10008764:	00178793          	addi	a5,a5,1
10008768:	0af11b23          	sh	a5,182(sp)
1000876c:	fe0714e3          	bnez	a4,10008754 <_ldtoa_r+0x104c>
10008770:	0cc15783          	lhu	a5,204(sp)
10008774:	02079c63          	bnez	a5,100087ac <_ldtoa_r+0x10a4>
10008778:	0b615783          	lhu	a5,182(sp)
1000877c:	02fce863          	bltu	s9,a5,100087ac <_ldtoa_r+0x10a4>
10008780:	00040713          	mv	a4,s0
10008784:	0b410793          	addi	a5,sp,180
10008788:	0007d683          	lhu	a3,0(a5)
1000878c:	00278793          	addi	a5,a5,2
10008790:	00270713          	addi	a4,a4,2
10008794:	fed71f23          	sh	a3,-2(a4)
10008798:	ff3798e3          	bne	a5,s3,10008788 <_ldtoa_r+0x1080>
1000879c:	0e011423          	sh	zero,232(sp)
100087a0:	fff48493          	addi	s1,s1,-1
100087a4:	fd500793          	li	a5,-43
100087a8:	f2f494e3          	bne	s1,a5,100086d0 <_ldtoa_r+0xfc8>
100087ac:	07c10593          	addi	a1,sp,124
100087b0:	00040513          	mv	a0,s0
100087b4:	889fd0ef          	jal	ra,1000603c <emovo.constprop.0>
100087b8:	16010993          	addi	s3,sp,352
100087bc:	960ff06f          	j	1000791c <_ldtoa_r+0x214>
100087c0:	000a8793          	mv	a5,s5
100087c4:	0007d703          	lhu	a4,0(a5)
100087c8:	00278793          	addi	a5,a5,2
100087cc:	aa071ee3          	bnez	a4,10008288 <_ldtoa_r+0xb80>
100087d0:	0e210713          	addi	a4,sp,226
100087d4:	fee798e3          	bne	a5,a4,100087c4 <_ldtoa_r+0x10bc>
100087d8:	000a8793          	mv	a5,s5
100087dc:	0007d703          	lhu	a4,0(a5)
100087e0:	00278793          	addi	a5,a5,2
100087e4:	c20710e3          	bnez	a4,10008404 <_ldtoa_r+0xcfc>
100087e8:	0e210713          	addi	a4,sp,226
100087ec:	fee798e3          	bne	a5,a4,100087dc <_ldtoa_r+0x10d4>
100087f0:	a99ff06f          	j	10008288 <_ldtoa_r+0xb80>
100087f4:	10c10713          	addi	a4,sp,268
100087f8:	0f010793          	addi	a5,sp,240
100087fc:	0007d883          	lhu	a7,0(a5)
10008800:	00075503          	lhu	a0,0(a4)
10008804:	00278793          	addi	a5,a5,2
10008808:	00270713          	addi	a4,a4,2
1000880c:	04a89863          	bne	a7,a0,1000885c <_ldtoa_r+0x1154>
10008810:	10610513          	addi	a0,sp,262
10008814:	fea794e3          	bne	a5,a0,100087fc <_ldtoa_r+0x10f4>
10008818:	0ec15703          	lhu	a4,236(sp)
1000881c:	10815783          	lhu	a5,264(sp)
10008820:	04f70663          	beq	a4,a5,1000886c <_ldtoa_r+0x1164>
10008824:	000a8793          	mv	a5,s5
10008828:	0e410713          	addi	a4,sp,228
1000882c:	00278793          	addi	a5,a5,2
10008830:	fe079f23          	sh	zero,-2(a5)
10008834:	fee79ce3          	bne	a5,a4,1000882c <_ldtoa_r+0x1124>
10008838:	a51ff06f          	j	10008288 <_ldtoa_r+0xb80>
1000883c:	100146b7          	lui	a3,0x10014
10008840:	000015b7          	lui	a1,0x1
10008844:	10014537          	lui	a0,0x10014
10008848:	2a868693          	addi	a3,a3,680 # 100142a8 <zeroes.0+0x30>
1000884c:	00000613          	li	a2,0
10008850:	b6e58593          	addi	a1,a1,-1170 # b6e <__stack_size+0xa42>
10008854:	2bc50513          	addi	a0,a0,700 # 100142bc <zeroes.0+0x44>
10008858:	69d030ef          	jal	ra,1000c6f4 <__assert_func>
1000885c:	07156c63          	bltu	a0,a7,100088d4 <_ldtoa_r+0x11cc>
10008860:	12010793          	addi	a5,sp,288
10008864:	10410713          	addi	a4,sp,260
10008868:	c7dff06f          	j	100084e4 <_ldtoa_r+0xddc>
1000886c:	00068713          	mv	a4,a3
10008870:	00069663          	bnez	a3,1000887c <_ldtoa_r+0x1174>
10008874:	10e11783          	lh	a5,270(sp)
10008878:	0c07d663          	bgez	a5,10008944 <_ldtoa_r+0x123c>
1000887c:	10a10713          	addi	a4,sp,266
10008880:	12010793          	addi	a5,sp,288
10008884:	00075583          	lhu	a1,0(a4)
10008888:	10059663          	bnez	a1,10008994 <_ldtoa_r+0x128c>
1000888c:	00270713          	addi	a4,a4,2
10008890:	fee79ae3          	bne	a5,a4,10008884 <_ldtoa_r+0x117c>
10008894:	10c11523          	sh	a2,266(sp)
10008898:	ca1ff06f          	j	10008538 <_ldtoa_r+0xe30>
1000889c:	00000613          	li	a2,0
100088a0:	0ee10893          	addi	a7,sp,238
100088a4:	0007d803          	lhu	a6,0(a5)
100088a8:	00075503          	lhu	a0,0(a4)
100088ac:	ffe78793          	addi	a5,a5,-2
100088b0:	ffe70713          	addi	a4,a4,-2
100088b4:	01050533          	add	a0,a0,a6
100088b8:	00c50633          	add	a2,a0,a2
100088bc:	01065513          	srli	a0,a2,0x10
100088c0:	00c79123          	sh	a2,2(a5)
100088c4:	00157613          	andi	a2,a0,1
100088c8:	fd171ee3          	bne	a4,a7,100088a4 <_ldtoa_r+0x119c>
100088cc:	00000613          	li	a2,0
100088d0:	c59ff06f          	j	10008528 <_ldtoa_r+0xe20>
100088d4:	02412603          	lw	a2,36(sp)
100088d8:	10810713          	addi	a4,sp,264
100088dc:	12010793          	addi	a5,sp,288
100088e0:	00075503          	lhu	a0,0(a4)
100088e4:	00270713          	addi	a4,a4,2
100088e8:	00260613          	addi	a2,a2,2
100088ec:	fea61f23          	sh	a0,-2(a2)
100088f0:	fef718e3          	bne	a4,a5,100088e0 <_ldtoa_r+0x11d8>
100088f4:	12011e23          	sh	zero,316(sp)
100088f8:	10810513          	addi	a0,sp,264
100088fc:	0ec10613          	addi	a2,sp,236
10008900:	10410713          	addi	a4,sp,260
10008904:	00065803          	lhu	a6,0(a2)
10008908:	00260613          	addi	a2,a2,2
1000890c:	00250513          	addi	a0,a0,2
10008910:	ff051f23          	sh	a6,-2(a0)
10008914:	fee618e3          	bne	a2,a4,10008904 <_ldtoa_r+0x11fc>
10008918:	02412603          	lw	a2,36(sp)
1000891c:	12011023          	sh	zero,288(sp)
10008920:	0ec10893          	addi	a7,sp,236
10008924:	13c10513          	addi	a0,sp,316
10008928:	00065803          	lhu	a6,0(a2)
1000892c:	00260613          	addi	a2,a2,2
10008930:	00288893          	addi	a7,a7,2
10008934:	ff089f23          	sh	a6,-2(a7)
10008938:	fea618e3          	bne	a2,a0,10008928 <_ldtoa_r+0x1220>
1000893c:	10011223          	sh	zero,260(sp)
10008940:	ba5ff06f          	j	100084e4 <_ldtoa_r+0xddc>
10008944:	12010693          	addi	a3,sp,288
10008948:	10a10893          	addi	a7,sp,266
1000894c:	0006d783          	lhu	a5,0(a3)
10008950:	01079613          	slli	a2,a5,0x10
10008954:	41065613          	srai	a2,a2,0x10
10008958:	00065463          	bgez	a2,10008960 <_ldtoa_r+0x1258>
1000895c:	00176713          	ori	a4,a4,1
10008960:	00179793          	slli	a5,a5,0x1
10008964:	01079793          	slli	a5,a5,0x10
10008968:	00277613          	andi	a2,a4,2
1000896c:	0107d793          	srli	a5,a5,0x10
10008970:	00060463          	beqz	a2,10008978 <_ldtoa_r+0x1270>
10008974:	0017e793          	ori	a5,a5,1
10008978:	00171713          	slli	a4,a4,0x1
1000897c:	00f69023          	sh	a5,0(a3)
10008980:	01071713          	slli	a4,a4,0x10
10008984:	ffe68693          	addi	a3,a3,-2
10008988:	01075713          	srli	a4,a4,0x10
1000898c:	fd1690e3          	bne	a3,a7,1000894c <_ldtoa_r+0x1244>
10008990:	ba9ff06f          	j	10008538 <_ldtoa_r+0xe30>
10008994:	00168613          	addi	a2,a3,1
10008998:	10c11523          	sh	a2,266(sp)
1000899c:	b9dff06f          	j	10008538 <_ldtoa_r+0xe30>

100089a0 <_ldcheck>:
100089a0:	00852703          	lw	a4,8(a0)
100089a4:	00c52783          	lw	a5,12(a0)
100089a8:	00052603          	lw	a2,0(a0)
100089ac:	00452683          	lw	a3,4(a0)
100089b0:	fc010113          	addi	sp,sp,-64
100089b4:	00010513          	mv	a0,sp
100089b8:	01410593          	addi	a1,sp,20
100089bc:	00e12423          	sw	a4,8(sp)
100089c0:	00f12623          	sw	a5,12(sp)
100089c4:	02112e23          	sw	ra,60(sp)
100089c8:	00c12023          	sw	a2,0(sp)
100089cc:	00d12223          	sw	a3,4(sp)
100089d0:	9acfe0ef          	jal	ra,10006b7c <e113toe.isra.0>
100089d4:	02615783          	lhu	a5,38(sp)
100089d8:	00000513          	li	a0,0
100089dc:	fff7c793          	not	a5,a5
100089e0:	01179713          	slli	a4,a5,0x11
100089e4:	02071063          	bnez	a4,10008a04 <_ldcheck+0x64>
100089e8:	01410793          	addi	a5,sp,20
100089ec:	02610693          	addi	a3,sp,38
100089f0:	0007d703          	lhu	a4,0(a5)
100089f4:	00278793          	addi	a5,a5,2
100089f8:	00071c63          	bnez	a4,10008a10 <_ldcheck+0x70>
100089fc:	fed79ae3          	bne	a5,a3,100089f0 <_ldcheck+0x50>
10008a00:	00200513          	li	a0,2
10008a04:	03c12083          	lw	ra,60(sp)
10008a08:	04010113          	addi	sp,sp,64
10008a0c:	00008067          	ret
10008a10:	00100513          	li	a0,1
10008a14:	ff1ff06f          	j	10008a04 <_ldcheck+0x64>

10008a18 <__localeconv_l>:
10008a18:	0f050513          	addi	a0,a0,240
10008a1c:	00008067          	ret

10008a20 <_localeconv_r>:
10008a20:	10015537          	lui	a0,0x10015
10008a24:	15850513          	addi	a0,a0,344 # 10015158 <__global_locale+0xf0>
10008a28:	00008067          	ret

10008a2c <localeconv>:
10008a2c:	10015537          	lui	a0,0x10015
10008a30:	15850513          	addi	a0,a0,344 # 10015158 <__global_locale+0xf0>
10008a34:	00008067          	ret

10008a38 <_setlocale_r>:
10008a38:	ff010113          	addi	sp,sp,-16
10008a3c:	00112623          	sw	ra,12(sp)
10008a40:	00812423          	sw	s0,8(sp)
10008a44:	00912223          	sw	s1,4(sp)
10008a48:	02060c63          	beqz	a2,10008a80 <_setlocale_r+0x48>
10008a4c:	100145b7          	lui	a1,0x10014
10008a50:	56c58593          	addi	a1,a1,1388 # 1001456c <bmask+0x28>
10008a54:	00060513          	mv	a0,a2
10008a58:	00060413          	mv	s0,a2
10008a5c:	568020ef          	jal	ra,1000afc4 <strcmp>
10008a60:	100144b7          	lui	s1,0x10014
10008a64:	02051263          	bnez	a0,10008a88 <_setlocale_r+0x50>
10008a68:	56848513          	addi	a0,s1,1384 # 10014568 <bmask+0x24>
10008a6c:	00c12083          	lw	ra,12(sp)
10008a70:	00812403          	lw	s0,8(sp)
10008a74:	00412483          	lw	s1,4(sp)
10008a78:	01010113          	addi	sp,sp,16
10008a7c:	00008067          	ret
10008a80:	100144b7          	lui	s1,0x10014
10008a84:	fe5ff06f          	j	10008a68 <_setlocale_r+0x30>
10008a88:	56848593          	addi	a1,s1,1384 # 10014568 <bmask+0x24>
10008a8c:	00040513          	mv	a0,s0
10008a90:	534020ef          	jal	ra,1000afc4 <strcmp>
10008a94:	fc050ae3          	beqz	a0,10008a68 <_setlocale_r+0x30>
10008a98:	100155b7          	lui	a1,0x10015
10008a9c:	88858593          	addi	a1,a1,-1912 # 10014888 <zeroes.0+0x1c>
10008aa0:	00040513          	mv	a0,s0
10008aa4:	520020ef          	jal	ra,1000afc4 <strcmp>
10008aa8:	fc0500e3          	beqz	a0,10008a68 <_setlocale_r+0x30>
10008aac:	00000513          	li	a0,0
10008ab0:	fbdff06f          	j	10008a6c <_setlocale_r+0x34>

10008ab4 <__locale_mb_cur_max>:
10008ab4:	100157b7          	lui	a5,0x10015
10008ab8:	1907c503          	lbu	a0,400(a5) # 10015190 <__global_locale+0x128>
10008abc:	00008067          	ret

10008ac0 <setlocale>:
10008ac0:	ff010113          	addi	sp,sp,-16
10008ac4:	00112623          	sw	ra,12(sp)
10008ac8:	00812423          	sw	s0,8(sp)
10008acc:	00912223          	sw	s1,4(sp)
10008ad0:	02058c63          	beqz	a1,10008b08 <setlocale+0x48>
10008ad4:	00058413          	mv	s0,a1
10008ad8:	100145b7          	lui	a1,0x10014
10008adc:	56c58593          	addi	a1,a1,1388 # 1001456c <bmask+0x28>
10008ae0:	00040513          	mv	a0,s0
10008ae4:	4e0020ef          	jal	ra,1000afc4 <strcmp>
10008ae8:	100144b7          	lui	s1,0x10014
10008aec:	02051263          	bnez	a0,10008b10 <setlocale+0x50>
10008af0:	56848513          	addi	a0,s1,1384 # 10014568 <bmask+0x24>
10008af4:	00c12083          	lw	ra,12(sp)
10008af8:	00812403          	lw	s0,8(sp)
10008afc:	00412483          	lw	s1,4(sp)
10008b00:	01010113          	addi	sp,sp,16
10008b04:	00008067          	ret
10008b08:	100144b7          	lui	s1,0x10014
10008b0c:	fe5ff06f          	j	10008af0 <setlocale+0x30>
10008b10:	56848593          	addi	a1,s1,1384 # 10014568 <bmask+0x24>
10008b14:	00040513          	mv	a0,s0
10008b18:	4ac020ef          	jal	ra,1000afc4 <strcmp>
10008b1c:	fc050ae3          	beqz	a0,10008af0 <setlocale+0x30>
10008b20:	100155b7          	lui	a1,0x10015
10008b24:	88858593          	addi	a1,a1,-1912 # 10014888 <zeroes.0+0x1c>
10008b28:	00040513          	mv	a0,s0
10008b2c:	498020ef          	jal	ra,1000afc4 <strcmp>
10008b30:	fc0500e3          	beqz	a0,10008af0 <setlocale+0x30>
10008b34:	00000513          	li	a0,0
10008b38:	fbdff06f          	j	10008af4 <setlocale+0x34>

10008b3c <_malloc_r>:
10008b3c:	fd010113          	addi	sp,sp,-48
10008b40:	01312e23          	sw	s3,28(sp)
10008b44:	02112623          	sw	ra,44(sp)
10008b48:	02812423          	sw	s0,40(sp)
10008b4c:	02912223          	sw	s1,36(sp)
10008b50:	03212023          	sw	s2,32(sp)
10008b54:	01412c23          	sw	s4,24(sp)
10008b58:	01512a23          	sw	s5,20(sp)
10008b5c:	01612823          	sw	s6,16(sp)
10008b60:	01712623          	sw	s7,12(sp)
10008b64:	01812423          	sw	s8,8(sp)
10008b68:	01912223          	sw	s9,4(sp)
10008b6c:	00b58793          	addi	a5,a1,11
10008b70:	01600713          	li	a4,22
10008b74:	00050993          	mv	s3,a0
10008b78:	06f76663          	bltu	a4,a5,10008be4 <_malloc_r+0xa8>
10008b7c:	01000793          	li	a5,16
10008b80:	1eb7e663          	bltu	a5,a1,10008d6c <_malloc_r+0x230>
10008b84:	1cd000ef          	jal	ra,10009550 <__malloc_lock>
10008b88:	01000493          	li	s1,16
10008b8c:	01800793          	li	a5,24
10008b90:	00200613          	li	a2,2
10008b94:	10015937          	lui	s2,0x10015
10008b98:	1d490913          	addi	s2,s2,468 # 100151d4 <__malloc_av_>
10008b9c:	00f907b3          	add	a5,s2,a5
10008ba0:	0047a403          	lw	s0,4(a5)
10008ba4:	ff878713          	addi	a4,a5,-8
10008ba8:	20e40a63          	beq	s0,a4,10008dbc <_malloc_r+0x280>
10008bac:	00442783          	lw	a5,4(s0)
10008bb0:	00c42683          	lw	a3,12(s0)
10008bb4:	00842603          	lw	a2,8(s0)
10008bb8:	ffc7f793          	andi	a5,a5,-4
10008bbc:	00f407b3          	add	a5,s0,a5
10008bc0:	0047a703          	lw	a4,4(a5)
10008bc4:	00d62623          	sw	a3,12(a2)
10008bc8:	00c6a423          	sw	a2,8(a3)
10008bcc:	00176713          	ori	a4,a4,1
10008bd0:	00098513          	mv	a0,s3
10008bd4:	00e7a223          	sw	a4,4(a5)
10008bd8:	17d000ef          	jal	ra,10009554 <__malloc_unlock>
10008bdc:	00840513          	addi	a0,s0,8
10008be0:	1980006f          	j	10008d78 <_malloc_r+0x23c>
10008be4:	ff87f493          	andi	s1,a5,-8
10008be8:	1807c263          	bltz	a5,10008d6c <_malloc_r+0x230>
10008bec:	18b4e063          	bltu	s1,a1,10008d6c <_malloc_r+0x230>
10008bf0:	161000ef          	jal	ra,10009550 <__malloc_lock>
10008bf4:	1f700793          	li	a5,503
10008bf8:	4697f663          	bgeu	a5,s1,10009064 <_malloc_r+0x528>
10008bfc:	0094d793          	srli	a5,s1,0x9
10008c00:	1a078663          	beqz	a5,10008dac <_malloc_r+0x270>
10008c04:	00400713          	li	a4,4
10008c08:	3cf76c63          	bltu	a4,a5,10008fe0 <_malloc_r+0x4a4>
10008c0c:	0064d793          	srli	a5,s1,0x6
10008c10:	03978613          	addi	a2,a5,57
10008c14:	03878513          	addi	a0,a5,56
10008c18:	00361693          	slli	a3,a2,0x3
10008c1c:	10015937          	lui	s2,0x10015
10008c20:	1d490913          	addi	s2,s2,468 # 100151d4 <__malloc_av_>
10008c24:	00d906b3          	add	a3,s2,a3
10008c28:	0046a403          	lw	s0,4(a3)
10008c2c:	ff868693          	addi	a3,a3,-8
10008c30:	02868663          	beq	a3,s0,10008c5c <_malloc_r+0x120>
10008c34:	00f00593          	li	a1,15
10008c38:	0100006f          	j	10008c48 <_malloc_r+0x10c>
10008c3c:	32075c63          	bgez	a4,10008f74 <_malloc_r+0x438>
10008c40:	00c42403          	lw	s0,12(s0)
10008c44:	00868c63          	beq	a3,s0,10008c5c <_malloc_r+0x120>
10008c48:	00442783          	lw	a5,4(s0)
10008c4c:	ffc7f793          	andi	a5,a5,-4
10008c50:	40978733          	sub	a4,a5,s1
10008c54:	fee5d4e3          	bge	a1,a4,10008c3c <_malloc_r+0x100>
10008c58:	00050613          	mv	a2,a0
10008c5c:	01092403          	lw	s0,16(s2)
10008c60:	00890893          	addi	a7,s2,8
10008c64:	17140863          	beq	s0,a7,10008dd4 <_malloc_r+0x298>
10008c68:	00442583          	lw	a1,4(s0)
10008c6c:	00f00713          	li	a4,15
10008c70:	ffc5f593          	andi	a1,a1,-4
10008c74:	409587b3          	sub	a5,a1,s1
10008c78:	40f74c63          	blt	a4,a5,10009090 <_malloc_r+0x554>
10008c7c:	01192a23          	sw	a7,20(s2)
10008c80:	01192823          	sw	a7,16(s2)
10008c84:	3e07d663          	bgez	a5,10009070 <_malloc_r+0x534>
10008c88:	1ff00793          	li	a5,511
10008c8c:	2eb7ea63          	bltu	a5,a1,10008f80 <_malloc_r+0x444>
10008c90:	ff85f793          	andi	a5,a1,-8
10008c94:	00878793          	addi	a5,a5,8
10008c98:	00492503          	lw	a0,4(s2)
10008c9c:	00f907b3          	add	a5,s2,a5
10008ca0:	0007a683          	lw	a3,0(a5)
10008ca4:	0055d593          	srli	a1,a1,0x5
10008ca8:	00100713          	li	a4,1
10008cac:	00b71733          	sll	a4,a4,a1
10008cb0:	00a76733          	or	a4,a4,a0
10008cb4:	ff878593          	addi	a1,a5,-8
10008cb8:	00b42623          	sw	a1,12(s0)
10008cbc:	00d42423          	sw	a3,8(s0)
10008cc0:	00e92223          	sw	a4,4(s2)
10008cc4:	0087a023          	sw	s0,0(a5)
10008cc8:	0086a623          	sw	s0,12(a3)
10008ccc:	40265793          	srai	a5,a2,0x2
10008cd0:	00100593          	li	a1,1
10008cd4:	00f595b3          	sll	a1,a1,a5
10008cd8:	10b76863          	bltu	a4,a1,10008de8 <_malloc_r+0x2ac>
10008cdc:	00e5f7b3          	and	a5,a1,a4
10008ce0:	02079463          	bnez	a5,10008d08 <_malloc_r+0x1cc>
10008ce4:	00159593          	slli	a1,a1,0x1
10008ce8:	ffc67613          	andi	a2,a2,-4
10008cec:	00e5f7b3          	and	a5,a1,a4
10008cf0:	00460613          	addi	a2,a2,4
10008cf4:	00079a63          	bnez	a5,10008d08 <_malloc_r+0x1cc>
10008cf8:	00159593          	slli	a1,a1,0x1
10008cfc:	00e5f7b3          	and	a5,a1,a4
10008d00:	00460613          	addi	a2,a2,4
10008d04:	fe078ae3          	beqz	a5,10008cf8 <_malloc_r+0x1bc>
10008d08:	00f00813          	li	a6,15
10008d0c:	00361313          	slli	t1,a2,0x3
10008d10:	00690333          	add	t1,s2,t1
10008d14:	00030513          	mv	a0,t1
10008d18:	00c52783          	lw	a5,12(a0)
10008d1c:	00060e13          	mv	t3,a2
10008d20:	2ef50263          	beq	a0,a5,10009004 <_malloc_r+0x4c8>
10008d24:	0047a703          	lw	a4,4(a5)
10008d28:	00078413          	mv	s0,a5
10008d2c:	00c7a783          	lw	a5,12(a5)
10008d30:	ffc77713          	andi	a4,a4,-4
10008d34:	409706b3          	sub	a3,a4,s1
10008d38:	2ed84263          	blt	a6,a3,1000901c <_malloc_r+0x4e0>
10008d3c:	fe06c2e3          	bltz	a3,10008d20 <_malloc_r+0x1e4>
10008d40:	00e40733          	add	a4,s0,a4
10008d44:	00472683          	lw	a3,4(a4)
10008d48:	00842603          	lw	a2,8(s0)
10008d4c:	00098513          	mv	a0,s3
10008d50:	0016e693          	ori	a3,a3,1
10008d54:	00d72223          	sw	a3,4(a4)
10008d58:	00f62623          	sw	a5,12(a2)
10008d5c:	00c7a423          	sw	a2,8(a5)
10008d60:	7f4000ef          	jal	ra,10009554 <__malloc_unlock>
10008d64:	00840513          	addi	a0,s0,8
10008d68:	0100006f          	j	10008d78 <_malloc_r+0x23c>
10008d6c:	00c00793          	li	a5,12
10008d70:	00f9a023          	sw	a5,0(s3)
10008d74:	00000513          	li	a0,0
10008d78:	02c12083          	lw	ra,44(sp)
10008d7c:	02812403          	lw	s0,40(sp)
10008d80:	02412483          	lw	s1,36(sp)
10008d84:	02012903          	lw	s2,32(sp)
10008d88:	01c12983          	lw	s3,28(sp)
10008d8c:	01812a03          	lw	s4,24(sp)
10008d90:	01412a83          	lw	s5,20(sp)
10008d94:	01012b03          	lw	s6,16(sp)
10008d98:	00c12b83          	lw	s7,12(sp)
10008d9c:	00812c03          	lw	s8,8(sp)
10008da0:	00412c83          	lw	s9,4(sp)
10008da4:	03010113          	addi	sp,sp,48
10008da8:	00008067          	ret
10008dac:	20000693          	li	a3,512
10008db0:	04000613          	li	a2,64
10008db4:	03f00513          	li	a0,63
10008db8:	e65ff06f          	j	10008c1c <_malloc_r+0xe0>
10008dbc:	00c7a403          	lw	s0,12(a5)
10008dc0:	00260613          	addi	a2,a2,2
10008dc4:	de8794e3          	bne	a5,s0,10008bac <_malloc_r+0x70>
10008dc8:	01092403          	lw	s0,16(s2)
10008dcc:	00890893          	addi	a7,s2,8
10008dd0:	e9141ce3          	bne	s0,a7,10008c68 <_malloc_r+0x12c>
10008dd4:	00492703          	lw	a4,4(s2)
10008dd8:	40265793          	srai	a5,a2,0x2
10008ddc:	00100593          	li	a1,1
10008de0:	00f595b3          	sll	a1,a1,a5
10008de4:	eeb77ce3          	bgeu	a4,a1,10008cdc <_malloc_r+0x1a0>
10008de8:	00892403          	lw	s0,8(s2)
10008dec:	00442b03          	lw	s6,4(s0)
10008df0:	ffcb7b13          	andi	s6,s6,-4
10008df4:	009b6863          	bltu	s6,s1,10008e04 <_malloc_r+0x2c8>
10008df8:	409b07b3          	sub	a5,s6,s1
10008dfc:	00f00713          	li	a4,15
10008e00:	14f74663          	blt	a4,a5,10008f4c <_malloc_r+0x410>
10008e04:	100157b7          	lui	a5,0x10015
10008e08:	10015cb7          	lui	s9,0x10015
10008e0c:	6b87aa83          	lw	s5,1720(a5) # 100156b8 <__malloc_top_pad>
10008e10:	61cca703          	lw	a4,1564(s9) # 1001561c <__malloc_sbrk_base>
10008e14:	fff00793          	li	a5,-1
10008e18:	01640a33          	add	s4,s0,s6
10008e1c:	01548ab3          	add	s5,s1,s5
10008e20:	34f70a63          	beq	a4,a5,10009174 <_malloc_r+0x638>
10008e24:	000017b7          	lui	a5,0x1
10008e28:	00f78793          	addi	a5,a5,15 # 100f <__heap_size+0xf>
10008e2c:	00fa8ab3          	add	s5,s5,a5
10008e30:	fffff7b7          	lui	a5,0xfffff
10008e34:	00fafab3          	and	s5,s5,a5
10008e38:	000a8593          	mv	a1,s5
10008e3c:	00098513          	mv	a0,s3
10008e40:	71d010ef          	jal	ra,1000ad5c <_sbrk_r>
10008e44:	fff00793          	li	a5,-1
10008e48:	00050b93          	mv	s7,a0
10008e4c:	28f50c63          	beq	a0,a5,100090e4 <_malloc_r+0x5a8>
10008e50:	29456863          	bltu	a0,s4,100090e0 <_malloc_r+0x5a4>
10008e54:	10027c37          	lui	s8,0x10027
10008e58:	410c0c13          	addi	s8,s8,1040 # 10027410 <__malloc_current_mallinfo>
10008e5c:	000c2583          	lw	a1,0(s8)
10008e60:	00ba85b3          	add	a1,s5,a1
10008e64:	00bc2023          	sw	a1,0(s8)
10008e68:	00058793          	mv	a5,a1
10008e6c:	3aaa0463          	beq	s4,a0,10009214 <_malloc_r+0x6d8>
10008e70:	61cca683          	lw	a3,1564(s9)
10008e74:	fff00713          	li	a4,-1
10008e78:	3ae68c63          	beq	a3,a4,10009230 <_malloc_r+0x6f4>
10008e7c:	414b8a33          	sub	s4,s7,s4
10008e80:	00fa07b3          	add	a5,s4,a5
10008e84:	00fc2023          	sw	a5,0(s8)
10008e88:	007bfc93          	andi	s9,s7,7
10008e8c:	300c8663          	beqz	s9,10009198 <_malloc_r+0x65c>
10008e90:	000017b7          	lui	a5,0x1
10008e94:	419b8bb3          	sub	s7,s7,s9
10008e98:	00878593          	addi	a1,a5,8 # 1008 <__heap_size+0x8>
10008e9c:	008b8b93          	addi	s7,s7,8
10008ea0:	419585b3          	sub	a1,a1,s9
10008ea4:	015b8ab3          	add	s5,s7,s5
10008ea8:	fff78793          	addi	a5,a5,-1
10008eac:	415585b3          	sub	a1,a1,s5
10008eb0:	00f5fa33          	and	s4,a1,a5
10008eb4:	000a0593          	mv	a1,s4
10008eb8:	00098513          	mv	a0,s3
10008ebc:	6a1010ef          	jal	ra,1000ad5c <_sbrk_r>
10008ec0:	fff00793          	li	a5,-1
10008ec4:	3cf50063          	beq	a0,a5,10009284 <_malloc_r+0x748>
10008ec8:	41750533          	sub	a0,a0,s7
10008ecc:	01450ab3          	add	s5,a0,s4
10008ed0:	000c2783          	lw	a5,0(s8)
10008ed4:	01792423          	sw	s7,8(s2)
10008ed8:	001aea93          	ori	s5,s5,1
10008edc:	00fa05b3          	add	a1,s4,a5
10008ee0:	00bc2023          	sw	a1,0(s8)
10008ee4:	015ba223          	sw	s5,4(s7)
10008ee8:	35240863          	beq	s0,s2,10009238 <_malloc_r+0x6fc>
10008eec:	00f00693          	li	a3,15
10008ef0:	3566f863          	bgeu	a3,s6,10009240 <_malloc_r+0x704>
10008ef4:	00442703          	lw	a4,4(s0)
10008ef8:	ff4b0793          	addi	a5,s6,-12
10008efc:	ff87f793          	andi	a5,a5,-8
10008f00:	00177713          	andi	a4,a4,1
10008f04:	00f76733          	or	a4,a4,a5
10008f08:	00e42223          	sw	a4,4(s0)
10008f0c:	00500613          	li	a2,5
10008f10:	00f40733          	add	a4,s0,a5
10008f14:	00c72223          	sw	a2,4(a4)
10008f18:	00c72423          	sw	a2,8(a4)
10008f1c:	36f6ee63          	bltu	a3,a5,10009298 <_malloc_r+0x75c>
10008f20:	004baa83          	lw	s5,4(s7)
10008f24:	000b8413          	mv	s0,s7
10008f28:	100157b7          	lui	a5,0x10015
10008f2c:	6b47a703          	lw	a4,1716(a5) # 100156b4 <__malloc_max_sbrked_mem>
10008f30:	00b77463          	bgeu	a4,a1,10008f38 <_malloc_r+0x3fc>
10008f34:	6ab7aa23          	sw	a1,1716(a5)
10008f38:	100157b7          	lui	a5,0x10015
10008f3c:	6b07a703          	lw	a4,1712(a5) # 100156b0 <__malloc_max_total_mem>
10008f40:	1ab77663          	bgeu	a4,a1,100090ec <_malloc_r+0x5b0>
10008f44:	6ab7a823          	sw	a1,1712(a5)
10008f48:	1a40006f          	j	100090ec <_malloc_r+0x5b0>
10008f4c:	0014e713          	ori	a4,s1,1
10008f50:	00e42223          	sw	a4,4(s0)
10008f54:	009404b3          	add	s1,s0,s1
10008f58:	00992423          	sw	s1,8(s2)
10008f5c:	0017e793          	ori	a5,a5,1
10008f60:	00098513          	mv	a0,s3
10008f64:	00f4a223          	sw	a5,4(s1)
10008f68:	5ec000ef          	jal	ra,10009554 <__malloc_unlock>
10008f6c:	00840513          	addi	a0,s0,8
10008f70:	e09ff06f          	j	10008d78 <_malloc_r+0x23c>
10008f74:	00c42683          	lw	a3,12(s0)
10008f78:	00842603          	lw	a2,8(s0)
10008f7c:	c41ff06f          	j	10008bbc <_malloc_r+0x80>
10008f80:	0095d793          	srli	a5,a1,0x9
10008f84:	00400713          	li	a4,4
10008f88:	14f77263          	bgeu	a4,a5,100090cc <_malloc_r+0x590>
10008f8c:	01400713          	li	a4,20
10008f90:	22f76a63          	bltu	a4,a5,100091c4 <_malloc_r+0x688>
10008f94:	05c78693          	addi	a3,a5,92
10008f98:	05b78713          	addi	a4,a5,91
10008f9c:	00369693          	slli	a3,a3,0x3
10008fa0:	00d906b3          	add	a3,s2,a3
10008fa4:	0006a783          	lw	a5,0(a3)
10008fa8:	ff868693          	addi	a3,a3,-8
10008fac:	1cf68863          	beq	a3,a5,1000917c <_malloc_r+0x640>
10008fb0:	0047a703          	lw	a4,4(a5)
10008fb4:	ffc77713          	andi	a4,a4,-4
10008fb8:	00e5f663          	bgeu	a1,a4,10008fc4 <_malloc_r+0x488>
10008fbc:	0087a783          	lw	a5,8(a5)
10008fc0:	fef698e3          	bne	a3,a5,10008fb0 <_malloc_r+0x474>
10008fc4:	00c7a683          	lw	a3,12(a5)
10008fc8:	00492703          	lw	a4,4(s2)
10008fcc:	00d42623          	sw	a3,12(s0)
10008fd0:	00f42423          	sw	a5,8(s0)
10008fd4:	0086a423          	sw	s0,8(a3)
10008fd8:	0087a623          	sw	s0,12(a5)
10008fdc:	cf1ff06f          	j	10008ccc <_malloc_r+0x190>
10008fe0:	01400713          	li	a4,20
10008fe4:	12f77663          	bgeu	a4,a5,10009110 <_malloc_r+0x5d4>
10008fe8:	05400713          	li	a4,84
10008fec:	1ef76a63          	bltu	a4,a5,100091e0 <_malloc_r+0x6a4>
10008ff0:	00c4d793          	srli	a5,s1,0xc
10008ff4:	06f78613          	addi	a2,a5,111
10008ff8:	06e78513          	addi	a0,a5,110
10008ffc:	00361693          	slli	a3,a2,0x3
10009000:	c1dff06f          	j	10008c1c <_malloc_r+0xe0>
10009004:	001e0e13          	addi	t3,t3,1
10009008:	003e7793          	andi	a5,t3,3
1000900c:	00850513          	addi	a0,a0,8
10009010:	10078e63          	beqz	a5,1000912c <_malloc_r+0x5f0>
10009014:	00c52783          	lw	a5,12(a0)
10009018:	d09ff06f          	j	10008d20 <_malloc_r+0x1e4>
1000901c:	00842603          	lw	a2,8(s0)
10009020:	0014e593          	ori	a1,s1,1
10009024:	00b42223          	sw	a1,4(s0)
10009028:	00f62623          	sw	a5,12(a2)
1000902c:	00c7a423          	sw	a2,8(a5)
10009030:	009404b3          	add	s1,s0,s1
10009034:	00992a23          	sw	s1,20(s2)
10009038:	00992823          	sw	s1,16(s2)
1000903c:	0016e793          	ori	a5,a3,1
10009040:	0114a623          	sw	a7,12(s1)
10009044:	0114a423          	sw	a7,8(s1)
10009048:	00f4a223          	sw	a5,4(s1)
1000904c:	00e40733          	add	a4,s0,a4
10009050:	00098513          	mv	a0,s3
10009054:	00d72023          	sw	a3,0(a4)
10009058:	4fc000ef          	jal	ra,10009554 <__malloc_unlock>
1000905c:	00840513          	addi	a0,s0,8
10009060:	d19ff06f          	j	10008d78 <_malloc_r+0x23c>
10009064:	0034d613          	srli	a2,s1,0x3
10009068:	00848793          	addi	a5,s1,8
1000906c:	b29ff06f          	j	10008b94 <_malloc_r+0x58>
10009070:	00b405b3          	add	a1,s0,a1
10009074:	0045a783          	lw	a5,4(a1)
10009078:	00098513          	mv	a0,s3
1000907c:	0017e793          	ori	a5,a5,1
10009080:	00f5a223          	sw	a5,4(a1)
10009084:	4d0000ef          	jal	ra,10009554 <__malloc_unlock>
10009088:	00840513          	addi	a0,s0,8
1000908c:	cedff06f          	j	10008d78 <_malloc_r+0x23c>
10009090:	0014e713          	ori	a4,s1,1
10009094:	00e42223          	sw	a4,4(s0)
10009098:	009404b3          	add	s1,s0,s1
1000909c:	00992a23          	sw	s1,20(s2)
100090a0:	00992823          	sw	s1,16(s2)
100090a4:	0017e713          	ori	a4,a5,1
100090a8:	0114a623          	sw	a7,12(s1)
100090ac:	0114a423          	sw	a7,8(s1)
100090b0:	00e4a223          	sw	a4,4(s1)
100090b4:	00b405b3          	add	a1,s0,a1
100090b8:	00098513          	mv	a0,s3
100090bc:	00f5a023          	sw	a5,0(a1)
100090c0:	494000ef          	jal	ra,10009554 <__malloc_unlock>
100090c4:	00840513          	addi	a0,s0,8
100090c8:	cb1ff06f          	j	10008d78 <_malloc_r+0x23c>
100090cc:	0065d793          	srli	a5,a1,0x6
100090d0:	03978693          	addi	a3,a5,57
100090d4:	03878713          	addi	a4,a5,56
100090d8:	00369693          	slli	a3,a3,0x3
100090dc:	ec5ff06f          	j	10008fa0 <_malloc_r+0x464>
100090e0:	11240e63          	beq	s0,s2,100091fc <_malloc_r+0x6c0>
100090e4:	00892403          	lw	s0,8(s2)
100090e8:	00442a83          	lw	s5,4(s0)
100090ec:	ffcafa93          	andi	s5,s5,-4
100090f0:	409a87b3          	sub	a5,s5,s1
100090f4:	009ae663          	bltu	s5,s1,10009100 <_malloc_r+0x5c4>
100090f8:	00f00713          	li	a4,15
100090fc:	e4f748e3          	blt	a4,a5,10008f4c <_malloc_r+0x410>
10009100:	00098513          	mv	a0,s3
10009104:	450000ef          	jal	ra,10009554 <__malloc_unlock>
10009108:	00000513          	li	a0,0
1000910c:	c6dff06f          	j	10008d78 <_malloc_r+0x23c>
10009110:	05c78613          	addi	a2,a5,92
10009114:	05b78513          	addi	a0,a5,91
10009118:	00361693          	slli	a3,a2,0x3
1000911c:	b01ff06f          	j	10008c1c <_malloc_r+0xe0>
10009120:	00832783          	lw	a5,8(t1)
10009124:	fff60613          	addi	a2,a2,-1
10009128:	1c679263          	bne	a5,t1,100092ec <_malloc_r+0x7b0>
1000912c:	00367793          	andi	a5,a2,3
10009130:	ff830313          	addi	t1,t1,-8
10009134:	fe0796e3          	bnez	a5,10009120 <_malloc_r+0x5e4>
10009138:	00492703          	lw	a4,4(s2)
1000913c:	fff5c793          	not	a5,a1
10009140:	00e7f7b3          	and	a5,a5,a4
10009144:	00f92223          	sw	a5,4(s2)
10009148:	00159593          	slli	a1,a1,0x1
1000914c:	c8b7eee3          	bltu	a5,a1,10008de8 <_malloc_r+0x2ac>
10009150:	c8058ce3          	beqz	a1,10008de8 <_malloc_r+0x2ac>
10009154:	00f5f733          	and	a4,a1,a5
10009158:	00071a63          	bnez	a4,1000916c <_malloc_r+0x630>
1000915c:	00159593          	slli	a1,a1,0x1
10009160:	00f5f733          	and	a4,a1,a5
10009164:	004e0e13          	addi	t3,t3,4
10009168:	fe070ae3          	beqz	a4,1000915c <_malloc_r+0x620>
1000916c:	000e0613          	mv	a2,t3
10009170:	b9dff06f          	j	10008d0c <_malloc_r+0x1d0>
10009174:	010a8a93          	addi	s5,s5,16 # fffff010 <_sp+0xeffd6aa4>
10009178:	cc1ff06f          	j	10008e38 <_malloc_r+0x2fc>
1000917c:	00492503          	lw	a0,4(s2)
10009180:	40275593          	srai	a1,a4,0x2
10009184:	00100713          	li	a4,1
10009188:	00b71733          	sll	a4,a4,a1
1000918c:	00a76733          	or	a4,a4,a0
10009190:	00e92223          	sw	a4,4(s2)
10009194:	e39ff06f          	j	10008fcc <_malloc_r+0x490>
10009198:	015b85b3          	add	a1,s7,s5
1000919c:	40b005b3          	neg	a1,a1
100091a0:	01459593          	slli	a1,a1,0x14
100091a4:	0145da13          	srli	s4,a1,0x14
100091a8:	000a0593          	mv	a1,s4
100091ac:	00098513          	mv	a0,s3
100091b0:	3ad010ef          	jal	ra,1000ad5c <_sbrk_r>
100091b4:	fff00793          	li	a5,-1
100091b8:	d0f518e3          	bne	a0,a5,10008ec8 <_malloc_r+0x38c>
100091bc:	00000a13          	li	s4,0
100091c0:	d11ff06f          	j	10008ed0 <_malloc_r+0x394>
100091c4:	05400713          	li	a4,84
100091c8:	08f76263          	bltu	a4,a5,1000924c <_malloc_r+0x710>
100091cc:	00c5d793          	srli	a5,a1,0xc
100091d0:	06f78693          	addi	a3,a5,111
100091d4:	06e78713          	addi	a4,a5,110
100091d8:	00369693          	slli	a3,a3,0x3
100091dc:	dc5ff06f          	j	10008fa0 <_malloc_r+0x464>
100091e0:	15400713          	li	a4,340
100091e4:	08f76263          	bltu	a4,a5,10009268 <_malloc_r+0x72c>
100091e8:	00f4d793          	srli	a5,s1,0xf
100091ec:	07878613          	addi	a2,a5,120
100091f0:	07778513          	addi	a0,a5,119
100091f4:	00361693          	slli	a3,a2,0x3
100091f8:	a25ff06f          	j	10008c1c <_malloc_r+0xe0>
100091fc:	10027c37          	lui	s8,0x10027
10009200:	410c0c13          	addi	s8,s8,1040 # 10027410 <__malloc_current_mallinfo>
10009204:	000c2783          	lw	a5,0(s8)
10009208:	00fa87b3          	add	a5,s5,a5
1000920c:	00fc2023          	sw	a5,0(s8)
10009210:	c61ff06f          	j	10008e70 <_malloc_r+0x334>
10009214:	014a1713          	slli	a4,s4,0x14
10009218:	c4071ce3          	bnez	a4,10008e70 <_malloc_r+0x334>
1000921c:	00892403          	lw	s0,8(s2)
10009220:	015b0ab3          	add	s5,s6,s5
10009224:	001aea93          	ori	s5,s5,1
10009228:	01542223          	sw	s5,4(s0)
1000922c:	cfdff06f          	j	10008f28 <_malloc_r+0x3ec>
10009230:	617cae23          	sw	s7,1564(s9)
10009234:	c55ff06f          	j	10008e88 <_malloc_r+0x34c>
10009238:	000b8413          	mv	s0,s7
1000923c:	cedff06f          	j	10008f28 <_malloc_r+0x3ec>
10009240:	00100793          	li	a5,1
10009244:	00fba223          	sw	a5,4(s7)
10009248:	eb9ff06f          	j	10009100 <_malloc_r+0x5c4>
1000924c:	15400713          	li	a4,340
10009250:	06f76263          	bltu	a4,a5,100092b4 <_malloc_r+0x778>
10009254:	00f5d793          	srli	a5,a1,0xf
10009258:	07878693          	addi	a3,a5,120
1000925c:	07778713          	addi	a4,a5,119
10009260:	00369693          	slli	a3,a3,0x3
10009264:	d3dff06f          	j	10008fa0 <_malloc_r+0x464>
10009268:	55400713          	li	a4,1364
1000926c:	06f76263          	bltu	a4,a5,100092d0 <_malloc_r+0x794>
10009270:	0124d793          	srli	a5,s1,0x12
10009274:	07d78613          	addi	a2,a5,125
10009278:	07c78513          	addi	a0,a5,124
1000927c:	00361693          	slli	a3,a2,0x3
10009280:	99dff06f          	j	10008c1c <_malloc_r+0xe0>
10009284:	ff8c8c93          	addi	s9,s9,-8
10009288:	019a8ab3          	add	s5,s5,s9
1000928c:	417a8ab3          	sub	s5,s5,s7
10009290:	00000a13          	li	s4,0
10009294:	c3dff06f          	j	10008ed0 <_malloc_r+0x394>
10009298:	00840593          	addi	a1,s0,8
1000929c:	00098513          	mv	a0,s3
100092a0:	accfc0ef          	jal	ra,1000556c <_free_r>
100092a4:	00892403          	lw	s0,8(s2)
100092a8:	000c2583          	lw	a1,0(s8)
100092ac:	00442a83          	lw	s5,4(s0)
100092b0:	c79ff06f          	j	10008f28 <_malloc_r+0x3ec>
100092b4:	55400713          	li	a4,1364
100092b8:	02f76463          	bltu	a4,a5,100092e0 <_malloc_r+0x7a4>
100092bc:	0125d793          	srli	a5,a1,0x12
100092c0:	07d78693          	addi	a3,a5,125
100092c4:	07c78713          	addi	a4,a5,124
100092c8:	00369693          	slli	a3,a3,0x3
100092cc:	cd5ff06f          	j	10008fa0 <_malloc_r+0x464>
100092d0:	3f800693          	li	a3,1016
100092d4:	07f00613          	li	a2,127
100092d8:	07e00513          	li	a0,126
100092dc:	941ff06f          	j	10008c1c <_malloc_r+0xe0>
100092e0:	3f800693          	li	a3,1016
100092e4:	07e00713          	li	a4,126
100092e8:	cb9ff06f          	j	10008fa0 <_malloc_r+0x464>
100092ec:	00492783          	lw	a5,4(s2)
100092f0:	e59ff06f          	j	10009148 <_malloc_r+0x60c>

100092f4 <_mbtowc_r>:
100092f4:	100157b7          	lui	a5,0x10015
100092f8:	14c7a783          	lw	a5,332(a5) # 1001514c <__global_locale+0xe4>
100092fc:	00078067          	jr	a5

10009300 <__ascii_mbtowc>:
10009300:	02058063          	beqz	a1,10009320 <__ascii_mbtowc+0x20>
10009304:	04060263          	beqz	a2,10009348 <__ascii_mbtowc+0x48>
10009308:	04068863          	beqz	a3,10009358 <__ascii_mbtowc+0x58>
1000930c:	00064783          	lbu	a5,0(a2)
10009310:	00f5a023          	sw	a5,0(a1)
10009314:	00064503          	lbu	a0,0(a2)
10009318:	00a03533          	snez	a0,a0
1000931c:	00008067          	ret
10009320:	ff010113          	addi	sp,sp,-16
10009324:	00c10593          	addi	a1,sp,12
10009328:	02060463          	beqz	a2,10009350 <__ascii_mbtowc+0x50>
1000932c:	02068a63          	beqz	a3,10009360 <__ascii_mbtowc+0x60>
10009330:	00064783          	lbu	a5,0(a2)
10009334:	00f5a023          	sw	a5,0(a1)
10009338:	00064503          	lbu	a0,0(a2)
1000933c:	00a03533          	snez	a0,a0
10009340:	01010113          	addi	sp,sp,16
10009344:	00008067          	ret
10009348:	00000513          	li	a0,0
1000934c:	00008067          	ret
10009350:	00000513          	li	a0,0
10009354:	fedff06f          	j	10009340 <__ascii_mbtowc+0x40>
10009358:	ffe00513          	li	a0,-2
1000935c:	00008067          	ret
10009360:	ffe00513          	li	a0,-2
10009364:	fddff06f          	j	10009340 <__ascii_mbtowc+0x40>

10009368 <memchr>:
10009368:	00357793          	andi	a5,a0,3
1000936c:	0ff5f693          	zext.b	a3,a1
10009370:	02078a63          	beqz	a5,100093a4 <memchr+0x3c>
10009374:	fff60793          	addi	a5,a2,-1
10009378:	02060e63          	beqz	a2,100093b4 <memchr+0x4c>
1000937c:	fff00613          	li	a2,-1
10009380:	0180006f          	j	10009398 <memchr+0x30>
10009384:	00150513          	addi	a0,a0,1
10009388:	00357713          	andi	a4,a0,3
1000938c:	00070e63          	beqz	a4,100093a8 <memchr+0x40>
10009390:	fff78793          	addi	a5,a5,-1
10009394:	02c78063          	beq	a5,a2,100093b4 <memchr+0x4c>
10009398:	00054703          	lbu	a4,0(a0)
1000939c:	fed714e3          	bne	a4,a3,10009384 <memchr+0x1c>
100093a0:	00008067          	ret
100093a4:	00060793          	mv	a5,a2
100093a8:	00300713          	li	a4,3
100093ac:	02f76663          	bltu	a4,a5,100093d8 <memchr+0x70>
100093b0:	00079663          	bnez	a5,100093bc <memchr+0x54>
100093b4:	00000513          	li	a0,0
100093b8:	00008067          	ret
100093bc:	00f507b3          	add	a5,a0,a5
100093c0:	00c0006f          	j	100093cc <memchr+0x64>
100093c4:	00150513          	addi	a0,a0,1
100093c8:	fea786e3          	beq	a5,a0,100093b4 <memchr+0x4c>
100093cc:	00054703          	lbu	a4,0(a0)
100093d0:	fed71ae3          	bne	a4,a3,100093c4 <memchr+0x5c>
100093d4:	00008067          	ret
100093d8:	0ff5f593          	zext.b	a1,a1
100093dc:	00859713          	slli	a4,a1,0x8
100093e0:	00b76733          	or	a4,a4,a1
100093e4:	01071893          	slli	a7,a4,0x10
100093e8:	feff0837          	lui	a6,0xfeff0
100093ec:	808085b7          	lui	a1,0x80808
100093f0:	00e8e8b3          	or	a7,a7,a4
100093f4:	eff80813          	addi	a6,a6,-257 # fefefeff <_sp+0xeefc7993>
100093f8:	08058593          	addi	a1,a1,128 # 80808080 <_sp+0x707dfb14>
100093fc:	00300313          	li	t1,3
10009400:	00052703          	lw	a4,0(a0)
10009404:	00e8c733          	xor	a4,a7,a4
10009408:	01070633          	add	a2,a4,a6
1000940c:	fff74713          	not	a4,a4
10009410:	00e67733          	and	a4,a2,a4
10009414:	00b77733          	and	a4,a4,a1
10009418:	fa0712e3          	bnez	a4,100093bc <memchr+0x54>
1000941c:	ffc78793          	addi	a5,a5,-4
10009420:	00450513          	addi	a0,a0,4
10009424:	fcf36ee3          	bltu	t1,a5,10009400 <memchr+0x98>
10009428:	f8079ae3          	bnez	a5,100093bc <memchr+0x54>
1000942c:	f89ff06f          	j	100093b4 <memchr+0x4c>

10009430 <memmove>:
10009430:	02a5f663          	bgeu	a1,a0,1000945c <memmove+0x2c>
10009434:	00c587b3          	add	a5,a1,a2
10009438:	02f57263          	bgeu	a0,a5,1000945c <memmove+0x2c>
1000943c:	00c50733          	add	a4,a0,a2
10009440:	0e060a63          	beqz	a2,10009534 <memmove+0x104>
10009444:	fff7c683          	lbu	a3,-1(a5)
10009448:	fff78793          	addi	a5,a5,-1
1000944c:	fff70713          	addi	a4,a4,-1
10009450:	00d70023          	sb	a3,0(a4)
10009454:	fef598e3          	bne	a1,a5,10009444 <memmove+0x14>
10009458:	00008067          	ret
1000945c:	00f00793          	li	a5,15
10009460:	02c7e863          	bltu	a5,a2,10009490 <memmove+0x60>
10009464:	00050793          	mv	a5,a0
10009468:	fff60693          	addi	a3,a2,-1
1000946c:	0c060c63          	beqz	a2,10009544 <memmove+0x114>
10009470:	00168693          	addi	a3,a3,1
10009474:	00d786b3          	add	a3,a5,a3
10009478:	0005c703          	lbu	a4,0(a1)
1000947c:	00178793          	addi	a5,a5,1
10009480:	00158593          	addi	a1,a1,1
10009484:	fee78fa3          	sb	a4,-1(a5)
10009488:	fed798e3          	bne	a5,a3,10009478 <memmove+0x48>
1000948c:	00008067          	ret
10009490:	00b567b3          	or	a5,a0,a1
10009494:	0037f793          	andi	a5,a5,3
10009498:	0a079063          	bnez	a5,10009538 <memmove+0x108>
1000949c:	ff060893          	addi	a7,a2,-16
100094a0:	ff08f893          	andi	a7,a7,-16
100094a4:	01088893          	addi	a7,a7,16
100094a8:	01150833          	add	a6,a0,a7
100094ac:	00058713          	mv	a4,a1
100094b0:	00050793          	mv	a5,a0
100094b4:	00072683          	lw	a3,0(a4)
100094b8:	01070713          	addi	a4,a4,16
100094bc:	01078793          	addi	a5,a5,16
100094c0:	fed7a823          	sw	a3,-16(a5)
100094c4:	ff472683          	lw	a3,-12(a4)
100094c8:	fed7aa23          	sw	a3,-12(a5)
100094cc:	ff872683          	lw	a3,-8(a4)
100094d0:	fed7ac23          	sw	a3,-8(a5)
100094d4:	ffc72683          	lw	a3,-4(a4)
100094d8:	fed7ae23          	sw	a3,-4(a5)
100094dc:	fcf81ce3          	bne	a6,a5,100094b4 <memmove+0x84>
100094e0:	00c67713          	andi	a4,a2,12
100094e4:	011585b3          	add	a1,a1,a7
100094e8:	00f67813          	andi	a6,a2,15
100094ec:	04070e63          	beqz	a4,10009548 <memmove+0x118>
100094f0:	00058713          	mv	a4,a1
100094f4:	00078893          	mv	a7,a5
100094f8:	00300e13          	li	t3,3
100094fc:	00072303          	lw	t1,0(a4)
10009500:	00470713          	addi	a4,a4,4
10009504:	40e806b3          	sub	a3,a6,a4
10009508:	0068a023          	sw	t1,0(a7)
1000950c:	00d586b3          	add	a3,a1,a3
10009510:	00488893          	addi	a7,a7,4
10009514:	fede64e3          	bltu	t3,a3,100094fc <memmove+0xcc>
10009518:	ffc80713          	addi	a4,a6,-4
1000951c:	ffc77713          	andi	a4,a4,-4
10009520:	00470713          	addi	a4,a4,4
10009524:	00367613          	andi	a2,a2,3
10009528:	00e787b3          	add	a5,a5,a4
1000952c:	00e585b3          	add	a1,a1,a4
10009530:	f39ff06f          	j	10009468 <memmove+0x38>
10009534:	00008067          	ret
10009538:	fff60693          	addi	a3,a2,-1
1000953c:	00050793          	mv	a5,a0
10009540:	f31ff06f          	j	10009470 <memmove+0x40>
10009544:	00008067          	ret
10009548:	00080613          	mv	a2,a6
1000954c:	f1dff06f          	j	10009468 <memmove+0x38>

10009550 <__malloc_lock>:
10009550:	00008067          	ret

10009554 <__malloc_unlock>:
10009554:	00008067          	ret

10009558 <_Balloc>:
10009558:	04c52783          	lw	a5,76(a0)
1000955c:	ff010113          	addi	sp,sp,-16
10009560:	00812423          	sw	s0,8(sp)
10009564:	00912223          	sw	s1,4(sp)
10009568:	00112623          	sw	ra,12(sp)
1000956c:	01212023          	sw	s2,0(sp)
10009570:	00050413          	mv	s0,a0
10009574:	00058493          	mv	s1,a1
10009578:	02078e63          	beqz	a5,100095b4 <_Balloc+0x5c>
1000957c:	00249713          	slli	a4,s1,0x2
10009580:	00e787b3          	add	a5,a5,a4
10009584:	0007a503          	lw	a0,0(a5)
10009588:	04050663          	beqz	a0,100095d4 <_Balloc+0x7c>
1000958c:	00052703          	lw	a4,0(a0)
10009590:	00e7a023          	sw	a4,0(a5)
10009594:	00052823          	sw	zero,16(a0)
10009598:	00052623          	sw	zero,12(a0)
1000959c:	00c12083          	lw	ra,12(sp)
100095a0:	00812403          	lw	s0,8(sp)
100095a4:	00412483          	lw	s1,4(sp)
100095a8:	00012903          	lw	s2,0(sp)
100095ac:	01010113          	addi	sp,sp,16
100095b0:	00008067          	ret
100095b4:	02100613          	li	a2,33
100095b8:	00400593          	li	a1,4
100095bc:	1a4030ef          	jal	ra,1000c760 <_calloc_r>
100095c0:	04a42623          	sw	a0,76(s0)
100095c4:	00050793          	mv	a5,a0
100095c8:	fa051ae3          	bnez	a0,1000957c <_Balloc+0x24>
100095cc:	00000513          	li	a0,0
100095d0:	fcdff06f          	j	1000959c <_Balloc+0x44>
100095d4:	00100913          	li	s2,1
100095d8:	00991933          	sll	s2,s2,s1
100095dc:	00590613          	addi	a2,s2,5
100095e0:	00261613          	slli	a2,a2,0x2
100095e4:	00100593          	li	a1,1
100095e8:	00040513          	mv	a0,s0
100095ec:	174030ef          	jal	ra,1000c760 <_calloc_r>
100095f0:	fc050ee3          	beqz	a0,100095cc <_Balloc+0x74>
100095f4:	00952223          	sw	s1,4(a0)
100095f8:	01252423          	sw	s2,8(a0)
100095fc:	f99ff06f          	j	10009594 <_Balloc+0x3c>

10009600 <_Bfree>:
10009600:	02058063          	beqz	a1,10009620 <_Bfree+0x20>
10009604:	0045a703          	lw	a4,4(a1)
10009608:	04c52783          	lw	a5,76(a0)
1000960c:	00271713          	slli	a4,a4,0x2
10009610:	00e787b3          	add	a5,a5,a4
10009614:	0007a703          	lw	a4,0(a5)
10009618:	00e5a023          	sw	a4,0(a1)
1000961c:	00b7a023          	sw	a1,0(a5)
10009620:	00008067          	ret

10009624 <__multadd>:
10009624:	fd010113          	addi	sp,sp,-48
10009628:	03212023          	sw	s2,32(sp)
1000962c:	0105a903          	lw	s2,16(a1)
10009630:	01812423          	sw	s8,8(sp)
10009634:	00010c37          	lui	s8,0x10
10009638:	02812423          	sw	s0,40(sp)
1000963c:	02912223          	sw	s1,36(sp)
10009640:	01312e23          	sw	s3,28(sp)
10009644:	01412c23          	sw	s4,24(sp)
10009648:	01512a23          	sw	s5,20(sp)
1000964c:	01612823          	sw	s6,16(sp)
10009650:	02112623          	sw	ra,44(sp)
10009654:	01712623          	sw	s7,12(sp)
10009658:	00058993          	mv	s3,a1
1000965c:	00050a13          	mv	s4,a0
10009660:	00060a93          	mv	s5,a2
10009664:	00068413          	mv	s0,a3
10009668:	01458493          	addi	s1,a1,20
1000966c:	00000b13          	li	s6,0
10009670:	fffc0c13          	addi	s8,s8,-1 # ffff <__heap_size+0xefff>
10009674:	0004ab83          	lw	s7,0(s1)
10009678:	000a8593          	mv	a1,s5
1000967c:	00448493          	addi	s1,s1,4
10009680:	018bf533          	and	a0,s7,s8
10009684:	7380a0ef          	jal	ra,10013dbc <__mulsi3>
10009688:	00850433          	add	s0,a0,s0
1000968c:	000a8593          	mv	a1,s5
10009690:	010bd513          	srli	a0,s7,0x10
10009694:	7280a0ef          	jal	ra,10013dbc <__mulsi3>
10009698:	01045793          	srli	a5,s0,0x10
1000969c:	00f50533          	add	a0,a0,a5
100096a0:	01847433          	and	s0,s0,s8
100096a4:	01051793          	slli	a5,a0,0x10
100096a8:	008787b3          	add	a5,a5,s0
100096ac:	fef4ae23          	sw	a5,-4(s1)
100096b0:	001b0b13          	addi	s6,s6,1
100096b4:	01055413          	srli	s0,a0,0x10
100096b8:	fb2b4ee3          	blt	s6,s2,10009674 <__multadd+0x50>
100096bc:	02040263          	beqz	s0,100096e0 <__multadd+0xbc>
100096c0:	0089a783          	lw	a5,8(s3)
100096c4:	04f95863          	bge	s2,a5,10009714 <__multadd+0xf0>
100096c8:	00490793          	addi	a5,s2,4
100096cc:	00279793          	slli	a5,a5,0x2
100096d0:	00f987b3          	add	a5,s3,a5
100096d4:	0087a223          	sw	s0,4(a5)
100096d8:	00190913          	addi	s2,s2,1
100096dc:	0129a823          	sw	s2,16(s3)
100096e0:	02c12083          	lw	ra,44(sp)
100096e4:	02812403          	lw	s0,40(sp)
100096e8:	02412483          	lw	s1,36(sp)
100096ec:	02012903          	lw	s2,32(sp)
100096f0:	01812a03          	lw	s4,24(sp)
100096f4:	01412a83          	lw	s5,20(sp)
100096f8:	01012b03          	lw	s6,16(sp)
100096fc:	00c12b83          	lw	s7,12(sp)
10009700:	00812c03          	lw	s8,8(sp)
10009704:	00098513          	mv	a0,s3
10009708:	01c12983          	lw	s3,28(sp)
1000970c:	03010113          	addi	sp,sp,48
10009710:	00008067          	ret
10009714:	0049a583          	lw	a1,4(s3)
10009718:	000a0513          	mv	a0,s4
1000971c:	00158593          	addi	a1,a1,1
10009720:	e39ff0ef          	jal	ra,10009558 <_Balloc>
10009724:	00050493          	mv	s1,a0
10009728:	04050c63          	beqz	a0,10009780 <__multadd+0x15c>
1000972c:	0109a603          	lw	a2,16(s3)
10009730:	00c98593          	addi	a1,s3,12
10009734:	00c50513          	addi	a0,a0,12
10009738:	00260613          	addi	a2,a2,2
1000973c:	00261613          	slli	a2,a2,0x2
10009740:	b39f80ef          	jal	ra,10002278 <memcpy>
10009744:	0049a703          	lw	a4,4(s3)
10009748:	04ca2783          	lw	a5,76(s4)
1000974c:	00271713          	slli	a4,a4,0x2
10009750:	00e787b3          	add	a5,a5,a4
10009754:	0007a703          	lw	a4,0(a5)
10009758:	00e9a023          	sw	a4,0(s3)
1000975c:	0137a023          	sw	s3,0(a5)
10009760:	00490793          	addi	a5,s2,4
10009764:	00048993          	mv	s3,s1
10009768:	00279793          	slli	a5,a5,0x2
1000976c:	00f987b3          	add	a5,s3,a5
10009770:	0087a223          	sw	s0,4(a5)
10009774:	00190913          	addi	s2,s2,1
10009778:	0129a823          	sw	s2,16(s3)
1000977c:	f65ff06f          	j	100096e0 <__multadd+0xbc>
10009780:	100146b7          	lui	a3,0x10014
10009784:	10014537          	lui	a0,0x10014
10009788:	2a868693          	addi	a3,a3,680 # 100142a8 <zeroes.0+0x30>
1000978c:	00000613          	li	a2,0
10009790:	0b500593          	li	a1,181
10009794:	57850513          	addi	a0,a0,1400 # 10014578 <bmask+0x34>
10009798:	75d020ef          	jal	ra,1000c6f4 <__assert_func>

1000979c <__s2b>:
1000979c:	fe010113          	addi	sp,sp,-32
100097a0:	00812c23          	sw	s0,24(sp)
100097a4:	01212823          	sw	s2,16(sp)
100097a8:	00058413          	mv	s0,a1
100097ac:	00050913          	mv	s2,a0
100097b0:	00900593          	li	a1,9
100097b4:	00868513          	addi	a0,a3,8
100097b8:	00912a23          	sw	s1,20(sp)
100097bc:	01312623          	sw	s3,12(sp)
100097c0:	01412423          	sw	s4,8(sp)
100097c4:	00112e23          	sw	ra,28(sp)
100097c8:	01512223          	sw	s5,4(sp)
100097cc:	00068493          	mv	s1,a3
100097d0:	00060993          	mv	s3,a2
100097d4:	00070a13          	mv	s4,a4
100097d8:	6080a0ef          	jal	ra,10013de0 <__divsi3>
100097dc:	00900793          	li	a5,9
100097e0:	0c97d863          	bge	a5,s1,100098b0 <__s2b+0x114>
100097e4:	00100793          	li	a5,1
100097e8:	00000593          	li	a1,0
100097ec:	00179793          	slli	a5,a5,0x1
100097f0:	00158593          	addi	a1,a1,1
100097f4:	fea7cce3          	blt	a5,a0,100097ec <__s2b+0x50>
100097f8:	00090513          	mv	a0,s2
100097fc:	d5dff0ef          	jal	ra,10009558 <_Balloc>
10009800:	00050593          	mv	a1,a0
10009804:	0a050a63          	beqz	a0,100098b8 <__s2b+0x11c>
10009808:	00100793          	li	a5,1
1000980c:	00f52823          	sw	a5,16(a0)
10009810:	01452a23          	sw	s4,20(a0)
10009814:	00900793          	li	a5,9
10009818:	0937d663          	bge	a5,s3,100098a4 <__s2b+0x108>
1000981c:	00940a93          	addi	s5,s0,9
10009820:	01340a33          	add	s4,s0,s3
10009824:	000a8413          	mv	s0,s5
10009828:	00044683          	lbu	a3,0(s0)
1000982c:	00a00613          	li	a2,10
10009830:	00090513          	mv	a0,s2
10009834:	fd068693          	addi	a3,a3,-48
10009838:	dedff0ef          	jal	ra,10009624 <__multadd>
1000983c:	00140413          	addi	s0,s0,1
10009840:	00050593          	mv	a1,a0
10009844:	ff4412e3          	bne	s0,s4,10009828 <__s2b+0x8c>
10009848:	ff898413          	addi	s0,s3,-8
1000984c:	008a8433          	add	s0,s5,s0
10009850:	0299d663          	bge	s3,s1,1000987c <__s2b+0xe0>
10009854:	413484b3          	sub	s1,s1,s3
10009858:	009404b3          	add	s1,s0,s1
1000985c:	00044683          	lbu	a3,0(s0)
10009860:	00a00613          	li	a2,10
10009864:	00090513          	mv	a0,s2
10009868:	fd068693          	addi	a3,a3,-48
1000986c:	db9ff0ef          	jal	ra,10009624 <__multadd>
10009870:	00140413          	addi	s0,s0,1
10009874:	00050593          	mv	a1,a0
10009878:	fe8492e3          	bne	s1,s0,1000985c <__s2b+0xc0>
1000987c:	01c12083          	lw	ra,28(sp)
10009880:	01812403          	lw	s0,24(sp)
10009884:	01412483          	lw	s1,20(sp)
10009888:	01012903          	lw	s2,16(sp)
1000988c:	00c12983          	lw	s3,12(sp)
10009890:	00812a03          	lw	s4,8(sp)
10009894:	00412a83          	lw	s5,4(sp)
10009898:	00058513          	mv	a0,a1
1000989c:	02010113          	addi	sp,sp,32
100098a0:	00008067          	ret
100098a4:	00a40413          	addi	s0,s0,10
100098a8:	00900993          	li	s3,9
100098ac:	fa5ff06f          	j	10009850 <__s2b+0xb4>
100098b0:	00000593          	li	a1,0
100098b4:	f45ff06f          	j	100097f8 <__s2b+0x5c>
100098b8:	100146b7          	lui	a3,0x10014
100098bc:	10014537          	lui	a0,0x10014
100098c0:	2a868693          	addi	a3,a3,680 # 100142a8 <zeroes.0+0x30>
100098c4:	00000613          	li	a2,0
100098c8:	0ce00593          	li	a1,206
100098cc:	57850513          	addi	a0,a0,1400 # 10014578 <bmask+0x34>
100098d0:	625020ef          	jal	ra,1000c6f4 <__assert_func>

100098d4 <__hi0bits>:
100098d4:	ffff0737          	lui	a4,0xffff0
100098d8:	00e57733          	and	a4,a0,a4
100098dc:	00050793          	mv	a5,a0
100098e0:	00000513          	li	a0,0
100098e4:	00071663          	bnez	a4,100098f0 <__hi0bits+0x1c>
100098e8:	01079793          	slli	a5,a5,0x10
100098ec:	01000513          	li	a0,16
100098f0:	ff000737          	lui	a4,0xff000
100098f4:	00e7f733          	and	a4,a5,a4
100098f8:	00071663          	bnez	a4,10009904 <__hi0bits+0x30>
100098fc:	00850513          	addi	a0,a0,8
10009900:	00879793          	slli	a5,a5,0x8
10009904:	f0000737          	lui	a4,0xf0000
10009908:	00e7f733          	and	a4,a5,a4
1000990c:	00071663          	bnez	a4,10009918 <__hi0bits+0x44>
10009910:	00450513          	addi	a0,a0,4
10009914:	00479793          	slli	a5,a5,0x4
10009918:	c0000737          	lui	a4,0xc0000
1000991c:	00e7f733          	and	a4,a5,a4
10009920:	00071663          	bnez	a4,1000992c <__hi0bits+0x58>
10009924:	00250513          	addi	a0,a0,2
10009928:	00279793          	slli	a5,a5,0x2
1000992c:	0007ca63          	bltz	a5,10009940 <__hi0bits+0x6c>
10009930:	40000737          	lui	a4,0x40000
10009934:	00e7f7b3          	and	a5,a5,a4
10009938:	00150513          	addi	a0,a0,1
1000993c:	00078463          	beqz	a5,10009944 <__hi0bits+0x70>
10009940:	00008067          	ret
10009944:	02000513          	li	a0,32
10009948:	00008067          	ret

1000994c <__lo0bits>:
1000994c:	00052783          	lw	a5,0(a0)
10009950:	00050713          	mv	a4,a0
10009954:	0077f693          	andi	a3,a5,7
10009958:	02068463          	beqz	a3,10009980 <__lo0bits+0x34>
1000995c:	0017f693          	andi	a3,a5,1
10009960:	00000513          	li	a0,0
10009964:	04069e63          	bnez	a3,100099c0 <__lo0bits+0x74>
10009968:	0027f693          	andi	a3,a5,2
1000996c:	0a068863          	beqz	a3,10009a1c <__lo0bits+0xd0>
10009970:	0017d793          	srli	a5,a5,0x1
10009974:	00f72023          	sw	a5,0(a4) # 40000000 <_sp+0x2ffd7a94>
10009978:	00100513          	li	a0,1
1000997c:	00008067          	ret
10009980:	01079693          	slli	a3,a5,0x10
10009984:	0106d693          	srli	a3,a3,0x10
10009988:	00000513          	li	a0,0
1000998c:	06068e63          	beqz	a3,10009a08 <__lo0bits+0xbc>
10009990:	0ff7f693          	zext.b	a3,a5
10009994:	06068063          	beqz	a3,100099f4 <__lo0bits+0xa8>
10009998:	00f7f693          	andi	a3,a5,15
1000999c:	04068263          	beqz	a3,100099e0 <__lo0bits+0x94>
100099a0:	0037f693          	andi	a3,a5,3
100099a4:	02068463          	beqz	a3,100099cc <__lo0bits+0x80>
100099a8:	0017f693          	andi	a3,a5,1
100099ac:	00069c63          	bnez	a3,100099c4 <__lo0bits+0x78>
100099b0:	0017d793          	srli	a5,a5,0x1
100099b4:	00150513          	addi	a0,a0,1
100099b8:	00079663          	bnez	a5,100099c4 <__lo0bits+0x78>
100099bc:	02000513          	li	a0,32
100099c0:	00008067          	ret
100099c4:	00f72023          	sw	a5,0(a4)
100099c8:	00008067          	ret
100099cc:	0027d793          	srli	a5,a5,0x2
100099d0:	0017f693          	andi	a3,a5,1
100099d4:	00250513          	addi	a0,a0,2
100099d8:	fe0696e3          	bnez	a3,100099c4 <__lo0bits+0x78>
100099dc:	fd5ff06f          	j	100099b0 <__lo0bits+0x64>
100099e0:	0047d793          	srli	a5,a5,0x4
100099e4:	0037f693          	andi	a3,a5,3
100099e8:	00450513          	addi	a0,a0,4
100099ec:	fa069ee3          	bnez	a3,100099a8 <__lo0bits+0x5c>
100099f0:	fddff06f          	j	100099cc <__lo0bits+0x80>
100099f4:	0087d793          	srli	a5,a5,0x8
100099f8:	00f7f693          	andi	a3,a5,15
100099fc:	00850513          	addi	a0,a0,8
10009a00:	fa0690e3          	bnez	a3,100099a0 <__lo0bits+0x54>
10009a04:	fddff06f          	j	100099e0 <__lo0bits+0x94>
10009a08:	0107d793          	srli	a5,a5,0x10
10009a0c:	0ff7f693          	zext.b	a3,a5
10009a10:	01000513          	li	a0,16
10009a14:	f80692e3          	bnez	a3,10009998 <__lo0bits+0x4c>
10009a18:	fddff06f          	j	100099f4 <__lo0bits+0xa8>
10009a1c:	0027d793          	srli	a5,a5,0x2
10009a20:	00f72023          	sw	a5,0(a4)
10009a24:	00200513          	li	a0,2
10009a28:	00008067          	ret

10009a2c <__i2b>:
10009a2c:	04c52783          	lw	a5,76(a0)
10009a30:	ff010113          	addi	sp,sp,-16
10009a34:	00812423          	sw	s0,8(sp)
10009a38:	00912223          	sw	s1,4(sp)
10009a3c:	00112623          	sw	ra,12(sp)
10009a40:	00050413          	mv	s0,a0
10009a44:	00058493          	mv	s1,a1
10009a48:	02078c63          	beqz	a5,10009a80 <__i2b+0x54>
10009a4c:	0047a503          	lw	a0,4(a5)
10009a50:	06050263          	beqz	a0,10009ab4 <__i2b+0x88>
10009a54:	00052703          	lw	a4,0(a0)
10009a58:	00e7a223          	sw	a4,4(a5)
10009a5c:	00c12083          	lw	ra,12(sp)
10009a60:	00812403          	lw	s0,8(sp)
10009a64:	00100793          	li	a5,1
10009a68:	00952a23          	sw	s1,20(a0)
10009a6c:	00052623          	sw	zero,12(a0)
10009a70:	00f52823          	sw	a5,16(a0)
10009a74:	00412483          	lw	s1,4(sp)
10009a78:	01010113          	addi	sp,sp,16
10009a7c:	00008067          	ret
10009a80:	02100613          	li	a2,33
10009a84:	00400593          	li	a1,4
10009a88:	4d9020ef          	jal	ra,1000c760 <_calloc_r>
10009a8c:	04a42623          	sw	a0,76(s0)
10009a90:	00050793          	mv	a5,a0
10009a94:	fa051ce3          	bnez	a0,10009a4c <__i2b+0x20>
10009a98:	100146b7          	lui	a3,0x10014
10009a9c:	10014537          	lui	a0,0x10014
10009aa0:	2a868693          	addi	a3,a3,680 # 100142a8 <zeroes.0+0x30>
10009aa4:	00000613          	li	a2,0
10009aa8:	14000593          	li	a1,320
10009aac:	57850513          	addi	a0,a0,1400 # 10014578 <bmask+0x34>
10009ab0:	445020ef          	jal	ra,1000c6f4 <__assert_func>
10009ab4:	01c00613          	li	a2,28
10009ab8:	00100593          	li	a1,1
10009abc:	00040513          	mv	a0,s0
10009ac0:	4a1020ef          	jal	ra,1000c760 <_calloc_r>
10009ac4:	fc050ae3          	beqz	a0,10009a98 <__i2b+0x6c>
10009ac8:	00100793          	li	a5,1
10009acc:	00f52223          	sw	a5,4(a0)
10009ad0:	00200793          	li	a5,2
10009ad4:	00f52423          	sw	a5,8(a0)
10009ad8:	f85ff06f          	j	10009a5c <__i2b+0x30>

10009adc <__multiply>:
10009adc:	fb010113          	addi	sp,sp,-80
10009ae0:	03312e23          	sw	s3,60(sp)
10009ae4:	03812423          	sw	s8,40(sp)
10009ae8:	01062983          	lw	s3,16(a2)
10009aec:	0105ac03          	lw	s8,16(a1)
10009af0:	04812423          	sw	s0,72(sp)
10009af4:	03412c23          	sw	s4,56(sp)
10009af8:	04112623          	sw	ra,76(sp)
10009afc:	04912223          	sw	s1,68(sp)
10009b00:	05212023          	sw	s2,64(sp)
10009b04:	03512a23          	sw	s5,52(sp)
10009b08:	03612823          	sw	s6,48(sp)
10009b0c:	03712623          	sw	s7,44(sp)
10009b10:	03912223          	sw	s9,36(sp)
10009b14:	03a12023          	sw	s10,32(sp)
10009b18:	01b12e23          	sw	s11,28(sp)
10009b1c:	00058a13          	mv	s4,a1
10009b20:	00060413          	mv	s0,a2
10009b24:	013c4c63          	blt	s8,s3,10009b3c <__multiply+0x60>
10009b28:	00098713          	mv	a4,s3
10009b2c:	00058413          	mv	s0,a1
10009b30:	000c0993          	mv	s3,s8
10009b34:	00060a13          	mv	s4,a2
10009b38:	00070c13          	mv	s8,a4
10009b3c:	00842783          	lw	a5,8(s0)
10009b40:	00442583          	lw	a1,4(s0)
10009b44:	01898bb3          	add	s7,s3,s8
10009b48:	0177a7b3          	slt	a5,a5,s7
10009b4c:	00f585b3          	add	a1,a1,a5
10009b50:	a09ff0ef          	jal	ra,10009558 <_Balloc>
10009b54:	00a12623          	sw	a0,12(sp)
10009b58:	20050a63          	beqz	a0,10009d6c <__multiply+0x290>
10009b5c:	00c12783          	lw	a5,12(sp)
10009b60:	002b9a93          	slli	s5,s7,0x2
10009b64:	01478b13          	addi	s6,a5,20
10009b68:	015b0ab3          	add	s5,s6,s5
10009b6c:	000b0793          	mv	a5,s6
10009b70:	015b7863          	bgeu	s6,s5,10009b80 <__multiply+0xa4>
10009b74:	0007a023          	sw	zero,0(a5)
10009b78:	00478793          	addi	a5,a5,4
10009b7c:	ff57ece3          	bltu	a5,s5,10009b74 <__multiply+0x98>
10009b80:	014a0a13          	addi	s4,s4,20
10009b84:	002c1c13          	slli	s8,s8,0x2
10009b88:	01440793          	addi	a5,s0,20
10009b8c:	018a0733          	add	a4,s4,s8
10009b90:	00299993          	slli	s3,s3,0x2
10009b94:	00f12423          	sw	a5,8(sp)
10009b98:	00e12023          	sw	a4,0(sp)
10009b9c:	013789b3          	add	s3,a5,s3
10009ba0:	14ea7863          	bgeu	s4,a4,10009cf0 <__multiply+0x214>
10009ba4:	00400713          	li	a4,4
10009ba8:	01540793          	addi	a5,s0,21
10009bac:	00e12223          	sw	a4,4(sp)
10009bb0:	1af9f263          	bgeu	s3,a5,10009d54 <__multiply+0x278>
10009bb4:	000104b7          	lui	s1,0x10
10009bb8:	fff48493          	addi	s1,s1,-1 # ffff <__heap_size+0xefff>
10009bbc:	01c0006f          	j	10009bd8 <__multiply+0xfc>
10009bc0:	0107dc13          	srli	s8,a5,0x10
10009bc4:	0a0c1063          	bnez	s8,10009c64 <__multiply+0x188>
10009bc8:	00012783          	lw	a5,0(sp)
10009bcc:	004a0a13          	addi	s4,s4,4
10009bd0:	004b0b13          	addi	s6,s6,4
10009bd4:	10fa7e63          	bgeu	s4,a5,10009cf0 <__multiply+0x214>
10009bd8:	000a2783          	lw	a5,0(s4)
10009bdc:	0097fd33          	and	s10,a5,s1
10009be0:	fe0d00e3          	beqz	s10,10009bc0 <__multiply+0xe4>
10009be4:	00812c03          	lw	s8,8(sp)
10009be8:	000b0c93          	mv	s9,s6
10009bec:	00000413          	li	s0,0
10009bf0:	000c2d83          	lw	s11,0(s8)
10009bf4:	000ca903          	lw	s2,0(s9)
10009bf8:	000d0593          	mv	a1,s10
10009bfc:	009df533          	and	a0,s11,s1
10009c00:	1bc0a0ef          	jal	ra,10013dbc <__mulsi3>
10009c04:	009977b3          	and	a5,s2,s1
10009c08:	00f507b3          	add	a5,a0,a5
10009c0c:	000d0593          	mv	a1,s10
10009c10:	010dd513          	srli	a0,s11,0x10
10009c14:	00878433          	add	s0,a5,s0
10009c18:	01095913          	srli	s2,s2,0x10
10009c1c:	1a00a0ef          	jal	ra,10013dbc <__mulsi3>
10009c20:	01045793          	srli	a5,s0,0x10
10009c24:	01250533          	add	a0,a0,s2
10009c28:	00f50533          	add	a0,a0,a5
10009c2c:	00947433          	and	s0,s0,s1
10009c30:	01051793          	slli	a5,a0,0x10
10009c34:	0087e7b3          	or	a5,a5,s0
10009c38:	004c0c13          	addi	s8,s8,4
10009c3c:	00fca023          	sw	a5,0(s9)
10009c40:	004c8c93          	addi	s9,s9,4
10009c44:	01055413          	srli	s0,a0,0x10
10009c48:	fb3c64e3          	bltu	s8,s3,10009bf0 <__multiply+0x114>
10009c4c:	00412783          	lw	a5,4(sp)
10009c50:	00fb07b3          	add	a5,s6,a5
10009c54:	0087a023          	sw	s0,0(a5)
10009c58:	000a2783          	lw	a5,0(s4)
10009c5c:	0107dc13          	srli	s8,a5,0x10
10009c60:	f60c04e3          	beqz	s8,10009bc8 <__multiply+0xec>
10009c64:	000b2403          	lw	s0,0(s6)
10009c68:	00812d83          	lw	s11,8(sp)
10009c6c:	000b0d13          	mv	s10,s6
10009c70:	00040913          	mv	s2,s0
10009c74:	00000c93          	li	s9,0
10009c78:	000da503          	lw	a0,0(s11)
10009c7c:	000c0593          	mv	a1,s8
10009c80:	01095913          	srli	s2,s2,0x10
10009c84:	00957533          	and	a0,a0,s1
10009c88:	1340a0ef          	jal	ra,10013dbc <__mulsi3>
10009c8c:	012507b3          	add	a5,a0,s2
10009c90:	01978cb3          	add	s9,a5,s9
10009c94:	00947433          	and	s0,s0,s1
10009c98:	010c9613          	slli	a2,s9,0x10
10009c9c:	00866633          	or	a2,a2,s0
10009ca0:	00cd2023          	sw	a2,0(s10)
10009ca4:	002dd503          	lhu	a0,2(s11)
10009ca8:	004d2903          	lw	s2,4(s10)
10009cac:	000c0593          	mv	a1,s8
10009cb0:	10c0a0ef          	jal	ra,10013dbc <__mulsi3>
10009cb4:	00997633          	and	a2,s2,s1
10009cb8:	010cd793          	srli	a5,s9,0x10
10009cbc:	00c50433          	add	s0,a0,a2
10009cc0:	00f40433          	add	s0,s0,a5
10009cc4:	004d8d93          	addi	s11,s11,4
10009cc8:	004d0d13          	addi	s10,s10,4
10009ccc:	01045c93          	srli	s9,s0,0x10
10009cd0:	fb3de4e3          	bltu	s11,s3,10009c78 <__multiply+0x19c>
10009cd4:	00412783          	lw	a5,4(sp)
10009cd8:	004a0a13          	addi	s4,s4,4
10009cdc:	00fb07b3          	add	a5,s6,a5
10009ce0:	0087a023          	sw	s0,0(a5)
10009ce4:	00012783          	lw	a5,0(sp)
10009ce8:	004b0b13          	addi	s6,s6,4
10009cec:	eefa66e3          	bltu	s4,a5,10009bd8 <__multiply+0xfc>
10009cf0:	01704863          	bgtz	s7,10009d00 <__multiply+0x224>
10009cf4:	0180006f          	j	10009d0c <__multiply+0x230>
10009cf8:	fffb8b93          	addi	s7,s7,-1
10009cfc:	000b8863          	beqz	s7,10009d0c <__multiply+0x230>
10009d00:	ffcaa783          	lw	a5,-4(s5)
10009d04:	ffca8a93          	addi	s5,s5,-4
10009d08:	fe0788e3          	beqz	a5,10009cf8 <__multiply+0x21c>
10009d0c:	00c12783          	lw	a5,12(sp)
10009d10:	04c12083          	lw	ra,76(sp)
10009d14:	04812403          	lw	s0,72(sp)
10009d18:	0177a823          	sw	s7,16(a5)
10009d1c:	04412483          	lw	s1,68(sp)
10009d20:	04012903          	lw	s2,64(sp)
10009d24:	03c12983          	lw	s3,60(sp)
10009d28:	03812a03          	lw	s4,56(sp)
10009d2c:	03412a83          	lw	s5,52(sp)
10009d30:	03012b03          	lw	s6,48(sp)
10009d34:	02c12b83          	lw	s7,44(sp)
10009d38:	02812c03          	lw	s8,40(sp)
10009d3c:	02412c83          	lw	s9,36(sp)
10009d40:	02012d03          	lw	s10,32(sp)
10009d44:	01c12d83          	lw	s11,28(sp)
10009d48:	00078513          	mv	a0,a5
10009d4c:	05010113          	addi	sp,sp,80
10009d50:	00008067          	ret
10009d54:	408987b3          	sub	a5,s3,s0
10009d58:	feb78793          	addi	a5,a5,-21
10009d5c:	ffc7f793          	andi	a5,a5,-4
10009d60:	00478793          	addi	a5,a5,4
10009d64:	00f12223          	sw	a5,4(sp)
10009d68:	e4dff06f          	j	10009bb4 <__multiply+0xd8>
10009d6c:	100146b7          	lui	a3,0x10014
10009d70:	10014537          	lui	a0,0x10014
10009d74:	2a868693          	addi	a3,a3,680 # 100142a8 <zeroes.0+0x30>
10009d78:	00000613          	li	a2,0
10009d7c:	15d00593          	li	a1,349
10009d80:	57850513          	addi	a0,a0,1400 # 10014578 <bmask+0x34>
10009d84:	171020ef          	jal	ra,1000c6f4 <__assert_func>

10009d88 <__pow5mult>:
10009d88:	fe010113          	addi	sp,sp,-32
10009d8c:	00812c23          	sw	s0,24(sp)
10009d90:	01212823          	sw	s2,16(sp)
10009d94:	01312623          	sw	s3,12(sp)
10009d98:	00112e23          	sw	ra,28(sp)
10009d9c:	00912a23          	sw	s1,20(sp)
10009da0:	00367793          	andi	a5,a2,3
10009da4:	00060413          	mv	s0,a2
10009da8:	00050993          	mv	s3,a0
10009dac:	00058913          	mv	s2,a1
10009db0:	0a079e63          	bnez	a5,10009e6c <__pow5mult+0xe4>
10009db4:	40245413          	srai	s0,s0,0x2
10009db8:	06040663          	beqz	s0,10009e24 <__pow5mult+0x9c>
10009dbc:	0489a483          	lw	s1,72(s3)
10009dc0:	0c048a63          	beqz	s1,10009e94 <__pow5mult+0x10c>
10009dc4:	00147793          	andi	a5,s0,1
10009dc8:	02079063          	bnez	a5,10009de8 <__pow5mult+0x60>
10009dcc:	40145413          	srai	s0,s0,0x1
10009dd0:	04040a63          	beqz	s0,10009e24 <__pow5mult+0x9c>
10009dd4:	0004a503          	lw	a0,0(s1)
10009dd8:	06050663          	beqz	a0,10009e44 <__pow5mult+0xbc>
10009ddc:	00050493          	mv	s1,a0
10009de0:	00147793          	andi	a5,s0,1
10009de4:	fe0784e3          	beqz	a5,10009dcc <__pow5mult+0x44>
10009de8:	00048613          	mv	a2,s1
10009dec:	00090593          	mv	a1,s2
10009df0:	00098513          	mv	a0,s3
10009df4:	ce9ff0ef          	jal	ra,10009adc <__multiply>
10009df8:	06090663          	beqz	s2,10009e64 <__pow5mult+0xdc>
10009dfc:	00492703          	lw	a4,4(s2)
10009e00:	04c9a783          	lw	a5,76(s3)
10009e04:	40145413          	srai	s0,s0,0x1
10009e08:	00271713          	slli	a4,a4,0x2
10009e0c:	00e787b3          	add	a5,a5,a4
10009e10:	0007a703          	lw	a4,0(a5)
10009e14:	00e92023          	sw	a4,0(s2)
10009e18:	0127a023          	sw	s2,0(a5)
10009e1c:	00050913          	mv	s2,a0
10009e20:	fa041ae3          	bnez	s0,10009dd4 <__pow5mult+0x4c>
10009e24:	01c12083          	lw	ra,28(sp)
10009e28:	01812403          	lw	s0,24(sp)
10009e2c:	01412483          	lw	s1,20(sp)
10009e30:	00c12983          	lw	s3,12(sp)
10009e34:	00090513          	mv	a0,s2
10009e38:	01012903          	lw	s2,16(sp)
10009e3c:	02010113          	addi	sp,sp,32
10009e40:	00008067          	ret
10009e44:	00048613          	mv	a2,s1
10009e48:	00048593          	mv	a1,s1
10009e4c:	00098513          	mv	a0,s3
10009e50:	c8dff0ef          	jal	ra,10009adc <__multiply>
10009e54:	00a4a023          	sw	a0,0(s1)
10009e58:	00052023          	sw	zero,0(a0)
10009e5c:	00050493          	mv	s1,a0
10009e60:	f81ff06f          	j	10009de0 <__pow5mult+0x58>
10009e64:	00050913          	mv	s2,a0
10009e68:	f65ff06f          	j	10009dcc <__pow5mult+0x44>
10009e6c:	fff78793          	addi	a5,a5,-1
10009e70:	10014737          	lui	a4,0x10014
10009e74:	5c870713          	addi	a4,a4,1480 # 100145c8 <p05.0>
10009e78:	00279793          	slli	a5,a5,0x2
10009e7c:	00f707b3          	add	a5,a4,a5
10009e80:	0007a603          	lw	a2,0(a5)
10009e84:	00000693          	li	a3,0
10009e88:	f9cff0ef          	jal	ra,10009624 <__multadd>
10009e8c:	00050913          	mv	s2,a0
10009e90:	f25ff06f          	j	10009db4 <__pow5mult+0x2c>
10009e94:	00100593          	li	a1,1
10009e98:	00098513          	mv	a0,s3
10009e9c:	ebcff0ef          	jal	ra,10009558 <_Balloc>
10009ea0:	00050493          	mv	s1,a0
10009ea4:	02050063          	beqz	a0,10009ec4 <__pow5mult+0x13c>
10009ea8:	27100793          	li	a5,625
10009eac:	00f52a23          	sw	a5,20(a0)
10009eb0:	00100793          	li	a5,1
10009eb4:	00f52823          	sw	a5,16(a0)
10009eb8:	04a9a423          	sw	a0,72(s3)
10009ebc:	00052023          	sw	zero,0(a0)
10009ec0:	f05ff06f          	j	10009dc4 <__pow5mult+0x3c>
10009ec4:	100146b7          	lui	a3,0x10014
10009ec8:	10014537          	lui	a0,0x10014
10009ecc:	2a868693          	addi	a3,a3,680 # 100142a8 <zeroes.0+0x30>
10009ed0:	00000613          	li	a2,0
10009ed4:	14000593          	li	a1,320
10009ed8:	57850513          	addi	a0,a0,1400 # 10014578 <bmask+0x34>
10009edc:	019020ef          	jal	ra,1000c6f4 <__assert_func>

10009ee0 <__lshift>:
10009ee0:	fe010113          	addi	sp,sp,-32
10009ee4:	01412423          	sw	s4,8(sp)
10009ee8:	0105aa03          	lw	s4,16(a1)
10009eec:	0085a783          	lw	a5,8(a1)
10009ef0:	01312623          	sw	s3,12(sp)
10009ef4:	40565993          	srai	s3,a2,0x5
10009ef8:	01498a33          	add	s4,s3,s4
10009efc:	00812c23          	sw	s0,24(sp)
10009f00:	00912a23          	sw	s1,20(sp)
10009f04:	01212823          	sw	s2,16(sp)
10009f08:	01512223          	sw	s5,4(sp)
10009f0c:	00112e23          	sw	ra,28(sp)
10009f10:	001a0913          	addi	s2,s4,1
10009f14:	00058493          	mv	s1,a1
10009f18:	00060413          	mv	s0,a2
10009f1c:	0045a583          	lw	a1,4(a1)
10009f20:	00050a93          	mv	s5,a0
10009f24:	0127d863          	bge	a5,s2,10009f34 <__lshift+0x54>
10009f28:	00179793          	slli	a5,a5,0x1
10009f2c:	00158593          	addi	a1,a1,1
10009f30:	ff27cce3          	blt	a5,s2,10009f28 <__lshift+0x48>
10009f34:	000a8513          	mv	a0,s5
10009f38:	e20ff0ef          	jal	ra,10009558 <_Balloc>
10009f3c:	10050c63          	beqz	a0,1000a054 <__lshift+0x174>
10009f40:	01450813          	addi	a6,a0,20
10009f44:	03305463          	blez	s3,10009f6c <__lshift+0x8c>
10009f48:	00598993          	addi	s3,s3,5
10009f4c:	00299993          	slli	s3,s3,0x2
10009f50:	01350733          	add	a4,a0,s3
10009f54:	00080793          	mv	a5,a6
10009f58:	00478793          	addi	a5,a5,4
10009f5c:	fe07ae23          	sw	zero,-4(a5)
10009f60:	fee79ce3          	bne	a5,a4,10009f58 <__lshift+0x78>
10009f64:	fec98993          	addi	s3,s3,-20
10009f68:	01380833          	add	a6,a6,s3
10009f6c:	0104a883          	lw	a7,16(s1)
10009f70:	01448793          	addi	a5,s1,20
10009f74:	01f47613          	andi	a2,s0,31
10009f78:	00289893          	slli	a7,a7,0x2
10009f7c:	011788b3          	add	a7,a5,a7
10009f80:	0a060463          	beqz	a2,1000a028 <__lshift+0x148>
10009f84:	02000593          	li	a1,32
10009f88:	40c585b3          	sub	a1,a1,a2
10009f8c:	00080313          	mv	t1,a6
10009f90:	00000693          	li	a3,0
10009f94:	0007a703          	lw	a4,0(a5)
10009f98:	00430313          	addi	t1,t1,4
10009f9c:	00478793          	addi	a5,a5,4
10009fa0:	00c71733          	sll	a4,a4,a2
10009fa4:	00d76733          	or	a4,a4,a3
10009fa8:	fee32e23          	sw	a4,-4(t1)
10009fac:	ffc7a683          	lw	a3,-4(a5)
10009fb0:	00b6d6b3          	srl	a3,a3,a1
10009fb4:	ff17e0e3          	bltu	a5,a7,10009f94 <__lshift+0xb4>
10009fb8:	01548793          	addi	a5,s1,21
10009fbc:	00400713          	li	a4,4
10009fc0:	00f8ea63          	bltu	a7,a5,10009fd4 <__lshift+0xf4>
10009fc4:	409887b3          	sub	a5,a7,s1
10009fc8:	feb78793          	addi	a5,a5,-21
10009fcc:	ffc7f793          	andi	a5,a5,-4
10009fd0:	00478713          	addi	a4,a5,4
10009fd4:	00e80833          	add	a6,a6,a4
10009fd8:	00d82023          	sw	a3,0(a6)
10009fdc:	00068463          	beqz	a3,10009fe4 <__lshift+0x104>
10009fe0:	00090a13          	mv	s4,s2
10009fe4:	0044a703          	lw	a4,4(s1)
10009fe8:	04caa783          	lw	a5,76(s5)
10009fec:	01c12083          	lw	ra,28(sp)
10009ff0:	00271713          	slli	a4,a4,0x2
10009ff4:	00e787b3          	add	a5,a5,a4
10009ff8:	0007a703          	lw	a4,0(a5)
10009ffc:	01452823          	sw	s4,16(a0)
1000a000:	01812403          	lw	s0,24(sp)
1000a004:	00e4a023          	sw	a4,0(s1)
1000a008:	0097a023          	sw	s1,0(a5)
1000a00c:	01012903          	lw	s2,16(sp)
1000a010:	01412483          	lw	s1,20(sp)
1000a014:	00c12983          	lw	s3,12(sp)
1000a018:	00812a03          	lw	s4,8(sp)
1000a01c:	00412a83          	lw	s5,4(sp)
1000a020:	02010113          	addi	sp,sp,32
1000a024:	00008067          	ret
1000a028:	0007a703          	lw	a4,0(a5)
1000a02c:	00478793          	addi	a5,a5,4
1000a030:	00480813          	addi	a6,a6,4
1000a034:	fee82e23          	sw	a4,-4(a6)
1000a038:	fb17f6e3          	bgeu	a5,a7,10009fe4 <__lshift+0x104>
1000a03c:	0007a703          	lw	a4,0(a5)
1000a040:	00478793          	addi	a5,a5,4
1000a044:	00480813          	addi	a6,a6,4
1000a048:	fee82e23          	sw	a4,-4(a6)
1000a04c:	fd17eee3          	bltu	a5,a7,1000a028 <__lshift+0x148>
1000a050:	f95ff06f          	j	10009fe4 <__lshift+0x104>
1000a054:	100146b7          	lui	a3,0x10014
1000a058:	10014537          	lui	a0,0x10014
1000a05c:	2a868693          	addi	a3,a3,680 # 100142a8 <zeroes.0+0x30>
1000a060:	00000613          	li	a2,0
1000a064:	1d900593          	li	a1,473
1000a068:	57850513          	addi	a0,a0,1400 # 10014578 <bmask+0x34>
1000a06c:	688020ef          	jal	ra,1000c6f4 <__assert_func>

1000a070 <__mcmp>:
1000a070:	01052703          	lw	a4,16(a0)
1000a074:	0105a783          	lw	a5,16(a1)
1000a078:	00050813          	mv	a6,a0
1000a07c:	40f70533          	sub	a0,a4,a5
1000a080:	04f71263          	bne	a4,a5,1000a0c4 <__mcmp+0x54>
1000a084:	00279793          	slli	a5,a5,0x2
1000a088:	01480813          	addi	a6,a6,20
1000a08c:	01458593          	addi	a1,a1,20
1000a090:	00f80733          	add	a4,a6,a5
1000a094:	00f587b3          	add	a5,a1,a5
1000a098:	0080006f          	j	1000a0a0 <__mcmp+0x30>
1000a09c:	02e87463          	bgeu	a6,a4,1000a0c4 <__mcmp+0x54>
1000a0a0:	ffc72683          	lw	a3,-4(a4)
1000a0a4:	ffc7a603          	lw	a2,-4(a5)
1000a0a8:	ffc70713          	addi	a4,a4,-4
1000a0ac:	ffc78793          	addi	a5,a5,-4
1000a0b0:	fec686e3          	beq	a3,a2,1000a09c <__mcmp+0x2c>
1000a0b4:	00c6b6b3          	sltu	a3,a3,a2
1000a0b8:	40d006b3          	neg	a3,a3
1000a0bc:	0016e513          	ori	a0,a3,1
1000a0c0:	00008067          	ret
1000a0c4:	00008067          	ret

1000a0c8 <__mdiff>:
1000a0c8:	0105a703          	lw	a4,16(a1)
1000a0cc:	01062783          	lw	a5,16(a2)
1000a0d0:	ff010113          	addi	sp,sp,-16
1000a0d4:	00812423          	sw	s0,8(sp)
1000a0d8:	00912223          	sw	s1,4(sp)
1000a0dc:	01212023          	sw	s2,0(sp)
1000a0e0:	00112623          	sw	ra,12(sp)
1000a0e4:	00058493          	mv	s1,a1
1000a0e8:	00060413          	mv	s0,a2
1000a0ec:	40f70933          	sub	s2,a4,a5
1000a0f0:	1af71463          	bne	a4,a5,1000a298 <__mdiff+0x1d0>
1000a0f4:	00279693          	slli	a3,a5,0x2
1000a0f8:	01458593          	addi	a1,a1,20
1000a0fc:	01460713          	addi	a4,a2,20
1000a100:	00d587b3          	add	a5,a1,a3
1000a104:	00d70733          	add	a4,a4,a3
1000a108:	0080006f          	j	1000a110 <__mdiff+0x48>
1000a10c:	18f5fc63          	bgeu	a1,a5,1000a2a4 <__mdiff+0x1dc>
1000a110:	ffc7a603          	lw	a2,-4(a5)
1000a114:	ffc72683          	lw	a3,-4(a4)
1000a118:	ffc78793          	addi	a5,a5,-4
1000a11c:	ffc70713          	addi	a4,a4,-4
1000a120:	fed606e3          	beq	a2,a3,1000a10c <__mdiff+0x44>
1000a124:	16d66063          	bltu	a2,a3,1000a284 <__mdiff+0x1bc>
1000a128:	0044a583          	lw	a1,4(s1)
1000a12c:	c2cff0ef          	jal	ra,10009558 <_Balloc>
1000a130:	1a050263          	beqz	a0,1000a2d4 <__mdiff+0x20c>
1000a134:	0104ae03          	lw	t3,16(s1)
1000a138:	01042583          	lw	a1,16(s0)
1000a13c:	01448493          	addi	s1,s1,20
1000a140:	002e1e93          	slli	t4,t3,0x2
1000a144:	01440813          	addi	a6,s0,20
1000a148:	00259593          	slli	a1,a1,0x2
1000a14c:	01450613          	addi	a2,a0,20
1000a150:	000108b7          	lui	a7,0x10
1000a154:	01252623          	sw	s2,12(a0)
1000a158:	01d48eb3          	add	t4,s1,t4
1000a15c:	00b805b3          	add	a1,a6,a1
1000a160:	00060f13          	mv	t5,a2
1000a164:	00048313          	mv	t1,s1
1000a168:	00000f93          	li	t6,0
1000a16c:	fff88893          	addi	a7,a7,-1 # ffff <__heap_size+0xefff>
1000a170:	00032783          	lw	a5,0(t1)
1000a174:	00082683          	lw	a3,0(a6)
1000a178:	004f0f13          	addi	t5,t5,4
1000a17c:	0117f733          	and	a4,a5,a7
1000a180:	01f70733          	add	a4,a4,t6
1000a184:	0116ffb3          	and	t6,a3,a7
1000a188:	41f70733          	sub	a4,a4,t6
1000a18c:	0106d693          	srli	a3,a3,0x10
1000a190:	0107d793          	srli	a5,a5,0x10
1000a194:	40d787b3          	sub	a5,a5,a3
1000a198:	41075693          	srai	a3,a4,0x10
1000a19c:	00d787b3          	add	a5,a5,a3
1000a1a0:	01079693          	slli	a3,a5,0x10
1000a1a4:	01177733          	and	a4,a4,a7
1000a1a8:	00e6e733          	or	a4,a3,a4
1000a1ac:	00480813          	addi	a6,a6,4
1000a1b0:	feef2e23          	sw	a4,-4(t5)
1000a1b4:	00430313          	addi	t1,t1,4
1000a1b8:	4107df93          	srai	t6,a5,0x10
1000a1bc:	fab86ae3          	bltu	a6,a1,1000a170 <__mdiff+0xa8>
1000a1c0:	408586b3          	sub	a3,a1,s0
1000a1c4:	feb68693          	addi	a3,a3,-21
1000a1c8:	01540413          	addi	s0,s0,21
1000a1cc:	0026d693          	srli	a3,a3,0x2
1000a1d0:	00000793          	li	a5,0
1000a1d4:	0085e463          	bltu	a1,s0,1000a1dc <__mdiff+0x114>
1000a1d8:	00269793          	slli	a5,a3,0x2
1000a1dc:	00f607b3          	add	a5,a2,a5
1000a1e0:	00400813          	li	a6,4
1000a1e4:	0085e663          	bltu	a1,s0,1000a1f0 <__mdiff+0x128>
1000a1e8:	00168693          	addi	a3,a3,1
1000a1ec:	00269813          	slli	a6,a3,0x2
1000a1f0:	010484b3          	add	s1,s1,a6
1000a1f4:	010608b3          	add	a7,a2,a6
1000a1f8:	05d4fe63          	bgeu	s1,t4,1000a254 <__mdiff+0x18c>
1000a1fc:	00010837          	lui	a6,0x10
1000a200:	00088593          	mv	a1,a7
1000a204:	00048613          	mv	a2,s1
1000a208:	fff80813          	addi	a6,a6,-1 # ffff <__heap_size+0xefff>
1000a20c:	00062783          	lw	a5,0(a2)
1000a210:	00458593          	addi	a1,a1,4
1000a214:	00460613          	addi	a2,a2,4
1000a218:	0107f6b3          	and	a3,a5,a6
1000a21c:	01f686b3          	add	a3,a3,t6
1000a220:	4106d713          	srai	a4,a3,0x10
1000a224:	0107d793          	srli	a5,a5,0x10
1000a228:	00e787b3          	add	a5,a5,a4
1000a22c:	01079713          	slli	a4,a5,0x10
1000a230:	0106f6b3          	and	a3,a3,a6
1000a234:	00d76733          	or	a4,a4,a3
1000a238:	fee5ae23          	sw	a4,-4(a1)
1000a23c:	4107df93          	srai	t6,a5,0x10
1000a240:	fdd666e3          	bltu	a2,t4,1000a20c <__mdiff+0x144>
1000a244:	fffe8e93          	addi	t4,t4,-1
1000a248:	409e8eb3          	sub	t4,t4,s1
1000a24c:	ffcefe93          	andi	t4,t4,-4
1000a250:	01d887b3          	add	a5,a7,t4
1000a254:	00071a63          	bnez	a4,1000a268 <__mdiff+0x1a0>
1000a258:	ffc7a703          	lw	a4,-4(a5)
1000a25c:	fffe0e13          	addi	t3,t3,-1
1000a260:	ffc78793          	addi	a5,a5,-4
1000a264:	fe070ae3          	beqz	a4,1000a258 <__mdiff+0x190>
1000a268:	00c12083          	lw	ra,12(sp)
1000a26c:	00812403          	lw	s0,8(sp)
1000a270:	01c52823          	sw	t3,16(a0)
1000a274:	00412483          	lw	s1,4(sp)
1000a278:	00012903          	lw	s2,0(sp)
1000a27c:	01010113          	addi	sp,sp,16
1000a280:	00008067          	ret
1000a284:	00048793          	mv	a5,s1
1000a288:	00100913          	li	s2,1
1000a28c:	00040493          	mv	s1,s0
1000a290:	00078413          	mv	s0,a5
1000a294:	e95ff06f          	j	1000a128 <__mdiff+0x60>
1000a298:	fe0946e3          	bltz	s2,1000a284 <__mdiff+0x1bc>
1000a29c:	00000913          	li	s2,0
1000a2a0:	e89ff06f          	j	1000a128 <__mdiff+0x60>
1000a2a4:	00000593          	li	a1,0
1000a2a8:	ab0ff0ef          	jal	ra,10009558 <_Balloc>
1000a2ac:	04050263          	beqz	a0,1000a2f0 <__mdiff+0x228>
1000a2b0:	00c12083          	lw	ra,12(sp)
1000a2b4:	00812403          	lw	s0,8(sp)
1000a2b8:	00100793          	li	a5,1
1000a2bc:	00f52823          	sw	a5,16(a0)
1000a2c0:	00052a23          	sw	zero,20(a0)
1000a2c4:	00412483          	lw	s1,4(sp)
1000a2c8:	00012903          	lw	s2,0(sp)
1000a2cc:	01010113          	addi	sp,sp,16
1000a2d0:	00008067          	ret
1000a2d4:	100146b7          	lui	a3,0x10014
1000a2d8:	10014537          	lui	a0,0x10014
1000a2dc:	2a868693          	addi	a3,a3,680 # 100142a8 <zeroes.0+0x30>
1000a2e0:	00000613          	li	a2,0
1000a2e4:	24000593          	li	a1,576
1000a2e8:	57850513          	addi	a0,a0,1400 # 10014578 <bmask+0x34>
1000a2ec:	408020ef          	jal	ra,1000c6f4 <__assert_func>
1000a2f0:	100146b7          	lui	a3,0x10014
1000a2f4:	10014537          	lui	a0,0x10014
1000a2f8:	2a868693          	addi	a3,a3,680 # 100142a8 <zeroes.0+0x30>
1000a2fc:	00000613          	li	a2,0
1000a300:	23200593          	li	a1,562
1000a304:	57850513          	addi	a0,a0,1400 # 10014578 <bmask+0x34>
1000a308:	3ec020ef          	jal	ra,1000c6f4 <__assert_func>

1000a30c <__ulp>:
1000a30c:	7ff007b7          	lui	a5,0x7ff00
1000a310:	00b7f5b3          	and	a1,a5,a1
1000a314:	fcc007b7          	lui	a5,0xfcc00
1000a318:	00f585b3          	add	a1,a1,a5
1000a31c:	00000793          	li	a5,0
1000a320:	00b05663          	blez	a1,1000a32c <__ulp+0x20>
1000a324:	00078513          	mv	a0,a5
1000a328:	00008067          	ret
1000a32c:	40b005b3          	neg	a1,a1
1000a330:	4145d593          	srai	a1,a1,0x14
1000a334:	01300793          	li	a5,19
1000a338:	00b7cc63          	blt	a5,a1,1000a350 <__ulp+0x44>
1000a33c:	000807b7          	lui	a5,0x80
1000a340:	40b7d5b3          	sra	a1,a5,a1
1000a344:	00000793          	li	a5,0
1000a348:	00078513          	mv	a0,a5
1000a34c:	00008067          	ret
1000a350:	fec58593          	addi	a1,a1,-20
1000a354:	01e00713          	li	a4,30
1000a358:	00100793          	li	a5,1
1000a35c:	00b74663          	blt	a4,a1,1000a368 <__ulp+0x5c>
1000a360:	800007b7          	lui	a5,0x80000
1000a364:	00b7d7b3          	srl	a5,a5,a1
1000a368:	00000593          	li	a1,0
1000a36c:	00078513          	mv	a0,a5
1000a370:	00008067          	ret

1000a374 <__b2d>:
1000a374:	fe010113          	addi	sp,sp,-32
1000a378:	00912a23          	sw	s1,20(sp)
1000a37c:	01052483          	lw	s1,16(a0)
1000a380:	00812c23          	sw	s0,24(sp)
1000a384:	01450413          	addi	s0,a0,20
1000a388:	00249493          	slli	s1,s1,0x2
1000a38c:	009404b3          	add	s1,s0,s1
1000a390:	01212823          	sw	s2,16(sp)
1000a394:	ffc4a903          	lw	s2,-4(s1)
1000a398:	01312623          	sw	s3,12(sp)
1000a39c:	01412423          	sw	s4,8(sp)
1000a3a0:	00090513          	mv	a0,s2
1000a3a4:	00058993          	mv	s3,a1
1000a3a8:	00112e23          	sw	ra,28(sp)
1000a3ac:	d28ff0ef          	jal	ra,100098d4 <__hi0bits>
1000a3b0:	02000713          	li	a4,32
1000a3b4:	40a707b3          	sub	a5,a4,a0
1000a3b8:	00f9a023          	sw	a5,0(s3)
1000a3bc:	00a00793          	li	a5,10
1000a3c0:	ffc48a13          	addi	s4,s1,-4
1000a3c4:	08a7d063          	bge	a5,a0,1000a444 <__b2d+0xd0>
1000a3c8:	ff550513          	addi	a0,a0,-11
1000a3cc:	05447063          	bgeu	s0,s4,1000a40c <__b2d+0x98>
1000a3d0:	ff84a783          	lw	a5,-8(s1)
1000a3d4:	04050063          	beqz	a0,1000a414 <__b2d+0xa0>
1000a3d8:	40a706b3          	sub	a3,a4,a0
1000a3dc:	00d7d733          	srl	a4,a5,a3
1000a3e0:	00a91933          	sll	s2,s2,a0
1000a3e4:	00e96933          	or	s2,s2,a4
1000a3e8:	ff848613          	addi	a2,s1,-8
1000a3ec:	3ff00737          	lui	a4,0x3ff00
1000a3f0:	00e96733          	or	a4,s2,a4
1000a3f4:	00a797b3          	sll	a5,a5,a0
1000a3f8:	02c47263          	bgeu	s0,a2,1000a41c <__b2d+0xa8>
1000a3fc:	ff44a603          	lw	a2,-12(s1)
1000a400:	00d656b3          	srl	a3,a2,a3
1000a404:	00d7e7b3          	or	a5,a5,a3
1000a408:	0140006f          	j	1000a41c <__b2d+0xa8>
1000a40c:	00000793          	li	a5,0
1000a410:	06051463          	bnez	a0,1000a478 <__b2d+0x104>
1000a414:	3ff00737          	lui	a4,0x3ff00
1000a418:	00e96733          	or	a4,s2,a4
1000a41c:	01c12083          	lw	ra,28(sp)
1000a420:	01812403          	lw	s0,24(sp)
1000a424:	01412483          	lw	s1,20(sp)
1000a428:	01012903          	lw	s2,16(sp)
1000a42c:	00c12983          	lw	s3,12(sp)
1000a430:	00812a03          	lw	s4,8(sp)
1000a434:	00078513          	mv	a0,a5
1000a438:	00070593          	mv	a1,a4
1000a43c:	02010113          	addi	sp,sp,32
1000a440:	00008067          	ret
1000a444:	00b00693          	li	a3,11
1000a448:	40a686b3          	sub	a3,a3,a0
1000a44c:	3ff007b7          	lui	a5,0x3ff00
1000a450:	00d95733          	srl	a4,s2,a3
1000a454:	00f76733          	or	a4,a4,a5
1000a458:	00000793          	li	a5,0
1000a45c:	01447663          	bgeu	s0,s4,1000a468 <__b2d+0xf4>
1000a460:	ff84a783          	lw	a5,-8(s1)
1000a464:	00d7d7b3          	srl	a5,a5,a3
1000a468:	01550513          	addi	a0,a0,21
1000a46c:	00a91933          	sll	s2,s2,a0
1000a470:	00f967b3          	or	a5,s2,a5
1000a474:	fa9ff06f          	j	1000a41c <__b2d+0xa8>
1000a478:	00a91933          	sll	s2,s2,a0
1000a47c:	3ff00737          	lui	a4,0x3ff00
1000a480:	00e96733          	or	a4,s2,a4
1000a484:	00000793          	li	a5,0
1000a488:	f95ff06f          	j	1000a41c <__b2d+0xa8>

1000a48c <__d2b>:
1000a48c:	fd010113          	addi	sp,sp,-48
1000a490:	01512a23          	sw	s5,20(sp)
1000a494:	00058a93          	mv	s5,a1
1000a498:	00100593          	li	a1,1
1000a49c:	02912223          	sw	s1,36(sp)
1000a4a0:	01312e23          	sw	s3,28(sp)
1000a4a4:	01412c23          	sw	s4,24(sp)
1000a4a8:	02112623          	sw	ra,44(sp)
1000a4ac:	02812423          	sw	s0,40(sp)
1000a4b0:	03212023          	sw	s2,32(sp)
1000a4b4:	00060493          	mv	s1,a2
1000a4b8:	00068a13          	mv	s4,a3
1000a4bc:	00070993          	mv	s3,a4
1000a4c0:	898ff0ef          	jal	ra,10009558 <_Balloc>
1000a4c4:	10050463          	beqz	a0,1000a5cc <__d2b+0x140>
1000a4c8:	00100737          	lui	a4,0x100
1000a4cc:	0144d913          	srli	s2,s1,0x14
1000a4d0:	fff70793          	addi	a5,a4,-1 # fffff <__heap_size+0xfefff>
1000a4d4:	7ff97913          	andi	s2,s2,2047
1000a4d8:	00050413          	mv	s0,a0
1000a4dc:	0097f7b3          	and	a5,a5,s1
1000a4e0:	00090463          	beqz	s2,1000a4e8 <__d2b+0x5c>
1000a4e4:	00e7e7b3          	or	a5,a5,a4
1000a4e8:	00f12623          	sw	a5,12(sp)
1000a4ec:	060a9263          	bnez	s5,1000a550 <__d2b+0xc4>
1000a4f0:	00c10513          	addi	a0,sp,12
1000a4f4:	c58ff0ef          	jal	ra,1000994c <__lo0bits>
1000a4f8:	00c12703          	lw	a4,12(sp)
1000a4fc:	00100493          	li	s1,1
1000a500:	00942823          	sw	s1,16(s0)
1000a504:	00e42a23          	sw	a4,20(s0)
1000a508:	02050793          	addi	a5,a0,32
1000a50c:	08090863          	beqz	s2,1000a59c <__d2b+0x110>
1000a510:	bcd90913          	addi	s2,s2,-1075
1000a514:	00f90933          	add	s2,s2,a5
1000a518:	03500493          	li	s1,53
1000a51c:	012a2023          	sw	s2,0(s4)
1000a520:	40f48533          	sub	a0,s1,a5
1000a524:	00a9a023          	sw	a0,0(s3)
1000a528:	02c12083          	lw	ra,44(sp)
1000a52c:	00040513          	mv	a0,s0
1000a530:	02812403          	lw	s0,40(sp)
1000a534:	02412483          	lw	s1,36(sp)
1000a538:	02012903          	lw	s2,32(sp)
1000a53c:	01c12983          	lw	s3,28(sp)
1000a540:	01812a03          	lw	s4,24(sp)
1000a544:	01412a83          	lw	s5,20(sp)
1000a548:	03010113          	addi	sp,sp,48
1000a54c:	00008067          	ret
1000a550:	00810513          	addi	a0,sp,8
1000a554:	01512423          	sw	s5,8(sp)
1000a558:	bf4ff0ef          	jal	ra,1000994c <__lo0bits>
1000a55c:	00c12703          	lw	a4,12(sp)
1000a560:	00050793          	mv	a5,a0
1000a564:	04050e63          	beqz	a0,1000a5c0 <__d2b+0x134>
1000a568:	00812603          	lw	a2,8(sp)
1000a56c:	02000693          	li	a3,32
1000a570:	40a686b3          	sub	a3,a3,a0
1000a574:	00d716b3          	sll	a3,a4,a3
1000a578:	00c6e6b3          	or	a3,a3,a2
1000a57c:	00a75733          	srl	a4,a4,a0
1000a580:	00d42a23          	sw	a3,20(s0)
1000a584:	00e12623          	sw	a4,12(sp)
1000a588:	00e034b3          	snez	s1,a4
1000a58c:	00148493          	addi	s1,s1,1
1000a590:	00e42c23          	sw	a4,24(s0)
1000a594:	00942823          	sw	s1,16(s0)
1000a598:	f6091ce3          	bnez	s2,1000a510 <__d2b+0x84>
1000a59c:	00249713          	slli	a4,s1,0x2
1000a5a0:	00e40733          	add	a4,s0,a4
1000a5a4:	01072503          	lw	a0,16(a4)
1000a5a8:	bce78793          	addi	a5,a5,-1074 # 3feffbce <_sp+0x2fed7662>
1000a5ac:	00fa2023          	sw	a5,0(s4)
1000a5b0:	b24ff0ef          	jal	ra,100098d4 <__hi0bits>
1000a5b4:	00549493          	slli	s1,s1,0x5
1000a5b8:	40a48533          	sub	a0,s1,a0
1000a5bc:	f69ff06f          	j	1000a524 <__d2b+0x98>
1000a5c0:	00812683          	lw	a3,8(sp)
1000a5c4:	00d42a23          	sw	a3,20(s0)
1000a5c8:	fc1ff06f          	j	1000a588 <__d2b+0xfc>
1000a5cc:	100146b7          	lui	a3,0x10014
1000a5d0:	10014537          	lui	a0,0x10014
1000a5d4:	2a868693          	addi	a3,a3,680 # 100142a8 <zeroes.0+0x30>
1000a5d8:	00000613          	li	a2,0
1000a5dc:	30a00593          	li	a1,778
1000a5e0:	57850513          	addi	a0,a0,1400 # 10014578 <bmask+0x34>
1000a5e4:	110020ef          	jal	ra,1000c6f4 <__assert_func>

1000a5e8 <__ratio>:
1000a5e8:	fd010113          	addi	sp,sp,-48
1000a5ec:	03212023          	sw	s2,32(sp)
1000a5f0:	00058913          	mv	s2,a1
1000a5f4:	00810593          	addi	a1,sp,8
1000a5f8:	02112623          	sw	ra,44(sp)
1000a5fc:	02812423          	sw	s0,40(sp)
1000a600:	02912223          	sw	s1,36(sp)
1000a604:	01312e23          	sw	s3,28(sp)
1000a608:	00050993          	mv	s3,a0
1000a60c:	d69ff0ef          	jal	ra,1000a374 <__b2d>
1000a610:	00050493          	mv	s1,a0
1000a614:	00058413          	mv	s0,a1
1000a618:	00090513          	mv	a0,s2
1000a61c:	00c10593          	addi	a1,sp,12
1000a620:	d55ff0ef          	jal	ra,1000a374 <__b2d>
1000a624:	01092703          	lw	a4,16(s2)
1000a628:	0109a783          	lw	a5,16(s3)
1000a62c:	00c12683          	lw	a3,12(sp)
1000a630:	40e787b3          	sub	a5,a5,a4
1000a634:	00812703          	lw	a4,8(sp)
1000a638:	00579793          	slli	a5,a5,0x5
1000a63c:	40d70733          	sub	a4,a4,a3
1000a640:	00e787b3          	add	a5,a5,a4
1000a644:	00050713          	mv	a4,a0
1000a648:	02f05e63          	blez	a5,1000a684 <__ratio+0x9c>
1000a64c:	01479793          	slli	a5,a5,0x14
1000a650:	00878433          	add	s0,a5,s0
1000a654:	00058693          	mv	a3,a1
1000a658:	00048513          	mv	a0,s1
1000a65c:	00040593          	mv	a1,s0
1000a660:	00070613          	mv	a2,a4
1000a664:	4cc050ef          	jal	ra,1000fb30 <__divdf3>
1000a668:	02c12083          	lw	ra,44(sp)
1000a66c:	02812403          	lw	s0,40(sp)
1000a670:	02412483          	lw	s1,36(sp)
1000a674:	02012903          	lw	s2,32(sp)
1000a678:	01c12983          	lw	s3,28(sp)
1000a67c:	03010113          	addi	sp,sp,48
1000a680:	00008067          	ret
1000a684:	01479793          	slli	a5,a5,0x14
1000a688:	40f585b3          	sub	a1,a1,a5
1000a68c:	fc9ff06f          	j	1000a654 <__ratio+0x6c>

1000a690 <_mprec_log10>:
1000a690:	ff010113          	addi	sp,sp,-16
1000a694:	01212023          	sw	s2,0(sp)
1000a698:	00112623          	sw	ra,12(sp)
1000a69c:	00812423          	sw	s0,8(sp)
1000a6a0:	00912223          	sw	s1,4(sp)
1000a6a4:	01700793          	li	a5,23
1000a6a8:	00050913          	mv	s2,a0
1000a6ac:	04a7da63          	bge	a5,a0,1000a700 <_mprec_log10+0x70>
1000a6b0:	10015737          	lui	a4,0x10015
1000a6b4:	5e072783          	lw	a5,1504(a4) # 100155e0 <__SDATA_BEGIN__>
1000a6b8:	5e472583          	lw	a1,1508(a4)
1000a6bc:	10015737          	lui	a4,0x10015
1000a6c0:	5e872403          	lw	s0,1512(a4) # 100155e8 <__SDATA_BEGIN__+0x8>
1000a6c4:	5ec72483          	lw	s1,1516(a4)
1000a6c8:	00078513          	mv	a0,a5
1000a6cc:	00040613          	mv	a2,s0
1000a6d0:	00048693          	mv	a3,s1
1000a6d4:	43d050ef          	jal	ra,10010310 <__muldf3>
1000a6d8:	fff90913          	addi	s2,s2,-1
1000a6dc:	00050793          	mv	a5,a0
1000a6e0:	fe0914e3          	bnez	s2,1000a6c8 <_mprec_log10+0x38>
1000a6e4:	00c12083          	lw	ra,12(sp)
1000a6e8:	00812403          	lw	s0,8(sp)
1000a6ec:	00412483          	lw	s1,4(sp)
1000a6f0:	00012903          	lw	s2,0(sp)
1000a6f4:	00078513          	mv	a0,a5
1000a6f8:	01010113          	addi	sp,sp,16
1000a6fc:	00008067          	ret
1000a700:	10014737          	lui	a4,0x10014
1000a704:	00351913          	slli	s2,a0,0x3
1000a708:	5c870713          	addi	a4,a4,1480 # 100145c8 <p05.0>
1000a70c:	01270733          	add	a4,a4,s2
1000a710:	01072783          	lw	a5,16(a4)
1000a714:	00c12083          	lw	ra,12(sp)
1000a718:	00812403          	lw	s0,8(sp)
1000a71c:	01472583          	lw	a1,20(a4)
1000a720:	00412483          	lw	s1,4(sp)
1000a724:	00012903          	lw	s2,0(sp)
1000a728:	00078513          	mv	a0,a5
1000a72c:	01010113          	addi	sp,sp,16
1000a730:	00008067          	ret

1000a734 <__copybits>:
1000a734:	01062683          	lw	a3,16(a2)
1000a738:	fff58593          	addi	a1,a1,-1
1000a73c:	4055d593          	srai	a1,a1,0x5
1000a740:	00158593          	addi	a1,a1,1
1000a744:	01460793          	addi	a5,a2,20
1000a748:	00269693          	slli	a3,a3,0x2
1000a74c:	00259593          	slli	a1,a1,0x2
1000a750:	00d786b3          	add	a3,a5,a3
1000a754:	00b505b3          	add	a1,a0,a1
1000a758:	02d7f863          	bgeu	a5,a3,1000a788 <__copybits+0x54>
1000a75c:	00050713          	mv	a4,a0
1000a760:	0007a803          	lw	a6,0(a5)
1000a764:	00478793          	addi	a5,a5,4
1000a768:	00470713          	addi	a4,a4,4
1000a76c:	ff072e23          	sw	a6,-4(a4)
1000a770:	fed7e8e3          	bltu	a5,a3,1000a760 <__copybits+0x2c>
1000a774:	40c687b3          	sub	a5,a3,a2
1000a778:	feb78793          	addi	a5,a5,-21
1000a77c:	ffc7f793          	andi	a5,a5,-4
1000a780:	00478793          	addi	a5,a5,4
1000a784:	00f50533          	add	a0,a0,a5
1000a788:	00b57863          	bgeu	a0,a1,1000a798 <__copybits+0x64>
1000a78c:	00450513          	addi	a0,a0,4
1000a790:	fe052e23          	sw	zero,-4(a0)
1000a794:	feb56ce3          	bltu	a0,a1,1000a78c <__copybits+0x58>
1000a798:	00008067          	ret

1000a79c <__any_on>:
1000a79c:	01052703          	lw	a4,16(a0)
1000a7a0:	4055d613          	srai	a2,a1,0x5
1000a7a4:	01450693          	addi	a3,a0,20
1000a7a8:	02c75263          	bge	a4,a2,1000a7cc <__any_on+0x30>
1000a7ac:	00271713          	slli	a4,a4,0x2
1000a7b0:	00e687b3          	add	a5,a3,a4
1000a7b4:	04f6f263          	bgeu	a3,a5,1000a7f8 <__any_on+0x5c>
1000a7b8:	ffc7a703          	lw	a4,-4(a5)
1000a7bc:	ffc78793          	addi	a5,a5,-4
1000a7c0:	fe070ae3          	beqz	a4,1000a7b4 <__any_on+0x18>
1000a7c4:	00100513          	li	a0,1
1000a7c8:	00008067          	ret
1000a7cc:	00261793          	slli	a5,a2,0x2
1000a7d0:	00f687b3          	add	a5,a3,a5
1000a7d4:	fee650e3          	bge	a2,a4,1000a7b4 <__any_on+0x18>
1000a7d8:	01f5f593          	andi	a1,a1,31
1000a7dc:	fc058ce3          	beqz	a1,1000a7b4 <__any_on+0x18>
1000a7e0:	0007a603          	lw	a2,0(a5)
1000a7e4:	00100513          	li	a0,1
1000a7e8:	00b65733          	srl	a4,a2,a1
1000a7ec:	00b71733          	sll	a4,a4,a1
1000a7f0:	fce602e3          	beq	a2,a4,1000a7b4 <__any_on+0x18>
1000a7f4:	00008067          	ret
1000a7f8:	00000513          	li	a0,0
1000a7fc:	00008067          	ret

1000a800 <_realloc_r>:
1000a800:	fd010113          	addi	sp,sp,-48
1000a804:	03212023          	sw	s2,32(sp)
1000a808:	02112623          	sw	ra,44(sp)
1000a80c:	02812423          	sw	s0,40(sp)
1000a810:	02912223          	sw	s1,36(sp)
1000a814:	01312e23          	sw	s3,28(sp)
1000a818:	01412c23          	sw	s4,24(sp)
1000a81c:	01512a23          	sw	s5,20(sp)
1000a820:	01612823          	sw	s6,16(sp)
1000a824:	01712623          	sw	s7,12(sp)
1000a828:	01812423          	sw	s8,8(sp)
1000a82c:	00060913          	mv	s2,a2
1000a830:	1c058663          	beqz	a1,1000a9fc <_realloc_r+0x1fc>
1000a834:	00058413          	mv	s0,a1
1000a838:	00050993          	mv	s3,a0
1000a83c:	d15fe0ef          	jal	ra,10009550 <__malloc_lock>
1000a840:	00b90493          	addi	s1,s2,11
1000a844:	01600713          	li	a4,22
1000a848:	ffc42783          	lw	a5,-4(s0)
1000a84c:	0e977c63          	bgeu	a4,s1,1000a944 <_realloc_r+0x144>
1000a850:	ff84f493          	andi	s1,s1,-8
1000a854:	00048713          	mv	a4,s1
1000a858:	0e04cc63          	bltz	s1,1000a950 <_realloc_r+0x150>
1000a85c:	0f24ea63          	bltu	s1,s2,1000a950 <_realloc_r+0x150>
1000a860:	ffc7fa13          	andi	s4,a5,-4
1000a864:	ff840a93          	addi	s5,s0,-8
1000a868:	12ea5e63          	bge	s4,a4,1000a9a4 <_realloc_r+0x1a4>
1000a86c:	100156b7          	lui	a3,0x10015
1000a870:	1d468c13          	addi	s8,a3,468 # 100151d4 <__malloc_av_>
1000a874:	008c2583          	lw	a1,8(s8)
1000a878:	014a8633          	add	a2,s5,s4
1000a87c:	00462683          	lw	a3,4(a2)
1000a880:	1ec58063          	beq	a1,a2,1000aa60 <_realloc_r+0x260>
1000a884:	ffe6f593          	andi	a1,a3,-2
1000a888:	00b605b3          	add	a1,a2,a1
1000a88c:	0045a583          	lw	a1,4(a1)
1000a890:	0015f593          	andi	a1,a1,1
1000a894:	14059663          	bnez	a1,1000a9e0 <_realloc_r+0x1e0>
1000a898:	ffc6f693          	andi	a3,a3,-4
1000a89c:	00da05b3          	add	a1,s4,a3
1000a8a0:	0ee5d863          	bge	a1,a4,1000a990 <_realloc_r+0x190>
1000a8a4:	0017f793          	andi	a5,a5,1
1000a8a8:	02079463          	bnez	a5,1000a8d0 <_realloc_r+0xd0>
1000a8ac:	ff842b83          	lw	s7,-8(s0)
1000a8b0:	417a8bb3          	sub	s7,s5,s7
1000a8b4:	004ba783          	lw	a5,4(s7)
1000a8b8:	ffc7f793          	andi	a5,a5,-4
1000a8bc:	00d786b3          	add	a3,a5,a3
1000a8c0:	01468b33          	add	s6,a3,s4
1000a8c4:	36eb5063          	bge	s6,a4,1000ac24 <_realloc_r+0x424>
1000a8c8:	00fa0b33          	add	s6,s4,a5
1000a8cc:	2ceb5263          	bge	s6,a4,1000ab90 <_realloc_r+0x390>
1000a8d0:	00090593          	mv	a1,s2
1000a8d4:	00098513          	mv	a0,s3
1000a8d8:	a64fe0ef          	jal	ra,10008b3c <_malloc_r>
1000a8dc:	00050913          	mv	s2,a0
1000a8e0:	04050c63          	beqz	a0,1000a938 <_realloc_r+0x138>
1000a8e4:	ffc42783          	lw	a5,-4(s0)
1000a8e8:	ff850713          	addi	a4,a0,-8
1000a8ec:	ffe7f793          	andi	a5,a5,-2
1000a8f0:	00fa87b3          	add	a5,s5,a5
1000a8f4:	28e78663          	beq	a5,a4,1000ab80 <_realloc_r+0x380>
1000a8f8:	ffca0613          	addi	a2,s4,-4
1000a8fc:	02400793          	li	a5,36
1000a900:	30c7ec63          	bltu	a5,a2,1000ac18 <_realloc_r+0x418>
1000a904:	01300713          	li	a4,19
1000a908:	22c76063          	bltu	a4,a2,1000ab28 <_realloc_r+0x328>
1000a90c:	00050793          	mv	a5,a0
1000a910:	00040713          	mv	a4,s0
1000a914:	00072683          	lw	a3,0(a4)
1000a918:	00d7a023          	sw	a3,0(a5)
1000a91c:	00472683          	lw	a3,4(a4)
1000a920:	00d7a223          	sw	a3,4(a5)
1000a924:	00872703          	lw	a4,8(a4)
1000a928:	00e7a423          	sw	a4,8(a5)
1000a92c:	00040593          	mv	a1,s0
1000a930:	00098513          	mv	a0,s3
1000a934:	c39fa0ef          	jal	ra,1000556c <_free_r>
1000a938:	00098513          	mv	a0,s3
1000a93c:	c19fe0ef          	jal	ra,10009554 <__malloc_unlock>
1000a940:	01c0006f          	j	1000a95c <_realloc_r+0x15c>
1000a944:	01000493          	li	s1,16
1000a948:	01000713          	li	a4,16
1000a94c:	f124fae3          	bgeu	s1,s2,1000a860 <_realloc_r+0x60>
1000a950:	00c00793          	li	a5,12
1000a954:	00f9a023          	sw	a5,0(s3)
1000a958:	00000913          	li	s2,0
1000a95c:	02c12083          	lw	ra,44(sp)
1000a960:	02812403          	lw	s0,40(sp)
1000a964:	02412483          	lw	s1,36(sp)
1000a968:	01c12983          	lw	s3,28(sp)
1000a96c:	01812a03          	lw	s4,24(sp)
1000a970:	01412a83          	lw	s5,20(sp)
1000a974:	01012b03          	lw	s6,16(sp)
1000a978:	00c12b83          	lw	s7,12(sp)
1000a97c:	00812c03          	lw	s8,8(sp)
1000a980:	00090513          	mv	a0,s2
1000a984:	02012903          	lw	s2,32(sp)
1000a988:	03010113          	addi	sp,sp,48
1000a98c:	00008067          	ret
1000a990:	00c62783          	lw	a5,12(a2)
1000a994:	00862703          	lw	a4,8(a2)
1000a998:	00058a13          	mv	s4,a1
1000a99c:	00f72623          	sw	a5,12(a4)
1000a9a0:	00e7a423          	sw	a4,8(a5)
1000a9a4:	004aa783          	lw	a5,4(s5)
1000a9a8:	409a06b3          	sub	a3,s4,s1
1000a9ac:	00f00613          	li	a2,15
1000a9b0:	0017f793          	andi	a5,a5,1
1000a9b4:	014a8733          	add	a4,s5,s4
1000a9b8:	06d66c63          	bltu	a2,a3,1000aa30 <_realloc_r+0x230>
1000a9bc:	00fa67b3          	or	a5,s4,a5
1000a9c0:	00faa223          	sw	a5,4(s5)
1000a9c4:	00472783          	lw	a5,4(a4)
1000a9c8:	0017e793          	ori	a5,a5,1
1000a9cc:	00f72223          	sw	a5,4(a4)
1000a9d0:	00098513          	mv	a0,s3
1000a9d4:	b81fe0ef          	jal	ra,10009554 <__malloc_unlock>
1000a9d8:	00040913          	mv	s2,s0
1000a9dc:	f81ff06f          	j	1000a95c <_realloc_r+0x15c>
1000a9e0:	0017f793          	andi	a5,a5,1
1000a9e4:	ee0796e3          	bnez	a5,1000a8d0 <_realloc_r+0xd0>
1000a9e8:	ff842b83          	lw	s7,-8(s0)
1000a9ec:	417a8bb3          	sub	s7,s5,s7
1000a9f0:	004ba783          	lw	a5,4(s7)
1000a9f4:	ffc7f793          	andi	a5,a5,-4
1000a9f8:	ed1ff06f          	j	1000a8c8 <_realloc_r+0xc8>
1000a9fc:	02812403          	lw	s0,40(sp)
1000aa00:	02c12083          	lw	ra,44(sp)
1000aa04:	02412483          	lw	s1,36(sp)
1000aa08:	02012903          	lw	s2,32(sp)
1000aa0c:	01c12983          	lw	s3,28(sp)
1000aa10:	01812a03          	lw	s4,24(sp)
1000aa14:	01412a83          	lw	s5,20(sp)
1000aa18:	01012b03          	lw	s6,16(sp)
1000aa1c:	00c12b83          	lw	s7,12(sp)
1000aa20:	00812c03          	lw	s8,8(sp)
1000aa24:	00060593          	mv	a1,a2
1000aa28:	03010113          	addi	sp,sp,48
1000aa2c:	910fe06f          	j	10008b3c <_malloc_r>
1000aa30:	0097e7b3          	or	a5,a5,s1
1000aa34:	00faa223          	sw	a5,4(s5)
1000aa38:	009a85b3          	add	a1,s5,s1
1000aa3c:	0016e693          	ori	a3,a3,1
1000aa40:	00d5a223          	sw	a3,4(a1)
1000aa44:	00472783          	lw	a5,4(a4)
1000aa48:	00858593          	addi	a1,a1,8
1000aa4c:	00098513          	mv	a0,s3
1000aa50:	0017e793          	ori	a5,a5,1
1000aa54:	00f72223          	sw	a5,4(a4)
1000aa58:	b15fa0ef          	jal	ra,1000556c <_free_r>
1000aa5c:	f75ff06f          	j	1000a9d0 <_realloc_r+0x1d0>
1000aa60:	ffc6f693          	andi	a3,a3,-4
1000aa64:	00da0633          	add	a2,s4,a3
1000aa68:	01048593          	addi	a1,s1,16
1000aa6c:	0eb65063          	bge	a2,a1,1000ab4c <_realloc_r+0x34c>
1000aa70:	0017f793          	andi	a5,a5,1
1000aa74:	e4079ee3          	bnez	a5,1000a8d0 <_realloc_r+0xd0>
1000aa78:	ff842b83          	lw	s7,-8(s0)
1000aa7c:	417a8bb3          	sub	s7,s5,s7
1000aa80:	004ba783          	lw	a5,4(s7)
1000aa84:	ffc7f793          	andi	a5,a5,-4
1000aa88:	00d786b3          	add	a3,a5,a3
1000aa8c:	01468b33          	add	s6,a3,s4
1000aa90:	e2bb4ce3          	blt	s6,a1,1000a8c8 <_realloc_r+0xc8>
1000aa94:	00cba783          	lw	a5,12(s7)
1000aa98:	008ba703          	lw	a4,8(s7)
1000aa9c:	ffca0613          	addi	a2,s4,-4
1000aaa0:	02400693          	li	a3,36
1000aaa4:	00f72623          	sw	a5,12(a4)
1000aaa8:	00e7a423          	sw	a4,8(a5)
1000aaac:	008b8913          	addi	s2,s7,8
1000aab0:	26c6e063          	bltu	a3,a2,1000ad10 <_realloc_r+0x510>
1000aab4:	01300713          	li	a4,19
1000aab8:	00090793          	mv	a5,s2
1000aabc:	02c77263          	bgeu	a4,a2,1000aae0 <_realloc_r+0x2e0>
1000aac0:	00042703          	lw	a4,0(s0)
1000aac4:	01b00793          	li	a5,27
1000aac8:	00eba423          	sw	a4,8(s7)
1000aacc:	00442703          	lw	a4,4(s0)
1000aad0:	00eba623          	sw	a4,12(s7)
1000aad4:	24c7e663          	bltu	a5,a2,1000ad20 <_realloc_r+0x520>
1000aad8:	00840413          	addi	s0,s0,8
1000aadc:	010b8793          	addi	a5,s7,16
1000aae0:	00042703          	lw	a4,0(s0)
1000aae4:	00e7a023          	sw	a4,0(a5)
1000aae8:	00442703          	lw	a4,4(s0)
1000aaec:	00e7a223          	sw	a4,4(a5)
1000aaf0:	00842703          	lw	a4,8(s0)
1000aaf4:	00e7a423          	sw	a4,8(a5)
1000aaf8:	009b8733          	add	a4,s7,s1
1000aafc:	409b07b3          	sub	a5,s6,s1
1000ab00:	00ec2423          	sw	a4,8(s8)
1000ab04:	0017e793          	ori	a5,a5,1
1000ab08:	00f72223          	sw	a5,4(a4)
1000ab0c:	004ba783          	lw	a5,4(s7)
1000ab10:	00098513          	mv	a0,s3
1000ab14:	0017f793          	andi	a5,a5,1
1000ab18:	0097e7b3          	or	a5,a5,s1
1000ab1c:	00fba223          	sw	a5,4(s7)
1000ab20:	a35fe0ef          	jal	ra,10009554 <__malloc_unlock>
1000ab24:	e39ff06f          	j	1000a95c <_realloc_r+0x15c>
1000ab28:	00042683          	lw	a3,0(s0)
1000ab2c:	01b00713          	li	a4,27
1000ab30:	00d52023          	sw	a3,0(a0)
1000ab34:	00442683          	lw	a3,4(s0)
1000ab38:	00d52223          	sw	a3,4(a0)
1000ab3c:	18c76663          	bltu	a4,a2,1000acc8 <_realloc_r+0x4c8>
1000ab40:	00840713          	addi	a4,s0,8
1000ab44:	00850793          	addi	a5,a0,8
1000ab48:	dcdff06f          	j	1000a914 <_realloc_r+0x114>
1000ab4c:	009a8ab3          	add	s5,s5,s1
1000ab50:	409607b3          	sub	a5,a2,s1
1000ab54:	015c2423          	sw	s5,8(s8)
1000ab58:	0017e793          	ori	a5,a5,1
1000ab5c:	00faa223          	sw	a5,4(s5)
1000ab60:	ffc42783          	lw	a5,-4(s0)
1000ab64:	00098513          	mv	a0,s3
1000ab68:	00040913          	mv	s2,s0
1000ab6c:	0017f793          	andi	a5,a5,1
1000ab70:	0097e7b3          	or	a5,a5,s1
1000ab74:	fef42e23          	sw	a5,-4(s0)
1000ab78:	9ddfe0ef          	jal	ra,10009554 <__malloc_unlock>
1000ab7c:	de1ff06f          	j	1000a95c <_realloc_r+0x15c>
1000ab80:	ffc52783          	lw	a5,-4(a0)
1000ab84:	ffc7f793          	andi	a5,a5,-4
1000ab88:	00fa0a33          	add	s4,s4,a5
1000ab8c:	e19ff06f          	j	1000a9a4 <_realloc_r+0x1a4>
1000ab90:	00cba783          	lw	a5,12(s7)
1000ab94:	008ba703          	lw	a4,8(s7)
1000ab98:	ffca0613          	addi	a2,s4,-4
1000ab9c:	02400693          	li	a3,36
1000aba0:	00f72623          	sw	a5,12(a4)
1000aba4:	00e7a423          	sw	a4,8(a5)
1000aba8:	008b8913          	addi	s2,s7,8
1000abac:	10c6e063          	bltu	a3,a2,1000acac <_realloc_r+0x4ac>
1000abb0:	01300713          	li	a4,19
1000abb4:	00090793          	mv	a5,s2
1000abb8:	02c77c63          	bgeu	a4,a2,1000abf0 <_realloc_r+0x3f0>
1000abbc:	00042703          	lw	a4,0(s0)
1000abc0:	01b00793          	li	a5,27
1000abc4:	00eba423          	sw	a4,8(s7)
1000abc8:	00442703          	lw	a4,4(s0)
1000abcc:	00eba623          	sw	a4,12(s7)
1000abd0:	10c7fc63          	bgeu	a5,a2,1000ace8 <_realloc_r+0x4e8>
1000abd4:	00842783          	lw	a5,8(s0)
1000abd8:	00fba823          	sw	a5,16(s7)
1000abdc:	00c42783          	lw	a5,12(s0)
1000abe0:	00fbaa23          	sw	a5,20(s7)
1000abe4:	0ad60663          	beq	a2,a3,1000ac90 <_realloc_r+0x490>
1000abe8:	01040413          	addi	s0,s0,16
1000abec:	018b8793          	addi	a5,s7,24
1000abf0:	00042703          	lw	a4,0(s0)
1000abf4:	000b0a13          	mv	s4,s6
1000abf8:	000b8a93          	mv	s5,s7
1000abfc:	00e7a023          	sw	a4,0(a5)
1000ac00:	00442703          	lw	a4,4(s0)
1000ac04:	00e7a223          	sw	a4,4(a5)
1000ac08:	00842703          	lw	a4,8(s0)
1000ac0c:	00090413          	mv	s0,s2
1000ac10:	00e7a423          	sw	a4,8(a5)
1000ac14:	d91ff06f          	j	1000a9a4 <_realloc_r+0x1a4>
1000ac18:	00040593          	mv	a1,s0
1000ac1c:	815fe0ef          	jal	ra,10009430 <memmove>
1000ac20:	d0dff06f          	j	1000a92c <_realloc_r+0x12c>
1000ac24:	00c62783          	lw	a5,12(a2)
1000ac28:	00862703          	lw	a4,8(a2)
1000ac2c:	02400693          	li	a3,36
1000ac30:	ffca0613          	addi	a2,s4,-4
1000ac34:	00f72623          	sw	a5,12(a4)
1000ac38:	00e7a423          	sw	a4,8(a5)
1000ac3c:	008ba703          	lw	a4,8(s7)
1000ac40:	00cba783          	lw	a5,12(s7)
1000ac44:	008b8913          	addi	s2,s7,8
1000ac48:	00f72623          	sw	a5,12(a4)
1000ac4c:	00e7a423          	sw	a4,8(a5)
1000ac50:	04c6ee63          	bltu	a3,a2,1000acac <_realloc_r+0x4ac>
1000ac54:	01300713          	li	a4,19
1000ac58:	00090793          	mv	a5,s2
1000ac5c:	f8c77ae3          	bgeu	a4,a2,1000abf0 <_realloc_r+0x3f0>
1000ac60:	00042703          	lw	a4,0(s0)
1000ac64:	01b00793          	li	a5,27
1000ac68:	00eba423          	sw	a4,8(s7)
1000ac6c:	00442703          	lw	a4,4(s0)
1000ac70:	00eba623          	sw	a4,12(s7)
1000ac74:	06c7fa63          	bgeu	a5,a2,1000ace8 <_realloc_r+0x4e8>
1000ac78:	00842703          	lw	a4,8(s0)
1000ac7c:	02400793          	li	a5,36
1000ac80:	00eba823          	sw	a4,16(s7)
1000ac84:	00c42703          	lw	a4,12(s0)
1000ac88:	00ebaa23          	sw	a4,20(s7)
1000ac8c:	f4f61ee3          	bne	a2,a5,1000abe8 <_realloc_r+0x3e8>
1000ac90:	01042703          	lw	a4,16(s0)
1000ac94:	020b8793          	addi	a5,s7,32
1000ac98:	01840413          	addi	s0,s0,24
1000ac9c:	00ebac23          	sw	a4,24(s7)
1000aca0:	ffc42703          	lw	a4,-4(s0)
1000aca4:	00ebae23          	sw	a4,28(s7)
1000aca8:	f49ff06f          	j	1000abf0 <_realloc_r+0x3f0>
1000acac:	00040593          	mv	a1,s0
1000acb0:	00090513          	mv	a0,s2
1000acb4:	f7cfe0ef          	jal	ra,10009430 <memmove>
1000acb8:	00090413          	mv	s0,s2
1000acbc:	000b0a13          	mv	s4,s6
1000acc0:	000b8a93          	mv	s5,s7
1000acc4:	ce1ff06f          	j	1000a9a4 <_realloc_r+0x1a4>
1000acc8:	00842703          	lw	a4,8(s0)
1000accc:	00e52423          	sw	a4,8(a0)
1000acd0:	00c42703          	lw	a4,12(s0)
1000acd4:	00e52623          	sw	a4,12(a0)
1000acd8:	00f60e63          	beq	a2,a5,1000acf4 <_realloc_r+0x4f4>
1000acdc:	01040713          	addi	a4,s0,16
1000ace0:	01050793          	addi	a5,a0,16
1000ace4:	c31ff06f          	j	1000a914 <_realloc_r+0x114>
1000ace8:	00840413          	addi	s0,s0,8
1000acec:	010b8793          	addi	a5,s7,16
1000acf0:	f01ff06f          	j	1000abf0 <_realloc_r+0x3f0>
1000acf4:	01042683          	lw	a3,16(s0)
1000acf8:	01840713          	addi	a4,s0,24
1000acfc:	01850793          	addi	a5,a0,24
1000ad00:	00d52823          	sw	a3,16(a0)
1000ad04:	01442683          	lw	a3,20(s0)
1000ad08:	00d52a23          	sw	a3,20(a0)
1000ad0c:	c09ff06f          	j	1000a914 <_realloc_r+0x114>
1000ad10:	00040593          	mv	a1,s0
1000ad14:	00090513          	mv	a0,s2
1000ad18:	f18fe0ef          	jal	ra,10009430 <memmove>
1000ad1c:	dddff06f          	j	1000aaf8 <_realloc_r+0x2f8>
1000ad20:	00842783          	lw	a5,8(s0)
1000ad24:	00fba823          	sw	a5,16(s7)
1000ad28:	00c42783          	lw	a5,12(s0)
1000ad2c:	00fbaa23          	sw	a5,20(s7)
1000ad30:	00d60863          	beq	a2,a3,1000ad40 <_realloc_r+0x540>
1000ad34:	01040413          	addi	s0,s0,16
1000ad38:	018b8793          	addi	a5,s7,24
1000ad3c:	da5ff06f          	j	1000aae0 <_realloc_r+0x2e0>
1000ad40:	01042703          	lw	a4,16(s0)
1000ad44:	020b8793          	addi	a5,s7,32
1000ad48:	01840413          	addi	s0,s0,24
1000ad4c:	00ebac23          	sw	a4,24(s7)
1000ad50:	ffc42703          	lw	a4,-4(s0)
1000ad54:	00ebae23          	sw	a4,28(s7)
1000ad58:	d89ff06f          	j	1000aae0 <_realloc_r+0x2e0>

1000ad5c <_sbrk_r>:
1000ad5c:	ff010113          	addi	sp,sp,-16
1000ad60:	00812423          	sw	s0,8(sp)
1000ad64:	00912223          	sw	s1,4(sp)
1000ad68:	00050413          	mv	s0,a0
1000ad6c:	100154b7          	lui	s1,0x10015
1000ad70:	00058513          	mv	a0,a1
1000ad74:	00112623          	sw	ra,12(sp)
1000ad78:	6a04a623          	sw	zero,1708(s1) # 100156ac <errno>
1000ad7c:	e74f50ef          	jal	ra,100003f0 <_sbrk>
1000ad80:	fff00793          	li	a5,-1
1000ad84:	00f50c63          	beq	a0,a5,1000ad9c <_sbrk_r+0x40>
1000ad88:	00c12083          	lw	ra,12(sp)
1000ad8c:	00812403          	lw	s0,8(sp)
1000ad90:	00412483          	lw	s1,4(sp)
1000ad94:	01010113          	addi	sp,sp,16
1000ad98:	00008067          	ret
1000ad9c:	6ac4a783          	lw	a5,1708(s1)
1000ada0:	fe0784e3          	beqz	a5,1000ad88 <_sbrk_r+0x2c>
1000ada4:	00c12083          	lw	ra,12(sp)
1000ada8:	00f42023          	sw	a5,0(s0)
1000adac:	00812403          	lw	s0,8(sp)
1000adb0:	00412483          	lw	s1,4(sp)
1000adb4:	01010113          	addi	sp,sp,16
1000adb8:	00008067          	ret

1000adbc <frexp>:
1000adbc:	ff010113          	addi	sp,sp,-16
1000adc0:	00912223          	sw	s1,4(sp)
1000adc4:	800004b7          	lui	s1,0x80000
1000adc8:	00812423          	sw	s0,8(sp)
1000adcc:	00112623          	sw	ra,12(sp)
1000add0:	fff4c493          	not	s1,s1
1000add4:	00060413          	mv	s0,a2
1000add8:	00062023          	sw	zero,0(a2)
1000addc:	00b4f6b3          	and	a3,s1,a1
1000ade0:	7ff00637          	lui	a2,0x7ff00
1000ade4:	00058793          	mv	a5,a1
1000ade8:	00050713          	mv	a4,a0
1000adec:	06c6d063          	bge	a3,a2,1000ae4c <frexp+0x90>
1000adf0:	00a6e8b3          	or	a7,a3,a0
1000adf4:	04088c63          	beqz	a7,1000ae4c <frexp+0x90>
1000adf8:	00c5f633          	and	a2,a1,a2
1000adfc:	00058813          	mv	a6,a1
1000ae00:	00000893          	li	a7,0
1000ae04:	02061263          	bnez	a2,1000ae28 <frexp+0x6c>
1000ae08:	100157b7          	lui	a5,0x10015
1000ae0c:	5f47a683          	lw	a3,1524(a5) # 100155f4 <__SDATA_BEGIN__+0x14>
1000ae10:	5f07a603          	lw	a2,1520(a5)
1000ae14:	4fc050ef          	jal	ra,10010310 <__muldf3>
1000ae18:	00050713          	mv	a4,a0
1000ae1c:	00058813          	mv	a6,a1
1000ae20:	00b4f6b3          	and	a3,s1,a1
1000ae24:	fca00893          	li	a7,-54
1000ae28:	4146d693          	srai	a3,a3,0x14
1000ae2c:	801007b7          	lui	a5,0x80100
1000ae30:	fff78793          	addi	a5,a5,-1 # 800fffff <_sp+0x700d7a93>
1000ae34:	c0268693          	addi	a3,a3,-1022
1000ae38:	00f87833          	and	a6,a6,a5
1000ae3c:	011686b3          	add	a3,a3,a7
1000ae40:	3fe007b7          	lui	a5,0x3fe00
1000ae44:	00f867b3          	or	a5,a6,a5
1000ae48:	00d42023          	sw	a3,0(s0)
1000ae4c:	00c12083          	lw	ra,12(sp)
1000ae50:	00812403          	lw	s0,8(sp)
1000ae54:	00412483          	lw	s1,4(sp)
1000ae58:	00070513          	mv	a0,a4
1000ae5c:	00078593          	mv	a1,a5
1000ae60:	01010113          	addi	sp,sp,16
1000ae64:	00008067          	ret

1000ae68 <__sread>:
1000ae68:	ff010113          	addi	sp,sp,-16
1000ae6c:	00812423          	sw	s0,8(sp)
1000ae70:	00058413          	mv	s0,a1
1000ae74:	00e59583          	lh	a1,14(a1)
1000ae78:	00112623          	sw	ra,12(sp)
1000ae7c:	2a4020ef          	jal	ra,1000d120 <_read_r>
1000ae80:	02054063          	bltz	a0,1000aea0 <__sread+0x38>
1000ae84:	05042783          	lw	a5,80(s0)
1000ae88:	00c12083          	lw	ra,12(sp)
1000ae8c:	00a787b3          	add	a5,a5,a0
1000ae90:	04f42823          	sw	a5,80(s0)
1000ae94:	00812403          	lw	s0,8(sp)
1000ae98:	01010113          	addi	sp,sp,16
1000ae9c:	00008067          	ret
1000aea0:	00c45783          	lhu	a5,12(s0)
1000aea4:	fffff737          	lui	a4,0xfffff
1000aea8:	fff70713          	addi	a4,a4,-1 # ffffefff <_sp+0xeffd6a93>
1000aeac:	00e7f7b3          	and	a5,a5,a4
1000aeb0:	00c12083          	lw	ra,12(sp)
1000aeb4:	00f41623          	sh	a5,12(s0)
1000aeb8:	00812403          	lw	s0,8(sp)
1000aebc:	01010113          	addi	sp,sp,16
1000aec0:	00008067          	ret

1000aec4 <__seofread>:
1000aec4:	00000513          	li	a0,0
1000aec8:	00008067          	ret

1000aecc <__swrite>:
1000aecc:	00c59783          	lh	a5,12(a1)
1000aed0:	fe010113          	addi	sp,sp,-32
1000aed4:	00812c23          	sw	s0,24(sp)
1000aed8:	00912a23          	sw	s1,20(sp)
1000aedc:	01212823          	sw	s2,16(sp)
1000aee0:	01312623          	sw	s3,12(sp)
1000aee4:	00112e23          	sw	ra,28(sp)
1000aee8:	1007f713          	andi	a4,a5,256
1000aeec:	00058413          	mv	s0,a1
1000aef0:	00050493          	mv	s1,a0
1000aef4:	00060913          	mv	s2,a2
1000aef8:	00068993          	mv	s3,a3
1000aefc:	04071063          	bnez	a4,1000af3c <__swrite+0x70>
1000af00:	fffff737          	lui	a4,0xfffff
1000af04:	fff70713          	addi	a4,a4,-1 # ffffefff <_sp+0xeffd6a93>
1000af08:	00e7f7b3          	and	a5,a5,a4
1000af0c:	00e41583          	lh	a1,14(s0)
1000af10:	00f41623          	sh	a5,12(s0)
1000af14:	01812403          	lw	s0,24(sp)
1000af18:	01c12083          	lw	ra,28(sp)
1000af1c:	00098693          	mv	a3,s3
1000af20:	00090613          	mv	a2,s2
1000af24:	00c12983          	lw	s3,12(sp)
1000af28:	01012903          	lw	s2,16(sp)
1000af2c:	00048513          	mv	a0,s1
1000af30:	01412483          	lw	s1,20(sp)
1000af34:	02010113          	addi	sp,sp,32
1000af38:	5e40106f          	j	1000c51c <_write_r>
1000af3c:	00e59583          	lh	a1,14(a1)
1000af40:	00200693          	li	a3,2
1000af44:	00000613          	li	a2,0
1000af48:	701010ef          	jal	ra,1000ce48 <_lseek_r>
1000af4c:	00c41783          	lh	a5,12(s0)
1000af50:	fb1ff06f          	j	1000af00 <__swrite+0x34>

1000af54 <__sseek>:
1000af54:	ff010113          	addi	sp,sp,-16
1000af58:	00812423          	sw	s0,8(sp)
1000af5c:	00058413          	mv	s0,a1
1000af60:	00e59583          	lh	a1,14(a1)
1000af64:	00112623          	sw	ra,12(sp)
1000af68:	6e1010ef          	jal	ra,1000ce48 <_lseek_r>
1000af6c:	fff00793          	li	a5,-1
1000af70:	02f50463          	beq	a0,a5,1000af98 <__sseek+0x44>
1000af74:	00c45783          	lhu	a5,12(s0)
1000af78:	00001737          	lui	a4,0x1
1000af7c:	00c12083          	lw	ra,12(sp)
1000af80:	00e7e7b3          	or	a5,a5,a4
1000af84:	04a42823          	sw	a0,80(s0)
1000af88:	00f41623          	sh	a5,12(s0)
1000af8c:	00812403          	lw	s0,8(sp)
1000af90:	01010113          	addi	sp,sp,16
1000af94:	00008067          	ret
1000af98:	00c45783          	lhu	a5,12(s0)
1000af9c:	fffff737          	lui	a4,0xfffff
1000afa0:	fff70713          	addi	a4,a4,-1 # ffffefff <_sp+0xeffd6a93>
1000afa4:	00e7f7b3          	and	a5,a5,a4
1000afa8:	00c12083          	lw	ra,12(sp)
1000afac:	00f41623          	sh	a5,12(s0)
1000afb0:	00812403          	lw	s0,8(sp)
1000afb4:	01010113          	addi	sp,sp,16
1000afb8:	00008067          	ret

1000afbc <__sclose>:
1000afbc:	00e59583          	lh	a1,14(a1)
1000afc0:	12d0106f          	j	1000c8ec <_close_r>

1000afc4 <strcmp>:
1000afc4:	00b56733          	or	a4,a0,a1
1000afc8:	fff00393          	li	t2,-1
1000afcc:	00377713          	andi	a4,a4,3
1000afd0:	10071063          	bnez	a4,1000b0d0 <strcmp+0x10c>
1000afd4:	7f7f87b7          	lui	a5,0x7f7f8
1000afd8:	f7f78793          	addi	a5,a5,-129 # 7f7f7f7f <_sp+0x6f7cfa13>
1000afdc:	00052603          	lw	a2,0(a0)
1000afe0:	0005a683          	lw	a3,0(a1)
1000afe4:	00f672b3          	and	t0,a2,a5
1000afe8:	00f66333          	or	t1,a2,a5
1000afec:	00f282b3          	add	t0,t0,a5
1000aff0:	0062e2b3          	or	t0,t0,t1
1000aff4:	10729263          	bne	t0,t2,1000b0f8 <strcmp+0x134>
1000aff8:	08d61663          	bne	a2,a3,1000b084 <strcmp+0xc0>
1000affc:	00452603          	lw	a2,4(a0)
1000b000:	0045a683          	lw	a3,4(a1)
1000b004:	00f672b3          	and	t0,a2,a5
1000b008:	00f66333          	or	t1,a2,a5
1000b00c:	00f282b3          	add	t0,t0,a5
1000b010:	0062e2b3          	or	t0,t0,t1
1000b014:	0c729e63          	bne	t0,t2,1000b0f0 <strcmp+0x12c>
1000b018:	06d61663          	bne	a2,a3,1000b084 <strcmp+0xc0>
1000b01c:	00852603          	lw	a2,8(a0)
1000b020:	0085a683          	lw	a3,8(a1)
1000b024:	00f672b3          	and	t0,a2,a5
1000b028:	00f66333          	or	t1,a2,a5
1000b02c:	00f282b3          	add	t0,t0,a5
1000b030:	0062e2b3          	or	t0,t0,t1
1000b034:	0c729863          	bne	t0,t2,1000b104 <strcmp+0x140>
1000b038:	04d61663          	bne	a2,a3,1000b084 <strcmp+0xc0>
1000b03c:	00c52603          	lw	a2,12(a0)
1000b040:	00c5a683          	lw	a3,12(a1)
1000b044:	00f672b3          	and	t0,a2,a5
1000b048:	00f66333          	or	t1,a2,a5
1000b04c:	00f282b3          	add	t0,t0,a5
1000b050:	0062e2b3          	or	t0,t0,t1
1000b054:	0c729263          	bne	t0,t2,1000b118 <strcmp+0x154>
1000b058:	02d61663          	bne	a2,a3,1000b084 <strcmp+0xc0>
1000b05c:	01052603          	lw	a2,16(a0)
1000b060:	0105a683          	lw	a3,16(a1)
1000b064:	00f672b3          	and	t0,a2,a5
1000b068:	00f66333          	or	t1,a2,a5
1000b06c:	00f282b3          	add	t0,t0,a5
1000b070:	0062e2b3          	or	t0,t0,t1
1000b074:	0a729c63          	bne	t0,t2,1000b12c <strcmp+0x168>
1000b078:	01450513          	addi	a0,a0,20
1000b07c:	01458593          	addi	a1,a1,20
1000b080:	f4d60ee3          	beq	a2,a3,1000afdc <strcmp+0x18>
1000b084:	01061713          	slli	a4,a2,0x10
1000b088:	01069793          	slli	a5,a3,0x10
1000b08c:	00f71e63          	bne	a4,a5,1000b0a8 <strcmp+0xe4>
1000b090:	01065713          	srli	a4,a2,0x10
1000b094:	0106d793          	srli	a5,a3,0x10
1000b098:	40f70533          	sub	a0,a4,a5
1000b09c:	0ff57593          	zext.b	a1,a0
1000b0a0:	02059063          	bnez	a1,1000b0c0 <strcmp+0xfc>
1000b0a4:	00008067          	ret
1000b0a8:	01075713          	srli	a4,a4,0x10
1000b0ac:	0107d793          	srli	a5,a5,0x10
1000b0b0:	40f70533          	sub	a0,a4,a5
1000b0b4:	0ff57593          	zext.b	a1,a0
1000b0b8:	00059463          	bnez	a1,1000b0c0 <strcmp+0xfc>
1000b0bc:	00008067          	ret
1000b0c0:	0ff77713          	zext.b	a4,a4
1000b0c4:	0ff7f793          	zext.b	a5,a5
1000b0c8:	40f70533          	sub	a0,a4,a5
1000b0cc:	00008067          	ret
1000b0d0:	00054603          	lbu	a2,0(a0)
1000b0d4:	0005c683          	lbu	a3,0(a1)
1000b0d8:	00150513          	addi	a0,a0,1
1000b0dc:	00158593          	addi	a1,a1,1
1000b0e0:	00d61463          	bne	a2,a3,1000b0e8 <strcmp+0x124>
1000b0e4:	fe0616e3          	bnez	a2,1000b0d0 <strcmp+0x10c>
1000b0e8:	40d60533          	sub	a0,a2,a3
1000b0ec:	00008067          	ret
1000b0f0:	00450513          	addi	a0,a0,4
1000b0f4:	00458593          	addi	a1,a1,4
1000b0f8:	fcd61ce3          	bne	a2,a3,1000b0d0 <strcmp+0x10c>
1000b0fc:	00000513          	li	a0,0
1000b100:	00008067          	ret
1000b104:	00850513          	addi	a0,a0,8
1000b108:	00858593          	addi	a1,a1,8
1000b10c:	fcd612e3          	bne	a2,a3,1000b0d0 <strcmp+0x10c>
1000b110:	00000513          	li	a0,0
1000b114:	00008067          	ret
1000b118:	00c50513          	addi	a0,a0,12
1000b11c:	00c58593          	addi	a1,a1,12
1000b120:	fad618e3          	bne	a2,a3,1000b0d0 <strcmp+0x10c>
1000b124:	00000513          	li	a0,0
1000b128:	00008067          	ret
1000b12c:	01050513          	addi	a0,a0,16
1000b130:	01058593          	addi	a1,a1,16
1000b134:	f8d61ee3          	bne	a2,a3,1000b0d0 <strcmp+0x10c>
1000b138:	00000513          	li	a0,0
1000b13c:	00008067          	ret

1000b140 <strcpy>:
1000b140:	00b567b3          	or	a5,a0,a1
1000b144:	0037f793          	andi	a5,a5,3
1000b148:	08079263          	bnez	a5,1000b1cc <strcpy+0x8c>
1000b14c:	0005a703          	lw	a4,0(a1)
1000b150:	7f7f86b7          	lui	a3,0x7f7f8
1000b154:	f7f68693          	addi	a3,a3,-129 # 7f7f7f7f <_sp+0x6f7cfa13>
1000b158:	00d777b3          	and	a5,a4,a3
1000b15c:	00d787b3          	add	a5,a5,a3
1000b160:	00e7e7b3          	or	a5,a5,a4
1000b164:	00d7e7b3          	or	a5,a5,a3
1000b168:	fff00613          	li	a2,-1
1000b16c:	06c79e63          	bne	a5,a2,1000b1e8 <strcpy+0xa8>
1000b170:	00050613          	mv	a2,a0
1000b174:	fff00813          	li	a6,-1
1000b178:	00e62023          	sw	a4,0(a2) # 7ff00000 <_sp+0x6fed7a94>
1000b17c:	0045a703          	lw	a4,4(a1)
1000b180:	00458593          	addi	a1,a1,4
1000b184:	00460613          	addi	a2,a2,4
1000b188:	00d777b3          	and	a5,a4,a3
1000b18c:	00d787b3          	add	a5,a5,a3
1000b190:	00e7e7b3          	or	a5,a5,a4
1000b194:	00d7e7b3          	or	a5,a5,a3
1000b198:	ff0780e3          	beq	a5,a6,1000b178 <strcpy+0x38>
1000b19c:	0005c783          	lbu	a5,0(a1)
1000b1a0:	0015c703          	lbu	a4,1(a1)
1000b1a4:	0025c683          	lbu	a3,2(a1)
1000b1a8:	00f60023          	sb	a5,0(a2)
1000b1ac:	00078a63          	beqz	a5,1000b1c0 <strcpy+0x80>
1000b1b0:	00e600a3          	sb	a4,1(a2)
1000b1b4:	00070663          	beqz	a4,1000b1c0 <strcpy+0x80>
1000b1b8:	00d60123          	sb	a3,2(a2)
1000b1bc:	00069463          	bnez	a3,1000b1c4 <strcpy+0x84>
1000b1c0:	00008067          	ret
1000b1c4:	000601a3          	sb	zero,3(a2)
1000b1c8:	00008067          	ret
1000b1cc:	00050793          	mv	a5,a0
1000b1d0:	0005c703          	lbu	a4,0(a1)
1000b1d4:	00178793          	addi	a5,a5,1
1000b1d8:	00158593          	addi	a1,a1,1
1000b1dc:	fee78fa3          	sb	a4,-1(a5)
1000b1e0:	fe0718e3          	bnez	a4,1000b1d0 <strcpy+0x90>
1000b1e4:	00008067          	ret
1000b1e8:	00050613          	mv	a2,a0
1000b1ec:	fb1ff06f          	j	1000b19c <strcpy+0x5c>

1000b1f0 <strncpy>:
1000b1f0:	00b567b3          	or	a5,a0,a1
1000b1f4:	0037f793          	andi	a5,a5,3
1000b1f8:	00050713          	mv	a4,a0
1000b1fc:	06079863          	bnez	a5,1000b26c <strncpy+0x7c>
1000b200:	00300793          	li	a5,3
1000b204:	06c7f463          	bgeu	a5,a2,1000b26c <strncpy+0x7c>
1000b208:	feff0337          	lui	t1,0xfeff0
1000b20c:	808088b7          	lui	a7,0x80808
1000b210:	eff30313          	addi	t1,t1,-257 # fefefeff <_sp+0xeefc7993>
1000b214:	08088893          	addi	a7,a7,128 # 80808080 <_sp+0x707dfb14>
1000b218:	00300e13          	li	t3,3
1000b21c:	0005a683          	lw	a3,0(a1)
1000b220:	006687b3          	add	a5,a3,t1
1000b224:	fff6c813          	not	a6,a3
1000b228:	0107f7b3          	and	a5,a5,a6
1000b22c:	0117f7b3          	and	a5,a5,a7
1000b230:	02079e63          	bnez	a5,1000b26c <strncpy+0x7c>
1000b234:	00d72023          	sw	a3,0(a4)
1000b238:	ffc60613          	addi	a2,a2,-4
1000b23c:	00470713          	addi	a4,a4,4
1000b240:	00458593          	addi	a1,a1,4
1000b244:	fcce6ce3          	bltu	t3,a2,1000b21c <strncpy+0x2c>
1000b248:	00158593          	addi	a1,a1,1
1000b24c:	00170793          	addi	a5,a4,1
1000b250:	02060463          	beqz	a2,1000b278 <strncpy+0x88>
1000b254:	fff5c683          	lbu	a3,-1(a1)
1000b258:	fff60813          	addi	a6,a2,-1
1000b25c:	fed78fa3          	sb	a3,-1(a5)
1000b260:	00068e63          	beqz	a3,1000b27c <strncpy+0x8c>
1000b264:	00078713          	mv	a4,a5
1000b268:	00080613          	mv	a2,a6
1000b26c:	00158593          	addi	a1,a1,1
1000b270:	00170793          	addi	a5,a4,1
1000b274:	fe0610e3          	bnez	a2,1000b254 <strncpy+0x64>
1000b278:	00008067          	ret
1000b27c:	00c70733          	add	a4,a4,a2
1000b280:	00080a63          	beqz	a6,1000b294 <strncpy+0xa4>
1000b284:	00178793          	addi	a5,a5,1
1000b288:	fe078fa3          	sb	zero,-1(a5)
1000b28c:	fee79ce3          	bne	a5,a4,1000b284 <strncpy+0x94>
1000b290:	00008067          	ret
1000b294:	00008067          	ret

1000b298 <__ssprint_r>:
1000b298:	00862783          	lw	a5,8(a2)
1000b29c:	fd010113          	addi	sp,sp,-48
1000b2a0:	01312e23          	sw	s3,28(sp)
1000b2a4:	01412c23          	sw	s4,24(sp)
1000b2a8:	02112623          	sw	ra,44(sp)
1000b2ac:	02812423          	sw	s0,40(sp)
1000b2b0:	02912223          	sw	s1,36(sp)
1000b2b4:	03212023          	sw	s2,32(sp)
1000b2b8:	01512a23          	sw	s5,20(sp)
1000b2bc:	01612823          	sw	s6,16(sp)
1000b2c0:	01712623          	sw	s7,12(sp)
1000b2c4:	01812423          	sw	s8,8(sp)
1000b2c8:	00062983          	lw	s3,0(a2)
1000b2cc:	00060a13          	mv	s4,a2
1000b2d0:	14078863          	beqz	a5,1000b420 <__ssprint_r+0x188>
1000b2d4:	0085a783          	lw	a5,8(a1)
1000b2d8:	0005a703          	lw	a4,0(a1)
1000b2dc:	00050a93          	mv	s5,a0
1000b2e0:	00058493          	mv	s1,a1
1000b2e4:	0d40006f          	j	1000b3b8 <__ssprint_r+0x120>
1000b2e8:	00c4d783          	lhu	a5,12(s1) # 8000000c <_sp+0x6ffd7aa0>
1000b2ec:	4807f693          	andi	a3,a5,1152
1000b2f0:	08068a63          	beqz	a3,1000b384 <__ssprint_r+0xec>
1000b2f4:	0144a603          	lw	a2,20(s1)
1000b2f8:	0104a583          	lw	a1,16(s1)
1000b2fc:	00161693          	slli	a3,a2,0x1
1000b300:	00c686b3          	add	a3,a3,a2
1000b304:	40b70433          	sub	s0,a4,a1
1000b308:	01f6db13          	srli	s6,a3,0x1f
1000b30c:	00db0b33          	add	s6,s6,a3
1000b310:	00140713          	addi	a4,s0,1
1000b314:	401b5b13          	srai	s6,s6,0x1
1000b318:	01270733          	add	a4,a4,s2
1000b31c:	000b0613          	mv	a2,s6
1000b320:	00eb7663          	bgeu	s6,a4,1000b32c <__ssprint_r+0x94>
1000b324:	00070b13          	mv	s6,a4
1000b328:	00070613          	mv	a2,a4
1000b32c:	4007f793          	andi	a5,a5,1024
1000b330:	0a078a63          	beqz	a5,1000b3e4 <__ssprint_r+0x14c>
1000b334:	00060593          	mv	a1,a2
1000b338:	000a8513          	mv	a0,s5
1000b33c:	801fd0ef          	jal	ra,10008b3c <_malloc_r>
1000b340:	00050c13          	mv	s8,a0
1000b344:	0a050e63          	beqz	a0,1000b400 <__ssprint_r+0x168>
1000b348:	0104a583          	lw	a1,16(s1)
1000b34c:	00040613          	mv	a2,s0
1000b350:	f29f60ef          	jal	ra,10002278 <memcpy>
1000b354:	00c4d783          	lhu	a5,12(s1)
1000b358:	b7f7f793          	andi	a5,a5,-1153
1000b35c:	0807e793          	ori	a5,a5,128
1000b360:	00f49623          	sh	a5,12(s1)
1000b364:	408b0733          	sub	a4,s6,s0
1000b368:	008c0533          	add	a0,s8,s0
1000b36c:	0164aa23          	sw	s6,20(s1)
1000b370:	0184a823          	sw	s8,16(s1)
1000b374:	00a4a023          	sw	a0,0(s1)
1000b378:	00090b13          	mv	s6,s2
1000b37c:	00e4a423          	sw	a4,8(s1)
1000b380:	00090413          	mv	s0,s2
1000b384:	00040613          	mv	a2,s0
1000b388:	000b8593          	mv	a1,s7
1000b38c:	8a4fe0ef          	jal	ra,10009430 <memmove>
1000b390:	0084a783          	lw	a5,8(s1)
1000b394:	0004a703          	lw	a4,0(s1)
1000b398:	008a2683          	lw	a3,8(s4)
1000b39c:	416787b3          	sub	a5,a5,s6
1000b3a0:	00870733          	add	a4,a4,s0
1000b3a4:	00f4a423          	sw	a5,8(s1)
1000b3a8:	00e4a023          	sw	a4,0(s1)
1000b3ac:	412686b3          	sub	a3,a3,s2
1000b3b0:	00da2423          	sw	a3,8(s4)
1000b3b4:	06068663          	beqz	a3,1000b420 <__ssprint_r+0x188>
1000b3b8:	0049a903          	lw	s2,4(s3)
1000b3bc:	0009ab83          	lw	s7,0(s3)
1000b3c0:	00078b13          	mv	s6,a5
1000b3c4:	00898993          	addi	s3,s3,8
1000b3c8:	00078413          	mv	s0,a5
1000b3cc:	00070513          	mv	a0,a4
1000b3d0:	fe0904e3          	beqz	s2,1000b3b8 <__ssprint_r+0x120>
1000b3d4:	f0f97ae3          	bgeu	s2,a5,1000b2e8 <__ssprint_r+0x50>
1000b3d8:	00090b13          	mv	s6,s2
1000b3dc:	00090413          	mv	s0,s2
1000b3e0:	fa5ff06f          	j	1000b384 <__ssprint_r+0xec>
1000b3e4:	000a8513          	mv	a0,s5
1000b3e8:	c18ff0ef          	jal	ra,1000a800 <_realloc_r>
1000b3ec:	00050c13          	mv	s8,a0
1000b3f0:	f6051ae3          	bnez	a0,1000b364 <__ssprint_r+0xcc>
1000b3f4:	0104a583          	lw	a1,16(s1)
1000b3f8:	000a8513          	mv	a0,s5
1000b3fc:	970fa0ef          	jal	ra,1000556c <_free_r>
1000b400:	00c4d783          	lhu	a5,12(s1)
1000b404:	00c00713          	li	a4,12
1000b408:	00eaa023          	sw	a4,0(s5)
1000b40c:	0407e793          	ori	a5,a5,64
1000b410:	00f49623          	sh	a5,12(s1)
1000b414:	000a2423          	sw	zero,8(s4)
1000b418:	fff00513          	li	a0,-1
1000b41c:	0080006f          	j	1000b424 <__ssprint_r+0x18c>
1000b420:	00000513          	li	a0,0
1000b424:	02c12083          	lw	ra,44(sp)
1000b428:	02812403          	lw	s0,40(sp)
1000b42c:	000a2223          	sw	zero,4(s4)
1000b430:	02412483          	lw	s1,36(sp)
1000b434:	02012903          	lw	s2,32(sp)
1000b438:	01c12983          	lw	s3,28(sp)
1000b43c:	01812a03          	lw	s4,24(sp)
1000b440:	01412a83          	lw	s5,20(sp)
1000b444:	01012b03          	lw	s6,16(sp)
1000b448:	00c12b83          	lw	s7,12(sp)
1000b44c:	00812c03          	lw	s8,8(sp)
1000b450:	03010113          	addi	sp,sp,48
1000b454:	00008067          	ret

1000b458 <_svfiprintf_r>:
1000b458:	00c5d783          	lhu	a5,12(a1)
1000b45c:	ed010113          	addi	sp,sp,-304
1000b460:	11412c23          	sw	s4,280(sp)
1000b464:	11612823          	sw	s6,272(sp)
1000b468:	0fb12e23          	sw	s11,252(sp)
1000b46c:	12112623          	sw	ra,300(sp)
1000b470:	12812423          	sw	s0,296(sp)
1000b474:	12912223          	sw	s1,292(sp)
1000b478:	13212023          	sw	s2,288(sp)
1000b47c:	11312e23          	sw	s3,284(sp)
1000b480:	11512a23          	sw	s5,276(sp)
1000b484:	11712623          	sw	s7,268(sp)
1000b488:	11812423          	sw	s8,264(sp)
1000b48c:	11912223          	sw	s9,260(sp)
1000b490:	11a12023          	sw	s10,256(sp)
1000b494:	0807f793          	andi	a5,a5,128
1000b498:	00d12423          	sw	a3,8(sp)
1000b49c:	00058a13          	mv	s4,a1
1000b4a0:	00050b13          	mv	s6,a0
1000b4a4:	00060d93          	mv	s11,a2
1000b4a8:	00078663          	beqz	a5,1000b4b4 <_svfiprintf_r+0x5c>
1000b4ac:	0105a783          	lw	a5,16(a1)
1000b4b0:	680784e3          	beqz	a5,1000c338 <_svfiprintf_r+0xee0>
1000b4b4:	10014737          	lui	a4,0x10014
1000b4b8:	04c10a93          	addi	s5,sp,76
1000b4bc:	00000813          	li	a6,0
1000b4c0:	6f070713          	addi	a4,a4,1776 # 100146f0 <__mprec_bigtens+0x28>
1000b4c4:	10015c37          	lui	s8,0x10015
1000b4c8:	100154b7          	lui	s1,0x10015
1000b4cc:	000d8913          	mv	s2,s11
1000b4d0:	05512023          	sw	s5,64(sp)
1000b4d4:	04012423          	sw	zero,72(sp)
1000b4d8:	04012223          	sw	zero,68(sp)
1000b4dc:	00012823          	sw	zero,16(sp)
1000b4e0:	00012c23          	sw	zero,24(sp)
1000b4e4:	00012e23          	sw	zero,28(sp)
1000b4e8:	02012023          	sw	zero,32(sp)
1000b4ec:	00012223          	sw	zero,4(sp)
1000b4f0:	00e12623          	sw	a4,12(sp)
1000b4f4:	85cc0c13          	addi	s8,s8,-1956 # 1001485c <blanks.1>
1000b4f8:	86c48493          	addi	s1,s1,-1940 # 1001486c <zeroes.0>
1000b4fc:	00080993          	mv	s3,a6
1000b500:	000a8d93          	mv	s11,s5
1000b504:	00094703          	lbu	a4,0(s2)
1000b508:	1e070e63          	beqz	a4,1000b704 <_svfiprintf_r+0x2ac>
1000b50c:	00090413          	mv	s0,s2
1000b510:	02500693          	li	a3,37
1000b514:	2ad70863          	beq	a4,a3,1000b7c4 <_svfiprintf_r+0x36c>
1000b518:	00144703          	lbu	a4,1(s0)
1000b51c:	00140413          	addi	s0,s0,1
1000b520:	fe071ae3          	bnez	a4,1000b514 <_svfiprintf_r+0xbc>
1000b524:	41240bb3          	sub	s7,s0,s2
1000b528:	1d240e63          	beq	s0,s2,1000b704 <_svfiprintf_r+0x2ac>
1000b52c:	04412703          	lw	a4,68(sp)
1000b530:	017989b3          	add	s3,s3,s7
1000b534:	012da023          	sw	s2,0(s11)
1000b538:	00170713          	addi	a4,a4,1
1000b53c:	017da223          	sw	s7,4(s11)
1000b540:	05312423          	sw	s3,72(sp)
1000b544:	04e12223          	sw	a4,68(sp)
1000b548:	00700693          	li	a3,7
1000b54c:	008d8d93          	addi	s11,s11,8
1000b550:	28e6c263          	blt	a3,a4,1000b7d4 <_svfiprintf_r+0x37c>
1000b554:	00412783          	lw	a5,4(sp)
1000b558:	00044703          	lbu	a4,0(s0)
1000b55c:	017787b3          	add	a5,a5,s7
1000b560:	00f12223          	sw	a5,4(sp)
1000b564:	1a070063          	beqz	a4,1000b704 <_svfiprintf_r+0x2ac>
1000b568:	00000693          	li	a3,0
1000b56c:	00144603          	lbu	a2,1(s0)
1000b570:	00140913          	addi	s2,s0,1
1000b574:	02010da3          	sb	zero,59(sp)
1000b578:	fff00e93          	li	t4,-1
1000b57c:	00012023          	sw	zero,0(sp)
1000b580:	05a00b93          	li	s7,90
1000b584:	00900c93          	li	s9,9
1000b588:	02a00d13          	li	s10,42
1000b58c:	00068413          	mv	s0,a3
1000b590:	00190913          	addi	s2,s2,1
1000b594:	fe060793          	addi	a5,a2,-32
1000b598:	04fbe863          	bltu	s7,a5,1000b5e8 <_svfiprintf_r+0x190>
1000b59c:	00c12703          	lw	a4,12(sp)
1000b5a0:	00279793          	slli	a5,a5,0x2
1000b5a4:	00e787b3          	add	a5,a5,a4
1000b5a8:	0007a783          	lw	a5,0(a5)
1000b5ac:	00078067          	jr	a5
1000b5b0:	00012023          	sw	zero,0(sp)
1000b5b4:	fd060793          	addi	a5,a2,-48
1000b5b8:	00012683          	lw	a3,0(sp)
1000b5bc:	00094603          	lbu	a2,0(s2)
1000b5c0:	00190913          	addi	s2,s2,1
1000b5c4:	00269713          	slli	a4,a3,0x2
1000b5c8:	00d70733          	add	a4,a4,a3
1000b5cc:	00171713          	slli	a4,a4,0x1
1000b5d0:	00e787b3          	add	a5,a5,a4
1000b5d4:	00f12023          	sw	a5,0(sp)
1000b5d8:	fd060793          	addi	a5,a2,-48
1000b5dc:	fcfcfee3          	bgeu	s9,a5,1000b5b8 <_svfiprintf_r+0x160>
1000b5e0:	fe060793          	addi	a5,a2,-32
1000b5e4:	fafbfce3          	bgeu	s7,a5,1000b59c <_svfiprintf_r+0x144>
1000b5e8:	00040693          	mv	a3,s0
1000b5ec:	10060c63          	beqz	a2,1000b704 <_svfiprintf_r+0x2ac>
1000b5f0:	08c10623          	sb	a2,140(sp)
1000b5f4:	02010da3          	sb	zero,59(sp)
1000b5f8:	00100b93          	li	s7,1
1000b5fc:	00100c93          	li	s9,1
1000b600:	08c10413          	addi	s0,sp,140
1000b604:	00000e93          	li	t4,0
1000b608:	0026ff93          	andi	t6,a3,2
1000b60c:	000f8463          	beqz	t6,1000b614 <_svfiprintf_r+0x1bc>
1000b610:	002b8b93          	addi	s7,s7,2
1000b614:	0846ff13          	andi	t5,a3,132
1000b618:	04412703          	lw	a4,68(sp)
1000b61c:	000f1863          	bnez	t5,1000b62c <_svfiprintf_r+0x1d4>
1000b620:	00012783          	lw	a5,0(sp)
1000b624:	41778d33          	sub	s10,a5,s7
1000b628:	05a04ee3          	bgtz	s10,1000be84 <_svfiprintf_r+0xa2c>
1000b62c:	03b14603          	lbu	a2,59(sp)
1000b630:	02060863          	beqz	a2,1000b660 <_svfiprintf_r+0x208>
1000b634:	03b10613          	addi	a2,sp,59
1000b638:	00cda023          	sw	a2,0(s11)
1000b63c:	00170713          	addi	a4,a4,1
1000b640:	00100613          	li	a2,1
1000b644:	00198993          	addi	s3,s3,1
1000b648:	00cda223          	sw	a2,4(s11)
1000b64c:	05312423          	sw	s3,72(sp)
1000b650:	04e12223          	sw	a4,68(sp)
1000b654:	00700613          	li	a2,7
1000b658:	008d8d93          	addi	s11,s11,8
1000b65c:	18e64c63          	blt	a2,a4,1000b7f4 <_svfiprintf_r+0x39c>
1000b660:	020f8863          	beqz	t6,1000b690 <_svfiprintf_r+0x238>
1000b664:	03c10613          	addi	a2,sp,60
1000b668:	00cda023          	sw	a2,0(s11)
1000b66c:	00170713          	addi	a4,a4,1
1000b670:	00200613          	li	a2,2
1000b674:	00298993          	addi	s3,s3,2
1000b678:	00cda223          	sw	a2,4(s11)
1000b67c:	05312423          	sw	s3,72(sp)
1000b680:	04e12223          	sw	a4,68(sp)
1000b684:	00700613          	li	a2,7
1000b688:	008d8d93          	addi	s11,s11,8
1000b68c:	12e64ee3          	blt	a2,a4,1000bfc8 <_svfiprintf_r+0xb70>
1000b690:	08000613          	li	a2,128
1000b694:	5acf0a63          	beq	t5,a2,1000bc48 <_svfiprintf_r+0x7f0>
1000b698:	419e8d33          	sub	s10,t4,s9
1000b69c:	6ba04c63          	bgtz	s10,1000bd54 <_svfiprintf_r+0x8fc>
1000b6a0:	019989b3          	add	s3,s3,s9
1000b6a4:	00170713          	addi	a4,a4,1
1000b6a8:	008da023          	sw	s0,0(s11)
1000b6ac:	019da223          	sw	s9,4(s11)
1000b6b0:	05312423          	sw	s3,72(sp)
1000b6b4:	04e12223          	sw	a4,68(sp)
1000b6b8:	00700613          	li	a2,7
1000b6bc:	008d8793          	addi	a5,s11,8
1000b6c0:	76e64c63          	blt	a2,a4,1000be38 <_svfiprintf_r+0x9e0>
1000b6c4:	0046f693          	andi	a3,a3,4
1000b6c8:	00068863          	beqz	a3,1000b6d8 <_svfiprintf_r+0x280>
1000b6cc:	00012703          	lw	a4,0(sp)
1000b6d0:	41770cb3          	sub	s9,a4,s7
1000b6d4:	139048e3          	bgtz	s9,1000c004 <_svfiprintf_r+0xbac>
1000b6d8:	00012403          	lw	s0,0(sp)
1000b6dc:	01745463          	bge	s0,s7,1000b6e4 <_svfiprintf_r+0x28c>
1000b6e0:	000b8413          	mv	s0,s7
1000b6e4:	00412783          	lw	a5,4(sp)
1000b6e8:	008787b3          	add	a5,a5,s0
1000b6ec:	00f12223          	sw	a5,4(sp)
1000b6f0:	76099863          	bnez	s3,1000be60 <_svfiprintf_r+0xa08>
1000b6f4:	00094703          	lbu	a4,0(s2)
1000b6f8:	04012223          	sw	zero,68(sp)
1000b6fc:	000a8d93          	mv	s11,s5
1000b700:	e00716e3          	bnez	a4,1000b50c <_svfiprintf_r+0xb4>
1000b704:	50099ce3          	bnez	s3,1000c41c <_svfiprintf_r+0xfc4>
1000b708:	00ca5783          	lhu	a5,12(s4)
1000b70c:	0407f793          	andi	a5,a5,64
1000b710:	580796e3          	bnez	a5,1000c49c <_svfiprintf_r+0x1044>
1000b714:	12c12083          	lw	ra,300(sp)
1000b718:	12812403          	lw	s0,296(sp)
1000b71c:	00412503          	lw	a0,4(sp)
1000b720:	12412483          	lw	s1,292(sp)
1000b724:	12012903          	lw	s2,288(sp)
1000b728:	11c12983          	lw	s3,284(sp)
1000b72c:	11812a03          	lw	s4,280(sp)
1000b730:	11412a83          	lw	s5,276(sp)
1000b734:	11012b03          	lw	s6,272(sp)
1000b738:	10c12b83          	lw	s7,268(sp)
1000b73c:	10812c03          	lw	s8,264(sp)
1000b740:	10412c83          	lw	s9,260(sp)
1000b744:	10012d03          	lw	s10,256(sp)
1000b748:	0fc12d83          	lw	s11,252(sp)
1000b74c:	13010113          	addi	sp,sp,304
1000b750:	00008067          	ret
1000b754:	000b0513          	mv	a0,s6
1000b758:	01d12a23          	sw	t4,20(sp)
1000b75c:	ac4fd0ef          	jal	ra,10008a20 <_localeconv_r>
1000b760:	00452783          	lw	a5,4(a0)
1000b764:	00078513          	mv	a0,a5
1000b768:	02f12023          	sw	a5,32(sp)
1000b76c:	ed5f60ef          	jal	ra,10002640 <strlen>
1000b770:	00050793          	mv	a5,a0
1000b774:	000b0513          	mv	a0,s6
1000b778:	00f12e23          	sw	a5,28(sp)
1000b77c:	aa4fd0ef          	jal	ra,10008a20 <_localeconv_r>
1000b780:	00852703          	lw	a4,8(a0)
1000b784:	01c12783          	lw	a5,28(sp)
1000b788:	01412e83          	lw	t4,20(sp)
1000b78c:	00e12c23          	sw	a4,24(sp)
1000b790:	28079ee3          	bnez	a5,1000c22c <_svfiprintf_r+0xdd4>
1000b794:	00094603          	lbu	a2,0(s2)
1000b798:	df9ff06f          	j	1000b590 <_svfiprintf_r+0x138>
1000b79c:	00094603          	lbu	a2,0(s2)
1000b7a0:	02046413          	ori	s0,s0,32
1000b7a4:	dedff06f          	j	1000b590 <_svfiprintf_r+0x138>
1000b7a8:	00012703          	lw	a4,0(sp)
1000b7ac:	00f12423          	sw	a5,8(sp)
1000b7b0:	40e00733          	neg	a4,a4
1000b7b4:	00e12023          	sw	a4,0(sp)
1000b7b8:	00094603          	lbu	a2,0(s2)
1000b7bc:	00446413          	ori	s0,s0,4
1000b7c0:	dd1ff06f          	j	1000b590 <_svfiprintf_r+0x138>
1000b7c4:	41240bb3          	sub	s7,s0,s2
1000b7c8:	d72412e3          	bne	s0,s2,1000b52c <_svfiprintf_r+0xd4>
1000b7cc:	00044703          	lbu	a4,0(s0)
1000b7d0:	d95ff06f          	j	1000b564 <_svfiprintf_r+0x10c>
1000b7d4:	04010613          	addi	a2,sp,64
1000b7d8:	000a0593          	mv	a1,s4
1000b7dc:	000b0513          	mv	a0,s6
1000b7e0:	ab9ff0ef          	jal	ra,1000b298 <__ssprint_r>
1000b7e4:	f20512e3          	bnez	a0,1000b708 <_svfiprintf_r+0x2b0>
1000b7e8:	04812983          	lw	s3,72(sp)
1000b7ec:	000a8d93          	mv	s11,s5
1000b7f0:	d65ff06f          	j	1000b554 <_svfiprintf_r+0xfc>
1000b7f4:	04010613          	addi	a2,sp,64
1000b7f8:	000a0593          	mv	a1,s4
1000b7fc:	000b0513          	mv	a0,s6
1000b800:	03d12623          	sw	t4,44(sp)
1000b804:	02d12423          	sw	a3,40(sp)
1000b808:	03e12223          	sw	t5,36(sp)
1000b80c:	01f12a23          	sw	t6,20(sp)
1000b810:	a89ff0ef          	jal	ra,1000b298 <__ssprint_r>
1000b814:	ee051ae3          	bnez	a0,1000b708 <_svfiprintf_r+0x2b0>
1000b818:	04812983          	lw	s3,72(sp)
1000b81c:	04412703          	lw	a4,68(sp)
1000b820:	02c12e83          	lw	t4,44(sp)
1000b824:	02812683          	lw	a3,40(sp)
1000b828:	02412f03          	lw	t5,36(sp)
1000b82c:	01412f83          	lw	t6,20(sp)
1000b830:	000a8d93          	mv	s11,s5
1000b834:	e2dff06f          	j	1000b660 <_svfiprintf_r+0x208>
1000b838:	00812783          	lw	a5,8(sp)
1000b83c:	00040693          	mv	a3,s0
1000b840:	02010da3          	sb	zero,59(sp)
1000b844:	0007a403          	lw	s0,0(a5)
1000b848:	00478d13          	addi	s10,a5,4
1000b84c:	3a0400e3          	beqz	s0,1000c3ec <_svfiprintf_r+0xf94>
1000b850:	fff00713          	li	a4,-1
1000b854:	00d12a23          	sw	a3,20(sp)
1000b858:	2cee82e3          	beq	t4,a4,1000c31c <_svfiprintf_r+0xec4>
1000b85c:	000e8613          	mv	a2,t4
1000b860:	00000593          	li	a1,0
1000b864:	00040513          	mv	a0,s0
1000b868:	01d12423          	sw	t4,8(sp)
1000b86c:	afdfd0ef          	jal	ra,10009368 <memchr>
1000b870:	00812e83          	lw	t4,8(sp)
1000b874:	01412683          	lw	a3,20(sp)
1000b878:	400506e3          	beqz	a0,1000c484 <_svfiprintf_r+0x102c>
1000b87c:	40850cb3          	sub	s9,a0,s0
1000b880:	01a12423          	sw	s10,8(sp)
1000b884:	00000e93          	li	t4,0
1000b888:	0980006f          	j	1000b920 <_svfiprintf_r+0x4c8>
1000b88c:	00812783          	lw	a5,8(sp)
1000b890:	00040693          	mv	a3,s0
1000b894:	02010da3          	sb	zero,59(sp)
1000b898:	0007a703          	lw	a4,0(a5)
1000b89c:	00478793          	addi	a5,a5,4
1000b8a0:	00f12423          	sw	a5,8(sp)
1000b8a4:	08e10623          	sb	a4,140(sp)
1000b8a8:	00100b93          	li	s7,1
1000b8ac:	00100c93          	li	s9,1
1000b8b0:	08c10413          	addi	s0,sp,140
1000b8b4:	d51ff06f          	j	1000b604 <_svfiprintf_r+0x1ac>
1000b8b8:	00040693          	mv	a3,s0
1000b8bc:	0206f713          	andi	a4,a3,32
1000b8c0:	1c070a63          	beqz	a4,1000ba94 <_svfiprintf_r+0x63c>
1000b8c4:	00812783          	lw	a5,8(sp)
1000b8c8:	00778793          	addi	a5,a5,7
1000b8cc:	ff87f793          	andi	a5,a5,-8
1000b8d0:	0047a603          	lw	a2,4(a5)
1000b8d4:	0007ac83          	lw	s9,0(a5)
1000b8d8:	00878793          	addi	a5,a5,8
1000b8dc:	00f12423          	sw	a5,8(sp)
1000b8e0:	00060b93          	mv	s7,a2
1000b8e4:	1e064263          	bltz	a2,1000bac8 <_svfiprintf_r+0x670>
1000b8e8:	fff00613          	li	a2,-1
1000b8ec:	00068d13          	mv	s10,a3
1000b8f0:	00ce8863          	beq	t4,a2,1000b900 <_svfiprintf_r+0x4a8>
1000b8f4:	017ce633          	or	a2,s9,s7
1000b8f8:	f7f6fd13          	andi	s10,a3,-129
1000b8fc:	7a060a63          	beqz	a2,1000c0b0 <_svfiprintf_r+0xc58>
1000b900:	060b98e3          	bnez	s7,1000c170 <_svfiprintf_r+0xd18>
1000b904:	00900693          	li	a3,9
1000b908:	0796e4e3          	bltu	a3,s9,1000c170 <_svfiprintf_r+0xd18>
1000b90c:	030c8713          	addi	a4,s9,48
1000b910:	0ee107a3          	sb	a4,239(sp)
1000b914:	000d0693          	mv	a3,s10
1000b918:	00100c93          	li	s9,1
1000b91c:	0ef10413          	addi	s0,sp,239
1000b920:	000e8b93          	mv	s7,t4
1000b924:	019ed463          	bge	t4,s9,1000b92c <_svfiprintf_r+0x4d4>
1000b928:	000c8b93          	mv	s7,s9
1000b92c:	03b14703          	lbu	a4,59(sp)
1000b930:	00e03733          	snez	a4,a4
1000b934:	00eb8bb3          	add	s7,s7,a4
1000b938:	cd1ff06f          	j	1000b608 <_svfiprintf_r+0x1b0>
1000b93c:	00812783          	lw	a5,8(sp)
1000b940:	ffff86b7          	lui	a3,0xffff8
1000b944:	8306c693          	xori	a3,a3,-2000
1000b948:	0007ac83          	lw	s9,0(a5)
1000b94c:	02d11e23          	sh	a3,60(sp)
1000b950:	00478793          	addi	a5,a5,4
1000b954:	100146b7          	lui	a3,0x10014
1000b958:	00f12423          	sw	a5,8(sp)
1000b95c:	03068793          	addi	a5,a3,48 # 10014030 <__clz_tab+0x114>
1000b960:	00000b93          	li	s7,0
1000b964:	00246d13          	ori	s10,s0,2
1000b968:	00f12823          	sw	a5,16(sp)
1000b96c:	00200613          	li	a2,2
1000b970:	00000693          	li	a3,0
1000b974:	02d10da3          	sb	a3,59(sp)
1000b978:	fff00693          	li	a3,-1
1000b97c:	16de8a63          	beq	t4,a3,1000baf0 <_svfiprintf_r+0x698>
1000b980:	017ce5b3          	or	a1,s9,s7
1000b984:	f7fd7693          	andi	a3,s10,-129
1000b988:	4e059a63          	bnez	a1,1000be7c <_svfiprintf_r+0xa24>
1000b98c:	260e9263          	bnez	t4,1000bbf0 <_svfiprintf_r+0x798>
1000b990:	72061463          	bnez	a2,1000c0b8 <_svfiprintf_r+0xc60>
1000b994:	001d7c93          	andi	s9,s10,1
1000b998:	0f010413          	addi	s0,sp,240
1000b99c:	f80c82e3          	beqz	s9,1000b920 <_svfiprintf_r+0x4c8>
1000b9a0:	03000713          	li	a4,48
1000b9a4:	0ee107a3          	sb	a4,239(sp)
1000b9a8:	0ef10413          	addi	s0,sp,239
1000b9ac:	f75ff06f          	j	1000b920 <_svfiprintf_r+0x4c8>
1000b9b0:	00812783          	lw	a5,8(sp)
1000b9b4:	02047713          	andi	a4,s0,32
1000b9b8:	00478613          	addi	a2,a5,4
1000b9bc:	080716e3          	bnez	a4,1000c248 <_svfiprintf_r+0xdf0>
1000b9c0:	01047713          	andi	a4,s0,16
1000b9c4:	200718e3          	bnez	a4,1000c3d4 <_svfiprintf_r+0xf7c>
1000b9c8:	04047713          	andi	a4,s0,64
1000b9cc:	260712e3          	bnez	a4,1000c430 <_svfiprintf_r+0xfd8>
1000b9d0:	20047693          	andi	a3,s0,512
1000b9d4:	200680e3          	beqz	a3,1000c3d4 <_svfiprintf_r+0xf7c>
1000b9d8:	00812783          	lw	a5,8(sp)
1000b9dc:	00c12423          	sw	a2,8(sp)
1000b9e0:	0007a703          	lw	a4,0(a5)
1000b9e4:	00412783          	lw	a5,4(sp)
1000b9e8:	00f70023          	sb	a5,0(a4)
1000b9ec:	b19ff06f          	j	1000b504 <_svfiprintf_r+0xac>
1000b9f0:	00094603          	lbu	a2,0(s2)
1000b9f4:	08046413          	ori	s0,s0,128
1000b9f8:	b99ff06f          	j	1000b590 <_svfiprintf_r+0x138>
1000b9fc:	00094603          	lbu	a2,0(s2)
1000ba00:	06c00793          	li	a5,108
1000ba04:	1af608e3          	beq	a2,a5,1000c3b4 <_svfiprintf_r+0xf5c>
1000ba08:	01046413          	ori	s0,s0,16
1000ba0c:	b85ff06f          	j	1000b590 <_svfiprintf_r+0x138>
1000ba10:	00094603          	lbu	a2,0(s2)
1000ba14:	06800793          	li	a5,104
1000ba18:	1af606e3          	beq	a2,a5,1000c3c4 <_svfiprintf_r+0xf6c>
1000ba1c:	04046413          	ori	s0,s0,64
1000ba20:	b71ff06f          	j	1000b590 <_svfiprintf_r+0x138>
1000ba24:	01046d13          	ori	s10,s0,16
1000ba28:	020d7713          	andi	a4,s10,32
1000ba2c:	6a070a63          	beqz	a4,1000c0e0 <_svfiprintf_r+0xc88>
1000ba30:	00812783          	lw	a5,8(sp)
1000ba34:	00100613          	li	a2,1
1000ba38:	00778793          	addi	a5,a5,7
1000ba3c:	ff87f793          	andi	a5,a5,-8
1000ba40:	0007ac83          	lw	s9,0(a5)
1000ba44:	0047ab83          	lw	s7,4(a5)
1000ba48:	00878793          	addi	a5,a5,8
1000ba4c:	00f12423          	sw	a5,8(sp)
1000ba50:	f21ff06f          	j	1000b970 <_svfiprintf_r+0x518>
1000ba54:	01046693          	ori	a3,s0,16
1000ba58:	0206f713          	andi	a4,a3,32
1000ba5c:	6c070863          	beqz	a4,1000c12c <_svfiprintf_r+0xcd4>
1000ba60:	00812783          	lw	a5,8(sp)
1000ba64:	00778793          	addi	a5,a5,7
1000ba68:	ff87f793          	andi	a5,a5,-8
1000ba6c:	0007ac83          	lw	s9,0(a5)
1000ba70:	0047ab83          	lw	s7,4(a5)
1000ba74:	00878793          	addi	a5,a5,8
1000ba78:	00f12423          	sw	a5,8(sp)
1000ba7c:	bff6fd13          	andi	s10,a3,-1025
1000ba80:	00000613          	li	a2,0
1000ba84:	eedff06f          	j	1000b970 <_svfiprintf_r+0x518>
1000ba88:	01046693          	ori	a3,s0,16
1000ba8c:	0206f713          	andi	a4,a3,32
1000ba90:	e2071ae3          	bnez	a4,1000b8c4 <_svfiprintf_r+0x46c>
1000ba94:	00812783          	lw	a5,8(sp)
1000ba98:	0106f613          	andi	a2,a3,16
1000ba9c:	0007a703          	lw	a4,0(a5)
1000baa0:	00478793          	addi	a5,a5,4
1000baa4:	00f12423          	sw	a5,8(sp)
1000baa8:	62061463          	bnez	a2,1000c0d0 <_svfiprintf_r+0xc78>
1000baac:	0406f613          	andi	a2,a3,64
1000bab0:	60060c63          	beqz	a2,1000c0c8 <_svfiprintf_r+0xc70>
1000bab4:	01071c93          	slli	s9,a4,0x10
1000bab8:	410cdc93          	srai	s9,s9,0x10
1000babc:	41fcdb93          	srai	s7,s9,0x1f
1000bac0:	000b8613          	mv	a2,s7
1000bac4:	e20652e3          	bgez	a2,1000b8e8 <_svfiprintf_r+0x490>
1000bac8:	00068d13          	mv	s10,a3
1000bacc:	02d00693          	li	a3,45
1000bad0:	01903633          	snez	a2,s9
1000bad4:	417008b3          	neg	a7,s7
1000bad8:	02d10da3          	sb	a3,59(sp)
1000badc:	fff00693          	li	a3,-1
1000bae0:	40c88bb3          	sub	s7,a7,a2
1000bae4:	41900cb3          	neg	s9,s9
1000bae8:	00100613          	li	a2,1
1000baec:	e8de9ae3          	bne	t4,a3,1000b980 <_svfiprintf_r+0x528>
1000baf0:	00100693          	li	a3,1
1000baf4:	e0d606e3          	beq	a2,a3,1000b900 <_svfiprintf_r+0x4a8>
1000baf8:	00200693          	li	a3,2
1000bafc:	10d60463          	beq	a2,a3,1000bc04 <_svfiprintf_r+0x7ac>
1000bb00:	0f010413          	addi	s0,sp,240
1000bb04:	01db9793          	slli	a5,s7,0x1d
1000bb08:	007cf693          	andi	a3,s9,7
1000bb0c:	003cdc93          	srli	s9,s9,0x3
1000bb10:	03068693          	addi	a3,a3,48
1000bb14:	0197ecb3          	or	s9,a5,s9
1000bb18:	003bdb93          	srli	s7,s7,0x3
1000bb1c:	fed40fa3          	sb	a3,-1(s0)
1000bb20:	017ce7b3          	or	a5,s9,s7
1000bb24:	00040593          	mv	a1,s0
1000bb28:	fff40413          	addi	s0,s0,-1
1000bb2c:	fc079ce3          	bnez	a5,1000bb04 <_svfiprintf_r+0x6ac>
1000bb30:	001d7713          	andi	a4,s10,1
1000bb34:	10070263          	beqz	a4,1000bc38 <_svfiprintf_r+0x7e0>
1000bb38:	03000713          	li	a4,48
1000bb3c:	0ee68e63          	beq	a3,a4,1000bc38 <_svfiprintf_r+0x7e0>
1000bb40:	ffe58593          	addi	a1,a1,-2
1000bb44:	0f010793          	addi	a5,sp,240
1000bb48:	fee40fa3          	sb	a4,-1(s0)
1000bb4c:	40b78cb3          	sub	s9,a5,a1
1000bb50:	000d0693          	mv	a3,s10
1000bb54:	00058413          	mv	s0,a1
1000bb58:	dc9ff06f          	j	1000b920 <_svfiprintf_r+0x4c8>
1000bb5c:	00094603          	lbu	a2,0(s2)
1000bb60:	00190713          	addi	a4,s2,1
1000bb64:	15a602e3          	beq	a2,s10,1000c4a8 <_svfiprintf_r+0x1050>
1000bb68:	fd060793          	addi	a5,a2,-48
1000bb6c:	00070913          	mv	s2,a4
1000bb70:	00000e93          	li	t4,0
1000bb74:	a2fce0e3          	bltu	s9,a5,1000b594 <_svfiprintf_r+0x13c>
1000bb78:	00094603          	lbu	a2,0(s2)
1000bb7c:	002e9713          	slli	a4,t4,0x2
1000bb80:	01d70eb3          	add	t4,a4,t4
1000bb84:	001e9e93          	slli	t4,t4,0x1
1000bb88:	00fe8eb3          	add	t4,t4,a5
1000bb8c:	fd060793          	addi	a5,a2,-48
1000bb90:	00190913          	addi	s2,s2,1
1000bb94:	fefcf2e3          	bgeu	s9,a5,1000bb78 <_svfiprintf_r+0x720>
1000bb98:	9fdff06f          	j	1000b594 <_svfiprintf_r+0x13c>
1000bb9c:	02b00793          	li	a5,43
1000bba0:	00094603          	lbu	a2,0(s2)
1000bba4:	02f10da3          	sb	a5,59(sp)
1000bba8:	9e9ff06f          	j	1000b590 <_svfiprintf_r+0x138>
1000bbac:	00812783          	lw	a5,8(sp)
1000bbb0:	0007a703          	lw	a4,0(a5)
1000bbb4:	00478793          	addi	a5,a5,4
1000bbb8:	00e12023          	sw	a4,0(sp)
1000bbbc:	be0746e3          	bltz	a4,1000b7a8 <_svfiprintf_r+0x350>
1000bbc0:	00094603          	lbu	a2,0(s2)
1000bbc4:	00f12423          	sw	a5,8(sp)
1000bbc8:	9c9ff06f          	j	1000b590 <_svfiprintf_r+0x138>
1000bbcc:	00094603          	lbu	a2,0(s2)
1000bbd0:	00146413          	ori	s0,s0,1
1000bbd4:	9bdff06f          	j	1000b590 <_svfiprintf_r+0x138>
1000bbd8:	03b14783          	lbu	a5,59(sp)
1000bbdc:	00094603          	lbu	a2,0(s2)
1000bbe0:	9a0798e3          	bnez	a5,1000b590 <_svfiprintf_r+0x138>
1000bbe4:	02000793          	li	a5,32
1000bbe8:	02f10da3          	sb	a5,59(sp)
1000bbec:	9a5ff06f          	j	1000b590 <_svfiprintf_r+0x138>
1000bbf0:	00100593          	li	a1,1
1000bbf4:	0ab600e3          	beq	a2,a1,1000c494 <_svfiprintf_r+0x103c>
1000bbf8:	00200593          	li	a1,2
1000bbfc:	00068d13          	mv	s10,a3
1000bc00:	f0b610e3          	bne	a2,a1,1000bb00 <_svfiprintf_r+0x6a8>
1000bc04:	01012683          	lw	a3,16(sp)
1000bc08:	0f010413          	addi	s0,sp,240
1000bc0c:	00fcf793          	andi	a5,s9,15
1000bc10:	00f687b3          	add	a5,a3,a5
1000bc14:	0007c703          	lbu	a4,0(a5)
1000bc18:	004cdc93          	srli	s9,s9,0x4
1000bc1c:	01cb9793          	slli	a5,s7,0x1c
1000bc20:	0197ecb3          	or	s9,a5,s9
1000bc24:	004bdb93          	srli	s7,s7,0x4
1000bc28:	fee40fa3          	sb	a4,-1(s0)
1000bc2c:	017ce7b3          	or	a5,s9,s7
1000bc30:	fff40413          	addi	s0,s0,-1
1000bc34:	fc079ce3          	bnez	a5,1000bc0c <_svfiprintf_r+0x7b4>
1000bc38:	0f010793          	addi	a5,sp,240
1000bc3c:	40878cb3          	sub	s9,a5,s0
1000bc40:	000d0693          	mv	a3,s10
1000bc44:	cddff06f          	j	1000b920 <_svfiprintf_r+0x4c8>
1000bc48:	00012783          	lw	a5,0(sp)
1000bc4c:	41778d33          	sub	s10,a5,s7
1000bc50:	a5a054e3          	blez	s10,1000b698 <_svfiprintf_r+0x240>
1000bc54:	01000613          	li	a2,16
1000bc58:	0ba65063          	bge	a2,s10,1000bcf8 <_svfiprintf_r+0x8a0>
1000bc5c:	00812a23          	sw	s0,20(sp)
1000bc60:	00098793          	mv	a5,s3
1000bc64:	000a0413          	mv	s0,s4
1000bc68:	01000893          	li	a7,16
1000bc6c:	000d0a13          	mv	s4,s10
1000bc70:	00700f13          	li	t5,7
1000bc74:	00090d13          	mv	s10,s2
1000bc78:	000e8993          	mv	s3,t4
1000bc7c:	00068913          	mv	s2,a3
1000bc80:	00c0006f          	j	1000bc8c <_svfiprintf_r+0x834>
1000bc84:	ff0a0a13          	addi	s4,s4,-16
1000bc88:	0548da63          	bge	a7,s4,1000bcdc <_svfiprintf_r+0x884>
1000bc8c:	01078793          	addi	a5,a5,16
1000bc90:	00170713          	addi	a4,a4,1
1000bc94:	009da023          	sw	s1,0(s11)
1000bc98:	011da223          	sw	a7,4(s11)
1000bc9c:	04f12423          	sw	a5,72(sp)
1000bca0:	04e12223          	sw	a4,68(sp)
1000bca4:	008d8d93          	addi	s11,s11,8
1000bca8:	fcef5ee3          	bge	t5,a4,1000bc84 <_svfiprintf_r+0x82c>
1000bcac:	04010613          	addi	a2,sp,64
1000bcb0:	00040593          	mv	a1,s0
1000bcb4:	000b0513          	mv	a0,s6
1000bcb8:	de0ff0ef          	jal	ra,1000b298 <__ssprint_r>
1000bcbc:	3e051663          	bnez	a0,1000c0a8 <_svfiprintf_r+0xc50>
1000bcc0:	01000893          	li	a7,16
1000bcc4:	ff0a0a13          	addi	s4,s4,-16
1000bcc8:	04812783          	lw	a5,72(sp)
1000bccc:	04412703          	lw	a4,68(sp)
1000bcd0:	000a8d93          	mv	s11,s5
1000bcd4:	00700f13          	li	t5,7
1000bcd8:	fb48cae3          	blt	a7,s4,1000bc8c <_svfiprintf_r+0x834>
1000bcdc:	00090693          	mv	a3,s2
1000bce0:	000d0913          	mv	s2,s10
1000bce4:	000a0d13          	mv	s10,s4
1000bce8:	00040a13          	mv	s4,s0
1000bcec:	01412403          	lw	s0,20(sp)
1000bcf0:	00098e93          	mv	t4,s3
1000bcf4:	00078993          	mv	s3,a5
1000bcf8:	01a989b3          	add	s3,s3,s10
1000bcfc:	00170713          	addi	a4,a4,1
1000bd00:	009da023          	sw	s1,0(s11)
1000bd04:	01ada223          	sw	s10,4(s11)
1000bd08:	05312423          	sw	s3,72(sp)
1000bd0c:	04e12223          	sw	a4,68(sp)
1000bd10:	00700613          	li	a2,7
1000bd14:	008d8d93          	addi	s11,s11,8
1000bd18:	98e650e3          	bge	a2,a4,1000b698 <_svfiprintf_r+0x240>
1000bd1c:	04010613          	addi	a2,sp,64
1000bd20:	000a0593          	mv	a1,s4
1000bd24:	000b0513          	mv	a0,s6
1000bd28:	03d12223          	sw	t4,36(sp)
1000bd2c:	00d12a23          	sw	a3,20(sp)
1000bd30:	d68ff0ef          	jal	ra,1000b298 <__ssprint_r>
1000bd34:	9c051ae3          	bnez	a0,1000b708 <_svfiprintf_r+0x2b0>
1000bd38:	02412e83          	lw	t4,36(sp)
1000bd3c:	04812983          	lw	s3,72(sp)
1000bd40:	04412703          	lw	a4,68(sp)
1000bd44:	419e8d33          	sub	s10,t4,s9
1000bd48:	01412683          	lw	a3,20(sp)
1000bd4c:	000a8d93          	mv	s11,s5
1000bd50:	95a058e3          	blez	s10,1000b6a0 <_svfiprintf_r+0x248>
1000bd54:	01000613          	li	a2,16
1000bd58:	09a65863          	bge	a2,s10,1000bde8 <_svfiprintf_r+0x990>
1000bd5c:	00812a23          	sw	s0,20(sp)
1000bd60:	01000893          	li	a7,16
1000bd64:	000a0413          	mv	s0,s4
1000bd68:	00700e93          	li	t4,7
1000bd6c:	000d0a13          	mv	s4,s10
1000bd70:	00090d13          	mv	s10,s2
1000bd74:	00068913          	mv	s2,a3
1000bd78:	00c0006f          	j	1000bd84 <_svfiprintf_r+0x92c>
1000bd7c:	ff0a0a13          	addi	s4,s4,-16
1000bd80:	0548da63          	bge	a7,s4,1000bdd4 <_svfiprintf_r+0x97c>
1000bd84:	01098993          	addi	s3,s3,16
1000bd88:	00170713          	addi	a4,a4,1
1000bd8c:	009da023          	sw	s1,0(s11)
1000bd90:	011da223          	sw	a7,4(s11)
1000bd94:	05312423          	sw	s3,72(sp)
1000bd98:	04e12223          	sw	a4,68(sp)
1000bd9c:	008d8d93          	addi	s11,s11,8
1000bda0:	fceedee3          	bge	t4,a4,1000bd7c <_svfiprintf_r+0x924>
1000bda4:	04010613          	addi	a2,sp,64
1000bda8:	00040593          	mv	a1,s0
1000bdac:	000b0513          	mv	a0,s6
1000bdb0:	ce8ff0ef          	jal	ra,1000b298 <__ssprint_r>
1000bdb4:	2e051a63          	bnez	a0,1000c0a8 <_svfiprintf_r+0xc50>
1000bdb8:	01000893          	li	a7,16
1000bdbc:	ff0a0a13          	addi	s4,s4,-16
1000bdc0:	04812983          	lw	s3,72(sp)
1000bdc4:	04412703          	lw	a4,68(sp)
1000bdc8:	000a8d93          	mv	s11,s5
1000bdcc:	00700e93          	li	t4,7
1000bdd0:	fb48cae3          	blt	a7,s4,1000bd84 <_svfiprintf_r+0x92c>
1000bdd4:	00090693          	mv	a3,s2
1000bdd8:	000d0913          	mv	s2,s10
1000bddc:	000a0d13          	mv	s10,s4
1000bde0:	00040a13          	mv	s4,s0
1000bde4:	01412403          	lw	s0,20(sp)
1000bde8:	01a989b3          	add	s3,s3,s10
1000bdec:	00170713          	addi	a4,a4,1
1000bdf0:	009da023          	sw	s1,0(s11)
1000bdf4:	01ada223          	sw	s10,4(s11)
1000bdf8:	05312423          	sw	s3,72(sp)
1000bdfc:	04e12223          	sw	a4,68(sp)
1000be00:	00700613          	li	a2,7
1000be04:	008d8d93          	addi	s11,s11,8
1000be08:	88e65ce3          	bge	a2,a4,1000b6a0 <_svfiprintf_r+0x248>
1000be0c:	04010613          	addi	a2,sp,64
1000be10:	000a0593          	mv	a1,s4
1000be14:	000b0513          	mv	a0,s6
1000be18:	00d12a23          	sw	a3,20(sp)
1000be1c:	c7cff0ef          	jal	ra,1000b298 <__ssprint_r>
1000be20:	8e0514e3          	bnez	a0,1000b708 <_svfiprintf_r+0x2b0>
1000be24:	04812983          	lw	s3,72(sp)
1000be28:	04412703          	lw	a4,68(sp)
1000be2c:	01412683          	lw	a3,20(sp)
1000be30:	000a8d93          	mv	s11,s5
1000be34:	86dff06f          	j	1000b6a0 <_svfiprintf_r+0x248>
1000be38:	04010613          	addi	a2,sp,64
1000be3c:	000a0593          	mv	a1,s4
1000be40:	000b0513          	mv	a0,s6
1000be44:	00d12a23          	sw	a3,20(sp)
1000be48:	c50ff0ef          	jal	ra,1000b298 <__ssprint_r>
1000be4c:	8a051ee3          	bnez	a0,1000b708 <_svfiprintf_r+0x2b0>
1000be50:	04812983          	lw	s3,72(sp)
1000be54:	01412683          	lw	a3,20(sp)
1000be58:	000a8793          	mv	a5,s5
1000be5c:	869ff06f          	j	1000b6c4 <_svfiprintf_r+0x26c>
1000be60:	04010613          	addi	a2,sp,64
1000be64:	000a0593          	mv	a1,s4
1000be68:	000b0513          	mv	a0,s6
1000be6c:	c2cff0ef          	jal	ra,1000b298 <__ssprint_r>
1000be70:	88051ce3          	bnez	a0,1000b708 <_svfiprintf_r+0x2b0>
1000be74:	04812983          	lw	s3,72(sp)
1000be78:	87dff06f          	j	1000b6f4 <_svfiprintf_r+0x29c>
1000be7c:	00068d13          	mv	s10,a3
1000be80:	c71ff06f          	j	1000baf0 <_svfiprintf_r+0x698>
1000be84:	01000613          	li	a2,16
1000be88:	0da65c63          	bge	a2,s10,1000bf60 <_svfiprintf_r+0xb08>
1000be8c:	000d0593          	mv	a1,s10
1000be90:	00090613          	mv	a2,s2
1000be94:	000d8793          	mv	a5,s11
1000be98:	000b8d13          	mv	s10,s7
1000be9c:	000c8d93          	mv	s11,s9
1000bea0:	00068b93          	mv	s7,a3
1000bea4:	000a0913          	mv	s2,s4
1000bea8:	00098693          	mv	a3,s3
1000beac:	01000893          	li	a7,16
1000beb0:	00040993          	mv	s3,s0
1000beb4:	00700293          	li	t0,7
1000beb8:	01f12a23          	sw	t6,20(sp)
1000bebc:	03e12223          	sw	t5,36(sp)
1000bec0:	000e8c93          	mv	s9,t4
1000bec4:	00060a13          	mv	s4,a2
1000bec8:	00058413          	mv	s0,a1
1000becc:	00c0006f          	j	1000bed8 <_svfiprintf_r+0xa80>
1000bed0:	ff040413          	addi	s0,s0,-16
1000bed4:	0488da63          	bge	a7,s0,1000bf28 <_svfiprintf_r+0xad0>
1000bed8:	01068693          	addi	a3,a3,16
1000bedc:	00170713          	addi	a4,a4,1
1000bee0:	0187a023          	sw	s8,0(a5)
1000bee4:	0117a223          	sw	a7,4(a5)
1000bee8:	04d12423          	sw	a3,72(sp)
1000beec:	04e12223          	sw	a4,68(sp)
1000bef0:	00878793          	addi	a5,a5,8
1000bef4:	fce2dee3          	bge	t0,a4,1000bed0 <_svfiprintf_r+0xa78>
1000bef8:	04010613          	addi	a2,sp,64
1000befc:	00090593          	mv	a1,s2
1000bf00:	000b0513          	mv	a0,s6
1000bf04:	b94ff0ef          	jal	ra,1000b298 <__ssprint_r>
1000bf08:	4a051263          	bnez	a0,1000c3ac <_svfiprintf_r+0xf54>
1000bf0c:	01000893          	li	a7,16
1000bf10:	ff040413          	addi	s0,s0,-16
1000bf14:	04812683          	lw	a3,72(sp)
1000bf18:	04412703          	lw	a4,68(sp)
1000bf1c:	000a8793          	mv	a5,s5
1000bf20:	00700293          	li	t0,7
1000bf24:	fa88cae3          	blt	a7,s0,1000bed8 <_svfiprintf_r+0xa80>
1000bf28:	01412f83          	lw	t6,20(sp)
1000bf2c:	02412f03          	lw	t5,36(sp)
1000bf30:	00040613          	mv	a2,s0
1000bf34:	000c8e93          	mv	t4,s9
1000bf38:	000d8c93          	mv	s9,s11
1000bf3c:	00078d93          	mv	s11,a5
1000bf40:	000a0793          	mv	a5,s4
1000bf44:	00098413          	mv	s0,s3
1000bf48:	00090a13          	mv	s4,s2
1000bf4c:	00068993          	mv	s3,a3
1000bf50:	00078913          	mv	s2,a5
1000bf54:	000b8693          	mv	a3,s7
1000bf58:	000d0b93          	mv	s7,s10
1000bf5c:	00060d13          	mv	s10,a2
1000bf60:	01a989b3          	add	s3,s3,s10
1000bf64:	00170713          	addi	a4,a4,1
1000bf68:	018da023          	sw	s8,0(s11)
1000bf6c:	01ada223          	sw	s10,4(s11)
1000bf70:	05312423          	sw	s3,72(sp)
1000bf74:	04e12223          	sw	a4,68(sp)
1000bf78:	00700613          	li	a2,7
1000bf7c:	008d8d93          	addi	s11,s11,8
1000bf80:	eae65663          	bge	a2,a4,1000b62c <_svfiprintf_r+0x1d4>
1000bf84:	04010613          	addi	a2,sp,64
1000bf88:	000a0593          	mv	a1,s4
1000bf8c:	000b0513          	mv	a0,s6
1000bf90:	03d12623          	sw	t4,44(sp)
1000bf94:	02d12423          	sw	a3,40(sp)
1000bf98:	03e12223          	sw	t5,36(sp)
1000bf9c:	01f12a23          	sw	t6,20(sp)
1000bfa0:	af8ff0ef          	jal	ra,1000b298 <__ssprint_r>
1000bfa4:	f6051263          	bnez	a0,1000b708 <_svfiprintf_r+0x2b0>
1000bfa8:	04812983          	lw	s3,72(sp)
1000bfac:	04412703          	lw	a4,68(sp)
1000bfb0:	02c12e83          	lw	t4,44(sp)
1000bfb4:	02812683          	lw	a3,40(sp)
1000bfb8:	02412f03          	lw	t5,36(sp)
1000bfbc:	01412f83          	lw	t6,20(sp)
1000bfc0:	000a8d93          	mv	s11,s5
1000bfc4:	e68ff06f          	j	1000b62c <_svfiprintf_r+0x1d4>
1000bfc8:	04010613          	addi	a2,sp,64
1000bfcc:	000a0593          	mv	a1,s4
1000bfd0:	000b0513          	mv	a0,s6
1000bfd4:	03d12423          	sw	t4,40(sp)
1000bfd8:	02d12223          	sw	a3,36(sp)
1000bfdc:	01e12a23          	sw	t5,20(sp)
1000bfe0:	ab8ff0ef          	jal	ra,1000b298 <__ssprint_r>
1000bfe4:	f2051263          	bnez	a0,1000b708 <_svfiprintf_r+0x2b0>
1000bfe8:	04812983          	lw	s3,72(sp)
1000bfec:	04412703          	lw	a4,68(sp)
1000bff0:	02812e83          	lw	t4,40(sp)
1000bff4:	02412683          	lw	a3,36(sp)
1000bff8:	01412f03          	lw	t5,20(sp)
1000bffc:	000a8d93          	mv	s11,s5
1000c000:	e90ff06f          	j	1000b690 <_svfiprintf_r+0x238>
1000c004:	01000693          	li	a3,16
1000c008:	04412703          	lw	a4,68(sp)
1000c00c:	0796d063          	bge	a3,s9,1000c06c <_svfiprintf_r+0xc14>
1000c010:	01000d13          	li	s10,16
1000c014:	00700413          	li	s0,7
1000c018:	00c0006f          	j	1000c024 <_svfiprintf_r+0xbcc>
1000c01c:	ff0c8c93          	addi	s9,s9,-16
1000c020:	059d5663          	bge	s10,s9,1000c06c <_svfiprintf_r+0xc14>
1000c024:	01098993          	addi	s3,s3,16
1000c028:	00170713          	addi	a4,a4,1
1000c02c:	0187a023          	sw	s8,0(a5)
1000c030:	01a7a223          	sw	s10,4(a5)
1000c034:	05312423          	sw	s3,72(sp)
1000c038:	04e12223          	sw	a4,68(sp)
1000c03c:	00878793          	addi	a5,a5,8
1000c040:	fce45ee3          	bge	s0,a4,1000c01c <_svfiprintf_r+0xbc4>
1000c044:	04010613          	addi	a2,sp,64
1000c048:	000a0593          	mv	a1,s4
1000c04c:	000b0513          	mv	a0,s6
1000c050:	a48ff0ef          	jal	ra,1000b298 <__ssprint_r>
1000c054:	ea051a63          	bnez	a0,1000b708 <_svfiprintf_r+0x2b0>
1000c058:	ff0c8c93          	addi	s9,s9,-16
1000c05c:	04812983          	lw	s3,72(sp)
1000c060:	04412703          	lw	a4,68(sp)
1000c064:	000a8793          	mv	a5,s5
1000c068:	fb9d4ee3          	blt	s10,s9,1000c024 <_svfiprintf_r+0xbcc>
1000c06c:	019989b3          	add	s3,s3,s9
1000c070:	00170713          	addi	a4,a4,1
1000c074:	0187a023          	sw	s8,0(a5)
1000c078:	0197a223          	sw	s9,4(a5)
1000c07c:	05312423          	sw	s3,72(sp)
1000c080:	04e12223          	sw	a4,68(sp)
1000c084:	00700793          	li	a5,7
1000c088:	e4e7d863          	bge	a5,a4,1000b6d8 <_svfiprintf_r+0x280>
1000c08c:	04010613          	addi	a2,sp,64
1000c090:	000a0593          	mv	a1,s4
1000c094:	000b0513          	mv	a0,s6
1000c098:	a00ff0ef          	jal	ra,1000b298 <__ssprint_r>
1000c09c:	e6051663          	bnez	a0,1000b708 <_svfiprintf_r+0x2b0>
1000c0a0:	04812983          	lw	s3,72(sp)
1000c0a4:	e34ff06f          	j	1000b6d8 <_svfiprintf_r+0x280>
1000c0a8:	00040a13          	mv	s4,s0
1000c0ac:	e5cff06f          	j	1000b708 <_svfiprintf_r+0x2b0>
1000c0b0:	840e9ee3          	bnez	t4,1000b90c <_svfiprintf_r+0x4b4>
1000c0b4:	000d0693          	mv	a3,s10
1000c0b8:	00000e93          	li	t4,0
1000c0bc:	00000c93          	li	s9,0
1000c0c0:	0f010413          	addi	s0,sp,240
1000c0c4:	85dff06f          	j	1000b920 <_svfiprintf_r+0x4c8>
1000c0c8:	2006f613          	andi	a2,a3,512
1000c0cc:	38061c63          	bnez	a2,1000c464 <_svfiprintf_r+0x100c>
1000c0d0:	41f75b93          	srai	s7,a4,0x1f
1000c0d4:	00070c93          	mv	s9,a4
1000c0d8:	000b8613          	mv	a2,s7
1000c0dc:	809ff06f          	j	1000b8e4 <_svfiprintf_r+0x48c>
1000c0e0:	00812783          	lw	a5,8(sp)
1000c0e4:	010d7693          	andi	a3,s10,16
1000c0e8:	0007a703          	lw	a4,0(a5)
1000c0ec:	00478793          	addi	a5,a5,4
1000c0f0:	00f12423          	sw	a5,8(sp)
1000c0f4:	02069463          	bnez	a3,1000c11c <_svfiprintf_r+0xcc4>
1000c0f8:	040d7693          	andi	a3,s10,64
1000c0fc:	00068c63          	beqz	a3,1000c114 <_svfiprintf_r+0xcbc>
1000c100:	01071c93          	slli	s9,a4,0x10
1000c104:	010cdc93          	srli	s9,s9,0x10
1000c108:	00000b93          	li	s7,0
1000c10c:	00100613          	li	a2,1
1000c110:	861ff06f          	j	1000b970 <_svfiprintf_r+0x518>
1000c114:	200d7693          	andi	a3,s10,512
1000c118:	32069e63          	bnez	a3,1000c454 <_svfiprintf_r+0xffc>
1000c11c:	00070c93          	mv	s9,a4
1000c120:	00000b93          	li	s7,0
1000c124:	00100613          	li	a2,1
1000c128:	849ff06f          	j	1000b970 <_svfiprintf_r+0x518>
1000c12c:	00812783          	lw	a5,8(sp)
1000c130:	0106f613          	andi	a2,a3,16
1000c134:	0007a703          	lw	a4,0(a5)
1000c138:	00478793          	addi	a5,a5,4
1000c13c:	00f12423          	sw	a5,8(sp)
1000c140:	02061263          	bnez	a2,1000c164 <_svfiprintf_r+0xd0c>
1000c144:	0406f613          	andi	a2,a3,64
1000c148:	00060a63          	beqz	a2,1000c15c <_svfiprintf_r+0xd04>
1000c14c:	01071c93          	slli	s9,a4,0x10
1000c150:	010cdc93          	srli	s9,s9,0x10
1000c154:	00000b93          	li	s7,0
1000c158:	925ff06f          	j	1000ba7c <_svfiprintf_r+0x624>
1000c15c:	2006f613          	andi	a2,a3,512
1000c160:	30061c63          	bnez	a2,1000c478 <_svfiprintf_r+0x1020>
1000c164:	00070c93          	mv	s9,a4
1000c168:	00000b93          	li	s7,0
1000c16c:	911ff06f          	j	1000ba7c <_svfiprintf_r+0x624>
1000c170:	400d7793          	andi	a5,s10,1024
1000c174:	00000713          	li	a4,0
1000c178:	03312223          	sw	s3,36(sp)
1000c17c:	03412423          	sw	s4,40(sp)
1000c180:	03212623          	sw	s2,44(sp)
1000c184:	000c8993          	mv	s3,s9
1000c188:	000b8a13          	mv	s4,s7
1000c18c:	01812903          	lw	s2,24(sp)
1000c190:	0f010413          	addi	s0,sp,240
1000c194:	01d12a23          	sw	t4,20(sp)
1000c198:	00078c93          	mv	s9,a5
1000c19c:	00070b93          	mv	s7,a4
1000c1a0:	0240006f          	j	1000c1c4 <_svfiprintf_r+0xd6c>
1000c1a4:	00a00613          	li	a2,10
1000c1a8:	00000693          	li	a3,0
1000c1ac:	00098513          	mv	a0,s3
1000c1b0:	000a0593          	mv	a1,s4
1000c1b4:	6ed020ef          	jal	ra,1000f0a0 <__udivdi3>
1000c1b8:	240a0c63          	beqz	s4,1000c410 <_svfiprintf_r+0xfb8>
1000c1bc:	00050993          	mv	s3,a0
1000c1c0:	00058a13          	mv	s4,a1
1000c1c4:	00a00613          	li	a2,10
1000c1c8:	00000693          	li	a3,0
1000c1cc:	00098513          	mv	a0,s3
1000c1d0:	000a0593          	mv	a1,s4
1000c1d4:	48c030ef          	jal	ra,1000f660 <__umoddi3>
1000c1d8:	03050513          	addi	a0,a0,48
1000c1dc:	fea40fa3          	sb	a0,-1(s0)
1000c1e0:	001b8b93          	addi	s7,s7,1
1000c1e4:	fff40413          	addi	s0,s0,-1
1000c1e8:	fa0c8ee3          	beqz	s9,1000c1a4 <_svfiprintf_r+0xd4c>
1000c1ec:	00094683          	lbu	a3,0(s2)
1000c1f0:	fb769ae3          	bne	a3,s7,1000c1a4 <_svfiprintf_r+0xd4c>
1000c1f4:	0ff00793          	li	a5,255
1000c1f8:	fafb86e3          	beq	s7,a5,1000c1a4 <_svfiprintf_r+0xd4c>
1000c1fc:	140a1e63          	bnez	s4,1000c358 <_svfiprintf_r+0xf00>
1000c200:	00900793          	li	a5,9
1000c204:	1537ea63          	bltu	a5,s3,1000c358 <_svfiprintf_r+0xf00>
1000c208:	0f010793          	addi	a5,sp,240
1000c20c:	01212c23          	sw	s2,24(sp)
1000c210:	01412e83          	lw	t4,20(sp)
1000c214:	02412983          	lw	s3,36(sp)
1000c218:	02812a03          	lw	s4,40(sp)
1000c21c:	02c12903          	lw	s2,44(sp)
1000c220:	40878cb3          	sub	s9,a5,s0
1000c224:	000d0693          	mv	a3,s10
1000c228:	ef8ff06f          	j	1000b920 <_svfiprintf_r+0x4c8>
1000c22c:	01812783          	lw	a5,24(sp)
1000c230:	00094603          	lbu	a2,0(s2)
1000c234:	b4078e63          	beqz	a5,1000b590 <_svfiprintf_r+0x138>
1000c238:	0007c783          	lbu	a5,0(a5)
1000c23c:	b4078a63          	beqz	a5,1000b590 <_svfiprintf_r+0x138>
1000c240:	40046413          	ori	s0,s0,1024
1000c244:	b4cff06f          	j	1000b590 <_svfiprintf_r+0x138>
1000c248:	0007a703          	lw	a4,0(a5)
1000c24c:	00412783          	lw	a5,4(sp)
1000c250:	00c12423          	sw	a2,8(sp)
1000c254:	41f7d693          	srai	a3,a5,0x1f
1000c258:	00f72023          	sw	a5,0(a4)
1000c25c:	00d72223          	sw	a3,4(a4)
1000c260:	aa4ff06f          	j	1000b504 <_svfiprintf_r+0xac>
1000c264:	00040d13          	mv	s10,s0
1000c268:	fc0ff06f          	j	1000ba28 <_svfiprintf_r+0x5d0>
1000c26c:	10014737          	lui	a4,0x10014
1000c270:	03070793          	addi	a5,a4,48 # 10014030 <__clz_tab+0x114>
1000c274:	00040693          	mv	a3,s0
1000c278:	00f12823          	sw	a5,16(sp)
1000c27c:	0206f713          	andi	a4,a3,32
1000c280:	06070263          	beqz	a4,1000c2e4 <_svfiprintf_r+0xe8c>
1000c284:	00812783          	lw	a5,8(sp)
1000c288:	00778793          	addi	a5,a5,7
1000c28c:	ff87f793          	andi	a5,a5,-8
1000c290:	0007ac83          	lw	s9,0(a5)
1000c294:	0047ab83          	lw	s7,4(a5)
1000c298:	00878793          	addi	a5,a5,8
1000c29c:	00f12423          	sw	a5,8(sp)
1000c2a0:	0016f593          	andi	a1,a3,1
1000c2a4:	00058e63          	beqz	a1,1000c2c0 <_svfiprintf_r+0xe68>
1000c2a8:	017ce5b3          	or	a1,s9,s7
1000c2ac:	00058a63          	beqz	a1,1000c2c0 <_svfiprintf_r+0xe68>
1000c2b0:	03000593          	li	a1,48
1000c2b4:	02b10e23          	sb	a1,60(sp)
1000c2b8:	02c10ea3          	sb	a2,61(sp)
1000c2bc:	0026e693          	ori	a3,a3,2
1000c2c0:	bff6fd13          	andi	s10,a3,-1025
1000c2c4:	00200613          	li	a2,2
1000c2c8:	ea8ff06f          	j	1000b970 <_svfiprintf_r+0x518>
1000c2cc:	10014737          	lui	a4,0x10014
1000c2d0:	04470793          	addi	a5,a4,68 # 10014044 <__clz_tab+0x128>
1000c2d4:	00040693          	mv	a3,s0
1000c2d8:	00f12823          	sw	a5,16(sp)
1000c2dc:	0206f713          	andi	a4,a3,32
1000c2e0:	fa0712e3          	bnez	a4,1000c284 <_svfiprintf_r+0xe2c>
1000c2e4:	00812783          	lw	a5,8(sp)
1000c2e8:	0106f593          	andi	a1,a3,16
1000c2ec:	0007a703          	lw	a4,0(a5)
1000c2f0:	00478793          	addi	a5,a5,4
1000c2f4:	00f12423          	sw	a5,8(sp)
1000c2f8:	0a059463          	bnez	a1,1000c3a0 <_svfiprintf_r+0xf48>
1000c2fc:	0406f593          	andi	a1,a3,64
1000c300:	08058c63          	beqz	a1,1000c398 <_svfiprintf_r+0xf40>
1000c304:	01071c93          	slli	s9,a4,0x10
1000c308:	010cdc93          	srli	s9,s9,0x10
1000c30c:	00000b93          	li	s7,0
1000c310:	f91ff06f          	j	1000c2a0 <_svfiprintf_r+0xe48>
1000c314:	00040693          	mv	a3,s0
1000c318:	f40ff06f          	j	1000ba58 <_svfiprintf_r+0x600>
1000c31c:	00040513          	mv	a0,s0
1000c320:	b20f60ef          	jal	ra,10002640 <strlen>
1000c324:	01412683          	lw	a3,20(sp)
1000c328:	00050c93          	mv	s9,a0
1000c32c:	01a12423          	sw	s10,8(sp)
1000c330:	00000e93          	li	t4,0
1000c334:	decff06f          	j	1000b920 <_svfiprintf_r+0x4c8>
1000c338:	04000593          	li	a1,64
1000c33c:	801fc0ef          	jal	ra,10008b3c <_malloc_r>
1000c340:	00aa2023          	sw	a0,0(s4)
1000c344:	00aa2823          	sw	a0,16(s4)
1000c348:	18050263          	beqz	a0,1000c4cc <_svfiprintf_r+0x1074>
1000c34c:	04000793          	li	a5,64
1000c350:	00fa2a23          	sw	a5,20(s4)
1000c354:	960ff06f          	j	1000b4b4 <_svfiprintf_r+0x5c>
1000c358:	01c12783          	lw	a5,28(sp)
1000c35c:	02012583          	lw	a1,32(sp)
1000c360:	00000b93          	li	s7,0
1000c364:	40f40433          	sub	s0,s0,a5
1000c368:	00078613          	mv	a2,a5
1000c36c:	00040513          	mv	a0,s0
1000c370:	e81fe0ef          	jal	ra,1000b1f0 <strncpy>
1000c374:	00194583          	lbu	a1,1(s2)
1000c378:	00a00613          	li	a2,10
1000c37c:	00000693          	li	a3,0
1000c380:	00b03833          	snez	a6,a1
1000c384:	00098513          	mv	a0,s3
1000c388:	000a0593          	mv	a1,s4
1000c38c:	01090933          	add	s2,s2,a6
1000c390:	511020ef          	jal	ra,1000f0a0 <__udivdi3>
1000c394:	e29ff06f          	j	1000c1bc <_svfiprintf_r+0xd64>
1000c398:	2006f593          	andi	a1,a3,512
1000c39c:	0a059663          	bnez	a1,1000c448 <_svfiprintf_r+0xff0>
1000c3a0:	00070c93          	mv	s9,a4
1000c3a4:	00000b93          	li	s7,0
1000c3a8:	ef9ff06f          	j	1000c2a0 <_svfiprintf_r+0xe48>
1000c3ac:	00090a13          	mv	s4,s2
1000c3b0:	b58ff06f          	j	1000b708 <_svfiprintf_r+0x2b0>
1000c3b4:	00194603          	lbu	a2,1(s2)
1000c3b8:	02046413          	ori	s0,s0,32
1000c3bc:	00190913          	addi	s2,s2,1
1000c3c0:	9d0ff06f          	j	1000b590 <_svfiprintf_r+0x138>
1000c3c4:	00194603          	lbu	a2,1(s2)
1000c3c8:	20046413          	ori	s0,s0,512
1000c3cc:	00190913          	addi	s2,s2,1
1000c3d0:	9c0ff06f          	j	1000b590 <_svfiprintf_r+0x138>
1000c3d4:	00812783          	lw	a5,8(sp)
1000c3d8:	0007a703          	lw	a4,0(a5)
1000c3dc:	00412783          	lw	a5,4(sp)
1000c3e0:	00c12423          	sw	a2,8(sp)
1000c3e4:	00f72023          	sw	a5,0(a4)
1000c3e8:	91cff06f          	j	1000b504 <_svfiprintf_r+0xac>
1000c3ec:	00600713          	li	a4,6
1000c3f0:	000e8c93          	mv	s9,t4
1000c3f4:	01d77463          	bgeu	a4,t4,1000c3fc <_svfiprintf_r+0xfa4>
1000c3f8:	00600c93          	li	s9,6
1000c3fc:	10014337          	lui	t1,0x10014
1000c400:	000c8b93          	mv	s7,s9
1000c404:	01a12423          	sw	s10,8(sp)
1000c408:	05830413          	addi	s0,t1,88 # 10014058 <__clz_tab+0x13c>
1000c40c:	9f8ff06f          	j	1000b604 <_svfiprintf_r+0x1ac>
1000c410:	00900793          	li	a5,9
1000c414:	db37e4e3          	bltu	a5,s3,1000c1bc <_svfiprintf_r+0xd64>
1000c418:	df1ff06f          	j	1000c208 <_svfiprintf_r+0xdb0>
1000c41c:	04010613          	addi	a2,sp,64
1000c420:	000a0593          	mv	a1,s4
1000c424:	000b0513          	mv	a0,s6
1000c428:	e71fe0ef          	jal	ra,1000b298 <__ssprint_r>
1000c42c:	adcff06f          	j	1000b708 <_svfiprintf_r+0x2b0>
1000c430:	00812783          	lw	a5,8(sp)
1000c434:	00c12423          	sw	a2,8(sp)
1000c438:	0007a703          	lw	a4,0(a5)
1000c43c:	00412783          	lw	a5,4(sp)
1000c440:	00f71023          	sh	a5,0(a4)
1000c444:	8c0ff06f          	j	1000b504 <_svfiprintf_r+0xac>
1000c448:	0ff77c93          	zext.b	s9,a4
1000c44c:	00000b93          	li	s7,0
1000c450:	e51ff06f          	j	1000c2a0 <_svfiprintf_r+0xe48>
1000c454:	0ff77c93          	zext.b	s9,a4
1000c458:	00000b93          	li	s7,0
1000c45c:	00100613          	li	a2,1
1000c460:	d10ff06f          	j	1000b970 <_svfiprintf_r+0x518>
1000c464:	01871c93          	slli	s9,a4,0x18
1000c468:	418cdc93          	srai	s9,s9,0x18
1000c46c:	41fcdb93          	srai	s7,s9,0x1f
1000c470:	000b8613          	mv	a2,s7
1000c474:	c70ff06f          	j	1000b8e4 <_svfiprintf_r+0x48c>
1000c478:	0ff77c93          	zext.b	s9,a4
1000c47c:	00000b93          	li	s7,0
1000c480:	dfcff06f          	j	1000ba7c <_svfiprintf_r+0x624>
1000c484:	000e8c93          	mv	s9,t4
1000c488:	01a12423          	sw	s10,8(sp)
1000c48c:	00000e93          	li	t4,0
1000c490:	c90ff06f          	j	1000b920 <_svfiprintf_r+0x4c8>
1000c494:	00068d13          	mv	s10,a3
1000c498:	c74ff06f          	j	1000b90c <_svfiprintf_r+0x4b4>
1000c49c:	fff00793          	li	a5,-1
1000c4a0:	00f12223          	sw	a5,4(sp)
1000c4a4:	a70ff06f          	j	1000b714 <_svfiprintf_r+0x2bc>
1000c4a8:	00812783          	lw	a5,8(sp)
1000c4ac:	0007ae83          	lw	t4,0(a5)
1000c4b0:	00478793          	addi	a5,a5,4
1000c4b4:	000ed463          	bgez	t4,1000c4bc <_svfiprintf_r+0x1064>
1000c4b8:	fff00e93          	li	t4,-1
1000c4bc:	00194603          	lbu	a2,1(s2)
1000c4c0:	00f12423          	sw	a5,8(sp)
1000c4c4:	00070913          	mv	s2,a4
1000c4c8:	8c8ff06f          	j	1000b590 <_svfiprintf_r+0x138>
1000c4cc:	00c00793          	li	a5,12
1000c4d0:	00fb2023          	sw	a5,0(s6)
1000c4d4:	fff00793          	li	a5,-1
1000c4d8:	00f12223          	sw	a5,4(sp)
1000c4dc:	a38ff06f          	j	1000b714 <_svfiprintf_r+0x2bc>

1000c4e0 <_wctomb_r>:
1000c4e0:	100157b7          	lui	a5,0x10015
1000c4e4:	1487a783          	lw	a5,328(a5) # 10015148 <__global_locale+0xe0>
1000c4e8:	00078067          	jr	a5

1000c4ec <__ascii_wctomb>:
1000c4ec:	02058463          	beqz	a1,1000c514 <__ascii_wctomb+0x28>
1000c4f0:	0ff00793          	li	a5,255
1000c4f4:	00c7e863          	bltu	a5,a2,1000c504 <__ascii_wctomb+0x18>
1000c4f8:	00c58023          	sb	a2,0(a1)
1000c4fc:	00100513          	li	a0,1
1000c500:	00008067          	ret
1000c504:	08a00793          	li	a5,138
1000c508:	00f52023          	sw	a5,0(a0)
1000c50c:	fff00513          	li	a0,-1
1000c510:	00008067          	ret
1000c514:	00000513          	li	a0,0
1000c518:	00008067          	ret

1000c51c <_write_r>:
1000c51c:	ff010113          	addi	sp,sp,-16
1000c520:	00058713          	mv	a4,a1
1000c524:	00812423          	sw	s0,8(sp)
1000c528:	00912223          	sw	s1,4(sp)
1000c52c:	00060593          	mv	a1,a2
1000c530:	00050413          	mv	s0,a0
1000c534:	100154b7          	lui	s1,0x10015
1000c538:	00068613          	mv	a2,a3
1000c53c:	00070513          	mv	a0,a4
1000c540:	00112623          	sw	ra,12(sp)
1000c544:	6a04a623          	sw	zero,1708(s1) # 100156ac <errno>
1000c548:	e77f30ef          	jal	ra,100003be <_write>
1000c54c:	fff00793          	li	a5,-1
1000c550:	00f50c63          	beq	a0,a5,1000c568 <_write_r+0x4c>
1000c554:	00c12083          	lw	ra,12(sp)
1000c558:	00812403          	lw	s0,8(sp)
1000c55c:	00412483          	lw	s1,4(sp)
1000c560:	01010113          	addi	sp,sp,16
1000c564:	00008067          	ret
1000c568:	6ac4a783          	lw	a5,1708(s1)
1000c56c:	fe0784e3          	beqz	a5,1000c554 <_write_r+0x38>
1000c570:	00c12083          	lw	ra,12(sp)
1000c574:	00f42023          	sw	a5,0(s0)
1000c578:	00812403          	lw	s0,8(sp)
1000c57c:	00412483          	lw	s1,4(sp)
1000c580:	01010113          	addi	sp,sp,16
1000c584:	00008067          	ret

1000c588 <__swsetup_r>:
1000c588:	100157b7          	lui	a5,0x10015
1000c58c:	6187a783          	lw	a5,1560(a5) # 10015618 <_impure_ptr>
1000c590:	ff010113          	addi	sp,sp,-16
1000c594:	00812423          	sw	s0,8(sp)
1000c598:	00912223          	sw	s1,4(sp)
1000c59c:	00112623          	sw	ra,12(sp)
1000c5a0:	00050493          	mv	s1,a0
1000c5a4:	00058413          	mv	s0,a1
1000c5a8:	00078663          	beqz	a5,1000c5b4 <__swsetup_r+0x2c>
1000c5ac:	0387a703          	lw	a4,56(a5)
1000c5b0:	08070463          	beqz	a4,1000c638 <__swsetup_r+0xb0>
1000c5b4:	00c41703          	lh	a4,12(s0)
1000c5b8:	01071793          	slli	a5,a4,0x10
1000c5bc:	00877693          	andi	a3,a4,8
1000c5c0:	0107d793          	srli	a5,a5,0x10
1000c5c4:	08068863          	beqz	a3,1000c654 <__swsetup_r+0xcc>
1000c5c8:	01042683          	lw	a3,16(s0)
1000c5cc:	0a068863          	beqz	a3,1000c67c <__swsetup_r+0xf4>
1000c5d0:	0017f613          	andi	a2,a5,1
1000c5d4:	02060863          	beqz	a2,1000c604 <__swsetup_r+0x7c>
1000c5d8:	01442603          	lw	a2,20(s0)
1000c5dc:	00042423          	sw	zero,8(s0)
1000c5e0:	00000513          	li	a0,0
1000c5e4:	40c00633          	neg	a2,a2
1000c5e8:	00c42c23          	sw	a2,24(s0)
1000c5ec:	02068a63          	beqz	a3,1000c620 <__swsetup_r+0x98>
1000c5f0:	00c12083          	lw	ra,12(sp)
1000c5f4:	00812403          	lw	s0,8(sp)
1000c5f8:	00412483          	lw	s1,4(sp)
1000c5fc:	01010113          	addi	sp,sp,16
1000c600:	00008067          	ret
1000c604:	0027f613          	andi	a2,a5,2
1000c608:	00000593          	li	a1,0
1000c60c:	00061463          	bnez	a2,1000c614 <__swsetup_r+0x8c>
1000c610:	01442583          	lw	a1,20(s0)
1000c614:	00b42423          	sw	a1,8(s0)
1000c618:	00000513          	li	a0,0
1000c61c:	fc069ae3          	bnez	a3,1000c5f0 <__swsetup_r+0x68>
1000c620:	0807f793          	andi	a5,a5,128
1000c624:	fc0786e3          	beqz	a5,1000c5f0 <__swsetup_r+0x68>
1000c628:	04076713          	ori	a4,a4,64
1000c62c:	00e41623          	sh	a4,12(s0)
1000c630:	fff00513          	li	a0,-1
1000c634:	fbdff06f          	j	1000c5f0 <__swsetup_r+0x68>
1000c638:	00078513          	mv	a0,a5
1000c63c:	da9f80ef          	jal	ra,100053e4 <__sinit>
1000c640:	00c41703          	lh	a4,12(s0)
1000c644:	01071793          	slli	a5,a4,0x10
1000c648:	00877693          	andi	a3,a4,8
1000c64c:	0107d793          	srli	a5,a5,0x10
1000c650:	f6069ce3          	bnez	a3,1000c5c8 <__swsetup_r+0x40>
1000c654:	0107f693          	andi	a3,a5,16
1000c658:	08068263          	beqz	a3,1000c6dc <__swsetup_r+0x154>
1000c65c:	0047f793          	andi	a5,a5,4
1000c660:	04079463          	bnez	a5,1000c6a8 <__swsetup_r+0x120>
1000c664:	01042683          	lw	a3,16(s0)
1000c668:	00876713          	ori	a4,a4,8
1000c66c:	01071793          	slli	a5,a4,0x10
1000c670:	00e41623          	sh	a4,12(s0)
1000c674:	0107d793          	srli	a5,a5,0x10
1000c678:	f4069ce3          	bnez	a3,1000c5d0 <__swsetup_r+0x48>
1000c67c:	2807f613          	andi	a2,a5,640
1000c680:	20000593          	li	a1,512
1000c684:	f4b606e3          	beq	a2,a1,1000c5d0 <__swsetup_r+0x48>
1000c688:	00040593          	mv	a1,s0
1000c68c:	00048513          	mv	a0,s1
1000c690:	025000ef          	jal	ra,1000ceb4 <__smakebuf_r>
1000c694:	00c41703          	lh	a4,12(s0)
1000c698:	01042683          	lw	a3,16(s0)
1000c69c:	01071793          	slli	a5,a4,0x10
1000c6a0:	0107d793          	srli	a5,a5,0x10
1000c6a4:	f2dff06f          	j	1000c5d0 <__swsetup_r+0x48>
1000c6a8:	03042583          	lw	a1,48(s0)
1000c6ac:	00058e63          	beqz	a1,1000c6c8 <__swsetup_r+0x140>
1000c6b0:	04040793          	addi	a5,s0,64
1000c6b4:	00f58863          	beq	a1,a5,1000c6c4 <__swsetup_r+0x13c>
1000c6b8:	00048513          	mv	a0,s1
1000c6bc:	eb1f80ef          	jal	ra,1000556c <_free_r>
1000c6c0:	00c41703          	lh	a4,12(s0)
1000c6c4:	02042823          	sw	zero,48(s0)
1000c6c8:	01042683          	lw	a3,16(s0)
1000c6cc:	fdb77713          	andi	a4,a4,-37
1000c6d0:	00042223          	sw	zero,4(s0)
1000c6d4:	00d42023          	sw	a3,0(s0)
1000c6d8:	f91ff06f          	j	1000c668 <__swsetup_r+0xe0>
1000c6dc:	00900793          	li	a5,9
1000c6e0:	00f4a023          	sw	a5,0(s1)
1000c6e4:	04076713          	ori	a4,a4,64
1000c6e8:	00e41623          	sh	a4,12(s0)
1000c6ec:	fff00513          	li	a0,-1
1000c6f0:	f01ff06f          	j	1000c5f0 <__swsetup_r+0x68>

1000c6f4 <__assert_func>:
1000c6f4:	100157b7          	lui	a5,0x10015
1000c6f8:	6187a703          	lw	a4,1560(a5) # 10015618 <_impure_ptr>
1000c6fc:	ff010113          	addi	sp,sp,-16
1000c700:	00068793          	mv	a5,a3
1000c704:	00060813          	mv	a6,a2
1000c708:	00112623          	sw	ra,12(sp)
1000c70c:	00c72883          	lw	a7,12(a4)
1000c710:	00050693          	mv	a3,a0
1000c714:	00058713          	mv	a4,a1
1000c718:	00078613          	mv	a2,a5
1000c71c:	02080063          	beqz	a6,1000c73c <__assert_func+0x48>
1000c720:	100157b7          	lui	a5,0x10015
1000c724:	87c78793          	addi	a5,a5,-1924 # 1001487c <zeroes.0+0x10>
1000c728:	100155b7          	lui	a1,0x10015
1000c72c:	88c58593          	addi	a1,a1,-1908 # 1001488c <zeroes.0+0x20>
1000c730:	00088513          	mv	a0,a7
1000c734:	6c4000ef          	jal	ra,1000cdf8 <fiprintf>
1000c738:	609010ef          	jal	ra,1000e540 <abort>
1000c73c:	10015837          	lui	a6,0x10015
1000c740:	88880793          	addi	a5,a6,-1912 # 10014888 <zeroes.0+0x1c>
1000c744:	88880813          	addi	a6,a6,-1912
1000c748:	fe1ff06f          	j	1000c728 <__assert_func+0x34>

1000c74c <__assert>:
1000c74c:	ff010113          	addi	sp,sp,-16
1000c750:	00060693          	mv	a3,a2
1000c754:	00000613          	li	a2,0
1000c758:	00112623          	sw	ra,12(sp)
1000c75c:	f99ff0ef          	jal	ra,1000c6f4 <__assert_func>

1000c760 <_calloc_r>:
1000c760:	fe010113          	addi	sp,sp,-32
1000c764:	00812c23          	sw	s0,24(sp)
1000c768:	00112e23          	sw	ra,28(sp)
1000c76c:	00912a23          	sw	s1,20(sp)
1000c770:	01212823          	sw	s2,16(sp)
1000c774:	01312623          	sw	s3,12(sp)
1000c778:	0105d693          	srli	a3,a1,0x10
1000c77c:	00058793          	mv	a5,a1
1000c780:	00050413          	mv	s0,a0
1000c784:	01065713          	srli	a4,a2,0x10
1000c788:	0c069c63          	bnez	a3,1000c860 <_calloc_r+0x100>
1000c78c:	12071863          	bnez	a4,1000c8bc <_calloc_r+0x15c>
1000c790:	01061593          	slli	a1,a2,0x10
1000c794:	01079513          	slli	a0,a5,0x10
1000c798:	0105d593          	srli	a1,a1,0x10
1000c79c:	01055513          	srli	a0,a0,0x10
1000c7a0:	61c070ef          	jal	ra,10013dbc <__mulsi3>
1000c7a4:	00050593          	mv	a1,a0
1000c7a8:	00040513          	mv	a0,s0
1000c7ac:	b90fc0ef          	jal	ra,10008b3c <_malloc_r>
1000c7b0:	00050413          	mv	s0,a0
1000c7b4:	04050863          	beqz	a0,1000c804 <_calloc_r+0xa4>
1000c7b8:	ffc52603          	lw	a2,-4(a0)
1000c7bc:	02400713          	li	a4,36
1000c7c0:	ffc67613          	andi	a2,a2,-4
1000c7c4:	ffc60613          	addi	a2,a2,-4
1000c7c8:	04c76e63          	bltu	a4,a2,1000c824 <_calloc_r+0xc4>
1000c7cc:	01300693          	li	a3,19
1000c7d0:	00050793          	mv	a5,a0
1000c7d4:	02c6f263          	bgeu	a3,a2,1000c7f8 <_calloc_r+0x98>
1000c7d8:	00052023          	sw	zero,0(a0)
1000c7dc:	00052223          	sw	zero,4(a0)
1000c7e0:	01b00793          	li	a5,27
1000c7e4:	06c7f463          	bgeu	a5,a2,1000c84c <_calloc_r+0xec>
1000c7e8:	00052423          	sw	zero,8(a0)
1000c7ec:	00052623          	sw	zero,12(a0)
1000c7f0:	01050793          	addi	a5,a0,16
1000c7f4:	0ce60a63          	beq	a2,a4,1000c8c8 <_calloc_r+0x168>
1000c7f8:	0007a023          	sw	zero,0(a5)
1000c7fc:	0007a223          	sw	zero,4(a5)
1000c800:	0007a423          	sw	zero,8(a5)
1000c804:	01c12083          	lw	ra,28(sp)
1000c808:	00040513          	mv	a0,s0
1000c80c:	01812403          	lw	s0,24(sp)
1000c810:	01412483          	lw	s1,20(sp)
1000c814:	01012903          	lw	s2,16(sp)
1000c818:	00c12983          	lw	s3,12(sp)
1000c81c:	02010113          	addi	sp,sp,32
1000c820:	00008067          	ret
1000c824:	00000593          	li	a1,0
1000c828:	b79f50ef          	jal	ra,100023a0 <memset>
1000c82c:	01c12083          	lw	ra,28(sp)
1000c830:	00040513          	mv	a0,s0
1000c834:	01812403          	lw	s0,24(sp)
1000c838:	01412483          	lw	s1,20(sp)
1000c83c:	01012903          	lw	s2,16(sp)
1000c840:	00c12983          	lw	s3,12(sp)
1000c844:	02010113          	addi	sp,sp,32
1000c848:	00008067          	ret
1000c84c:	00850793          	addi	a5,a0,8
1000c850:	0007a023          	sw	zero,0(a5)
1000c854:	0007a223          	sw	zero,4(a5)
1000c858:	0007a423          	sw	zero,8(a5)
1000c85c:	fa9ff06f          	j	1000c804 <_calloc_r+0xa4>
1000c860:	06071c63          	bnez	a4,1000c8d8 <_calloc_r+0x178>
1000c864:	00068913          	mv	s2,a3
1000c868:	00060993          	mv	s3,a2
1000c86c:	01079513          	slli	a0,a5,0x10
1000c870:	01061593          	slli	a1,a2,0x10
1000c874:	0105d593          	srli	a1,a1,0x10
1000c878:	01055513          	srli	a0,a0,0x10
1000c87c:	540070ef          	jal	ra,10013dbc <__mulsi3>
1000c880:	00050493          	mv	s1,a0
1000c884:	01091593          	slli	a1,s2,0x10
1000c888:	01099513          	slli	a0,s3,0x10
1000c88c:	0105d593          	srli	a1,a1,0x10
1000c890:	01055513          	srli	a0,a0,0x10
1000c894:	528070ef          	jal	ra,10013dbc <__mulsi3>
1000c898:	0104d793          	srli	a5,s1,0x10
1000c89c:	00f505b3          	add	a1,a0,a5
1000c8a0:	0105d793          	srli	a5,a1,0x10
1000c8a4:	02079a63          	bnez	a5,1000c8d8 <_calloc_r+0x178>
1000c8a8:	01049493          	slli	s1,s1,0x10
1000c8ac:	01059593          	slli	a1,a1,0x10
1000c8b0:	0104d493          	srli	s1,s1,0x10
1000c8b4:	0095e5b3          	or	a1,a1,s1
1000c8b8:	ef1ff06f          	j	1000c7a8 <_calloc_r+0x48>
1000c8bc:	00070913          	mv	s2,a4
1000c8c0:	00058993          	mv	s3,a1
1000c8c4:	fa9ff06f          	j	1000c86c <_calloc_r+0x10c>
1000c8c8:	00052823          	sw	zero,16(a0)
1000c8cc:	01850793          	addi	a5,a0,24
1000c8d0:	00052a23          	sw	zero,20(a0)
1000c8d4:	f25ff06f          	j	1000c7f8 <_calloc_r+0x98>
1000c8d8:	074000ef          	jal	ra,1000c94c <__errno>
1000c8dc:	00c00793          	li	a5,12
1000c8e0:	00f52023          	sw	a5,0(a0)
1000c8e4:	00000413          	li	s0,0
1000c8e8:	f1dff06f          	j	1000c804 <_calloc_r+0xa4>

1000c8ec <_close_r>:
1000c8ec:	ff010113          	addi	sp,sp,-16
1000c8f0:	00812423          	sw	s0,8(sp)
1000c8f4:	00912223          	sw	s1,4(sp)
1000c8f8:	00050413          	mv	s0,a0
1000c8fc:	100154b7          	lui	s1,0x10015
1000c900:	00058513          	mv	a0,a1
1000c904:	00112623          	sw	ra,12(sp)
1000c908:	6a04a623          	sw	zero,1708(s1) # 100156ac <errno>
1000c90c:	a85f30ef          	jal	ra,10000390 <_close>
1000c910:	fff00793          	li	a5,-1
1000c914:	00f50c63          	beq	a0,a5,1000c92c <_close_r+0x40>
1000c918:	00c12083          	lw	ra,12(sp)
1000c91c:	00812403          	lw	s0,8(sp)
1000c920:	00412483          	lw	s1,4(sp)
1000c924:	01010113          	addi	sp,sp,16
1000c928:	00008067          	ret
1000c92c:	6ac4a783          	lw	a5,1708(s1)
1000c930:	fe0784e3          	beqz	a5,1000c918 <_close_r+0x2c>
1000c934:	00c12083          	lw	ra,12(sp)
1000c938:	00f42023          	sw	a5,0(s0)
1000c93c:	00812403          	lw	s0,8(sp)
1000c940:	00412483          	lw	s1,4(sp)
1000c944:	01010113          	addi	sp,sp,16
1000c948:	00008067          	ret

1000c94c <__errno>:
1000c94c:	100157b7          	lui	a5,0x10015
1000c950:	6187a503          	lw	a0,1560(a5) # 10015618 <_impure_ptr>
1000c954:	00008067          	ret

1000c958 <_fclose_r>:
1000c958:	ff010113          	addi	sp,sp,-16
1000c95c:	00112623          	sw	ra,12(sp)
1000c960:	00812423          	sw	s0,8(sp)
1000c964:	00912223          	sw	s1,4(sp)
1000c968:	01212023          	sw	s2,0(sp)
1000c96c:	02058063          	beqz	a1,1000c98c <_fclose_r+0x34>
1000c970:	00058413          	mv	s0,a1
1000c974:	00050493          	mv	s1,a0
1000c978:	00050663          	beqz	a0,1000c984 <_fclose_r+0x2c>
1000c97c:	03852783          	lw	a5,56(a0)
1000c980:	0a078c63          	beqz	a5,1000ca38 <_fclose_r+0xe0>
1000c984:	00c41783          	lh	a5,12(s0)
1000c988:	02079263          	bnez	a5,1000c9ac <_fclose_r+0x54>
1000c98c:	00c12083          	lw	ra,12(sp)
1000c990:	00812403          	lw	s0,8(sp)
1000c994:	00000913          	li	s2,0
1000c998:	00412483          	lw	s1,4(sp)
1000c99c:	00090513          	mv	a0,s2
1000c9a0:	00012903          	lw	s2,0(sp)
1000c9a4:	01010113          	addi	sp,sp,16
1000c9a8:	00008067          	ret
1000c9ac:	00040593          	mv	a1,s0
1000c9b0:	00048513          	mv	a0,s1
1000c9b4:	0c4000ef          	jal	ra,1000ca78 <__sflush_r>
1000c9b8:	02c42783          	lw	a5,44(s0)
1000c9bc:	00050913          	mv	s2,a0
1000c9c0:	00078a63          	beqz	a5,1000c9d4 <_fclose_r+0x7c>
1000c9c4:	01c42583          	lw	a1,28(s0)
1000c9c8:	00048513          	mv	a0,s1
1000c9cc:	000780e7          	jalr	a5
1000c9d0:	06054c63          	bltz	a0,1000ca48 <_fclose_r+0xf0>
1000c9d4:	00c45783          	lhu	a5,12(s0)
1000c9d8:	0807f793          	andi	a5,a5,128
1000c9dc:	06079e63          	bnez	a5,1000ca58 <_fclose_r+0x100>
1000c9e0:	03042583          	lw	a1,48(s0)
1000c9e4:	00058c63          	beqz	a1,1000c9fc <_fclose_r+0xa4>
1000c9e8:	04040793          	addi	a5,s0,64
1000c9ec:	00f58663          	beq	a1,a5,1000c9f8 <_fclose_r+0xa0>
1000c9f0:	00048513          	mv	a0,s1
1000c9f4:	b79f80ef          	jal	ra,1000556c <_free_r>
1000c9f8:	02042823          	sw	zero,48(s0)
1000c9fc:	04442583          	lw	a1,68(s0)
1000ca00:	00058863          	beqz	a1,1000ca10 <_fclose_r+0xb8>
1000ca04:	00048513          	mv	a0,s1
1000ca08:	b65f80ef          	jal	ra,1000556c <_free_r>
1000ca0c:	04042223          	sw	zero,68(s0)
1000ca10:	9e5f80ef          	jal	ra,100053f4 <__sfp_lock_acquire>
1000ca14:	00041623          	sh	zero,12(s0)
1000ca18:	9e1f80ef          	jal	ra,100053f8 <__sfp_lock_release>
1000ca1c:	00c12083          	lw	ra,12(sp)
1000ca20:	00812403          	lw	s0,8(sp)
1000ca24:	00412483          	lw	s1,4(sp)
1000ca28:	00090513          	mv	a0,s2
1000ca2c:	00012903          	lw	s2,0(sp)
1000ca30:	01010113          	addi	sp,sp,16
1000ca34:	00008067          	ret
1000ca38:	9adf80ef          	jal	ra,100053e4 <__sinit>
1000ca3c:	00c41783          	lh	a5,12(s0)
1000ca40:	f40786e3          	beqz	a5,1000c98c <_fclose_r+0x34>
1000ca44:	f69ff06f          	j	1000c9ac <_fclose_r+0x54>
1000ca48:	00c45783          	lhu	a5,12(s0)
1000ca4c:	fff00913          	li	s2,-1
1000ca50:	0807f793          	andi	a5,a5,128
1000ca54:	f80786e3          	beqz	a5,1000c9e0 <_fclose_r+0x88>
1000ca58:	01042583          	lw	a1,16(s0)
1000ca5c:	00048513          	mv	a0,s1
1000ca60:	b0df80ef          	jal	ra,1000556c <_free_r>
1000ca64:	f7dff06f          	j	1000c9e0 <_fclose_r+0x88>

1000ca68 <fclose>:
1000ca68:	100157b7          	lui	a5,0x10015
1000ca6c:	00050593          	mv	a1,a0
1000ca70:	6187a503          	lw	a0,1560(a5) # 10015618 <_impure_ptr>
1000ca74:	ee5ff06f          	j	1000c958 <_fclose_r>

1000ca78 <__sflush_r>:
1000ca78:	00c59783          	lh	a5,12(a1)
1000ca7c:	fe010113          	addi	sp,sp,-32
1000ca80:	00812c23          	sw	s0,24(sp)
1000ca84:	01312623          	sw	s3,12(sp)
1000ca88:	00112e23          	sw	ra,28(sp)
1000ca8c:	00912a23          	sw	s1,20(sp)
1000ca90:	01212823          	sw	s2,16(sp)
1000ca94:	0087f693          	andi	a3,a5,8
1000ca98:	00058413          	mv	s0,a1
1000ca9c:	00050993          	mv	s3,a0
1000caa0:	10069c63          	bnez	a3,1000cbb8 <__sflush_r+0x140>
1000caa4:	00001737          	lui	a4,0x1
1000caa8:	80070713          	addi	a4,a4,-2048 # 800 <__stack_size+0x6d4>
1000caac:	0045a683          	lw	a3,4(a1)
1000cab0:	00e7e7b3          	or	a5,a5,a4
1000cab4:	00f59623          	sh	a5,12(a1)
1000cab8:	18d05663          	blez	a3,1000cc44 <__sflush_r+0x1cc>
1000cabc:	02842703          	lw	a4,40(s0)
1000cac0:	0c070c63          	beqz	a4,1000cb98 <__sflush_r+0x120>
1000cac4:	01079793          	slli	a5,a5,0x10
1000cac8:	0107d793          	srli	a5,a5,0x10
1000cacc:	000016b7          	lui	a3,0x1
1000cad0:	0009a483          	lw	s1,0(s3)
1000cad4:	00d7f6b3          	and	a3,a5,a3
1000cad8:	0009a023          	sw	zero,0(s3)
1000cadc:	01c42583          	lw	a1,28(s0)
1000cae0:	16069863          	bnez	a3,1000cc50 <__sflush_r+0x1d8>
1000cae4:	00100693          	li	a3,1
1000cae8:	00000613          	li	a2,0
1000caec:	00098513          	mv	a0,s3
1000caf0:	000700e7          	jalr	a4
1000caf4:	fff00793          	li	a5,-1
1000caf8:	18f50e63          	beq	a0,a5,1000cc94 <__sflush_r+0x21c>
1000cafc:	00c45783          	lhu	a5,12(s0)
1000cb00:	02842703          	lw	a4,40(s0)
1000cb04:	01c42583          	lw	a1,28(s0)
1000cb08:	0047f793          	andi	a5,a5,4
1000cb0c:	00078e63          	beqz	a5,1000cb28 <__sflush_r+0xb0>
1000cb10:	00442683          	lw	a3,4(s0)
1000cb14:	03042783          	lw	a5,48(s0)
1000cb18:	40d50533          	sub	a0,a0,a3
1000cb1c:	00078663          	beqz	a5,1000cb28 <__sflush_r+0xb0>
1000cb20:	03c42783          	lw	a5,60(s0)
1000cb24:	40f50533          	sub	a0,a0,a5
1000cb28:	00050613          	mv	a2,a0
1000cb2c:	00000693          	li	a3,0
1000cb30:	00098513          	mv	a0,s3
1000cb34:	000700e7          	jalr	a4
1000cb38:	fff00793          	li	a5,-1
1000cb3c:	10f51e63          	bne	a0,a5,1000cc58 <__sflush_r+0x1e0>
1000cb40:	0009a703          	lw	a4,0(s3)
1000cb44:	00c41783          	lh	a5,12(s0)
1000cb48:	16070a63          	beqz	a4,1000ccbc <__sflush_r+0x244>
1000cb4c:	01d00693          	li	a3,29
1000cb50:	00d70663          	beq	a4,a3,1000cb5c <__sflush_r+0xe4>
1000cb54:	01600693          	li	a3,22
1000cb58:	0cd71463          	bne	a4,a3,1000cc20 <__sflush_r+0x1a8>
1000cb5c:	01042683          	lw	a3,16(s0)
1000cb60:	fffff737          	lui	a4,0xfffff
1000cb64:	7ff70713          	addi	a4,a4,2047 # fffff7ff <_sp+0xeffd7293>
1000cb68:	00e7f7b3          	and	a5,a5,a4
1000cb6c:	00f41623          	sh	a5,12(s0)
1000cb70:	00042223          	sw	zero,4(s0)
1000cb74:	00d42023          	sw	a3,0(s0)
1000cb78:	03042583          	lw	a1,48(s0)
1000cb7c:	0099a023          	sw	s1,0(s3)
1000cb80:	00058c63          	beqz	a1,1000cb98 <__sflush_r+0x120>
1000cb84:	04040793          	addi	a5,s0,64
1000cb88:	00f58663          	beq	a1,a5,1000cb94 <__sflush_r+0x11c>
1000cb8c:	00098513          	mv	a0,s3
1000cb90:	9ddf80ef          	jal	ra,1000556c <_free_r>
1000cb94:	02042823          	sw	zero,48(s0)
1000cb98:	00000513          	li	a0,0
1000cb9c:	01c12083          	lw	ra,28(sp)
1000cba0:	01812403          	lw	s0,24(sp)
1000cba4:	01412483          	lw	s1,20(sp)
1000cba8:	01012903          	lw	s2,16(sp)
1000cbac:	00c12983          	lw	s3,12(sp)
1000cbb0:	02010113          	addi	sp,sp,32
1000cbb4:	00008067          	ret
1000cbb8:	0105a903          	lw	s2,16(a1)
1000cbbc:	fc090ee3          	beqz	s2,1000cb98 <__sflush_r+0x120>
1000cbc0:	0005a483          	lw	s1,0(a1)
1000cbc4:	01079713          	slli	a4,a5,0x10
1000cbc8:	01075713          	srli	a4,a4,0x10
1000cbcc:	00377713          	andi	a4,a4,3
1000cbd0:	0125a023          	sw	s2,0(a1)
1000cbd4:	412484b3          	sub	s1,s1,s2
1000cbd8:	00000793          	li	a5,0
1000cbdc:	00071463          	bnez	a4,1000cbe4 <__sflush_r+0x16c>
1000cbe0:	0145a783          	lw	a5,20(a1)
1000cbe4:	00f42423          	sw	a5,8(s0)
1000cbe8:	00904863          	bgtz	s1,1000cbf8 <__sflush_r+0x180>
1000cbec:	fadff06f          	j	1000cb98 <__sflush_r+0x120>
1000cbf0:	00a90933          	add	s2,s2,a0
1000cbf4:	fa9052e3          	blez	s1,1000cb98 <__sflush_r+0x120>
1000cbf8:	02442783          	lw	a5,36(s0)
1000cbfc:	01c42583          	lw	a1,28(s0)
1000cc00:	00048693          	mv	a3,s1
1000cc04:	00090613          	mv	a2,s2
1000cc08:	00098513          	mv	a0,s3
1000cc0c:	000780e7          	jalr	a5
1000cc10:	40a484b3          	sub	s1,s1,a0
1000cc14:	fca04ee3          	bgtz	a0,1000cbf0 <__sflush_r+0x178>
1000cc18:	00c45783          	lhu	a5,12(s0)
1000cc1c:	fff00513          	li	a0,-1
1000cc20:	0407e793          	ori	a5,a5,64
1000cc24:	01c12083          	lw	ra,28(sp)
1000cc28:	00f41623          	sh	a5,12(s0)
1000cc2c:	01812403          	lw	s0,24(sp)
1000cc30:	01412483          	lw	s1,20(sp)
1000cc34:	01012903          	lw	s2,16(sp)
1000cc38:	00c12983          	lw	s3,12(sp)
1000cc3c:	02010113          	addi	sp,sp,32
1000cc40:	00008067          	ret
1000cc44:	03c5a703          	lw	a4,60(a1)
1000cc48:	e6e04ae3          	bgtz	a4,1000cabc <__sflush_r+0x44>
1000cc4c:	f4dff06f          	j	1000cb98 <__sflush_r+0x120>
1000cc50:	05042503          	lw	a0,80(s0)
1000cc54:	eb5ff06f          	j	1000cb08 <__sflush_r+0x90>
1000cc58:	00c45783          	lhu	a5,12(s0)
1000cc5c:	fffff737          	lui	a4,0xfffff
1000cc60:	7ff70713          	addi	a4,a4,2047 # fffff7ff <_sp+0xeffd7293>
1000cc64:	00e7f7b3          	and	a5,a5,a4
1000cc68:	01042683          	lw	a3,16(s0)
1000cc6c:	01079793          	slli	a5,a5,0x10
1000cc70:	4107d793          	srai	a5,a5,0x10
1000cc74:	00c7d713          	srli	a4,a5,0xc
1000cc78:	00f41623          	sh	a5,12(s0)
1000cc7c:	00042223          	sw	zero,4(s0)
1000cc80:	00d42023          	sw	a3,0(s0)
1000cc84:	00177793          	andi	a5,a4,1
1000cc88:	ee0788e3          	beqz	a5,1000cb78 <__sflush_r+0x100>
1000cc8c:	04a42823          	sw	a0,80(s0)
1000cc90:	ee9ff06f          	j	1000cb78 <__sflush_r+0x100>
1000cc94:	0009a783          	lw	a5,0(s3)
1000cc98:	e60782e3          	beqz	a5,1000cafc <__sflush_r+0x84>
1000cc9c:	01d00713          	li	a4,29
1000cca0:	02e78863          	beq	a5,a4,1000ccd0 <__sflush_r+0x258>
1000cca4:	01600713          	li	a4,22
1000cca8:	02e78463          	beq	a5,a4,1000ccd0 <__sflush_r+0x258>
1000ccac:	00c45783          	lhu	a5,12(s0)
1000ccb0:	0407e793          	ori	a5,a5,64
1000ccb4:	00f41623          	sh	a5,12(s0)
1000ccb8:	ee5ff06f          	j	1000cb9c <__sflush_r+0x124>
1000ccbc:	fffff737          	lui	a4,0xfffff
1000ccc0:	7ff70713          	addi	a4,a4,2047 # fffff7ff <_sp+0xeffd7293>
1000ccc4:	01042683          	lw	a3,16(s0)
1000ccc8:	00e7f7b3          	and	a5,a5,a4
1000cccc:	fa9ff06f          	j	1000cc74 <__sflush_r+0x1fc>
1000ccd0:	0099a023          	sw	s1,0(s3)
1000ccd4:	00000513          	li	a0,0
1000ccd8:	ec5ff06f          	j	1000cb9c <__sflush_r+0x124>

1000ccdc <_fflush_r>:
1000ccdc:	fe010113          	addi	sp,sp,-32
1000cce0:	00812c23          	sw	s0,24(sp)
1000cce4:	00112e23          	sw	ra,28(sp)
1000cce8:	00050413          	mv	s0,a0
1000ccec:	00050663          	beqz	a0,1000ccf8 <_fflush_r+0x1c>
1000ccf0:	03852783          	lw	a5,56(a0)
1000ccf4:	02078063          	beqz	a5,1000cd14 <_fflush_r+0x38>
1000ccf8:	00c59783          	lh	a5,12(a1)
1000ccfc:	02079663          	bnez	a5,1000cd28 <_fflush_r+0x4c>
1000cd00:	01c12083          	lw	ra,28(sp)
1000cd04:	01812403          	lw	s0,24(sp)
1000cd08:	00000513          	li	a0,0
1000cd0c:	02010113          	addi	sp,sp,32
1000cd10:	00008067          	ret
1000cd14:	00b12623          	sw	a1,12(sp)
1000cd18:	eccf80ef          	jal	ra,100053e4 <__sinit>
1000cd1c:	00c12583          	lw	a1,12(sp)
1000cd20:	00c59783          	lh	a5,12(a1)
1000cd24:	fc078ee3          	beqz	a5,1000cd00 <_fflush_r+0x24>
1000cd28:	00040513          	mv	a0,s0
1000cd2c:	01812403          	lw	s0,24(sp)
1000cd30:	01c12083          	lw	ra,28(sp)
1000cd34:	02010113          	addi	sp,sp,32
1000cd38:	d41ff06f          	j	1000ca78 <__sflush_r>

1000cd3c <fflush>:
1000cd3c:	06050863          	beqz	a0,1000cdac <fflush+0x70>
1000cd40:	fe010113          	addi	sp,sp,-32
1000cd44:	100157b7          	lui	a5,0x10015
1000cd48:	00812c23          	sw	s0,24(sp)
1000cd4c:	00050413          	mv	s0,a0
1000cd50:	6187a503          	lw	a0,1560(a5) # 10015618 <_impure_ptr>
1000cd54:	00112e23          	sw	ra,28(sp)
1000cd58:	00050663          	beqz	a0,1000cd64 <fflush+0x28>
1000cd5c:	03852783          	lw	a5,56(a0)
1000cd60:	02078a63          	beqz	a5,1000cd94 <fflush+0x58>
1000cd64:	00c41783          	lh	a5,12(s0)
1000cd68:	00079c63          	bnez	a5,1000cd80 <fflush+0x44>
1000cd6c:	01c12083          	lw	ra,28(sp)
1000cd70:	01812403          	lw	s0,24(sp)
1000cd74:	00000513          	li	a0,0
1000cd78:	02010113          	addi	sp,sp,32
1000cd7c:	00008067          	ret
1000cd80:	00040593          	mv	a1,s0
1000cd84:	01812403          	lw	s0,24(sp)
1000cd88:	01c12083          	lw	ra,28(sp)
1000cd8c:	02010113          	addi	sp,sp,32
1000cd90:	ce9ff06f          	j	1000ca78 <__sflush_r>
1000cd94:	00a12623          	sw	a0,12(sp)
1000cd98:	e4cf80ef          	jal	ra,100053e4 <__sinit>
1000cd9c:	00c41783          	lh	a5,12(s0)
1000cda0:	00c12503          	lw	a0,12(sp)
1000cda4:	fc0784e3          	beqz	a5,1000cd6c <fflush+0x30>
1000cda8:	fd9ff06f          	j	1000cd80 <fflush+0x44>
1000cdac:	100157b7          	lui	a5,0x10015
1000cdb0:	6007a503          	lw	a0,1536(a5) # 10015600 <_global_impure_ptr>
1000cdb4:	1000d5b7          	lui	a1,0x1000d
1000cdb8:	cdc58593          	addi	a1,a1,-804 # 1000ccdc <_fflush_r>
1000cdbc:	824f906f          	j	10005de0 <_fwalk_reent>

1000cdc0 <_fiprintf_r>:
1000cdc0:	fc010113          	addi	sp,sp,-64
1000cdc4:	02c10313          	addi	t1,sp,44
1000cdc8:	02d12623          	sw	a3,44(sp)
1000cdcc:	00030693          	mv	a3,t1
1000cdd0:	00112e23          	sw	ra,28(sp)
1000cdd4:	02e12823          	sw	a4,48(sp)
1000cdd8:	02f12a23          	sw	a5,52(sp)
1000cddc:	03012c23          	sw	a6,56(sp)
1000cde0:	03112e23          	sw	a7,60(sp)
1000cde4:	00612623          	sw	t1,12(sp)
1000cde8:	4b0000ef          	jal	ra,1000d298 <_vfiprintf_r>
1000cdec:	01c12083          	lw	ra,28(sp)
1000cdf0:	04010113          	addi	sp,sp,64
1000cdf4:	00008067          	ret

1000cdf8 <fiprintf>:
1000cdf8:	00050e13          	mv	t3,a0
1000cdfc:	10015537          	lui	a0,0x10015
1000ce00:	fc010113          	addi	sp,sp,-64
1000ce04:	61852503          	lw	a0,1560(a0) # 10015618 <_impure_ptr>
1000ce08:	02810313          	addi	t1,sp,40
1000ce0c:	02c12423          	sw	a2,40(sp)
1000ce10:	02d12623          	sw	a3,44(sp)
1000ce14:	00058613          	mv	a2,a1
1000ce18:	00030693          	mv	a3,t1
1000ce1c:	000e0593          	mv	a1,t3
1000ce20:	00112e23          	sw	ra,28(sp)
1000ce24:	02e12823          	sw	a4,48(sp)
1000ce28:	02f12a23          	sw	a5,52(sp)
1000ce2c:	03012c23          	sw	a6,56(sp)
1000ce30:	03112e23          	sw	a7,60(sp)
1000ce34:	00612623          	sw	t1,12(sp)
1000ce38:	460000ef          	jal	ra,1000d298 <_vfiprintf_r>
1000ce3c:	01c12083          	lw	ra,28(sp)
1000ce40:	04010113          	addi	sp,sp,64
1000ce44:	00008067          	ret

1000ce48 <_lseek_r>:
1000ce48:	ff010113          	addi	sp,sp,-16
1000ce4c:	00058713          	mv	a4,a1
1000ce50:	00812423          	sw	s0,8(sp)
1000ce54:	00912223          	sw	s1,4(sp)
1000ce58:	00060593          	mv	a1,a2
1000ce5c:	00050413          	mv	s0,a0
1000ce60:	100154b7          	lui	s1,0x10015
1000ce64:	00068613          	mv	a2,a3
1000ce68:	00070513          	mv	a0,a4
1000ce6c:	00112623          	sw	ra,12(sp)
1000ce70:	6a04a623          	sw	zero,1708(s1) # 100156ac <errno>
1000ce74:	d42f30ef          	jal	ra,100003b6 <_lseek>
1000ce78:	fff00793          	li	a5,-1
1000ce7c:	00f50c63          	beq	a0,a5,1000ce94 <_lseek_r+0x4c>
1000ce80:	00c12083          	lw	ra,12(sp)
1000ce84:	00812403          	lw	s0,8(sp)
1000ce88:	00412483          	lw	s1,4(sp)
1000ce8c:	01010113          	addi	sp,sp,16
1000ce90:	00008067          	ret
1000ce94:	6ac4a783          	lw	a5,1708(s1)
1000ce98:	fe0784e3          	beqz	a5,1000ce80 <_lseek_r+0x38>
1000ce9c:	00c12083          	lw	ra,12(sp)
1000cea0:	00f42023          	sw	a5,0(s0)
1000cea4:	00812403          	lw	s0,8(sp)
1000cea8:	00412483          	lw	s1,4(sp)
1000ceac:	01010113          	addi	sp,sp,16
1000ceb0:	00008067          	ret

1000ceb4 <__smakebuf_r>:
1000ceb4:	00c5d783          	lhu	a5,12(a1)
1000ceb8:	f8010113          	addi	sp,sp,-128
1000cebc:	06812c23          	sw	s0,120(sp)
1000cec0:	06112e23          	sw	ra,124(sp)
1000cec4:	06912a23          	sw	s1,116(sp)
1000cec8:	07212823          	sw	s2,112(sp)
1000cecc:	07312623          	sw	s3,108(sp)
1000ced0:	07412423          	sw	s4,104(sp)
1000ced4:	0027f713          	andi	a4,a5,2
1000ced8:	00058413          	mv	s0,a1
1000cedc:	02070c63          	beqz	a4,1000cf14 <__smakebuf_r+0x60>
1000cee0:	04358793          	addi	a5,a1,67
1000cee4:	00f5a023          	sw	a5,0(a1)
1000cee8:	00f5a823          	sw	a5,16(a1)
1000ceec:	00100793          	li	a5,1
1000cef0:	00f5aa23          	sw	a5,20(a1)
1000cef4:	07c12083          	lw	ra,124(sp)
1000cef8:	07812403          	lw	s0,120(sp)
1000cefc:	07412483          	lw	s1,116(sp)
1000cf00:	07012903          	lw	s2,112(sp)
1000cf04:	06c12983          	lw	s3,108(sp)
1000cf08:	06812a03          	lw	s4,104(sp)
1000cf0c:	08010113          	addi	sp,sp,128
1000cf10:	00008067          	ret
1000cf14:	00e59583          	lh	a1,14(a1)
1000cf18:	00050493          	mv	s1,a0
1000cf1c:	0805cc63          	bltz	a1,1000cfb4 <__smakebuf_r+0x100>
1000cf20:	00810613          	addi	a2,sp,8
1000cf24:	00d010ef          	jal	ra,1000e730 <_fstat_r>
1000cf28:	08054463          	bltz	a0,1000cfb0 <__smakebuf_r+0xfc>
1000cf2c:	00c12783          	lw	a5,12(sp)
1000cf30:	0000f937          	lui	s2,0xf
1000cf34:	000019b7          	lui	s3,0x1
1000cf38:	00f97933          	and	s2,s2,a5
1000cf3c:	ffffe7b7          	lui	a5,0xffffe
1000cf40:	00f90933          	add	s2,s2,a5
1000cf44:	00193913          	seqz	s2,s2
1000cf48:	40000a13          	li	s4,1024
1000cf4c:	80098993          	addi	s3,s3,-2048 # 800 <__stack_size+0x6d4>
1000cf50:	000a0593          	mv	a1,s4
1000cf54:	00048513          	mv	a0,s1
1000cf58:	be5fb0ef          	jal	ra,10008b3c <_malloc_r>
1000cf5c:	00c41783          	lh	a5,12(s0)
1000cf60:	06050e63          	beqz	a0,1000cfdc <__smakebuf_r+0x128>
1000cf64:	10005737          	lui	a4,0x10005
1000cf68:	08870713          	addi	a4,a4,136 # 10005088 <_cleanup_r>
1000cf6c:	02e4ae23          	sw	a4,60(s1)
1000cf70:	0807e793          	ori	a5,a5,128
1000cf74:	00f41623          	sh	a5,12(s0)
1000cf78:	00a42023          	sw	a0,0(s0)
1000cf7c:	00a42823          	sw	a0,16(s0)
1000cf80:	01442a23          	sw	s4,20(s0)
1000cf84:	08091863          	bnez	s2,1000d014 <__smakebuf_r+0x160>
1000cf88:	0137e7b3          	or	a5,a5,s3
1000cf8c:	07c12083          	lw	ra,124(sp)
1000cf90:	00f41623          	sh	a5,12(s0)
1000cf94:	07812403          	lw	s0,120(sp)
1000cf98:	07412483          	lw	s1,116(sp)
1000cf9c:	07012903          	lw	s2,112(sp)
1000cfa0:	06c12983          	lw	s3,108(sp)
1000cfa4:	06812a03          	lw	s4,104(sp)
1000cfa8:	08010113          	addi	sp,sp,128
1000cfac:	00008067          	ret
1000cfb0:	00c45783          	lhu	a5,12(s0)
1000cfb4:	0807f793          	andi	a5,a5,128
1000cfb8:	00000913          	li	s2,0
1000cfbc:	04078663          	beqz	a5,1000d008 <__smakebuf_r+0x154>
1000cfc0:	04000a13          	li	s4,64
1000cfc4:	000a0593          	mv	a1,s4
1000cfc8:	00048513          	mv	a0,s1
1000cfcc:	b71fb0ef          	jal	ra,10008b3c <_malloc_r>
1000cfd0:	00c41783          	lh	a5,12(s0)
1000cfd4:	00000993          	li	s3,0
1000cfd8:	f80516e3          	bnez	a0,1000cf64 <__smakebuf_r+0xb0>
1000cfdc:	2007f713          	andi	a4,a5,512
1000cfe0:	f0071ae3          	bnez	a4,1000cef4 <__smakebuf_r+0x40>
1000cfe4:	ffc7f793          	andi	a5,a5,-4
1000cfe8:	0027e793          	ori	a5,a5,2
1000cfec:	04340713          	addi	a4,s0,67
1000cff0:	00f41623          	sh	a5,12(s0)
1000cff4:	00100793          	li	a5,1
1000cff8:	00e42023          	sw	a4,0(s0)
1000cffc:	00e42823          	sw	a4,16(s0)
1000d000:	00f42a23          	sw	a5,20(s0)
1000d004:	ef1ff06f          	j	1000cef4 <__smakebuf_r+0x40>
1000d008:	40000a13          	li	s4,1024
1000d00c:	00000993          	li	s3,0
1000d010:	f41ff06f          	j	1000cf50 <__smakebuf_r+0x9c>
1000d014:	00e41583          	lh	a1,14(s0)
1000d018:	00048513          	mv	a0,s1
1000d01c:	77c010ef          	jal	ra,1000e798 <_isatty_r>
1000d020:	00051663          	bnez	a0,1000d02c <__smakebuf_r+0x178>
1000d024:	00c41783          	lh	a5,12(s0)
1000d028:	f61ff06f          	j	1000cf88 <__smakebuf_r+0xd4>
1000d02c:	00c45783          	lhu	a5,12(s0)
1000d030:	ffc7f793          	andi	a5,a5,-4
1000d034:	0017e793          	ori	a5,a5,1
1000d038:	01079793          	slli	a5,a5,0x10
1000d03c:	4107d793          	srai	a5,a5,0x10
1000d040:	f49ff06f          	j	1000cf88 <__smakebuf_r+0xd4>

1000d044 <__swhatbuf_r>:
1000d044:	f9010113          	addi	sp,sp,-112
1000d048:	06812423          	sw	s0,104(sp)
1000d04c:	00058413          	mv	s0,a1
1000d050:	00e59583          	lh	a1,14(a1)
1000d054:	06912223          	sw	s1,100(sp)
1000d058:	07212023          	sw	s2,96(sp)
1000d05c:	06112623          	sw	ra,108(sp)
1000d060:	00060493          	mv	s1,a2
1000d064:	00068913          	mv	s2,a3
1000d068:	0405ca63          	bltz	a1,1000d0bc <__swhatbuf_r+0x78>
1000d06c:	00810613          	addi	a2,sp,8
1000d070:	6c0010ef          	jal	ra,1000e730 <_fstat_r>
1000d074:	04054463          	bltz	a0,1000d0bc <__swhatbuf_r+0x78>
1000d078:	00c12703          	lw	a4,12(sp)
1000d07c:	0000f7b7          	lui	a5,0xf
1000d080:	06c12083          	lw	ra,108(sp)
1000d084:	00e7f7b3          	and	a5,a5,a4
1000d088:	ffffe737          	lui	a4,0xffffe
1000d08c:	00e787b3          	add	a5,a5,a4
1000d090:	06812403          	lw	s0,104(sp)
1000d094:	0017b793          	seqz	a5,a5
1000d098:	00f92023          	sw	a5,0(s2) # f000 <__heap_size+0xe000>
1000d09c:	40000713          	li	a4,1024
1000d0a0:	00e4a023          	sw	a4,0(s1)
1000d0a4:	00001537          	lui	a0,0x1
1000d0a8:	06412483          	lw	s1,100(sp)
1000d0ac:	06012903          	lw	s2,96(sp)
1000d0b0:	80050513          	addi	a0,a0,-2048 # 800 <__stack_size+0x6d4>
1000d0b4:	07010113          	addi	sp,sp,112
1000d0b8:	00008067          	ret
1000d0bc:	00c45783          	lhu	a5,12(s0)
1000d0c0:	0807f793          	andi	a5,a5,128
1000d0c4:	02078863          	beqz	a5,1000d0f4 <__swhatbuf_r+0xb0>
1000d0c8:	06c12083          	lw	ra,108(sp)
1000d0cc:	06812403          	lw	s0,104(sp)
1000d0d0:	00000793          	li	a5,0
1000d0d4:	00f92023          	sw	a5,0(s2)
1000d0d8:	04000713          	li	a4,64
1000d0dc:	00e4a023          	sw	a4,0(s1)
1000d0e0:	06012903          	lw	s2,96(sp)
1000d0e4:	06412483          	lw	s1,100(sp)
1000d0e8:	00000513          	li	a0,0
1000d0ec:	07010113          	addi	sp,sp,112
1000d0f0:	00008067          	ret
1000d0f4:	06c12083          	lw	ra,108(sp)
1000d0f8:	06812403          	lw	s0,104(sp)
1000d0fc:	00000793          	li	a5,0
1000d100:	00f92023          	sw	a5,0(s2)
1000d104:	40000713          	li	a4,1024
1000d108:	00e4a023          	sw	a4,0(s1)
1000d10c:	06012903          	lw	s2,96(sp)
1000d110:	06412483          	lw	s1,100(sp)
1000d114:	00000513          	li	a0,0
1000d118:	07010113          	addi	sp,sp,112
1000d11c:	00008067          	ret

1000d120 <_read_r>:
1000d120:	ff010113          	addi	sp,sp,-16
1000d124:	00058713          	mv	a4,a1
1000d128:	00812423          	sw	s0,8(sp)
1000d12c:	00912223          	sw	s1,4(sp)
1000d130:	00060593          	mv	a1,a2
1000d134:	00050413          	mv	s0,a0
1000d138:	100154b7          	lui	s1,0x10015
1000d13c:	00068613          	mv	a2,a3
1000d140:	00070513          	mv	a0,a4
1000d144:	00112623          	sw	ra,12(sp)
1000d148:	6a04a623          	sw	zero,1708(s1) # 100156ac <errno>
1000d14c:	a6ef30ef          	jal	ra,100003ba <_read>
1000d150:	fff00793          	li	a5,-1
1000d154:	00f50c63          	beq	a0,a5,1000d16c <_read_r+0x4c>
1000d158:	00c12083          	lw	ra,12(sp)
1000d15c:	00812403          	lw	s0,8(sp)
1000d160:	00412483          	lw	s1,4(sp)
1000d164:	01010113          	addi	sp,sp,16
1000d168:	00008067          	ret
1000d16c:	6ac4a783          	lw	a5,1708(s1)
1000d170:	fe0784e3          	beqz	a5,1000d158 <_read_r+0x38>
1000d174:	00c12083          	lw	ra,12(sp)
1000d178:	00f42023          	sw	a5,0(s0)
1000d17c:	00812403          	lw	s0,8(sp)
1000d180:	00412483          	lw	s1,4(sp)
1000d184:	01010113          	addi	sp,sp,16
1000d188:	00008067          	ret

1000d18c <__sprint_r.part.0>:
1000d18c:	0645a703          	lw	a4,100(a1)
1000d190:	fd010113          	addi	sp,sp,-48
1000d194:	000027b7          	lui	a5,0x2
1000d198:	01612823          	sw	s6,16(sp)
1000d19c:	02112623          	sw	ra,44(sp)
1000d1a0:	02812423          	sw	s0,40(sp)
1000d1a4:	02912223          	sw	s1,36(sp)
1000d1a8:	03212023          	sw	s2,32(sp)
1000d1ac:	01312e23          	sw	s3,28(sp)
1000d1b0:	01412c23          	sw	s4,24(sp)
1000d1b4:	01512a23          	sw	s5,20(sp)
1000d1b8:	01712623          	sw	s7,12(sp)
1000d1bc:	01812423          	sw	s8,8(sp)
1000d1c0:	00e7f7b3          	and	a5,a5,a4
1000d1c4:	00060b13          	mv	s6,a2
1000d1c8:	0a078863          	beqz	a5,1000d278 <__sprint_r.part.0+0xec>
1000d1cc:	00862783          	lw	a5,8(a2)
1000d1d0:	00062b83          	lw	s7,0(a2)
1000d1d4:	00058913          	mv	s2,a1
1000d1d8:	00050993          	mv	s3,a0
1000d1dc:	fff00a93          	li	s5,-1
1000d1e0:	08078863          	beqz	a5,1000d270 <__sprint_r.part.0+0xe4>
1000d1e4:	004bac03          	lw	s8,4(s7)
1000d1e8:	000ba403          	lw	s0,0(s7)
1000d1ec:	002c5a13          	srli	s4,s8,0x2
1000d1f0:	060a0663          	beqz	s4,1000d25c <__sprint_r.part.0+0xd0>
1000d1f4:	00000493          	li	s1,0
1000d1f8:	00c0006f          	j	1000d204 <__sprint_r.part.0+0x78>
1000d1fc:	00440413          	addi	s0,s0,4
1000d200:	049a0c63          	beq	s4,s1,1000d258 <__sprint_r.part.0+0xcc>
1000d204:	00042583          	lw	a1,0(s0)
1000d208:	00090613          	mv	a2,s2
1000d20c:	00098513          	mv	a0,s3
1000d210:	474010ef          	jal	ra,1000e684 <_fputwc_r>
1000d214:	00148493          	addi	s1,s1,1
1000d218:	ff5512e3          	bne	a0,s5,1000d1fc <__sprint_r.part.0+0x70>
1000d21c:	fff00513          	li	a0,-1
1000d220:	02c12083          	lw	ra,44(sp)
1000d224:	02812403          	lw	s0,40(sp)
1000d228:	000b2423          	sw	zero,8(s6)
1000d22c:	000b2223          	sw	zero,4(s6)
1000d230:	02412483          	lw	s1,36(sp)
1000d234:	02012903          	lw	s2,32(sp)
1000d238:	01c12983          	lw	s3,28(sp)
1000d23c:	01812a03          	lw	s4,24(sp)
1000d240:	01412a83          	lw	s5,20(sp)
1000d244:	01012b03          	lw	s6,16(sp)
1000d248:	00c12b83          	lw	s7,12(sp)
1000d24c:	00812c03          	lw	s8,8(sp)
1000d250:	03010113          	addi	sp,sp,48
1000d254:	00008067          	ret
1000d258:	008b2783          	lw	a5,8(s6)
1000d25c:	ffcc7c13          	andi	s8,s8,-4
1000d260:	418787b3          	sub	a5,a5,s8
1000d264:	00fb2423          	sw	a5,8(s6)
1000d268:	008b8b93          	addi	s7,s7,8
1000d26c:	f6079ce3          	bnez	a5,1000d1e4 <__sprint_r.part.0+0x58>
1000d270:	00000513          	li	a0,0
1000d274:	fadff06f          	j	1000d220 <__sprint_r.part.0+0x94>
1000d278:	e08f80ef          	jal	ra,10005880 <__sfvwrite_r>
1000d27c:	fa5ff06f          	j	1000d220 <__sprint_r.part.0+0x94>

1000d280 <__sprint_r>:
1000d280:	00862703          	lw	a4,8(a2)
1000d284:	00070463          	beqz	a4,1000d28c <__sprint_r+0xc>
1000d288:	f05ff06f          	j	1000d18c <__sprint_r.part.0>
1000d28c:	00062223          	sw	zero,4(a2)
1000d290:	00000513          	li	a0,0
1000d294:	00008067          	ret

1000d298 <_vfiprintf_r>:
1000d298:	ed010113          	addi	sp,sp,-304
1000d29c:	11312e23          	sw	s3,284(sp)
1000d2a0:	11512a23          	sw	s5,276(sp)
1000d2a4:	11712623          	sw	s7,268(sp)
1000d2a8:	12112623          	sw	ra,300(sp)
1000d2ac:	12812423          	sw	s0,296(sp)
1000d2b0:	12912223          	sw	s1,292(sp)
1000d2b4:	13212023          	sw	s2,288(sp)
1000d2b8:	11412c23          	sw	s4,280(sp)
1000d2bc:	11612823          	sw	s6,272(sp)
1000d2c0:	11812423          	sw	s8,264(sp)
1000d2c4:	11912223          	sw	s9,260(sp)
1000d2c8:	11a12023          	sw	s10,256(sp)
1000d2cc:	0fb12e23          	sw	s11,252(sp)
1000d2d0:	00d12823          	sw	a3,16(sp)
1000d2d4:	00050a93          	mv	s5,a0
1000d2d8:	00058993          	mv	s3,a1
1000d2dc:	00060b93          	mv	s7,a2
1000d2e0:	00050663          	beqz	a0,1000d2ec <_vfiprintf_r+0x54>
1000d2e4:	03852783          	lw	a5,56(a0)
1000d2e8:	62078663          	beqz	a5,1000d914 <_vfiprintf_r+0x67c>
1000d2ec:	00c99703          	lh	a4,12(s3)
1000d2f0:	000026b7          	lui	a3,0x2
1000d2f4:	01071793          	slli	a5,a4,0x10
1000d2f8:	0107d793          	srli	a5,a5,0x10
1000d2fc:	00d7f633          	and	a2,a5,a3
1000d300:	02061863          	bnez	a2,1000d330 <_vfiprintf_r+0x98>
1000d304:	0649a603          	lw	a2,100(s3)
1000d308:	00d767b3          	or	a5,a4,a3
1000d30c:	01079793          	slli	a5,a5,0x10
1000d310:	ffffe737          	lui	a4,0xffffe
1000d314:	4107d793          	srai	a5,a5,0x10
1000d318:	fff70713          	addi	a4,a4,-1 # ffffdfff <_sp+0xeffd5a93>
1000d31c:	00e67733          	and	a4,a2,a4
1000d320:	00f99623          	sh	a5,12(s3)
1000d324:	01079793          	slli	a5,a5,0x10
1000d328:	06e9a223          	sw	a4,100(s3)
1000d32c:	0107d793          	srli	a5,a5,0x10
1000d330:	0087f713          	andi	a4,a5,8
1000d334:	3e070a63          	beqz	a4,1000d728 <_vfiprintf_r+0x490>
1000d338:	0109a703          	lw	a4,16(s3)
1000d33c:	3e070663          	beqz	a4,1000d728 <_vfiprintf_r+0x490>
1000d340:	01a7f793          	andi	a5,a5,26
1000d344:	00a00713          	li	a4,10
1000d348:	40e78063          	beq	a5,a4,1000d748 <_vfiprintf_r+0x4b0>
1000d34c:	100157b7          	lui	a5,0x10015
1000d350:	9c078793          	addi	a5,a5,-1600 # 100149c0 <_ctype_+0x104>
1000d354:	10015b37          	lui	s6,0x10015
1000d358:	04c10493          	addi	s1,sp,76
1000d35c:	00f12a23          	sw	a5,20(sp)
1000d360:	10015937          	lui	s2,0x10015
1000d364:	b2cb0793          	addi	a5,s6,-1236 # 10014b2c <blanks.1>
1000d368:	000b8c13          	mv	s8,s7
1000d36c:	04912023          	sw	s1,64(sp)
1000d370:	04012423          	sw	zero,72(sp)
1000d374:	04012223          	sw	zero,68(sp)
1000d378:	00012c23          	sw	zero,24(sp)
1000d37c:	00012e23          	sw	zero,28(sp)
1000d380:	02012223          	sw	zero,36(sp)
1000d384:	02012023          	sw	zero,32(sp)
1000d388:	00012623          	sw	zero,12(sp)
1000d38c:	00f12423          	sw	a5,8(sp)
1000d390:	b3c90913          	addi	s2,s2,-1220 # 10014b3c <zeroes.0>
1000d394:	00048b93          	mv	s7,s1
1000d398:	000c4783          	lbu	a5,0(s8)
1000d39c:	26078263          	beqz	a5,1000d600 <_vfiprintf_r+0x368>
1000d3a0:	000c0413          	mv	s0,s8
1000d3a4:	02500713          	li	a4,37
1000d3a8:	46e78263          	beq	a5,a4,1000d80c <_vfiprintf_r+0x574>
1000d3ac:	00144783          	lbu	a5,1(s0)
1000d3b0:	00140413          	addi	s0,s0,1
1000d3b4:	fe079ae3          	bnez	a5,1000d3a8 <_vfiprintf_r+0x110>
1000d3b8:	41840cb3          	sub	s9,s0,s8
1000d3bc:	25840263          	beq	s0,s8,1000d600 <_vfiprintf_r+0x368>
1000d3c0:	04812703          	lw	a4,72(sp)
1000d3c4:	04412783          	lw	a5,68(sp)
1000d3c8:	018ba023          	sw	s8,0(s7)
1000d3cc:	00ec8733          	add	a4,s9,a4
1000d3d0:	00178793          	addi	a5,a5,1
1000d3d4:	019ba223          	sw	s9,4(s7)
1000d3d8:	04e12423          	sw	a4,72(sp)
1000d3dc:	04f12223          	sw	a5,68(sp)
1000d3e0:	00700693          	li	a3,7
1000d3e4:	008b8b93          	addi	s7,s7,8
1000d3e8:	02f6d063          	bge	a3,a5,1000d408 <_vfiprintf_r+0x170>
1000d3ec:	420700e3          	beqz	a4,1000e00c <_vfiprintf_r+0xd74>
1000d3f0:	04010613          	addi	a2,sp,64
1000d3f4:	00098593          	mv	a1,s3
1000d3f8:	000a8513          	mv	a0,s5
1000d3fc:	d91ff0ef          	jal	ra,1000d18c <__sprint_r.part.0>
1000d400:	20051463          	bnez	a0,1000d608 <_vfiprintf_r+0x370>
1000d404:	00048b93          	mv	s7,s1
1000d408:	00c12703          	lw	a4,12(sp)
1000d40c:	00044783          	lbu	a5,0(s0)
1000d410:	01970733          	add	a4,a4,s9
1000d414:	00e12623          	sw	a4,12(sp)
1000d418:	1e078463          	beqz	a5,1000d600 <_vfiprintf_r+0x368>
1000d41c:	00144683          	lbu	a3,1(s0)
1000d420:	00140c13          	addi	s8,s0,1
1000d424:	02010da3          	sb	zero,59(sp)
1000d428:	fff00a13          	li	s4,-1
1000d42c:	00012223          	sw	zero,4(sp)
1000d430:	00000b13          	li	s6,0
1000d434:	05a00c93          	li	s9,90
1000d438:	00900d13          	li	s10,9
1000d43c:	02a00613          	li	a2,42
1000d440:	001c0c13          	addi	s8,s8,1
1000d444:	fe068793          	addi	a5,a3,-32 # 1fe0 <__heap_size+0xfe0>
1000d448:	04fce863          	bltu	s9,a5,1000d498 <_vfiprintf_r+0x200>
1000d44c:	01412703          	lw	a4,20(sp)
1000d450:	00279793          	slli	a5,a5,0x2
1000d454:	00e787b3          	add	a5,a5,a4
1000d458:	0007a783          	lw	a5,0(a5)
1000d45c:	00078067          	jr	a5
1000d460:	00012223          	sw	zero,4(sp)
1000d464:	fd068793          	addi	a5,a3,-48
1000d468:	00412583          	lw	a1,4(sp)
1000d46c:	000c4683          	lbu	a3,0(s8)
1000d470:	001c0c13          	addi	s8,s8,1
1000d474:	00259713          	slli	a4,a1,0x2
1000d478:	00b70733          	add	a4,a4,a1
1000d47c:	00171713          	slli	a4,a4,0x1
1000d480:	00e787b3          	add	a5,a5,a4
1000d484:	00f12223          	sw	a5,4(sp)
1000d488:	fd068793          	addi	a5,a3,-48
1000d48c:	fcfd7ee3          	bgeu	s10,a5,1000d468 <_vfiprintf_r+0x1d0>
1000d490:	fe068793          	addi	a5,a3,-32
1000d494:	fafcfce3          	bgeu	s9,a5,1000d44c <_vfiprintf_r+0x1b4>
1000d498:	16068463          	beqz	a3,1000d600 <_vfiprintf_r+0x368>
1000d49c:	08d10623          	sb	a3,140(sp)
1000d4a0:	02010da3          	sb	zero,59(sp)
1000d4a4:	00100c93          	li	s9,1
1000d4a8:	00100d13          	li	s10,1
1000d4ac:	08c10413          	addi	s0,sp,140
1000d4b0:	00000a13          	li	s4,0
1000d4b4:	002b7f93          	andi	t6,s6,2
1000d4b8:	000f8463          	beqz	t6,1000d4c0 <_vfiprintf_r+0x228>
1000d4bc:	002c8c93          	addi	s9,s9,2
1000d4c0:	04412703          	lw	a4,68(sp)
1000d4c4:	084b7f13          	andi	t5,s6,132
1000d4c8:	04812783          	lw	a5,72(sp)
1000d4cc:	00170693          	addi	a3,a4,1
1000d4d0:	00068613          	mv	a2,a3
1000d4d4:	000f1863          	bnez	t5,1000d4e4 <_vfiprintf_r+0x24c>
1000d4d8:	00412583          	lw	a1,4(sp)
1000d4dc:	41958db3          	sub	s11,a1,s9
1000d4e0:	0fb04ce3          	bgtz	s11,1000ddd8 <_vfiprintf_r+0xb40>
1000d4e4:	03b14683          	lbu	a3,59(sp)
1000d4e8:	02068a63          	beqz	a3,1000d51c <_vfiprintf_r+0x284>
1000d4ec:	03b10713          	addi	a4,sp,59
1000d4f0:	00178793          	addi	a5,a5,1
1000d4f4:	00eba023          	sw	a4,0(s7)
1000d4f8:	00100713          	li	a4,1
1000d4fc:	00eba223          	sw	a4,4(s7)
1000d500:	04f12423          	sw	a5,72(sp)
1000d504:	04c12223          	sw	a2,68(sp)
1000d508:	00700713          	li	a4,7
1000d50c:	04c748e3          	blt	a4,a2,1000dd5c <_vfiprintf_r+0xac4>
1000d510:	00060713          	mv	a4,a2
1000d514:	008b8b93          	addi	s7,s7,8
1000d518:	00160613          	addi	a2,a2,1
1000d51c:	040f8c63          	beqz	t6,1000d574 <_vfiprintf_r+0x2dc>
1000d520:	03c10713          	addi	a4,sp,60
1000d524:	00278793          	addi	a5,a5,2
1000d528:	00eba023          	sw	a4,0(s7)
1000d52c:	00200713          	li	a4,2
1000d530:	00eba223          	sw	a4,4(s7)
1000d534:	04f12423          	sw	a5,72(sp)
1000d538:	04c12223          	sw	a2,68(sp)
1000d53c:	00700713          	li	a4,7
1000d540:	08c750e3          	bge	a4,a2,1000ddc0 <_vfiprintf_r+0xb28>
1000d544:	32078ce3          	beqz	a5,1000e07c <_vfiprintf_r+0xde4>
1000d548:	04010613          	addi	a2,sp,64
1000d54c:	00098593          	mv	a1,s3
1000d550:	000a8513          	mv	a0,s5
1000d554:	03e12423          	sw	t5,40(sp)
1000d558:	c35ff0ef          	jal	ra,1000d18c <__sprint_r.part.0>
1000d55c:	0a051663          	bnez	a0,1000d608 <_vfiprintf_r+0x370>
1000d560:	04412703          	lw	a4,68(sp)
1000d564:	04812783          	lw	a5,72(sp)
1000d568:	02812f03          	lw	t5,40(sp)
1000d56c:	00048b93          	mv	s7,s1
1000d570:	00170613          	addi	a2,a4,1
1000d574:	08000693          	li	a3,128
1000d578:	62df0a63          	beq	t5,a3,1000dbac <_vfiprintf_r+0x914>
1000d57c:	41aa0a33          	sub	s4,s4,s10
1000d580:	71404263          	bgtz	s4,1000dc84 <_vfiprintf_r+0x9ec>
1000d584:	00fd07b3          	add	a5,s10,a5
1000d588:	008ba023          	sw	s0,0(s7)
1000d58c:	01aba223          	sw	s10,4(s7)
1000d590:	04f12423          	sw	a5,72(sp)
1000d594:	04c12223          	sw	a2,68(sp)
1000d598:	00700713          	li	a4,7
1000d59c:	60c75463          	bge	a4,a2,1000dba4 <_vfiprintf_r+0x90c>
1000d5a0:	12078ee3          	beqz	a5,1000dedc <_vfiprintf_r+0xc44>
1000d5a4:	04010613          	addi	a2,sp,64
1000d5a8:	00098593          	mv	a1,s3
1000d5ac:	000a8513          	mv	a0,s5
1000d5b0:	bddff0ef          	jal	ra,1000d18c <__sprint_r.part.0>
1000d5b4:	04051a63          	bnez	a0,1000d608 <_vfiprintf_r+0x370>
1000d5b8:	04812783          	lw	a5,72(sp)
1000d5bc:	00048b93          	mv	s7,s1
1000d5c0:	004b7e13          	andi	t3,s6,4
1000d5c4:	000e0863          	beqz	t3,1000d5d4 <_vfiprintf_r+0x33c>
1000d5c8:	00412703          	lw	a4,4(sp)
1000d5cc:	41970d33          	sub	s10,a4,s9
1000d5d0:	13a044e3          	bgtz	s10,1000def8 <_vfiprintf_r+0xc60>
1000d5d4:	00412403          	lw	s0,4(sp)
1000d5d8:	01945463          	bge	s0,s9,1000d5e0 <_vfiprintf_r+0x348>
1000d5dc:	000c8413          	mv	s0,s9
1000d5e0:	00c12703          	lw	a4,12(sp)
1000d5e4:	00870733          	add	a4,a4,s0
1000d5e8:	00e12623          	sw	a4,12(sp)
1000d5ec:	74079463          	bnez	a5,1000dd34 <_vfiprintf_r+0xa9c>
1000d5f0:	000c4783          	lbu	a5,0(s8)
1000d5f4:	04012223          	sw	zero,68(sp)
1000d5f8:	00048b93          	mv	s7,s1
1000d5fc:	da0792e3          	bnez	a5,1000d3a0 <_vfiprintf_r+0x108>
1000d600:	04812783          	lw	a5,72(sp)
1000d604:	5e079ae3          	bnez	a5,1000e3f8 <_vfiprintf_r+0x1160>
1000d608:	00c9d783          	lhu	a5,12(s3)
1000d60c:	0407f793          	andi	a5,a5,64
1000d610:	620792e3          	bnez	a5,1000e434 <_vfiprintf_r+0x119c>
1000d614:	12c12083          	lw	ra,300(sp)
1000d618:	12812403          	lw	s0,296(sp)
1000d61c:	00c12503          	lw	a0,12(sp)
1000d620:	12412483          	lw	s1,292(sp)
1000d624:	12012903          	lw	s2,288(sp)
1000d628:	11c12983          	lw	s3,284(sp)
1000d62c:	11812a03          	lw	s4,280(sp)
1000d630:	11412a83          	lw	s5,276(sp)
1000d634:	11012b03          	lw	s6,272(sp)
1000d638:	10c12b83          	lw	s7,268(sp)
1000d63c:	10812c03          	lw	s8,264(sp)
1000d640:	10412c83          	lw	s9,260(sp)
1000d644:	10012d03          	lw	s10,256(sp)
1000d648:	0fc12d83          	lw	s11,252(sp)
1000d64c:	13010113          	addi	sp,sp,304
1000d650:	00008067          	ret
1000d654:	000a8513          	mv	a0,s5
1000d658:	bc8fb0ef          	jal	ra,10008a20 <_localeconv_r>
1000d65c:	00452783          	lw	a5,4(a0)
1000d660:	00078513          	mv	a0,a5
1000d664:	02f12023          	sw	a5,32(sp)
1000d668:	fd9f40ef          	jal	ra,10002640 <strlen>
1000d66c:	00050793          	mv	a5,a0
1000d670:	000a8513          	mv	a0,s5
1000d674:	00078413          	mv	s0,a5
1000d678:	02f12223          	sw	a5,36(sp)
1000d67c:	ba4fb0ef          	jal	ra,10008a20 <_localeconv_r>
1000d680:	00852783          	lw	a5,8(a0)
1000d684:	02a00613          	li	a2,42
1000d688:	00f12e23          	sw	a5,28(sp)
1000d68c:	320416e3          	bnez	s0,1000e1b8 <_vfiprintf_r+0xf20>
1000d690:	000c4683          	lbu	a3,0(s8)
1000d694:	dadff06f          	j	1000d440 <_vfiprintf_r+0x1a8>
1000d698:	000c4683          	lbu	a3,0(s8)
1000d69c:	020b6b13          	ori	s6,s6,32
1000d6a0:	da1ff06f          	j	1000d440 <_vfiprintf_r+0x1a8>
1000d6a4:	010b6b13          	ori	s6,s6,16
1000d6a8:	020b7793          	andi	a5,s6,32
1000d6ac:	1a078063          	beqz	a5,1000d84c <_vfiprintf_r+0x5b4>
1000d6b0:	01012783          	lw	a5,16(sp)
1000d6b4:	00778793          	addi	a5,a5,7
1000d6b8:	ff87f793          	andi	a5,a5,-8
1000d6bc:	0047a683          	lw	a3,4(a5)
1000d6c0:	0007ad03          	lw	s10,0(a5)
1000d6c4:	00878793          	addi	a5,a5,8
1000d6c8:	00f12823          	sw	a5,16(sp)
1000d6cc:	00068c93          	mv	s9,a3
1000d6d0:	1a06c863          	bltz	a3,1000d880 <_vfiprintf_r+0x5e8>
1000d6d4:	fff00693          	li	a3,-1
1000d6d8:	000b0d93          	mv	s11,s6
1000d6dc:	00da0863          	beq	s4,a3,1000d6ec <_vfiprintf_r+0x454>
1000d6e0:	019d66b3          	or	a3,s10,s9
1000d6e4:	f7fb7d93          	andi	s11,s6,-129
1000d6e8:	120688e3          	beqz	a3,1000e018 <_vfiprintf_r+0xd80>
1000d6ec:	1a0c9ae3          	bnez	s9,1000e0a0 <_vfiprintf_r+0xe08>
1000d6f0:	00900693          	li	a3,9
1000d6f4:	1ba6e6e3          	bltu	a3,s10,1000e0a0 <_vfiprintf_r+0xe08>
1000d6f8:	030d0793          	addi	a5,s10,48
1000d6fc:	0ef107a3          	sb	a5,239(sp)
1000d700:	000d8b13          	mv	s6,s11
1000d704:	00100d13          	li	s10,1
1000d708:	0ef10413          	addi	s0,sp,239
1000d70c:	000a0c93          	mv	s9,s4
1000d710:	01aa5463          	bge	s4,s10,1000d718 <_vfiprintf_r+0x480>
1000d714:	000d0c93          	mv	s9,s10
1000d718:	03b14783          	lbu	a5,59(sp)
1000d71c:	00f037b3          	snez	a5,a5
1000d720:	00fc8cb3          	add	s9,s9,a5
1000d724:	d91ff06f          	j	1000d4b4 <_vfiprintf_r+0x21c>
1000d728:	00098593          	mv	a1,s3
1000d72c:	000a8513          	mv	a0,s5
1000d730:	e59fe0ef          	jal	ra,1000c588 <__swsetup_r>
1000d734:	500510e3          	bnez	a0,1000e434 <_vfiprintf_r+0x119c>
1000d738:	00c9d783          	lhu	a5,12(s3)
1000d73c:	00a00713          	li	a4,10
1000d740:	01a7f793          	andi	a5,a5,26
1000d744:	c0e794e3          	bne	a5,a4,1000d34c <_vfiprintf_r+0xb4>
1000d748:	00e99783          	lh	a5,14(s3)
1000d74c:	c007c0e3          	bltz	a5,1000d34c <_vfiprintf_r+0xb4>
1000d750:	12812403          	lw	s0,296(sp)
1000d754:	01012683          	lw	a3,16(sp)
1000d758:	12c12083          	lw	ra,300(sp)
1000d75c:	12412483          	lw	s1,292(sp)
1000d760:	12012903          	lw	s2,288(sp)
1000d764:	11812a03          	lw	s4,280(sp)
1000d768:	11012b03          	lw	s6,272(sp)
1000d76c:	10812c03          	lw	s8,264(sp)
1000d770:	10412c83          	lw	s9,260(sp)
1000d774:	10012d03          	lw	s10,256(sp)
1000d778:	0fc12d83          	lw	s11,252(sp)
1000d77c:	000b8613          	mv	a2,s7
1000d780:	00098593          	mv	a1,s3
1000d784:	10c12b83          	lw	s7,268(sp)
1000d788:	11c12983          	lw	s3,284(sp)
1000d78c:	000a8513          	mv	a0,s5
1000d790:	11412a83          	lw	s5,276(sp)
1000d794:	13010113          	addi	sp,sp,304
1000d798:	4e90006f          	j	1000e480 <__sbprintf>
1000d79c:	010b6b13          	ori	s6,s6,16
1000d7a0:	020b7793          	andi	a5,s6,32
1000d7a4:	06078c63          	beqz	a5,1000d81c <_vfiprintf_r+0x584>
1000d7a8:	01012783          	lw	a5,16(sp)
1000d7ac:	00778793          	addi	a5,a5,7
1000d7b0:	ff87f793          	andi	a5,a5,-8
1000d7b4:	0007ad03          	lw	s10,0(a5)
1000d7b8:	0047ac83          	lw	s9,4(a5)
1000d7bc:	00878793          	addi	a5,a5,8
1000d7c0:	00f12823          	sw	a5,16(sp)
1000d7c4:	bffb7d93          	andi	s11,s6,-1025
1000d7c8:	00000693          	li	a3,0
1000d7cc:	00000613          	li	a2,0
1000d7d0:	02c10da3          	sb	a2,59(sp)
1000d7d4:	fff00613          	li	a2,-1
1000d7d8:	0cca0863          	beq	s4,a2,1000d8a8 <_vfiprintf_r+0x610>
1000d7dc:	019d6633          	or	a2,s10,s9
1000d7e0:	f7fdfb13          	andi	s6,s11,-129
1000d7e4:	5e061663          	bnez	a2,1000ddd0 <_vfiprintf_r+0xb38>
1000d7e8:	340a1463          	bnez	s4,1000db30 <_vfiprintf_r+0x898>
1000d7ec:	02069ae3          	bnez	a3,1000e020 <_vfiprintf_r+0xd88>
1000d7f0:	001dfd13          	andi	s10,s11,1
1000d7f4:	0f010413          	addi	s0,sp,240
1000d7f8:	f00d0ae3          	beqz	s10,1000d70c <_vfiprintf_r+0x474>
1000d7fc:	03000793          	li	a5,48
1000d800:	0ef107a3          	sb	a5,239(sp)
1000d804:	0ef10413          	addi	s0,sp,239
1000d808:	f05ff06f          	j	1000d70c <_vfiprintf_r+0x474>
1000d80c:	41840cb3          	sub	s9,s0,s8
1000d810:	bb8418e3          	bne	s0,s8,1000d3c0 <_vfiprintf_r+0x128>
1000d814:	00044783          	lbu	a5,0(s0)
1000d818:	c01ff06f          	j	1000d418 <_vfiprintf_r+0x180>
1000d81c:	01012683          	lw	a3,16(sp)
1000d820:	010b7713          	andi	a4,s6,16
1000d824:	0006a783          	lw	a5,0(a3)
1000d828:	00468693          	addi	a3,a3,4
1000d82c:	00d12823          	sw	a3,16(sp)
1000d830:	14071e63          	bnez	a4,1000d98c <_vfiprintf_r+0x6f4>
1000d834:	040b7713          	andi	a4,s6,64
1000d838:	14070663          	beqz	a4,1000d984 <_vfiprintf_r+0x6ec>
1000d83c:	01079d13          	slli	s10,a5,0x10
1000d840:	010d5d13          	srli	s10,s10,0x10
1000d844:	00000c93          	li	s9,0
1000d848:	f7dff06f          	j	1000d7c4 <_vfiprintf_r+0x52c>
1000d84c:	01012683          	lw	a3,16(sp)
1000d850:	010b7713          	andi	a4,s6,16
1000d854:	0006a783          	lw	a5,0(a3)
1000d858:	00468693          	addi	a3,a3,4
1000d85c:	00d12823          	sw	a3,16(sp)
1000d860:	14071063          	bnez	a4,1000d9a0 <_vfiprintf_r+0x708>
1000d864:	040b7713          	andi	a4,s6,64
1000d868:	12070863          	beqz	a4,1000d998 <_vfiprintf_r+0x700>
1000d86c:	01079d13          	slli	s10,a5,0x10
1000d870:	410d5d13          	srai	s10,s10,0x10
1000d874:	41fd5c93          	srai	s9,s10,0x1f
1000d878:	000c8693          	mv	a3,s9
1000d87c:	e406dce3          	bgez	a3,1000d6d4 <_vfiprintf_r+0x43c>
1000d880:	02d00613          	li	a2,45
1000d884:	01a036b3          	snez	a3,s10
1000d888:	41900733          	neg	a4,s9
1000d88c:	02c10da3          	sb	a2,59(sp)
1000d890:	fff00613          	li	a2,-1
1000d894:	40d70cb3          	sub	s9,a4,a3
1000d898:	41a00d33          	neg	s10,s10
1000d89c:	000b0d93          	mv	s11,s6
1000d8a0:	00100693          	li	a3,1
1000d8a4:	f2ca1ce3          	bne	s4,a2,1000d7dc <_vfiprintf_r+0x544>
1000d8a8:	00100613          	li	a2,1
1000d8ac:	e4c680e3          	beq	a3,a2,1000d6ec <_vfiprintf_r+0x454>
1000d8b0:	00200613          	li	a2,2
1000d8b4:	28c68863          	beq	a3,a2,1000db44 <_vfiprintf_r+0x8ac>
1000d8b8:	0f010413          	addi	s0,sp,240
1000d8bc:	01dc9793          	slli	a5,s9,0x1d
1000d8c0:	007d7693          	andi	a3,s10,7
1000d8c4:	003d5d13          	srli	s10,s10,0x3
1000d8c8:	03068693          	addi	a3,a3,48
1000d8cc:	01a7ed33          	or	s10,a5,s10
1000d8d0:	003cdc93          	srli	s9,s9,0x3
1000d8d4:	fed40fa3          	sb	a3,-1(s0)
1000d8d8:	019d67b3          	or	a5,s10,s9
1000d8dc:	00040593          	mv	a1,s0
1000d8e0:	fff40413          	addi	s0,s0,-1
1000d8e4:	fc079ce3          	bnez	a5,1000d8bc <_vfiprintf_r+0x624>
1000d8e8:	001df793          	andi	a5,s11,1
1000d8ec:	28078663          	beqz	a5,1000db78 <_vfiprintf_r+0x8e0>
1000d8f0:	03000793          	li	a5,48
1000d8f4:	28f68263          	beq	a3,a5,1000db78 <_vfiprintf_r+0x8e0>
1000d8f8:	ffe58593          	addi	a1,a1,-2
1000d8fc:	fef40fa3          	sb	a5,-1(s0)
1000d900:	0f010793          	addi	a5,sp,240
1000d904:	40b78d33          	sub	s10,a5,a1
1000d908:	000d8b13          	mv	s6,s11
1000d90c:	00058413          	mv	s0,a1
1000d910:	dfdff06f          	j	1000d70c <_vfiprintf_r+0x474>
1000d914:	ad1f70ef          	jal	ra,100053e4 <__sinit>
1000d918:	9d5ff06f          	j	1000d2ec <_vfiprintf_r+0x54>
1000d91c:	01012783          	lw	a5,16(sp)
1000d920:	02010da3          	sb	zero,59(sp)
1000d924:	0007a403          	lw	s0,0(a5)
1000d928:	00478d93          	addi	s11,a5,4
1000d92c:	20040ce3          	beqz	s0,1000e344 <_vfiprintf_r+0x10ac>
1000d930:	fff00793          	li	a5,-1
1000d934:	16fa02e3          	beq	s4,a5,1000e298 <_vfiprintf_r+0x1000>
1000d938:	000a0613          	mv	a2,s4
1000d93c:	00000593          	li	a1,0
1000d940:	00040513          	mv	a0,s0
1000d944:	a25fb0ef          	jal	ra,10009368 <memchr>
1000d948:	2c0502e3          	beqz	a0,1000e40c <_vfiprintf_r+0x1174>
1000d94c:	40850d33          	sub	s10,a0,s0
1000d950:	01b12823          	sw	s11,16(sp)
1000d954:	00000a13          	li	s4,0
1000d958:	db5ff06f          	j	1000d70c <_vfiprintf_r+0x474>
1000d95c:	01012703          	lw	a4,16(sp)
1000d960:	02010da3          	sb	zero,59(sp)
1000d964:	00100c93          	li	s9,1
1000d968:	00072783          	lw	a5,0(a4)
1000d96c:	00470713          	addi	a4,a4,4
1000d970:	00e12823          	sw	a4,16(sp)
1000d974:	08f10623          	sb	a5,140(sp)
1000d978:	00100d13          	li	s10,1
1000d97c:	08c10413          	addi	s0,sp,140
1000d980:	b31ff06f          	j	1000d4b0 <_vfiprintf_r+0x218>
1000d984:	200b7713          	andi	a4,s6,512
1000d988:	24071ae3          	bnez	a4,1000e3dc <_vfiprintf_r+0x1144>
1000d98c:	00078d13          	mv	s10,a5
1000d990:	00000c93          	li	s9,0
1000d994:	e31ff06f          	j	1000d7c4 <_vfiprintf_r+0x52c>
1000d998:	200b7713          	andi	a4,s6,512
1000d99c:	220710e3          	bnez	a4,1000e3bc <_vfiprintf_r+0x1124>
1000d9a0:	41f7dc93          	srai	s9,a5,0x1f
1000d9a4:	00078d13          	mv	s10,a5
1000d9a8:	000c8693          	mv	a3,s9
1000d9ac:	d25ff06f          	j	1000d6d0 <_vfiprintf_r+0x438>
1000d9b0:	01012783          	lw	a5,16(sp)
1000d9b4:	0007a703          	lw	a4,0(a5)
1000d9b8:	00478793          	addi	a5,a5,4
1000d9bc:	00e12223          	sw	a4,4(sp)
1000d9c0:	78075463          	bgez	a4,1000e148 <_vfiprintf_r+0xeb0>
1000d9c4:	00412703          	lw	a4,4(sp)
1000d9c8:	00f12823          	sw	a5,16(sp)
1000d9cc:	40e00733          	neg	a4,a4
1000d9d0:	00e12223          	sw	a4,4(sp)
1000d9d4:	000c4683          	lbu	a3,0(s8)
1000d9d8:	004b6b13          	ori	s6,s6,4
1000d9dc:	a65ff06f          	j	1000d440 <_vfiprintf_r+0x1a8>
1000d9e0:	000c4683          	lbu	a3,0(s8)
1000d9e4:	06c00793          	li	a5,108
1000d9e8:	12f68ae3          	beq	a3,a5,1000e31c <_vfiprintf_r+0x1084>
1000d9ec:	010b6b13          	ori	s6,s6,16
1000d9f0:	a51ff06f          	j	1000d440 <_vfiprintf_r+0x1a8>
1000d9f4:	000c4683          	lbu	a3,0(s8)
1000d9f8:	06800793          	li	a5,104
1000d9fc:	10f688e3          	beq	a3,a5,1000e30c <_vfiprintf_r+0x1074>
1000da00:	040b6b13          	ori	s6,s6,64
1000da04:	a3dff06f          	j	1000d440 <_vfiprintf_r+0x1a8>
1000da08:	010b6d93          	ori	s11,s6,16
1000da0c:	020df793          	andi	a5,s11,32
1000da10:	62078063          	beqz	a5,1000e030 <_vfiprintf_r+0xd98>
1000da14:	01012783          	lw	a5,16(sp)
1000da18:	00100693          	li	a3,1
1000da1c:	00778793          	addi	a5,a5,7
1000da20:	ff87f793          	andi	a5,a5,-8
1000da24:	0007ad03          	lw	s10,0(a5)
1000da28:	0047ac83          	lw	s9,4(a5)
1000da2c:	00878793          	addi	a5,a5,8
1000da30:	00f12823          	sw	a5,16(sp)
1000da34:	d99ff06f          	j	1000d7cc <_vfiprintf_r+0x534>
1000da38:	000c4683          	lbu	a3,0(s8)
1000da3c:	001b6b13          	ori	s6,s6,1
1000da40:	a01ff06f          	j	1000d440 <_vfiprintf_r+0x1a8>
1000da44:	03b14783          	lbu	a5,59(sp)
1000da48:	000c4683          	lbu	a3,0(s8)
1000da4c:	9e079ae3          	bnez	a5,1000d440 <_vfiprintf_r+0x1a8>
1000da50:	02000793          	li	a5,32
1000da54:	02f10da3          	sb	a5,59(sp)
1000da58:	9e9ff06f          	j	1000d440 <_vfiprintf_r+0x1a8>
1000da5c:	000c4683          	lbu	a3,0(s8)
1000da60:	080b6b13          	ori	s6,s6,128
1000da64:	9ddff06f          	j	1000d440 <_vfiprintf_r+0x1a8>
1000da68:	000c4683          	lbu	a3,0(s8)
1000da6c:	001c0713          	addi	a4,s8,1
1000da70:	1cc688e3          	beq	a3,a2,1000e440 <_vfiprintf_r+0x11a8>
1000da74:	fd068793          	addi	a5,a3,-48
1000da78:	00070c13          	mv	s8,a4
1000da7c:	00000a13          	li	s4,0
1000da80:	9cfd62e3          	bltu	s10,a5,1000d444 <_vfiprintf_r+0x1ac>
1000da84:	000c4683          	lbu	a3,0(s8)
1000da88:	002a1713          	slli	a4,s4,0x2
1000da8c:	01470a33          	add	s4,a4,s4
1000da90:	001a1a13          	slli	s4,s4,0x1
1000da94:	00fa0a33          	add	s4,s4,a5
1000da98:	fd068793          	addi	a5,a3,-48
1000da9c:	001c0c13          	addi	s8,s8,1
1000daa0:	fefd72e3          	bgeu	s10,a5,1000da84 <_vfiprintf_r+0x7ec>
1000daa4:	9a1ff06f          	j	1000d444 <_vfiprintf_r+0x1ac>
1000daa8:	02b00793          	li	a5,43
1000daac:	000c4683          	lbu	a3,0(s8)
1000dab0:	02f10da3          	sb	a5,59(sp)
1000dab4:	98dff06f          	j	1000d440 <_vfiprintf_r+0x1a8>
1000dab8:	01012783          	lw	a5,16(sp)
1000dabc:	ffff86b7          	lui	a3,0xffff8
1000dac0:	8306c693          	xori	a3,a3,-2000
1000dac4:	0007ad03          	lw	s10,0(a5)
1000dac8:	00478793          	addi	a5,a5,4
1000dacc:	00f12823          	sw	a5,16(sp)
1000dad0:	100147b7          	lui	a5,0x10014
1000dad4:	03078793          	addi	a5,a5,48 # 10014030 <__clz_tab+0x114>
1000dad8:	02d11e23          	sh	a3,60(sp)
1000dadc:	00000c93          	li	s9,0
1000dae0:	002b6d93          	ori	s11,s6,2
1000dae4:	00f12c23          	sw	a5,24(sp)
1000dae8:	00200693          	li	a3,2
1000daec:	ce1ff06f          	j	1000d7cc <_vfiprintf_r+0x534>
1000daf0:	01012683          	lw	a3,16(sp)
1000daf4:	020b7793          	andi	a5,s6,32
1000daf8:	00468713          	addi	a4,a3,4 # ffff8004 <_sp+0xeffcfa98>
1000dafc:	6a079063          	bnez	a5,1000e19c <_vfiprintf_r+0xf04>
1000db00:	010b7793          	andi	a5,s6,16
1000db04:	020794e3          	bnez	a5,1000e32c <_vfiprintf_r+0x1094>
1000db08:	040b7793          	andi	a5,s6,64
1000db0c:	08079ce3          	bnez	a5,1000e3a4 <_vfiprintf_r+0x110c>
1000db10:	200b7e13          	andi	t3,s6,512
1000db14:	000e0ce3          	beqz	t3,1000e32c <_vfiprintf_r+0x1094>
1000db18:	01012783          	lw	a5,16(sp)
1000db1c:	00e12823          	sw	a4,16(sp)
1000db20:	00c12703          	lw	a4,12(sp)
1000db24:	0007a783          	lw	a5,0(a5)
1000db28:	00e78023          	sb	a4,0(a5)
1000db2c:	86dff06f          	j	1000d398 <_vfiprintf_r+0x100>
1000db30:	00100613          	li	a2,1
1000db34:	0ec68ce3          	beq	a3,a2,1000e42c <_vfiprintf_r+0x1194>
1000db38:	00200613          	li	a2,2
1000db3c:	000b0d93          	mv	s11,s6
1000db40:	d6c69ce3          	bne	a3,a2,1000d8b8 <_vfiprintf_r+0x620>
1000db44:	01812683          	lw	a3,24(sp)
1000db48:	0f010413          	addi	s0,sp,240
1000db4c:	00fd7793          	andi	a5,s10,15
1000db50:	00f687b3          	add	a5,a3,a5
1000db54:	0007c703          	lbu	a4,0(a5)
1000db58:	004d5d13          	srli	s10,s10,0x4
1000db5c:	01cc9793          	slli	a5,s9,0x1c
1000db60:	01a7ed33          	or	s10,a5,s10
1000db64:	004cdc93          	srli	s9,s9,0x4
1000db68:	fee40fa3          	sb	a4,-1(s0)
1000db6c:	019d67b3          	or	a5,s10,s9
1000db70:	fff40413          	addi	s0,s0,-1
1000db74:	fc079ce3          	bnez	a5,1000db4c <_vfiprintf_r+0x8b4>
1000db78:	0f010793          	addi	a5,sp,240
1000db7c:	40878d33          	sub	s10,a5,s0
1000db80:	000d8b13          	mv	s6,s11
1000db84:	b89ff06f          	j	1000d70c <_vfiprintf_r+0x474>
1000db88:	00100713          	li	a4,1
1000db8c:	000d0793          	mv	a5,s10
1000db90:	04812623          	sw	s0,76(sp)
1000db94:	05a12823          	sw	s10,80(sp)
1000db98:	05a12423          	sw	s10,72(sp)
1000db9c:	04e12223          	sw	a4,68(sp)
1000dba0:	00048b93          	mv	s7,s1
1000dba4:	008b8b93          	addi	s7,s7,8
1000dba8:	a19ff06f          	j	1000d5c0 <_vfiprintf_r+0x328>
1000dbac:	00412683          	lw	a3,4(sp)
1000dbb0:	41968db3          	sub	s11,a3,s9
1000dbb4:	9db054e3          	blez	s11,1000d57c <_vfiprintf_r+0x2e4>
1000dbb8:	01000693          	li	a3,16
1000dbbc:	07b6dc63          	bge	a3,s11,1000dc34 <_vfiprintf_r+0x99c>
1000dbc0:	01000e93          	li	t4,16
1000dbc4:	00700f13          	li	t5,7
1000dbc8:	0180006f          	j	1000dbe0 <_vfiprintf_r+0x948>
1000dbcc:	00270613          	addi	a2,a4,2
1000dbd0:	008b8b93          	addi	s7,s7,8
1000dbd4:	00068713          	mv	a4,a3
1000dbd8:	ff0d8d93          	addi	s11,s11,-16
1000dbdc:	05bedc63          	bge	t4,s11,1000dc34 <_vfiprintf_r+0x99c>
1000dbe0:	01078793          	addi	a5,a5,16
1000dbe4:	00170693          	addi	a3,a4,1
1000dbe8:	012ba023          	sw	s2,0(s7)
1000dbec:	01dba223          	sw	t4,4(s7)
1000dbf0:	04f12423          	sw	a5,72(sp)
1000dbf4:	04d12223          	sw	a3,68(sp)
1000dbf8:	fcdf5ae3          	bge	t5,a3,1000dbcc <_vfiprintf_r+0x934>
1000dbfc:	14078863          	beqz	a5,1000dd4c <_vfiprintf_r+0xab4>
1000dc00:	04010613          	addi	a2,sp,64
1000dc04:	00098593          	mv	a1,s3
1000dc08:	000a8513          	mv	a0,s5
1000dc0c:	d80ff0ef          	jal	ra,1000d18c <__sprint_r.part.0>
1000dc10:	9e051ce3          	bnez	a0,1000d608 <_vfiprintf_r+0x370>
1000dc14:	04412703          	lw	a4,68(sp)
1000dc18:	01000e93          	li	t4,16
1000dc1c:	ff0d8d93          	addi	s11,s11,-16
1000dc20:	04812783          	lw	a5,72(sp)
1000dc24:	00048b93          	mv	s7,s1
1000dc28:	00170613          	addi	a2,a4,1
1000dc2c:	00700f13          	li	t5,7
1000dc30:	fbbec8e3          	blt	t4,s11,1000dbe0 <_vfiprintf_r+0x948>
1000dc34:	01b787b3          	add	a5,a5,s11
1000dc38:	012ba023          	sw	s2,0(s7)
1000dc3c:	01bba223          	sw	s11,4(s7)
1000dc40:	04f12423          	sw	a5,72(sp)
1000dc44:	04c12223          	sw	a2,68(sp)
1000dc48:	00700713          	li	a4,7
1000dc4c:	00060593          	mv	a1,a2
1000dc50:	52c75e63          	bge	a4,a2,1000e18c <_vfiprintf_r+0xef4>
1000dc54:	70078e63          	beqz	a5,1000e370 <_vfiprintf_r+0x10d8>
1000dc58:	04010613          	addi	a2,sp,64
1000dc5c:	00098593          	mv	a1,s3
1000dc60:	000a8513          	mv	a0,s5
1000dc64:	d28ff0ef          	jal	ra,1000d18c <__sprint_r.part.0>
1000dc68:	9a0510e3          	bnez	a0,1000d608 <_vfiprintf_r+0x370>
1000dc6c:	04412703          	lw	a4,68(sp)
1000dc70:	41aa0a33          	sub	s4,s4,s10
1000dc74:	04812783          	lw	a5,72(sp)
1000dc78:	00048b93          	mv	s7,s1
1000dc7c:	00170613          	addi	a2,a4,1
1000dc80:	914052e3          	blez	s4,1000d584 <_vfiprintf_r+0x2ec>
1000dc84:	01000693          	li	a3,16
1000dc88:	0746da63          	bge	a3,s4,1000dcfc <_vfiprintf_r+0xa64>
1000dc8c:	01000893          	li	a7,16
1000dc90:	00700d93          	li	s11,7
1000dc94:	0180006f          	j	1000dcac <_vfiprintf_r+0xa14>
1000dc98:	00270613          	addi	a2,a4,2
1000dc9c:	008b8b93          	addi	s7,s7,8
1000dca0:	00068713          	mv	a4,a3
1000dca4:	ff0a0a13          	addi	s4,s4,-16
1000dca8:	0548da63          	bge	a7,s4,1000dcfc <_vfiprintf_r+0xa64>
1000dcac:	01078793          	addi	a5,a5,16
1000dcb0:	00170693          	addi	a3,a4,1
1000dcb4:	012ba023          	sw	s2,0(s7)
1000dcb8:	011ba223          	sw	a7,4(s7)
1000dcbc:	04f12423          	sw	a5,72(sp)
1000dcc0:	04d12223          	sw	a3,68(sp)
1000dcc4:	fcdddae3          	bge	s11,a3,1000dc98 <_vfiprintf_r+0xa00>
1000dcc8:	04078e63          	beqz	a5,1000dd24 <_vfiprintf_r+0xa8c>
1000dccc:	04010613          	addi	a2,sp,64
1000dcd0:	00098593          	mv	a1,s3
1000dcd4:	000a8513          	mv	a0,s5
1000dcd8:	cb4ff0ef          	jal	ra,1000d18c <__sprint_r.part.0>
1000dcdc:	920516e3          	bnez	a0,1000d608 <_vfiprintf_r+0x370>
1000dce0:	04412703          	lw	a4,68(sp)
1000dce4:	01000893          	li	a7,16
1000dce8:	ff0a0a13          	addi	s4,s4,-16
1000dcec:	04812783          	lw	a5,72(sp)
1000dcf0:	00048b93          	mv	s7,s1
1000dcf4:	00170613          	addi	a2,a4,1
1000dcf8:	fb48cae3          	blt	a7,s4,1000dcac <_vfiprintf_r+0xa14>
1000dcfc:	014787b3          	add	a5,a5,s4
1000dd00:	012ba023          	sw	s2,0(s7)
1000dd04:	014ba223          	sw	s4,4(s7)
1000dd08:	04f12423          	sw	a5,72(sp)
1000dd0c:	04c12223          	sw	a2,68(sp)
1000dd10:	00700713          	li	a4,7
1000dd14:	2cc74663          	blt	a4,a2,1000dfe0 <_vfiprintf_r+0xd48>
1000dd18:	008b8b93          	addi	s7,s7,8
1000dd1c:	00160613          	addi	a2,a2,1
1000dd20:	865ff06f          	j	1000d584 <_vfiprintf_r+0x2ec>
1000dd24:	00100613          	li	a2,1
1000dd28:	00000713          	li	a4,0
1000dd2c:	00048b93          	mv	s7,s1
1000dd30:	f75ff06f          	j	1000dca4 <_vfiprintf_r+0xa0c>
1000dd34:	04010613          	addi	a2,sp,64
1000dd38:	00098593          	mv	a1,s3
1000dd3c:	000a8513          	mv	a0,s5
1000dd40:	c4cff0ef          	jal	ra,1000d18c <__sprint_r.part.0>
1000dd44:	8a0506e3          	beqz	a0,1000d5f0 <_vfiprintf_r+0x358>
1000dd48:	8c1ff06f          	j	1000d608 <_vfiprintf_r+0x370>
1000dd4c:	00100613          	li	a2,1
1000dd50:	00000713          	li	a4,0
1000dd54:	00048b93          	mv	s7,s1
1000dd58:	e81ff06f          	j	1000dbd8 <_vfiprintf_r+0x940>
1000dd5c:	32078863          	beqz	a5,1000e08c <_vfiprintf_r+0xdf4>
1000dd60:	04010613          	addi	a2,sp,64
1000dd64:	00098593          	mv	a1,s3
1000dd68:	000a8513          	mv	a0,s5
1000dd6c:	03e12623          	sw	t5,44(sp)
1000dd70:	03f12423          	sw	t6,40(sp)
1000dd74:	c18ff0ef          	jal	ra,1000d18c <__sprint_r.part.0>
1000dd78:	880518e3          	bnez	a0,1000d608 <_vfiprintf_r+0x370>
1000dd7c:	04412703          	lw	a4,68(sp)
1000dd80:	04812783          	lw	a5,72(sp)
1000dd84:	02c12f03          	lw	t5,44(sp)
1000dd88:	02812f83          	lw	t6,40(sp)
1000dd8c:	00048b93          	mv	s7,s1
1000dd90:	00170613          	addi	a2,a4,1
1000dd94:	f88ff06f          	j	1000d51c <_vfiprintf_r+0x284>
1000dd98:	3a079e63          	bnez	a5,1000e154 <_vfiprintf_r+0xebc>
1000dd9c:	03b14703          	lbu	a4,59(sp)
1000dda0:	5e071463          	bnez	a4,1000e388 <_vfiprintf_r+0x10f0>
1000dda4:	2e0f8663          	beqz	t6,1000e090 <_vfiprintf_r+0xdf8>
1000dda8:	03c10793          	addi	a5,sp,60
1000ddac:	04f12623          	sw	a5,76(sp)
1000ddb0:	00200793          	li	a5,2
1000ddb4:	04f12823          	sw	a5,80(sp)
1000ddb8:	00100613          	li	a2,1
1000ddbc:	00048b93          	mv	s7,s1
1000ddc0:	00060713          	mv	a4,a2
1000ddc4:	008b8b93          	addi	s7,s7,8
1000ddc8:	00170613          	addi	a2,a4,1
1000ddcc:	fa8ff06f          	j	1000d574 <_vfiprintf_r+0x2dc>
1000ddd0:	000b0d93          	mv	s11,s6
1000ddd4:	ad5ff06f          	j	1000d8a8 <_vfiprintf_r+0x610>
1000ddd8:	01000613          	li	a2,16
1000dddc:	65b65063          	bge	a2,s11,1000e41c <_vfiprintf_r+0x1184>
1000dde0:	000b8613          	mv	a2,s7
1000dde4:	01000e93          	li	t4,16
1000dde8:	00040b93          	mv	s7,s0
1000ddec:	00700293          	li	t0,7
1000ddf0:	00098413          	mv	s0,s3
1000ddf4:	03f12423          	sw	t6,40(sp)
1000ddf8:	000d8993          	mv	s3,s11
1000ddfc:	000c0d93          	mv	s11,s8
1000de00:	000a0c13          	mv	s8,s4
1000de04:	000f0a13          	mv	s4,t5
1000de08:	01c0006f          	j	1000de24 <_vfiprintf_r+0xb8c>
1000de0c:	00270513          	addi	a0,a4,2
1000de10:	00860613          	addi	a2,a2,8
1000de14:	00068713          	mv	a4,a3
1000de18:	ff098993          	addi	s3,s3,-16
1000de1c:	053ede63          	bge	t4,s3,1000de78 <_vfiprintf_r+0xbe0>
1000de20:	00170693          	addi	a3,a4,1
1000de24:	00812583          	lw	a1,8(sp)
1000de28:	01078793          	addi	a5,a5,16
1000de2c:	01d62223          	sw	t4,4(a2)
1000de30:	00b62023          	sw	a1,0(a2)
1000de34:	04f12423          	sw	a5,72(sp)
1000de38:	04d12223          	sw	a3,68(sp)
1000de3c:	fcd2d8e3          	bge	t0,a3,1000de0c <_vfiprintf_r+0xb74>
1000de40:	08078663          	beqz	a5,1000decc <_vfiprintf_r+0xc34>
1000de44:	04010613          	addi	a2,sp,64
1000de48:	00040593          	mv	a1,s0
1000de4c:	000a8513          	mv	a0,s5
1000de50:	b3cff0ef          	jal	ra,1000d18c <__sprint_r.part.0>
1000de54:	4a051863          	bnez	a0,1000e304 <_vfiprintf_r+0x106c>
1000de58:	04412703          	lw	a4,68(sp)
1000de5c:	01000e93          	li	t4,16
1000de60:	ff098993          	addi	s3,s3,-16
1000de64:	04812783          	lw	a5,72(sp)
1000de68:	00048613          	mv	a2,s1
1000de6c:	00170513          	addi	a0,a4,1
1000de70:	00700293          	li	t0,7
1000de74:	fb3ec6e3          	blt	t4,s3,1000de20 <_vfiprintf_r+0xb88>
1000de78:	02812f83          	lw	t6,40(sp)
1000de7c:	000a0f13          	mv	t5,s4
1000de80:	00050593          	mv	a1,a0
1000de84:	000c0a13          	mv	s4,s8
1000de88:	000d8c13          	mv	s8,s11
1000de8c:	00098d93          	mv	s11,s3
1000de90:	00040993          	mv	s3,s0
1000de94:	000b8413          	mv	s0,s7
1000de98:	00060b93          	mv	s7,a2
1000de9c:	00812703          	lw	a4,8(sp)
1000dea0:	01b787b3          	add	a5,a5,s11
1000dea4:	01bba223          	sw	s11,4(s7)
1000dea8:	00eba023          	sw	a4,0(s7)
1000deac:	04f12423          	sw	a5,72(sp)
1000deb0:	04b12223          	sw	a1,68(sp)
1000deb4:	00700713          	li	a4,7
1000deb8:	eeb740e3          	blt	a4,a1,1000dd98 <_vfiprintf_r+0xb00>
1000debc:	008b8b93          	addi	s7,s7,8
1000dec0:	00158613          	addi	a2,a1,1
1000dec4:	00058713          	mv	a4,a1
1000dec8:	e1cff06f          	j	1000d4e4 <_vfiprintf_r+0x24c>
1000decc:	00000713          	li	a4,0
1000ded0:	00100513          	li	a0,1
1000ded4:	00048613          	mv	a2,s1
1000ded8:	f41ff06f          	j	1000de18 <_vfiprintf_r+0xb80>
1000dedc:	04012223          	sw	zero,68(sp)
1000dee0:	004b7e13          	andi	t3,s6,4
1000dee4:	0e0e0063          	beqz	t3,1000dfc4 <_vfiprintf_r+0xd2c>
1000dee8:	00412703          	lw	a4,4(sp)
1000deec:	41970d33          	sub	s10,a4,s9
1000def0:	0da05a63          	blez	s10,1000dfc4 <_vfiprintf_r+0xd2c>
1000def4:	00048b93          	mv	s7,s1
1000def8:	01000713          	li	a4,16
1000defc:	04412683          	lw	a3,68(sp)
1000df00:	53a75263          	bge	a4,s10,1000e424 <_vfiprintf_r+0x118c>
1000df04:	01000d93          	li	s11,16
1000df08:	00700413          	li	s0,7
1000df0c:	0180006f          	j	1000df24 <_vfiprintf_r+0xc8c>
1000df10:	00268613          	addi	a2,a3,2
1000df14:	008b8b93          	addi	s7,s7,8
1000df18:	00070693          	mv	a3,a4
1000df1c:	ff0d0d13          	addi	s10,s10,-16
1000df20:	05adda63          	bge	s11,s10,1000df74 <_vfiprintf_r+0xcdc>
1000df24:	00812603          	lw	a2,8(sp)
1000df28:	01078793          	addi	a5,a5,16
1000df2c:	00168713          	addi	a4,a3,1
1000df30:	00cba023          	sw	a2,0(s7)
1000df34:	01bba223          	sw	s11,4(s7)
1000df38:	04f12423          	sw	a5,72(sp)
1000df3c:	04e12223          	sw	a4,68(sp)
1000df40:	fce458e3          	bge	s0,a4,1000df10 <_vfiprintf_r+0xc78>
1000df44:	06078863          	beqz	a5,1000dfb4 <_vfiprintf_r+0xd1c>
1000df48:	04010613          	addi	a2,sp,64
1000df4c:	00098593          	mv	a1,s3
1000df50:	000a8513          	mv	a0,s5
1000df54:	a38ff0ef          	jal	ra,1000d18c <__sprint_r.part.0>
1000df58:	ea051863          	bnez	a0,1000d608 <_vfiprintf_r+0x370>
1000df5c:	04412683          	lw	a3,68(sp)
1000df60:	ff0d0d13          	addi	s10,s10,-16
1000df64:	04812783          	lw	a5,72(sp)
1000df68:	00048b93          	mv	s7,s1
1000df6c:	00168613          	addi	a2,a3,1
1000df70:	fbadcae3          	blt	s11,s10,1000df24 <_vfiprintf_r+0xc8c>
1000df74:	00812703          	lw	a4,8(sp)
1000df78:	01a787b3          	add	a5,a5,s10
1000df7c:	01aba223          	sw	s10,4(s7)
1000df80:	00eba023          	sw	a4,0(s7)
1000df84:	04f12423          	sw	a5,72(sp)
1000df88:	04c12223          	sw	a2,68(sp)
1000df8c:	00700713          	li	a4,7
1000df90:	e4c75263          	bge	a4,a2,1000d5d4 <_vfiprintf_r+0x33c>
1000df94:	02078863          	beqz	a5,1000dfc4 <_vfiprintf_r+0xd2c>
1000df98:	04010613          	addi	a2,sp,64
1000df9c:	00098593          	mv	a1,s3
1000dfa0:	000a8513          	mv	a0,s5
1000dfa4:	9e8ff0ef          	jal	ra,1000d18c <__sprint_r.part.0>
1000dfa8:	e6051063          	bnez	a0,1000d608 <_vfiprintf_r+0x370>
1000dfac:	04812783          	lw	a5,72(sp)
1000dfb0:	e24ff06f          	j	1000d5d4 <_vfiprintf_r+0x33c>
1000dfb4:	00100613          	li	a2,1
1000dfb8:	00000693          	li	a3,0
1000dfbc:	00048b93          	mv	s7,s1
1000dfc0:	f5dff06f          	j	1000df1c <_vfiprintf_r+0xc84>
1000dfc4:	00412403          	lw	s0,4(sp)
1000dfc8:	01945463          	bge	s0,s9,1000dfd0 <_vfiprintf_r+0xd38>
1000dfcc:	000c8413          	mv	s0,s9
1000dfd0:	00c12783          	lw	a5,12(sp)
1000dfd4:	008787b3          	add	a5,a5,s0
1000dfd8:	00f12623          	sw	a5,12(sp)
1000dfdc:	e14ff06f          	j	1000d5f0 <_vfiprintf_r+0x358>
1000dfe0:	ba0784e3          	beqz	a5,1000db88 <_vfiprintf_r+0x8f0>
1000dfe4:	04010613          	addi	a2,sp,64
1000dfe8:	00098593          	mv	a1,s3
1000dfec:	000a8513          	mv	a0,s5
1000dff0:	99cff0ef          	jal	ra,1000d18c <__sprint_r.part.0>
1000dff4:	e0051a63          	bnez	a0,1000d608 <_vfiprintf_r+0x370>
1000dff8:	04412603          	lw	a2,68(sp)
1000dffc:	04812783          	lw	a5,72(sp)
1000e000:	00048b93          	mv	s7,s1
1000e004:	00160613          	addi	a2,a2,1
1000e008:	d7cff06f          	j	1000d584 <_vfiprintf_r+0x2ec>
1000e00c:	04012223          	sw	zero,68(sp)
1000e010:	00048b93          	mv	s7,s1
1000e014:	bf4ff06f          	j	1000d408 <_vfiprintf_r+0x170>
1000e018:	ee0a1063          	bnez	s4,1000d6f8 <_vfiprintf_r+0x460>
1000e01c:	000d8b13          	mv	s6,s11
1000e020:	00000a13          	li	s4,0
1000e024:	00000d13          	li	s10,0
1000e028:	0f010413          	addi	s0,sp,240
1000e02c:	ee0ff06f          	j	1000d70c <_vfiprintf_r+0x474>
1000e030:	01012683          	lw	a3,16(sp)
1000e034:	010df713          	andi	a4,s11,16
1000e038:	0006a783          	lw	a5,0(a3)
1000e03c:	00468693          	addi	a3,a3,4
1000e040:	00d12823          	sw	a3,16(sp)
1000e044:	02071463          	bnez	a4,1000e06c <_vfiprintf_r+0xdd4>
1000e048:	040df713          	andi	a4,s11,64
1000e04c:	00070c63          	beqz	a4,1000e064 <_vfiprintf_r+0xdcc>
1000e050:	01079d13          	slli	s10,a5,0x10
1000e054:	010d5d13          	srli	s10,s10,0x10
1000e058:	00000c93          	li	s9,0
1000e05c:	00100693          	li	a3,1
1000e060:	f6cff06f          	j	1000d7cc <_vfiprintf_r+0x534>
1000e064:	200df713          	andi	a4,s11,512
1000e068:	38071063          	bnez	a4,1000e3e8 <_vfiprintf_r+0x1150>
1000e06c:	00078d13          	mv	s10,a5
1000e070:	00000c93          	li	s9,0
1000e074:	00100693          	li	a3,1
1000e078:	f54ff06f          	j	1000d7cc <_vfiprintf_r+0x534>
1000e07c:	00100613          	li	a2,1
1000e080:	00000713          	li	a4,0
1000e084:	00048b93          	mv	s7,s1
1000e088:	cecff06f          	j	1000d574 <_vfiprintf_r+0x2dc>
1000e08c:	140f9463          	bnez	t6,1000e1d4 <_vfiprintf_r+0xf3c>
1000e090:	00000713          	li	a4,0
1000e094:	00100613          	li	a2,1
1000e098:	00048b93          	mv	s7,s1
1000e09c:	cd8ff06f          	j	1000d574 <_vfiprintf_r+0x2dc>
1000e0a0:	400df793          	andi	a5,s11,1024
1000e0a4:	03412423          	sw	s4,40(sp)
1000e0a8:	03312623          	sw	s3,44(sp)
1000e0ac:	000c8a13          	mv	s4,s9
1000e0b0:	000d0993          	mv	s3,s10
1000e0b4:	00000b13          	li	s6,0
1000e0b8:	01c12d03          	lw	s10,28(sp)
1000e0bc:	0f010413          	addi	s0,sp,240
1000e0c0:	00078c93          	mv	s9,a5
1000e0c4:	0240006f          	j	1000e0e8 <_vfiprintf_r+0xe50>
1000e0c8:	00a00613          	li	a2,10
1000e0cc:	00000693          	li	a3,0
1000e0d0:	00098513          	mv	a0,s3
1000e0d4:	000a0593          	mv	a1,s4
1000e0d8:	7c9000ef          	jal	ra,1000f0a0 <__udivdi3>
1000e0dc:	280a0463          	beqz	s4,1000e364 <_vfiprintf_r+0x10cc>
1000e0e0:	00050993          	mv	s3,a0
1000e0e4:	00058a13          	mv	s4,a1
1000e0e8:	00a00613          	li	a2,10
1000e0ec:	00000693          	li	a3,0
1000e0f0:	00098513          	mv	a0,s3
1000e0f4:	000a0593          	mv	a1,s4
1000e0f8:	568010ef          	jal	ra,1000f660 <__umoddi3>
1000e0fc:	03050513          	addi	a0,a0,48
1000e100:	fea40fa3          	sb	a0,-1(s0)
1000e104:	001b0b13          	addi	s6,s6,1
1000e108:	fff40413          	addi	s0,s0,-1
1000e10c:	fa0c8ee3          	beqz	s9,1000e0c8 <_vfiprintf_r+0xe30>
1000e110:	000d4683          	lbu	a3,0(s10)
1000e114:	fb669ae3          	bne	a3,s6,1000e0c8 <_vfiprintf_r+0xe30>
1000e118:	0ff00793          	li	a5,255
1000e11c:	fafb06e3          	beq	s6,a5,1000e0c8 <_vfiprintf_r+0xe30>
1000e120:	180a1863          	bnez	s4,1000e2b0 <_vfiprintf_r+0x1018>
1000e124:	00900793          	li	a5,9
1000e128:	1937e463          	bltu	a5,s3,1000e2b0 <_vfiprintf_r+0x1018>
1000e12c:	0f010793          	addi	a5,sp,240
1000e130:	01a12e23          	sw	s10,28(sp)
1000e134:	02812a03          	lw	s4,40(sp)
1000e138:	02c12983          	lw	s3,44(sp)
1000e13c:	40878d33          	sub	s10,a5,s0
1000e140:	000d8b13          	mv	s6,s11
1000e144:	dc8ff06f          	j	1000d70c <_vfiprintf_r+0x474>
1000e148:	000c4683          	lbu	a3,0(s8)
1000e14c:	00f12823          	sw	a5,16(sp)
1000e150:	af0ff06f          	j	1000d440 <_vfiprintf_r+0x1a8>
1000e154:	04010613          	addi	a2,sp,64
1000e158:	00098593          	mv	a1,s3
1000e15c:	000a8513          	mv	a0,s5
1000e160:	03e12623          	sw	t5,44(sp)
1000e164:	03f12423          	sw	t6,40(sp)
1000e168:	824ff0ef          	jal	ra,1000d18c <__sprint_r.part.0>
1000e16c:	c8051e63          	bnez	a0,1000d608 <_vfiprintf_r+0x370>
1000e170:	04412703          	lw	a4,68(sp)
1000e174:	04812783          	lw	a5,72(sp)
1000e178:	02c12f03          	lw	t5,44(sp)
1000e17c:	02812f83          	lw	t6,40(sp)
1000e180:	00048b93          	mv	s7,s1
1000e184:	00170613          	addi	a2,a4,1
1000e188:	b5cff06f          	j	1000d4e4 <_vfiprintf_r+0x24c>
1000e18c:	008b8b93          	addi	s7,s7,8
1000e190:	00160613          	addi	a2,a2,1
1000e194:	00058713          	mv	a4,a1
1000e198:	be4ff06f          	j	1000d57c <_vfiprintf_r+0x2e4>
1000e19c:	00c12603          	lw	a2,12(sp)
1000e1a0:	0006a783          	lw	a5,0(a3)
1000e1a4:	00e12823          	sw	a4,16(sp)
1000e1a8:	41f65693          	srai	a3,a2,0x1f
1000e1ac:	00c7a023          	sw	a2,0(a5)
1000e1b0:	00d7a223          	sw	a3,4(a5)
1000e1b4:	9e4ff06f          	j	1000d398 <_vfiprintf_r+0x100>
1000e1b8:	01c12783          	lw	a5,28(sp)
1000e1bc:	000c4683          	lbu	a3,0(s8)
1000e1c0:	a8078063          	beqz	a5,1000d440 <_vfiprintf_r+0x1a8>
1000e1c4:	0007c783          	lbu	a5,0(a5)
1000e1c8:	a6078c63          	beqz	a5,1000d440 <_vfiprintf_r+0x1a8>
1000e1cc:	400b6b13          	ori	s6,s6,1024
1000e1d0:	a70ff06f          	j	1000d440 <_vfiprintf_r+0x1a8>
1000e1d4:	03c10793          	addi	a5,sp,60
1000e1d8:	04f12623          	sw	a5,76(sp)
1000e1dc:	00200793          	li	a5,2
1000e1e0:	04f12823          	sw	a5,80(sp)
1000e1e4:	00100713          	li	a4,1
1000e1e8:	00048b93          	mv	s7,s1
1000e1ec:	bd9ff06f          	j	1000ddc4 <_vfiprintf_r+0xb2c>
1000e1f0:	000b0d93          	mv	s11,s6
1000e1f4:	819ff06f          	j	1000da0c <_vfiprintf_r+0x774>
1000e1f8:	100147b7          	lui	a5,0x10014
1000e1fc:	03078793          	addi	a5,a5,48 # 10014030 <__clz_tab+0x114>
1000e200:	00f12c23          	sw	a5,24(sp)
1000e204:	020b7793          	andi	a5,s6,32
1000e208:	06078063          	beqz	a5,1000e268 <_vfiprintf_r+0xfd0>
1000e20c:	01012783          	lw	a5,16(sp)
1000e210:	00778793          	addi	a5,a5,7
1000e214:	ff87f793          	andi	a5,a5,-8
1000e218:	0007ad03          	lw	s10,0(a5)
1000e21c:	0047ac83          	lw	s9,4(a5)
1000e220:	00878793          	addi	a5,a5,8
1000e224:	00f12823          	sw	a5,16(sp)
1000e228:	001b7613          	andi	a2,s6,1
1000e22c:	00060e63          	beqz	a2,1000e248 <_vfiprintf_r+0xfb0>
1000e230:	019d6633          	or	a2,s10,s9
1000e234:	00060a63          	beqz	a2,1000e248 <_vfiprintf_r+0xfb0>
1000e238:	03000613          	li	a2,48
1000e23c:	02c10e23          	sb	a2,60(sp)
1000e240:	02d10ea3          	sb	a3,61(sp)
1000e244:	002b6b13          	ori	s6,s6,2
1000e248:	bffb7d93          	andi	s11,s6,-1025
1000e24c:	00200693          	li	a3,2
1000e250:	d7cff06f          	j	1000d7cc <_vfiprintf_r+0x534>
1000e254:	100147b7          	lui	a5,0x10014
1000e258:	04478793          	addi	a5,a5,68 # 10014044 <__clz_tab+0x128>
1000e25c:	00f12c23          	sw	a5,24(sp)
1000e260:	020b7793          	andi	a5,s6,32
1000e264:	fa0794e3          	bnez	a5,1000e20c <_vfiprintf_r+0xf74>
1000e268:	01012603          	lw	a2,16(sp)
1000e26c:	010b7713          	andi	a4,s6,16
1000e270:	00062783          	lw	a5,0(a2)
1000e274:	00460613          	addi	a2,a2,4
1000e278:	00c12823          	sw	a2,16(sp)
1000e27c:	06071e63          	bnez	a4,1000e2f8 <_vfiprintf_r+0x1060>
1000e280:	040b7713          	andi	a4,s6,64
1000e284:	06070663          	beqz	a4,1000e2f0 <_vfiprintf_r+0x1058>
1000e288:	01079d13          	slli	s10,a5,0x10
1000e28c:	010d5d13          	srli	s10,s10,0x10
1000e290:	00000c93          	li	s9,0
1000e294:	f95ff06f          	j	1000e228 <_vfiprintf_r+0xf90>
1000e298:	00040513          	mv	a0,s0
1000e29c:	ba4f40ef          	jal	ra,10002640 <strlen>
1000e2a0:	00050d13          	mv	s10,a0
1000e2a4:	01b12823          	sw	s11,16(sp)
1000e2a8:	00000a13          	li	s4,0
1000e2ac:	c60ff06f          	j	1000d70c <_vfiprintf_r+0x474>
1000e2b0:	02412783          	lw	a5,36(sp)
1000e2b4:	02012583          	lw	a1,32(sp)
1000e2b8:	00000b13          	li	s6,0
1000e2bc:	40f40433          	sub	s0,s0,a5
1000e2c0:	00078613          	mv	a2,a5
1000e2c4:	00040513          	mv	a0,s0
1000e2c8:	f29fc0ef          	jal	ra,1000b1f0 <strncpy>
1000e2cc:	001d4583          	lbu	a1,1(s10)
1000e2d0:	00a00613          	li	a2,10
1000e2d4:	00000693          	li	a3,0
1000e2d8:	00b03733          	snez	a4,a1
1000e2dc:	00098513          	mv	a0,s3
1000e2e0:	000a0593          	mv	a1,s4
1000e2e4:	00ed0d33          	add	s10,s10,a4
1000e2e8:	5b9000ef          	jal	ra,1000f0a0 <__udivdi3>
1000e2ec:	df5ff06f          	j	1000e0e0 <_vfiprintf_r+0xe48>
1000e2f0:	200b7713          	andi	a4,s6,512
1000e2f4:	0c071e63          	bnez	a4,1000e3d0 <_vfiprintf_r+0x1138>
1000e2f8:	00078d13          	mv	s10,a5
1000e2fc:	00000c93          	li	s9,0
1000e300:	f29ff06f          	j	1000e228 <_vfiprintf_r+0xf90>
1000e304:	00040993          	mv	s3,s0
1000e308:	b00ff06f          	j	1000d608 <_vfiprintf_r+0x370>
1000e30c:	001c4683          	lbu	a3,1(s8)
1000e310:	200b6b13          	ori	s6,s6,512
1000e314:	001c0c13          	addi	s8,s8,1
1000e318:	928ff06f          	j	1000d440 <_vfiprintf_r+0x1a8>
1000e31c:	001c4683          	lbu	a3,1(s8)
1000e320:	020b6b13          	ori	s6,s6,32
1000e324:	001c0c13          	addi	s8,s8,1
1000e328:	918ff06f          	j	1000d440 <_vfiprintf_r+0x1a8>
1000e32c:	01012783          	lw	a5,16(sp)
1000e330:	0007a783          	lw	a5,0(a5)
1000e334:	00e12823          	sw	a4,16(sp)
1000e338:	00c12703          	lw	a4,12(sp)
1000e33c:	00e7a023          	sw	a4,0(a5)
1000e340:	858ff06f          	j	1000d398 <_vfiprintf_r+0x100>
1000e344:	00600793          	li	a5,6
1000e348:	000a0d13          	mv	s10,s4
1000e34c:	0347ea63          	bltu	a5,s4,1000e380 <_vfiprintf_r+0x10e8>
1000e350:	10014337          	lui	t1,0x10014
1000e354:	000d0c93          	mv	s9,s10
1000e358:	01b12823          	sw	s11,16(sp)
1000e35c:	05830413          	addi	s0,t1,88 # 10014058 <__clz_tab+0x13c>
1000e360:	950ff06f          	j	1000d4b0 <_vfiprintf_r+0x218>
1000e364:	00900793          	li	a5,9
1000e368:	d737ece3          	bltu	a5,s3,1000e0e0 <_vfiprintf_r+0xe48>
1000e36c:	dc1ff06f          	j	1000e12c <_vfiprintf_r+0xe94>
1000e370:	00100613          	li	a2,1
1000e374:	00000713          	li	a4,0
1000e378:	00048b93          	mv	s7,s1
1000e37c:	a00ff06f          	j	1000d57c <_vfiprintf_r+0x2e4>
1000e380:	00600d13          	li	s10,6
1000e384:	fcdff06f          	j	1000e350 <_vfiprintf_r+0x10b8>
1000e388:	03b10793          	addi	a5,sp,59
1000e38c:	04f12623          	sw	a5,76(sp)
1000e390:	00100793          	li	a5,1
1000e394:	04f12823          	sw	a5,80(sp)
1000e398:	00100613          	li	a2,1
1000e39c:	00048b93          	mv	s7,s1
1000e3a0:	970ff06f          	j	1000d510 <_vfiprintf_r+0x278>
1000e3a4:	01012783          	lw	a5,16(sp)
1000e3a8:	00e12823          	sw	a4,16(sp)
1000e3ac:	00c12703          	lw	a4,12(sp)
1000e3b0:	0007a783          	lw	a5,0(a5)
1000e3b4:	00e79023          	sh	a4,0(a5)
1000e3b8:	fe1fe06f          	j	1000d398 <_vfiprintf_r+0x100>
1000e3bc:	01879d13          	slli	s10,a5,0x18
1000e3c0:	418d5d13          	srai	s10,s10,0x18
1000e3c4:	41fd5c93          	srai	s9,s10,0x1f
1000e3c8:	000c8693          	mv	a3,s9
1000e3cc:	b04ff06f          	j	1000d6d0 <_vfiprintf_r+0x438>
1000e3d0:	0ff7fd13          	zext.b	s10,a5
1000e3d4:	00000c93          	li	s9,0
1000e3d8:	e51ff06f          	j	1000e228 <_vfiprintf_r+0xf90>
1000e3dc:	0ff7fd13          	zext.b	s10,a5
1000e3e0:	00000c93          	li	s9,0
1000e3e4:	be0ff06f          	j	1000d7c4 <_vfiprintf_r+0x52c>
1000e3e8:	0ff7fd13          	zext.b	s10,a5
1000e3ec:	00000c93          	li	s9,0
1000e3f0:	00100693          	li	a3,1
1000e3f4:	bd8ff06f          	j	1000d7cc <_vfiprintf_r+0x534>
1000e3f8:	04010613          	addi	a2,sp,64
1000e3fc:	00098593          	mv	a1,s3
1000e400:	000a8513          	mv	a0,s5
1000e404:	d89fe0ef          	jal	ra,1000d18c <__sprint_r.part.0>
1000e408:	a00ff06f          	j	1000d608 <_vfiprintf_r+0x370>
1000e40c:	000a0d13          	mv	s10,s4
1000e410:	01b12823          	sw	s11,16(sp)
1000e414:	00000a13          	li	s4,0
1000e418:	af4ff06f          	j	1000d70c <_vfiprintf_r+0x474>
1000e41c:	00068593          	mv	a1,a3
1000e420:	a7dff06f          	j	1000de9c <_vfiprintf_r+0xc04>
1000e424:	00168613          	addi	a2,a3,1
1000e428:	b4dff06f          	j	1000df74 <_vfiprintf_r+0xcdc>
1000e42c:	000b0d93          	mv	s11,s6
1000e430:	ac8ff06f          	j	1000d6f8 <_vfiprintf_r+0x460>
1000e434:	fff00793          	li	a5,-1
1000e438:	00f12623          	sw	a5,12(sp)
1000e43c:	9d8ff06f          	j	1000d614 <_vfiprintf_r+0x37c>
1000e440:	01012783          	lw	a5,16(sp)
1000e444:	0007aa03          	lw	s4,0(a5)
1000e448:	00478793          	addi	a5,a5,4
1000e44c:	000a5463          	bgez	s4,1000e454 <_vfiprintf_r+0x11bc>
1000e450:	fff00a13          	li	s4,-1
1000e454:	001c4683          	lbu	a3,1(s8)
1000e458:	00f12823          	sw	a5,16(sp)
1000e45c:	00070c13          	mv	s8,a4
1000e460:	fe1fe06f          	j	1000d440 <_vfiprintf_r+0x1a8>

1000e464 <vfiprintf>:
1000e464:	10015737          	lui	a4,0x10015
1000e468:	00050793          	mv	a5,a0
1000e46c:	61872503          	lw	a0,1560(a4) # 10015618 <_impure_ptr>
1000e470:	00060693          	mv	a3,a2
1000e474:	00058613          	mv	a2,a1
1000e478:	00078593          	mv	a1,a5
1000e47c:	e1dfe06f          	j	1000d298 <_vfiprintf_r>

1000e480 <__sbprintf>:
1000e480:	00c5d783          	lhu	a5,12(a1)
1000e484:	0645ae03          	lw	t3,100(a1)
1000e488:	00e5d303          	lhu	t1,14(a1)
1000e48c:	01c5a883          	lw	a7,28(a1)
1000e490:	0245a803          	lw	a6,36(a1)
1000e494:	b8010113          	addi	sp,sp,-1152
1000e498:	ffd7f793          	andi	a5,a5,-3
1000e49c:	40000713          	li	a4,1024
1000e4a0:	46812c23          	sw	s0,1144(sp)
1000e4a4:	00f11a23          	sh	a5,20(sp)
1000e4a8:	00058413          	mv	s0,a1
1000e4ac:	07010793          	addi	a5,sp,112
1000e4b0:	00810593          	addi	a1,sp,8
1000e4b4:	46912a23          	sw	s1,1140(sp)
1000e4b8:	47212823          	sw	s2,1136(sp)
1000e4bc:	46112e23          	sw	ra,1148(sp)
1000e4c0:	00050913          	mv	s2,a0
1000e4c4:	07c12623          	sw	t3,108(sp)
1000e4c8:	00611b23          	sh	t1,22(sp)
1000e4cc:	03112223          	sw	a7,36(sp)
1000e4d0:	03012623          	sw	a6,44(sp)
1000e4d4:	00f12423          	sw	a5,8(sp)
1000e4d8:	00f12c23          	sw	a5,24(sp)
1000e4dc:	00e12823          	sw	a4,16(sp)
1000e4e0:	00e12e23          	sw	a4,28(sp)
1000e4e4:	02012023          	sw	zero,32(sp)
1000e4e8:	db1fe0ef          	jal	ra,1000d298 <_vfiprintf_r>
1000e4ec:	00050493          	mv	s1,a0
1000e4f0:	02055c63          	bgez	a0,1000e528 <__sbprintf+0xa8>
1000e4f4:	01415783          	lhu	a5,20(sp)
1000e4f8:	0407f793          	andi	a5,a5,64
1000e4fc:	00078863          	beqz	a5,1000e50c <__sbprintf+0x8c>
1000e500:	00c45783          	lhu	a5,12(s0)
1000e504:	0407e793          	ori	a5,a5,64
1000e508:	00f41623          	sh	a5,12(s0)
1000e50c:	47c12083          	lw	ra,1148(sp)
1000e510:	47812403          	lw	s0,1144(sp)
1000e514:	47012903          	lw	s2,1136(sp)
1000e518:	00048513          	mv	a0,s1
1000e51c:	47412483          	lw	s1,1140(sp)
1000e520:	48010113          	addi	sp,sp,1152
1000e524:	00008067          	ret
1000e528:	00810593          	addi	a1,sp,8
1000e52c:	00090513          	mv	a0,s2
1000e530:	facfe0ef          	jal	ra,1000ccdc <_fflush_r>
1000e534:	fc0500e3          	beqz	a0,1000e4f4 <__sbprintf+0x74>
1000e538:	fff00493          	li	s1,-1
1000e53c:	fb9ff06f          	j	1000e4f4 <__sbprintf+0x74>

1000e540 <abort>:
1000e540:	ff010113          	addi	sp,sp,-16
1000e544:	00600513          	li	a0,6
1000e548:	00112623          	sw	ra,12(sp)
1000e54c:	56c000ef          	jal	ra,1000eab8 <raise>
1000e550:	00100513          	li	a0,1
1000e554:	cadf10ef          	jal	ra,10000200 <_exit>

1000e558 <__fputwc>:
1000e558:	fd010113          	addi	sp,sp,-48
1000e55c:	02812423          	sw	s0,40(sp)
1000e560:	01312e23          	sw	s3,28(sp)
1000e564:	01612823          	sw	s6,16(sp)
1000e568:	02112623          	sw	ra,44(sp)
1000e56c:	02912223          	sw	s1,36(sp)
1000e570:	03212023          	sw	s2,32(sp)
1000e574:	01412c23          	sw	s4,24(sp)
1000e578:	01512a23          	sw	s5,20(sp)
1000e57c:	00050b13          	mv	s6,a0
1000e580:	00058993          	mv	s3,a1
1000e584:	00060413          	mv	s0,a2
1000e588:	d2cfa0ef          	jal	ra,10008ab4 <__locale_mb_cur_max>
1000e58c:	00100793          	li	a5,1
1000e590:	02f51063          	bne	a0,a5,1000e5b0 <__fputwc+0x58>
1000e594:	fff98793          	addi	a5,s3,-1
1000e598:	0fe00713          	li	a4,254
1000e59c:	00f76a63          	bltu	a4,a5,1000e5b0 <__fputwc+0x58>
1000e5a0:	0ff9f713          	zext.b	a4,s3
1000e5a4:	00e10623          	sb	a4,12(sp)
1000e5a8:	00100913          	li	s2,1
1000e5ac:	02c0006f          	j	1000e5d8 <__fputwc+0x80>
1000e5b0:	05c40693          	addi	a3,s0,92
1000e5b4:	00098613          	mv	a2,s3
1000e5b8:	00c10593          	addi	a1,sp,12
1000e5bc:	000b0513          	mv	a0,s6
1000e5c0:	1d5000ef          	jal	ra,1000ef94 <_wcrtomb_r>
1000e5c4:	fff00793          	li	a5,-1
1000e5c8:	00050913          	mv	s2,a0
1000e5cc:	0af50463          	beq	a0,a5,1000e674 <__fputwc+0x11c>
1000e5d0:	08050e63          	beqz	a0,1000e66c <__fputwc+0x114>
1000e5d4:	00c14703          	lbu	a4,12(sp)
1000e5d8:	00000493          	li	s1,0
1000e5dc:	fff00a13          	li	s4,-1
1000e5e0:	00a00a93          	li	s5,10
1000e5e4:	0280006f          	j	1000e60c <__fputwc+0xb4>
1000e5e8:	00042783          	lw	a5,0(s0)
1000e5ec:	00178693          	addi	a3,a5,1
1000e5f0:	00d42023          	sw	a3,0(s0)
1000e5f4:	00e78023          	sb	a4,0(a5)
1000e5f8:	00148493          	addi	s1,s1,1
1000e5fc:	00c10793          	addi	a5,sp,12
1000e600:	009787b3          	add	a5,a5,s1
1000e604:	0724f463          	bgeu	s1,s2,1000e66c <__fputwc+0x114>
1000e608:	0007c703          	lbu	a4,0(a5)
1000e60c:	00842783          	lw	a5,8(s0)
1000e610:	fff78793          	addi	a5,a5,-1
1000e614:	00f42423          	sw	a5,8(s0)
1000e618:	fc07d8e3          	bgez	a5,1000e5e8 <__fputwc+0x90>
1000e61c:	01842683          	lw	a3,24(s0)
1000e620:	00070593          	mv	a1,a4
1000e624:	00040613          	mv	a2,s0
1000e628:	000b0513          	mv	a0,s6
1000e62c:	00d7c463          	blt	a5,a3,1000e634 <__fputwc+0xdc>
1000e630:	fb571ce3          	bne	a4,s5,1000e5e8 <__fputwc+0x90>
1000e634:	7c0000ef          	jal	ra,1000edf4 <__swbuf_r>
1000e638:	fd4510e3          	bne	a0,s4,1000e5f8 <__fputwc+0xa0>
1000e63c:	fff00913          	li	s2,-1
1000e640:	02c12083          	lw	ra,44(sp)
1000e644:	02812403          	lw	s0,40(sp)
1000e648:	02412483          	lw	s1,36(sp)
1000e64c:	01c12983          	lw	s3,28(sp)
1000e650:	01812a03          	lw	s4,24(sp)
1000e654:	01412a83          	lw	s5,20(sp)
1000e658:	01012b03          	lw	s6,16(sp)
1000e65c:	00090513          	mv	a0,s2
1000e660:	02012903          	lw	s2,32(sp)
1000e664:	03010113          	addi	sp,sp,48
1000e668:	00008067          	ret
1000e66c:	00098913          	mv	s2,s3
1000e670:	fd1ff06f          	j	1000e640 <__fputwc+0xe8>
1000e674:	00c45783          	lhu	a5,12(s0)
1000e678:	0407e793          	ori	a5,a5,64
1000e67c:	00f41623          	sh	a5,12(s0)
1000e680:	fc1ff06f          	j	1000e640 <__fputwc+0xe8>

1000e684 <_fputwc_r>:
1000e684:	00c61783          	lh	a5,12(a2)
1000e688:	01279713          	slli	a4,a5,0x12
1000e68c:	02074063          	bltz	a4,1000e6ac <_fputwc_r+0x28>
1000e690:	06462703          	lw	a4,100(a2)
1000e694:	000026b7          	lui	a3,0x2
1000e698:	00d7e7b3          	or	a5,a5,a3
1000e69c:	000026b7          	lui	a3,0x2
1000e6a0:	00d76733          	or	a4,a4,a3
1000e6a4:	00f61623          	sh	a5,12(a2)
1000e6a8:	06e62223          	sw	a4,100(a2)
1000e6ac:	eadff06f          	j	1000e558 <__fputwc>

1000e6b0 <fputwc>:
1000e6b0:	fe010113          	addi	sp,sp,-32
1000e6b4:	100157b7          	lui	a5,0x10015
1000e6b8:	00812c23          	sw	s0,24(sp)
1000e6bc:	6187a403          	lw	s0,1560(a5) # 10015618 <_impure_ptr>
1000e6c0:	00112e23          	sw	ra,28(sp)
1000e6c4:	00058613          	mv	a2,a1
1000e6c8:	00050593          	mv	a1,a0
1000e6cc:	00040663          	beqz	s0,1000e6d8 <fputwc+0x28>
1000e6d0:	03842783          	lw	a5,56(s0)
1000e6d4:	04078063          	beqz	a5,1000e714 <fputwc+0x64>
1000e6d8:	00c61783          	lh	a5,12(a2)
1000e6dc:	01279713          	slli	a4,a5,0x12
1000e6e0:	02074063          	bltz	a4,1000e700 <fputwc+0x50>
1000e6e4:	06462703          	lw	a4,100(a2)
1000e6e8:	000026b7          	lui	a3,0x2
1000e6ec:	00d7e7b3          	or	a5,a5,a3
1000e6f0:	000026b7          	lui	a3,0x2
1000e6f4:	00d76733          	or	a4,a4,a3
1000e6f8:	00f61623          	sh	a5,12(a2)
1000e6fc:	06e62223          	sw	a4,100(a2)
1000e700:	00040513          	mv	a0,s0
1000e704:	01812403          	lw	s0,24(sp)
1000e708:	01c12083          	lw	ra,28(sp)
1000e70c:	02010113          	addi	sp,sp,32
1000e710:	e49ff06f          	j	1000e558 <__fputwc>
1000e714:	00a12423          	sw	a0,8(sp)
1000e718:	00040513          	mv	a0,s0
1000e71c:	00c12623          	sw	a2,12(sp)
1000e720:	cc5f60ef          	jal	ra,100053e4 <__sinit>
1000e724:	00c12603          	lw	a2,12(sp)
1000e728:	00812583          	lw	a1,8(sp)
1000e72c:	fadff06f          	j	1000e6d8 <fputwc+0x28>

1000e730 <_fstat_r>:
1000e730:	ff010113          	addi	sp,sp,-16
1000e734:	00058713          	mv	a4,a1
1000e738:	00812423          	sw	s0,8(sp)
1000e73c:	00912223          	sw	s1,4(sp)
1000e740:	00050413          	mv	s0,a0
1000e744:	100154b7          	lui	s1,0x10015
1000e748:	00060593          	mv	a1,a2
1000e74c:	00070513          	mv	a0,a4
1000e750:	00112623          	sw	ra,12(sp)
1000e754:	6a04a623          	sw	zero,1708(s1) # 100156ac <errno>
1000e758:	c3df10ef          	jal	ra,10000394 <_fstat>
1000e75c:	fff00793          	li	a5,-1
1000e760:	00f50c63          	beq	a0,a5,1000e778 <_fstat_r+0x48>
1000e764:	00c12083          	lw	ra,12(sp)
1000e768:	00812403          	lw	s0,8(sp)
1000e76c:	00412483          	lw	s1,4(sp)
1000e770:	01010113          	addi	sp,sp,16
1000e774:	00008067          	ret
1000e778:	6ac4a783          	lw	a5,1708(s1)
1000e77c:	fe0784e3          	beqz	a5,1000e764 <_fstat_r+0x34>
1000e780:	00c12083          	lw	ra,12(sp)
1000e784:	00f42023          	sw	a5,0(s0)
1000e788:	00812403          	lw	s0,8(sp)
1000e78c:	00412483          	lw	s1,4(sp)
1000e790:	01010113          	addi	sp,sp,16
1000e794:	00008067          	ret

1000e798 <_isatty_r>:
1000e798:	ff010113          	addi	sp,sp,-16
1000e79c:	00812423          	sw	s0,8(sp)
1000e7a0:	00912223          	sw	s1,4(sp)
1000e7a4:	00050413          	mv	s0,a0
1000e7a8:	100154b7          	lui	s1,0x10015
1000e7ac:	00058513          	mv	a0,a1
1000e7b0:	00112623          	sw	ra,12(sp)
1000e7b4:	6a04a623          	sw	zero,1708(s1) # 100156ac <errno>
1000e7b8:	be9f10ef          	jal	ra,100003a0 <_isatty>
1000e7bc:	fff00793          	li	a5,-1
1000e7c0:	00f50c63          	beq	a0,a5,1000e7d8 <_isatty_r+0x40>
1000e7c4:	00c12083          	lw	ra,12(sp)
1000e7c8:	00812403          	lw	s0,8(sp)
1000e7cc:	00412483          	lw	s1,4(sp)
1000e7d0:	01010113          	addi	sp,sp,16
1000e7d4:	00008067          	ret
1000e7d8:	6ac4a783          	lw	a5,1708(s1)
1000e7dc:	fe0784e3          	beqz	a5,1000e7c4 <_isatty_r+0x2c>
1000e7e0:	00c12083          	lw	ra,12(sp)
1000e7e4:	00f42023          	sw	a5,0(s0)
1000e7e8:	00812403          	lw	s0,8(sp)
1000e7ec:	00412483          	lw	s1,4(sp)
1000e7f0:	01010113          	addi	sp,sp,16
1000e7f4:	00008067          	ret

1000e7f8 <_init_signal_r>:
1000e7f8:	2dc52783          	lw	a5,732(a0)
1000e7fc:	00078663          	beqz	a5,1000e808 <_init_signal_r+0x10>
1000e800:	00000513          	li	a0,0
1000e804:	00008067          	ret
1000e808:	ff010113          	addi	sp,sp,-16
1000e80c:	08000593          	li	a1,128
1000e810:	00812423          	sw	s0,8(sp)
1000e814:	00112623          	sw	ra,12(sp)
1000e818:	00050413          	mv	s0,a0
1000e81c:	b20fa0ef          	jal	ra,10008b3c <_malloc_r>
1000e820:	2ca42e23          	sw	a0,732(s0)
1000e824:	02050463          	beqz	a0,1000e84c <_init_signal_r+0x54>
1000e828:	08050793          	addi	a5,a0,128
1000e82c:	00052023          	sw	zero,0(a0)
1000e830:	00450513          	addi	a0,a0,4
1000e834:	fef51ce3          	bne	a0,a5,1000e82c <_init_signal_r+0x34>
1000e838:	00000513          	li	a0,0
1000e83c:	00c12083          	lw	ra,12(sp)
1000e840:	00812403          	lw	s0,8(sp)
1000e844:	01010113          	addi	sp,sp,16
1000e848:	00008067          	ret
1000e84c:	fff00513          	li	a0,-1
1000e850:	fedff06f          	j	1000e83c <_init_signal_r+0x44>

1000e854 <_signal_r>:
1000e854:	fe010113          	addi	sp,sp,-32
1000e858:	00912a23          	sw	s1,20(sp)
1000e85c:	00112e23          	sw	ra,28(sp)
1000e860:	00812c23          	sw	s0,24(sp)
1000e864:	01f00793          	li	a5,31
1000e868:	00050493          	mv	s1,a0
1000e86c:	02b7ea63          	bltu	a5,a1,1000e8a0 <_signal_r+0x4c>
1000e870:	2dc52703          	lw	a4,732(a0)
1000e874:	00058413          	mv	s0,a1
1000e878:	04070463          	beqz	a4,1000e8c0 <_signal_r+0x6c>
1000e87c:	00241413          	slli	s0,s0,0x2
1000e880:	00870733          	add	a4,a4,s0
1000e884:	00072503          	lw	a0,0(a4)
1000e888:	00c72023          	sw	a2,0(a4)
1000e88c:	01c12083          	lw	ra,28(sp)
1000e890:	01812403          	lw	s0,24(sp)
1000e894:	01412483          	lw	s1,20(sp)
1000e898:	02010113          	addi	sp,sp,32
1000e89c:	00008067          	ret
1000e8a0:	01c12083          	lw	ra,28(sp)
1000e8a4:	01812403          	lw	s0,24(sp)
1000e8a8:	01600793          	li	a5,22
1000e8ac:	00f52023          	sw	a5,0(a0)
1000e8b0:	01412483          	lw	s1,20(sp)
1000e8b4:	fff00513          	li	a0,-1
1000e8b8:	02010113          	addi	sp,sp,32
1000e8bc:	00008067          	ret
1000e8c0:	08000593          	li	a1,128
1000e8c4:	00c12623          	sw	a2,12(sp)
1000e8c8:	a74fa0ef          	jal	ra,10008b3c <_malloc_r>
1000e8cc:	2ca4ae23          	sw	a0,732(s1)
1000e8d0:	00050713          	mv	a4,a0
1000e8d4:	02050063          	beqz	a0,1000e8f4 <_signal_r+0xa0>
1000e8d8:	00c12603          	lw	a2,12(sp)
1000e8dc:	00050793          	mv	a5,a0
1000e8e0:	08050693          	addi	a3,a0,128
1000e8e4:	0007a023          	sw	zero,0(a5)
1000e8e8:	00478793          	addi	a5,a5,4
1000e8ec:	fed79ce3          	bne	a5,a3,1000e8e4 <_signal_r+0x90>
1000e8f0:	f8dff06f          	j	1000e87c <_signal_r+0x28>
1000e8f4:	fff00513          	li	a0,-1
1000e8f8:	f95ff06f          	j	1000e88c <_signal_r+0x38>

1000e8fc <_raise_r>:
1000e8fc:	ff010113          	addi	sp,sp,-16
1000e900:	00912223          	sw	s1,4(sp)
1000e904:	00112623          	sw	ra,12(sp)
1000e908:	00812423          	sw	s0,8(sp)
1000e90c:	01f00793          	li	a5,31
1000e910:	00050493          	mv	s1,a0
1000e914:	0ab7ea63          	bltu	a5,a1,1000e9c8 <_raise_r+0xcc>
1000e918:	2dc52783          	lw	a5,732(a0)
1000e91c:	00058413          	mv	s0,a1
1000e920:	04078463          	beqz	a5,1000e968 <_raise_r+0x6c>
1000e924:	00259713          	slli	a4,a1,0x2
1000e928:	00e787b3          	add	a5,a5,a4
1000e92c:	0007a703          	lw	a4,0(a5)
1000e930:	02070c63          	beqz	a4,1000e968 <_raise_r+0x6c>
1000e934:	00100693          	li	a3,1
1000e938:	06d70c63          	beq	a4,a3,1000e9b0 <_raise_r+0xb4>
1000e93c:	fff00693          	li	a3,-1
1000e940:	04d70863          	beq	a4,a3,1000e990 <_raise_r+0x94>
1000e944:	00058513          	mv	a0,a1
1000e948:	0007a023          	sw	zero,0(a5)
1000e94c:	000700e7          	jalr	a4
1000e950:	00000513          	li	a0,0
1000e954:	00c12083          	lw	ra,12(sp)
1000e958:	00812403          	lw	s0,8(sp)
1000e95c:	00412483          	lw	s1,4(sp)
1000e960:	01010113          	addi	sp,sp,16
1000e964:	00008067          	ret
1000e968:	00048513          	mv	a0,s1
1000e96c:	484000ef          	jal	ra,1000edf0 <_getpid_r>
1000e970:	00040613          	mv	a2,s0
1000e974:	00812403          	lw	s0,8(sp)
1000e978:	00c12083          	lw	ra,12(sp)
1000e97c:	00050593          	mv	a1,a0
1000e980:	00048513          	mv	a0,s1
1000e984:	00412483          	lw	s1,4(sp)
1000e988:	01010113          	addi	sp,sp,16
1000e98c:	3fc0006f          	j	1000ed88 <_kill_r>
1000e990:	00c12083          	lw	ra,12(sp)
1000e994:	00812403          	lw	s0,8(sp)
1000e998:	01600793          	li	a5,22
1000e99c:	00f52023          	sw	a5,0(a0)
1000e9a0:	00412483          	lw	s1,4(sp)
1000e9a4:	00100513          	li	a0,1
1000e9a8:	01010113          	addi	sp,sp,16
1000e9ac:	00008067          	ret
1000e9b0:	00c12083          	lw	ra,12(sp)
1000e9b4:	00812403          	lw	s0,8(sp)
1000e9b8:	00412483          	lw	s1,4(sp)
1000e9bc:	00000513          	li	a0,0
1000e9c0:	01010113          	addi	sp,sp,16
1000e9c4:	00008067          	ret
1000e9c8:	01600793          	li	a5,22
1000e9cc:	00f52023          	sw	a5,0(a0)
1000e9d0:	fff00513          	li	a0,-1
1000e9d4:	f81ff06f          	j	1000e954 <_raise_r+0x58>

1000e9d8 <__sigtramp_r>:
1000e9d8:	01f00793          	li	a5,31
1000e9dc:	0cb7ea63          	bltu	a5,a1,1000eab0 <__sigtramp_r+0xd8>
1000e9e0:	2dc52703          	lw	a4,732(a0)
1000e9e4:	ff010113          	addi	sp,sp,-16
1000e9e8:	00812423          	sw	s0,8(sp)
1000e9ec:	00912223          	sw	s1,4(sp)
1000e9f0:	00112623          	sw	ra,12(sp)
1000e9f4:	00058413          	mv	s0,a1
1000e9f8:	00050493          	mv	s1,a0
1000e9fc:	06070063          	beqz	a4,1000ea5c <__sigtramp_r+0x84>
1000ea00:	00241793          	slli	a5,s0,0x2
1000ea04:	00f70733          	add	a4,a4,a5
1000ea08:	00072783          	lw	a5,0(a4)
1000ea0c:	02078c63          	beqz	a5,1000ea44 <__sigtramp_r+0x6c>
1000ea10:	fff00693          	li	a3,-1
1000ea14:	08d78663          	beq	a5,a3,1000eaa0 <__sigtramp_r+0xc8>
1000ea18:	00100693          	li	a3,1
1000ea1c:	06d78663          	beq	a5,a3,1000ea88 <__sigtramp_r+0xb0>
1000ea20:	00040513          	mv	a0,s0
1000ea24:	00072023          	sw	zero,0(a4)
1000ea28:	000780e7          	jalr	a5
1000ea2c:	00000513          	li	a0,0
1000ea30:	00c12083          	lw	ra,12(sp)
1000ea34:	00812403          	lw	s0,8(sp)
1000ea38:	00412483          	lw	s1,4(sp)
1000ea3c:	01010113          	addi	sp,sp,16
1000ea40:	00008067          	ret
1000ea44:	00c12083          	lw	ra,12(sp)
1000ea48:	00812403          	lw	s0,8(sp)
1000ea4c:	00412483          	lw	s1,4(sp)
1000ea50:	00100513          	li	a0,1
1000ea54:	01010113          	addi	sp,sp,16
1000ea58:	00008067          	ret
1000ea5c:	08000593          	li	a1,128
1000ea60:	8dcfa0ef          	jal	ra,10008b3c <_malloc_r>
1000ea64:	2ca4ae23          	sw	a0,732(s1)
1000ea68:	00050713          	mv	a4,a0
1000ea6c:	02050e63          	beqz	a0,1000eaa8 <__sigtramp_r+0xd0>
1000ea70:	00050793          	mv	a5,a0
1000ea74:	08050693          	addi	a3,a0,128
1000ea78:	0007a023          	sw	zero,0(a5)
1000ea7c:	00478793          	addi	a5,a5,4
1000ea80:	fed79ce3          	bne	a5,a3,1000ea78 <__sigtramp_r+0xa0>
1000ea84:	f7dff06f          	j	1000ea00 <__sigtramp_r+0x28>
1000ea88:	00c12083          	lw	ra,12(sp)
1000ea8c:	00812403          	lw	s0,8(sp)
1000ea90:	00412483          	lw	s1,4(sp)
1000ea94:	00300513          	li	a0,3
1000ea98:	01010113          	addi	sp,sp,16
1000ea9c:	00008067          	ret
1000eaa0:	00200513          	li	a0,2
1000eaa4:	f8dff06f          	j	1000ea30 <__sigtramp_r+0x58>
1000eaa8:	fff00513          	li	a0,-1
1000eaac:	f85ff06f          	j	1000ea30 <__sigtramp_r+0x58>
1000eab0:	fff00513          	li	a0,-1
1000eab4:	00008067          	ret

1000eab8 <raise>:
1000eab8:	ff010113          	addi	sp,sp,-16
1000eabc:	00912223          	sw	s1,4(sp)
1000eac0:	10015737          	lui	a4,0x10015
1000eac4:	00112623          	sw	ra,12(sp)
1000eac8:	00812423          	sw	s0,8(sp)
1000eacc:	01f00793          	li	a5,31
1000ead0:	61872483          	lw	s1,1560(a4) # 10015618 <_impure_ptr>
1000ead4:	0aa7e863          	bltu	a5,a0,1000eb84 <raise+0xcc>
1000ead8:	2dc4a783          	lw	a5,732(s1)
1000eadc:	00050413          	mv	s0,a0
1000eae0:	04078263          	beqz	a5,1000eb24 <raise+0x6c>
1000eae4:	00251713          	slli	a4,a0,0x2
1000eae8:	00e787b3          	add	a5,a5,a4
1000eaec:	0007a703          	lw	a4,0(a5)
1000eaf0:	02070a63          	beqz	a4,1000eb24 <raise+0x6c>
1000eaf4:	00100693          	li	a3,1
1000eaf8:	06d70a63          	beq	a4,a3,1000eb6c <raise+0xb4>
1000eafc:	fff00693          	li	a3,-1
1000eb00:	04d70663          	beq	a4,a3,1000eb4c <raise+0x94>
1000eb04:	0007a023          	sw	zero,0(a5)
1000eb08:	000700e7          	jalr	a4
1000eb0c:	00000513          	li	a0,0
1000eb10:	00c12083          	lw	ra,12(sp)
1000eb14:	00812403          	lw	s0,8(sp)
1000eb18:	00412483          	lw	s1,4(sp)
1000eb1c:	01010113          	addi	sp,sp,16
1000eb20:	00008067          	ret
1000eb24:	00048513          	mv	a0,s1
1000eb28:	2c8000ef          	jal	ra,1000edf0 <_getpid_r>
1000eb2c:	00040613          	mv	a2,s0
1000eb30:	00812403          	lw	s0,8(sp)
1000eb34:	00c12083          	lw	ra,12(sp)
1000eb38:	00050593          	mv	a1,a0
1000eb3c:	00048513          	mv	a0,s1
1000eb40:	00412483          	lw	s1,4(sp)
1000eb44:	01010113          	addi	sp,sp,16
1000eb48:	2400006f          	j	1000ed88 <_kill_r>
1000eb4c:	00c12083          	lw	ra,12(sp)
1000eb50:	00812403          	lw	s0,8(sp)
1000eb54:	01600793          	li	a5,22
1000eb58:	00f4a023          	sw	a5,0(s1)
1000eb5c:	00100513          	li	a0,1
1000eb60:	00412483          	lw	s1,4(sp)
1000eb64:	01010113          	addi	sp,sp,16
1000eb68:	00008067          	ret
1000eb6c:	00c12083          	lw	ra,12(sp)
1000eb70:	00812403          	lw	s0,8(sp)
1000eb74:	00412483          	lw	s1,4(sp)
1000eb78:	00000513          	li	a0,0
1000eb7c:	01010113          	addi	sp,sp,16
1000eb80:	00008067          	ret
1000eb84:	01600793          	li	a5,22
1000eb88:	00f4a023          	sw	a5,0(s1)
1000eb8c:	fff00513          	li	a0,-1
1000eb90:	f81ff06f          	j	1000eb10 <raise+0x58>

1000eb94 <signal>:
1000eb94:	ff010113          	addi	sp,sp,-16
1000eb98:	01212023          	sw	s2,0(sp)
1000eb9c:	10015737          	lui	a4,0x10015
1000eba0:	00112623          	sw	ra,12(sp)
1000eba4:	00812423          	sw	s0,8(sp)
1000eba8:	00912223          	sw	s1,4(sp)
1000ebac:	01f00793          	li	a5,31
1000ebb0:	61872903          	lw	s2,1560(a4) # 10015618 <_impure_ptr>
1000ebb4:	02a7ee63          	bltu	a5,a0,1000ebf0 <signal+0x5c>
1000ebb8:	00050413          	mv	s0,a0
1000ebbc:	2dc92503          	lw	a0,732(s2)
1000ebc0:	00058493          	mv	s1,a1
1000ebc4:	04050863          	beqz	a0,1000ec14 <signal+0x80>
1000ebc8:	00241413          	slli	s0,s0,0x2
1000ebcc:	008507b3          	add	a5,a0,s0
1000ebd0:	0007a503          	lw	a0,0(a5)
1000ebd4:	0097a023          	sw	s1,0(a5)
1000ebd8:	00c12083          	lw	ra,12(sp)
1000ebdc:	00812403          	lw	s0,8(sp)
1000ebe0:	00412483          	lw	s1,4(sp)
1000ebe4:	00012903          	lw	s2,0(sp)
1000ebe8:	01010113          	addi	sp,sp,16
1000ebec:	00008067          	ret
1000ebf0:	00c12083          	lw	ra,12(sp)
1000ebf4:	00812403          	lw	s0,8(sp)
1000ebf8:	01600793          	li	a5,22
1000ebfc:	00f92023          	sw	a5,0(s2)
1000ec00:	00412483          	lw	s1,4(sp)
1000ec04:	00012903          	lw	s2,0(sp)
1000ec08:	fff00513          	li	a0,-1
1000ec0c:	01010113          	addi	sp,sp,16
1000ec10:	00008067          	ret
1000ec14:	08000593          	li	a1,128
1000ec18:	00090513          	mv	a0,s2
1000ec1c:	f21f90ef          	jal	ra,10008b3c <_malloc_r>
1000ec20:	2ca92e23          	sw	a0,732(s2)
1000ec24:	00050e63          	beqz	a0,1000ec40 <signal+0xac>
1000ec28:	00050793          	mv	a5,a0
1000ec2c:	08050713          	addi	a4,a0,128
1000ec30:	0007a023          	sw	zero,0(a5)
1000ec34:	00478793          	addi	a5,a5,4
1000ec38:	fee79ce3          	bne	a5,a4,1000ec30 <signal+0x9c>
1000ec3c:	f8dff06f          	j	1000ebc8 <signal+0x34>
1000ec40:	fff00513          	li	a0,-1
1000ec44:	f95ff06f          	j	1000ebd8 <signal+0x44>

1000ec48 <_init_signal>:
1000ec48:	ff010113          	addi	sp,sp,-16
1000ec4c:	100157b7          	lui	a5,0x10015
1000ec50:	00812423          	sw	s0,8(sp)
1000ec54:	6187a403          	lw	s0,1560(a5) # 10015618 <_impure_ptr>
1000ec58:	00112623          	sw	ra,12(sp)
1000ec5c:	2dc42783          	lw	a5,732(s0)
1000ec60:	00078c63          	beqz	a5,1000ec78 <_init_signal+0x30>
1000ec64:	00000513          	li	a0,0
1000ec68:	00c12083          	lw	ra,12(sp)
1000ec6c:	00812403          	lw	s0,8(sp)
1000ec70:	01010113          	addi	sp,sp,16
1000ec74:	00008067          	ret
1000ec78:	08000593          	li	a1,128
1000ec7c:	00040513          	mv	a0,s0
1000ec80:	ebdf90ef          	jal	ra,10008b3c <_malloc_r>
1000ec84:	2ca42e23          	sw	a0,732(s0)
1000ec88:	00050c63          	beqz	a0,1000eca0 <_init_signal+0x58>
1000ec8c:	08050793          	addi	a5,a0,128
1000ec90:	00052023          	sw	zero,0(a0)
1000ec94:	00450513          	addi	a0,a0,4
1000ec98:	fef51ce3          	bne	a0,a5,1000ec90 <_init_signal+0x48>
1000ec9c:	fc9ff06f          	j	1000ec64 <_init_signal+0x1c>
1000eca0:	fff00513          	li	a0,-1
1000eca4:	fc5ff06f          	j	1000ec68 <_init_signal+0x20>

1000eca8 <__sigtramp>:
1000eca8:	ff010113          	addi	sp,sp,-16
1000ecac:	00912223          	sw	s1,4(sp)
1000ecb0:	10015737          	lui	a4,0x10015
1000ecb4:	00112623          	sw	ra,12(sp)
1000ecb8:	00812423          	sw	s0,8(sp)
1000ecbc:	01f00793          	li	a5,31
1000ecc0:	61872483          	lw	s1,1560(a4) # 10015618 <_impure_ptr>
1000ecc4:	0aa7ee63          	bltu	a5,a0,1000ed80 <__sigtramp+0xd8>
1000ecc8:	2dc4a703          	lw	a4,732(s1)
1000eccc:	00050413          	mv	s0,a0
1000ecd0:	06070063          	beqz	a4,1000ed30 <__sigtramp+0x88>
1000ecd4:	00241793          	slli	a5,s0,0x2
1000ecd8:	00f70733          	add	a4,a4,a5
1000ecdc:	00072783          	lw	a5,0(a4)
1000ece0:	02078c63          	beqz	a5,1000ed18 <__sigtramp+0x70>
1000ece4:	fff00693          	li	a3,-1
1000ece8:	08d78863          	beq	a5,a3,1000ed78 <__sigtramp+0xd0>
1000ecec:	00100693          	li	a3,1
1000ecf0:	06d78863          	beq	a5,a3,1000ed60 <__sigtramp+0xb8>
1000ecf4:	00040513          	mv	a0,s0
1000ecf8:	00072023          	sw	zero,0(a4)
1000ecfc:	000780e7          	jalr	a5
1000ed00:	00000513          	li	a0,0
1000ed04:	00c12083          	lw	ra,12(sp)
1000ed08:	00812403          	lw	s0,8(sp)
1000ed0c:	00412483          	lw	s1,4(sp)
1000ed10:	01010113          	addi	sp,sp,16
1000ed14:	00008067          	ret
1000ed18:	00c12083          	lw	ra,12(sp)
1000ed1c:	00812403          	lw	s0,8(sp)
1000ed20:	00412483          	lw	s1,4(sp)
1000ed24:	00100513          	li	a0,1
1000ed28:	01010113          	addi	sp,sp,16
1000ed2c:	00008067          	ret
1000ed30:	08000593          	li	a1,128
1000ed34:	00048513          	mv	a0,s1
1000ed38:	e05f90ef          	jal	ra,10008b3c <_malloc_r>
1000ed3c:	2ca4ae23          	sw	a0,732(s1)
1000ed40:	00050713          	mv	a4,a0
1000ed44:	02050e63          	beqz	a0,1000ed80 <__sigtramp+0xd8>
1000ed48:	00050793          	mv	a5,a0
1000ed4c:	08050693          	addi	a3,a0,128
1000ed50:	0007a023          	sw	zero,0(a5)
1000ed54:	00478793          	addi	a5,a5,4
1000ed58:	fed79ce3          	bne	a5,a3,1000ed50 <__sigtramp+0xa8>
1000ed5c:	f79ff06f          	j	1000ecd4 <__sigtramp+0x2c>
1000ed60:	00c12083          	lw	ra,12(sp)
1000ed64:	00812403          	lw	s0,8(sp)
1000ed68:	00412483          	lw	s1,4(sp)
1000ed6c:	00300513          	li	a0,3
1000ed70:	01010113          	addi	sp,sp,16
1000ed74:	00008067          	ret
1000ed78:	00200513          	li	a0,2
1000ed7c:	f89ff06f          	j	1000ed04 <__sigtramp+0x5c>
1000ed80:	fff00513          	li	a0,-1
1000ed84:	f81ff06f          	j	1000ed04 <__sigtramp+0x5c>

1000ed88 <_kill_r>:
1000ed88:	ff010113          	addi	sp,sp,-16
1000ed8c:	00058713          	mv	a4,a1
1000ed90:	00812423          	sw	s0,8(sp)
1000ed94:	00912223          	sw	s1,4(sp)
1000ed98:	00050413          	mv	s0,a0
1000ed9c:	100154b7          	lui	s1,0x10015
1000eda0:	00060593          	mv	a1,a2
1000eda4:	00070513          	mv	a0,a4
1000eda8:	00112623          	sw	ra,12(sp)
1000edac:	6a04a623          	sw	zero,1708(s1) # 100156ac <errno>
1000edb0:	df8f10ef          	jal	ra,100003a8 <_kill>
1000edb4:	fff00793          	li	a5,-1
1000edb8:	00f50c63          	beq	a0,a5,1000edd0 <_kill_r+0x48>
1000edbc:	00c12083          	lw	ra,12(sp)
1000edc0:	00812403          	lw	s0,8(sp)
1000edc4:	00412483          	lw	s1,4(sp)
1000edc8:	01010113          	addi	sp,sp,16
1000edcc:	00008067          	ret
1000edd0:	6ac4a783          	lw	a5,1708(s1)
1000edd4:	fe0784e3          	beqz	a5,1000edbc <_kill_r+0x34>
1000edd8:	00c12083          	lw	ra,12(sp)
1000eddc:	00f42023          	sw	a5,0(s0)
1000ede0:	00812403          	lw	s0,8(sp)
1000ede4:	00412483          	lw	s1,4(sp)
1000ede8:	01010113          	addi	sp,sp,16
1000edec:	00008067          	ret

1000edf0 <_getpid_r>:
1000edf0:	dacf106f          	j	1000039c <_getpid>

1000edf4 <__swbuf_r>:
1000edf4:	fe010113          	addi	sp,sp,-32
1000edf8:	00812c23          	sw	s0,24(sp)
1000edfc:	00912a23          	sw	s1,20(sp)
1000ee00:	01212823          	sw	s2,16(sp)
1000ee04:	00112e23          	sw	ra,28(sp)
1000ee08:	01312623          	sw	s3,12(sp)
1000ee0c:	00050913          	mv	s2,a0
1000ee10:	00058493          	mv	s1,a1
1000ee14:	00060413          	mv	s0,a2
1000ee18:	00050663          	beqz	a0,1000ee24 <__swbuf_r+0x30>
1000ee1c:	03852783          	lw	a5,56(a0)
1000ee20:	14078a63          	beqz	a5,1000ef74 <__swbuf_r+0x180>
1000ee24:	00c41703          	lh	a4,12(s0)
1000ee28:	01842683          	lw	a3,24(s0)
1000ee2c:	00877793          	andi	a5,a4,8
1000ee30:	00d42423          	sw	a3,8(s0)
1000ee34:	01071693          	slli	a3,a4,0x10
1000ee38:	0106d693          	srli	a3,a3,0x10
1000ee3c:	08078463          	beqz	a5,1000eec4 <__swbuf_r+0xd0>
1000ee40:	01042783          	lw	a5,16(s0)
1000ee44:	08078063          	beqz	a5,1000eec4 <__swbuf_r+0xd0>
1000ee48:	00002637          	lui	a2,0x2
1000ee4c:	00c6f6b3          	and	a3,a3,a2
1000ee50:	0ff4f993          	zext.b	s3,s1
1000ee54:	0ff4f493          	zext.b	s1,s1
1000ee58:	0a068063          	beqz	a3,1000eef8 <__swbuf_r+0x104>
1000ee5c:	00042703          	lw	a4,0(s0)
1000ee60:	01442683          	lw	a3,20(s0)
1000ee64:	40f707b3          	sub	a5,a4,a5
1000ee68:	0ad7de63          	bge	a5,a3,1000ef24 <__swbuf_r+0x130>
1000ee6c:	00842683          	lw	a3,8(s0)
1000ee70:	00170613          	addi	a2,a4,1
1000ee74:	00c42023          	sw	a2,0(s0)
1000ee78:	fff68693          	addi	a3,a3,-1 # 1fff <__heap_size+0xfff>
1000ee7c:	00d42423          	sw	a3,8(s0)
1000ee80:	01370023          	sb	s3,0(a4)
1000ee84:	01442703          	lw	a4,20(s0)
1000ee88:	00178793          	addi	a5,a5,1
1000ee8c:	0cf70863          	beq	a4,a5,1000ef5c <__swbuf_r+0x168>
1000ee90:	00c45783          	lhu	a5,12(s0)
1000ee94:	0017f793          	andi	a5,a5,1
1000ee98:	00078663          	beqz	a5,1000eea4 <__swbuf_r+0xb0>
1000ee9c:	00a00793          	li	a5,10
1000eea0:	0af48e63          	beq	s1,a5,1000ef5c <__swbuf_r+0x168>
1000eea4:	01c12083          	lw	ra,28(sp)
1000eea8:	01812403          	lw	s0,24(sp)
1000eeac:	01012903          	lw	s2,16(sp)
1000eeb0:	00c12983          	lw	s3,12(sp)
1000eeb4:	00048513          	mv	a0,s1
1000eeb8:	01412483          	lw	s1,20(sp)
1000eebc:	02010113          	addi	sp,sp,32
1000eec0:	00008067          	ret
1000eec4:	00040593          	mv	a1,s0
1000eec8:	00090513          	mv	a0,s2
1000eecc:	ebcfd0ef          	jal	ra,1000c588 <__swsetup_r>
1000eed0:	08051e63          	bnez	a0,1000ef6c <__swbuf_r+0x178>
1000eed4:	00c41703          	lh	a4,12(s0)
1000eed8:	00002637          	lui	a2,0x2
1000eedc:	0ff4f993          	zext.b	s3,s1
1000eee0:	01071693          	slli	a3,a4,0x10
1000eee4:	0106d693          	srli	a3,a3,0x10
1000eee8:	00c6f6b3          	and	a3,a3,a2
1000eeec:	01042783          	lw	a5,16(s0)
1000eef0:	0ff4f493          	zext.b	s1,s1
1000eef4:	f60694e3          	bnez	a3,1000ee5c <__swbuf_r+0x68>
1000eef8:	06442683          	lw	a3,100(s0)
1000eefc:	00c76733          	or	a4,a4,a2
1000ef00:	ffffe637          	lui	a2,0xffffe
1000ef04:	fff60613          	addi	a2,a2,-1 # ffffdfff <_sp+0xeffd5a93>
1000ef08:	00c6f6b3          	and	a3,a3,a2
1000ef0c:	00e41623          	sh	a4,12(s0)
1000ef10:	00042703          	lw	a4,0(s0)
1000ef14:	06d42223          	sw	a3,100(s0)
1000ef18:	01442683          	lw	a3,20(s0)
1000ef1c:	40f707b3          	sub	a5,a4,a5
1000ef20:	f4d7c6e3          	blt	a5,a3,1000ee6c <__swbuf_r+0x78>
1000ef24:	00040593          	mv	a1,s0
1000ef28:	00090513          	mv	a0,s2
1000ef2c:	db1fd0ef          	jal	ra,1000ccdc <_fflush_r>
1000ef30:	02051e63          	bnez	a0,1000ef6c <__swbuf_r+0x178>
1000ef34:	00042703          	lw	a4,0(s0)
1000ef38:	00842683          	lw	a3,8(s0)
1000ef3c:	00100793          	li	a5,1
1000ef40:	00170613          	addi	a2,a4,1
1000ef44:	fff68693          	addi	a3,a3,-1
1000ef48:	00c42023          	sw	a2,0(s0)
1000ef4c:	00d42423          	sw	a3,8(s0)
1000ef50:	01370023          	sb	s3,0(a4)
1000ef54:	01442703          	lw	a4,20(s0)
1000ef58:	f2f71ce3          	bne	a4,a5,1000ee90 <__swbuf_r+0x9c>
1000ef5c:	00040593          	mv	a1,s0
1000ef60:	00090513          	mv	a0,s2
1000ef64:	d79fd0ef          	jal	ra,1000ccdc <_fflush_r>
1000ef68:	f2050ee3          	beqz	a0,1000eea4 <__swbuf_r+0xb0>
1000ef6c:	fff00493          	li	s1,-1
1000ef70:	f35ff06f          	j	1000eea4 <__swbuf_r+0xb0>
1000ef74:	c70f60ef          	jal	ra,100053e4 <__sinit>
1000ef78:	eadff06f          	j	1000ee24 <__swbuf_r+0x30>

1000ef7c <__swbuf>:
1000ef7c:	10015737          	lui	a4,0x10015
1000ef80:	00050793          	mv	a5,a0
1000ef84:	61872503          	lw	a0,1560(a4) # 10015618 <_impure_ptr>
1000ef88:	00058613          	mv	a2,a1
1000ef8c:	00078593          	mv	a1,a5
1000ef90:	e65ff06f          	j	1000edf4 <__swbuf_r>

1000ef94 <_wcrtomb_r>:
1000ef94:	fe010113          	addi	sp,sp,-32
1000ef98:	00812c23          	sw	s0,24(sp)
1000ef9c:	00912a23          	sw	s1,20(sp)
1000efa0:	100157b7          	lui	a5,0x10015
1000efa4:	00112e23          	sw	ra,28(sp)
1000efa8:	1487a783          	lw	a5,328(a5) # 10015148 <__global_locale+0xe0>
1000efac:	00050413          	mv	s0,a0
1000efb0:	00068493          	mv	s1,a3
1000efb4:	02058263          	beqz	a1,1000efd8 <_wcrtomb_r+0x44>
1000efb8:	000780e7          	jalr	a5
1000efbc:	fff00793          	li	a5,-1
1000efc0:	02f50663          	beq	a0,a5,1000efec <_wcrtomb_r+0x58>
1000efc4:	01c12083          	lw	ra,28(sp)
1000efc8:	01812403          	lw	s0,24(sp)
1000efcc:	01412483          	lw	s1,20(sp)
1000efd0:	02010113          	addi	sp,sp,32
1000efd4:	00008067          	ret
1000efd8:	00000613          	li	a2,0
1000efdc:	00410593          	addi	a1,sp,4
1000efe0:	000780e7          	jalr	a5
1000efe4:	fff00793          	li	a5,-1
1000efe8:	fcf51ee3          	bne	a0,a5,1000efc4 <_wcrtomb_r+0x30>
1000efec:	0004a023          	sw	zero,0(s1)
1000eff0:	08a00793          	li	a5,138
1000eff4:	01c12083          	lw	ra,28(sp)
1000eff8:	00f42023          	sw	a5,0(s0)
1000effc:	01812403          	lw	s0,24(sp)
1000f000:	01412483          	lw	s1,20(sp)
1000f004:	02010113          	addi	sp,sp,32
1000f008:	00008067          	ret

1000f00c <wcrtomb>:
1000f00c:	fe010113          	addi	sp,sp,-32
1000f010:	100157b7          	lui	a5,0x10015
1000f014:	00812c23          	sw	s0,24(sp)
1000f018:	00912a23          	sw	s1,20(sp)
1000f01c:	00112e23          	sw	ra,28(sp)
1000f020:	6187a483          	lw	s1,1560(a5) # 10015618 <_impure_ptr>
1000f024:	100157b7          	lui	a5,0x10015
1000f028:	1487a783          	lw	a5,328(a5) # 10015148 <__global_locale+0xe0>
1000f02c:	00060413          	mv	s0,a2
1000f030:	02050a63          	beqz	a0,1000f064 <wcrtomb+0x58>
1000f034:	00058613          	mv	a2,a1
1000f038:	00040693          	mv	a3,s0
1000f03c:	00050593          	mv	a1,a0
1000f040:	00048513          	mv	a0,s1
1000f044:	000780e7          	jalr	a5
1000f048:	fff00793          	li	a5,-1
1000f04c:	02f50a63          	beq	a0,a5,1000f080 <wcrtomb+0x74>
1000f050:	01c12083          	lw	ra,28(sp)
1000f054:	01812403          	lw	s0,24(sp)
1000f058:	01412483          	lw	s1,20(sp)
1000f05c:	02010113          	addi	sp,sp,32
1000f060:	00008067          	ret
1000f064:	00060693          	mv	a3,a2
1000f068:	00410593          	addi	a1,sp,4
1000f06c:	00000613          	li	a2,0
1000f070:	00048513          	mv	a0,s1
1000f074:	000780e7          	jalr	a5
1000f078:	fff00793          	li	a5,-1
1000f07c:	fcf51ae3          	bne	a0,a5,1000f050 <wcrtomb+0x44>
1000f080:	00042023          	sw	zero,0(s0)
1000f084:	01c12083          	lw	ra,28(sp)
1000f088:	01812403          	lw	s0,24(sp)
1000f08c:	08a00793          	li	a5,138
1000f090:	00f4a023          	sw	a5,0(s1)
1000f094:	01412483          	lw	s1,20(sp)
1000f098:	02010113          	addi	sp,sp,32
1000f09c:	00008067          	ret

1000f0a0 <__udivdi3>:
1000f0a0:	fd010113          	addi	sp,sp,-48
1000f0a4:	01312e23          	sw	s3,28(sp)
1000f0a8:	02112623          	sw	ra,44(sp)
1000f0ac:	02812423          	sw	s0,40(sp)
1000f0b0:	02912223          	sw	s1,36(sp)
1000f0b4:	03212023          	sw	s2,32(sp)
1000f0b8:	01412c23          	sw	s4,24(sp)
1000f0bc:	01512a23          	sw	s5,20(sp)
1000f0c0:	01612823          	sw	s6,16(sp)
1000f0c4:	01712623          	sw	s7,12(sp)
1000f0c8:	01812423          	sw	s8,8(sp)
1000f0cc:	01912223          	sw	s9,4(sp)
1000f0d0:	00050993          	mv	s3,a0
1000f0d4:	38069463          	bnez	a3,1000f45c <__udivdi3+0x3bc>
1000f0d8:	100147b7          	lui	a5,0x10014
1000f0dc:	00060a13          	mv	s4,a2
1000f0e0:	00050493          	mv	s1,a0
1000f0e4:	f1c78793          	addi	a5,a5,-228 # 10013f1c <__clz_tab>
1000f0e8:	12c5f863          	bgeu	a1,a2,1000f218 <__udivdi3+0x178>
1000f0ec:	00010737          	lui	a4,0x10
1000f0f0:	00058913          	mv	s2,a1
1000f0f4:	10e67863          	bgeu	a2,a4,1000f204 <__udivdi3+0x164>
1000f0f8:	10063713          	sltiu	a4,a2,256
1000f0fc:	00174713          	xori	a4,a4,1
1000f100:	00371713          	slli	a4,a4,0x3
1000f104:	00e656b3          	srl	a3,a2,a4
1000f108:	00d787b3          	add	a5,a5,a3
1000f10c:	0007c783          	lbu	a5,0(a5)
1000f110:	02000693          	li	a3,32
1000f114:	00e787b3          	add	a5,a5,a4
1000f118:	40f68733          	sub	a4,a3,a5
1000f11c:	00f68c63          	beq	a3,a5,1000f134 <__udivdi3+0x94>
1000f120:	00e59933          	sll	s2,a1,a4
1000f124:	00f9d7b3          	srl	a5,s3,a5
1000f128:	00e61a33          	sll	s4,a2,a4
1000f12c:	0127e933          	or	s2,a5,s2
1000f130:	00e994b3          	sll	s1,s3,a4
1000f134:	010a5a93          	srli	s5,s4,0x10
1000f138:	000a8593          	mv	a1,s5
1000f13c:	00090513          	mv	a0,s2
1000f140:	010a1b13          	slli	s6,s4,0x10
1000f144:	4a5040ef          	jal	ra,10013de8 <__udivsi3>
1000f148:	010b5b13          	srli	s6,s6,0x10
1000f14c:	00050593          	mv	a1,a0
1000f150:	00050993          	mv	s3,a0
1000f154:	000b0513          	mv	a0,s6
1000f158:	465040ef          	jal	ra,10013dbc <__mulsi3>
1000f15c:	00050413          	mv	s0,a0
1000f160:	000a8593          	mv	a1,s5
1000f164:	00090513          	mv	a0,s2
1000f168:	4c9040ef          	jal	ra,10013e30 <__umodsi3>
1000f16c:	01051513          	slli	a0,a0,0x10
1000f170:	0104d713          	srli	a4,s1,0x10
1000f174:	00a76733          	or	a4,a4,a0
1000f178:	00098913          	mv	s2,s3
1000f17c:	00877e63          	bgeu	a4,s0,1000f198 <__udivdi3+0xf8>
1000f180:	01470733          	add	a4,a4,s4
1000f184:	fff98913          	addi	s2,s3,-1
1000f188:	01476863          	bltu	a4,s4,1000f198 <__udivdi3+0xf8>
1000f18c:	00877663          	bgeu	a4,s0,1000f198 <__udivdi3+0xf8>
1000f190:	ffe98913          	addi	s2,s3,-2
1000f194:	01470733          	add	a4,a4,s4
1000f198:	40870433          	sub	s0,a4,s0
1000f19c:	000a8593          	mv	a1,s5
1000f1a0:	00040513          	mv	a0,s0
1000f1a4:	445040ef          	jal	ra,10013de8 <__udivsi3>
1000f1a8:	00050593          	mv	a1,a0
1000f1ac:	00050993          	mv	s3,a0
1000f1b0:	000b0513          	mv	a0,s6
1000f1b4:	409040ef          	jal	ra,10013dbc <__mulsi3>
1000f1b8:	00050b13          	mv	s6,a0
1000f1bc:	000a8593          	mv	a1,s5
1000f1c0:	00040513          	mv	a0,s0
1000f1c4:	46d040ef          	jal	ra,10013e30 <__umodsi3>
1000f1c8:	01049713          	slli	a4,s1,0x10
1000f1cc:	01051513          	slli	a0,a0,0x10
1000f1d0:	01075713          	srli	a4,a4,0x10
1000f1d4:	00a76733          	or	a4,a4,a0
1000f1d8:	00098693          	mv	a3,s3
1000f1dc:	01677c63          	bgeu	a4,s6,1000f1f4 <__udivdi3+0x154>
1000f1e0:	00ea0733          	add	a4,s4,a4
1000f1e4:	fff98693          	addi	a3,s3,-1
1000f1e8:	01476663          	bltu	a4,s4,1000f1f4 <__udivdi3+0x154>
1000f1ec:	01677463          	bgeu	a4,s6,1000f1f4 <__udivdi3+0x154>
1000f1f0:	ffe98693          	addi	a3,s3,-2
1000f1f4:	01091793          	slli	a5,s2,0x10
1000f1f8:	00d7e7b3          	or	a5,a5,a3
1000f1fc:	00000913          	li	s2,0
1000f200:	1200006f          	j	1000f320 <__udivdi3+0x280>
1000f204:	010006b7          	lui	a3,0x1000
1000f208:	01000713          	li	a4,16
1000f20c:	eed66ce3          	bltu	a2,a3,1000f104 <__udivdi3+0x64>
1000f210:	01800713          	li	a4,24
1000f214:	ef1ff06f          	j	1000f104 <__udivdi3+0x64>
1000f218:	00061463          	bnez	a2,1000f220 <__udivdi3+0x180>
1000f21c:	00100073          	ebreak
1000f220:	00010737          	lui	a4,0x10
1000f224:	12e67c63          	bgeu	a2,a4,1000f35c <__udivdi3+0x2bc>
1000f228:	10063713          	sltiu	a4,a2,256
1000f22c:	00174713          	xori	a4,a4,1
1000f230:	00371713          	slli	a4,a4,0x3
1000f234:	00e656b3          	srl	a3,a2,a4
1000f238:	00d787b3          	add	a5,a5,a3
1000f23c:	0007c783          	lbu	a5,0(a5)
1000f240:	02000693          	li	a3,32
1000f244:	00e787b3          	add	a5,a5,a4
1000f248:	40f68733          	sub	a4,a3,a5
1000f24c:	12f69263          	bne	a3,a5,1000f370 <__udivdi3+0x2d0>
1000f250:	40c589b3          	sub	s3,a1,a2
1000f254:	00100913          	li	s2,1
1000f258:	010a5b13          	srli	s6,s4,0x10
1000f25c:	000b0593          	mv	a1,s6
1000f260:	00098513          	mv	a0,s3
1000f264:	010a1b93          	slli	s7,s4,0x10
1000f268:	381040ef          	jal	ra,10013de8 <__udivsi3>
1000f26c:	010bdb93          	srli	s7,s7,0x10
1000f270:	00050593          	mv	a1,a0
1000f274:	00050c13          	mv	s8,a0
1000f278:	000b8513          	mv	a0,s7
1000f27c:	341040ef          	jal	ra,10013dbc <__mulsi3>
1000f280:	00050a93          	mv	s5,a0
1000f284:	000b0593          	mv	a1,s6
1000f288:	00098513          	mv	a0,s3
1000f28c:	3a5040ef          	jal	ra,10013e30 <__umodsi3>
1000f290:	01051513          	slli	a0,a0,0x10
1000f294:	0104d713          	srli	a4,s1,0x10
1000f298:	00a76733          	or	a4,a4,a0
1000f29c:	000c0993          	mv	s3,s8
1000f2a0:	01577e63          	bgeu	a4,s5,1000f2bc <__udivdi3+0x21c>
1000f2a4:	01470733          	add	a4,a4,s4
1000f2a8:	fffc0993          	addi	s3,s8,-1
1000f2ac:	01476863          	bltu	a4,s4,1000f2bc <__udivdi3+0x21c>
1000f2b0:	01577663          	bgeu	a4,s5,1000f2bc <__udivdi3+0x21c>
1000f2b4:	ffec0993          	addi	s3,s8,-2
1000f2b8:	01470733          	add	a4,a4,s4
1000f2bc:	41570433          	sub	s0,a4,s5
1000f2c0:	000b0593          	mv	a1,s6
1000f2c4:	00040513          	mv	a0,s0
1000f2c8:	321040ef          	jal	ra,10013de8 <__udivsi3>
1000f2cc:	00050593          	mv	a1,a0
1000f2d0:	00050a93          	mv	s5,a0
1000f2d4:	000b8513          	mv	a0,s7
1000f2d8:	2e5040ef          	jal	ra,10013dbc <__mulsi3>
1000f2dc:	00050b93          	mv	s7,a0
1000f2e0:	000b0593          	mv	a1,s6
1000f2e4:	00040513          	mv	a0,s0
1000f2e8:	349040ef          	jal	ra,10013e30 <__umodsi3>
1000f2ec:	01049713          	slli	a4,s1,0x10
1000f2f0:	01051513          	slli	a0,a0,0x10
1000f2f4:	01075713          	srli	a4,a4,0x10
1000f2f8:	00a76733          	or	a4,a4,a0
1000f2fc:	000a8693          	mv	a3,s5
1000f300:	01777c63          	bgeu	a4,s7,1000f318 <__udivdi3+0x278>
1000f304:	00ea0733          	add	a4,s4,a4
1000f308:	fffa8693          	addi	a3,s5,-1
1000f30c:	01476663          	bltu	a4,s4,1000f318 <__udivdi3+0x278>
1000f310:	01777463          	bgeu	a4,s7,1000f318 <__udivdi3+0x278>
1000f314:	ffea8693          	addi	a3,s5,-2
1000f318:	01099793          	slli	a5,s3,0x10
1000f31c:	00d7e7b3          	or	a5,a5,a3
1000f320:	02c12083          	lw	ra,44(sp)
1000f324:	02812403          	lw	s0,40(sp)
1000f328:	02412483          	lw	s1,36(sp)
1000f32c:	01c12983          	lw	s3,28(sp)
1000f330:	01812a03          	lw	s4,24(sp)
1000f334:	01412a83          	lw	s5,20(sp)
1000f338:	01012b03          	lw	s6,16(sp)
1000f33c:	00c12b83          	lw	s7,12(sp)
1000f340:	00812c03          	lw	s8,8(sp)
1000f344:	00412c83          	lw	s9,4(sp)
1000f348:	00090593          	mv	a1,s2
1000f34c:	00078513          	mv	a0,a5
1000f350:	02012903          	lw	s2,32(sp)
1000f354:	03010113          	addi	sp,sp,48
1000f358:	00008067          	ret
1000f35c:	010006b7          	lui	a3,0x1000
1000f360:	01000713          	li	a4,16
1000f364:	ecd668e3          	bltu	a2,a3,1000f234 <__udivdi3+0x194>
1000f368:	01800713          	li	a4,24
1000f36c:	ec9ff06f          	j	1000f234 <__udivdi3+0x194>
1000f370:	00e61a33          	sll	s4,a2,a4
1000f374:	00f5d933          	srl	s2,a1,a5
1000f378:	010a5b93          	srli	s7,s4,0x10
1000f37c:	00e595b3          	sll	a1,a1,a4
1000f380:	00f9d7b3          	srl	a5,s3,a5
1000f384:	00b7eab3          	or	s5,a5,a1
1000f388:	00e994b3          	sll	s1,s3,a4
1000f38c:	000b8593          	mv	a1,s7
1000f390:	00090513          	mv	a0,s2
1000f394:	010a1993          	slli	s3,s4,0x10
1000f398:	251040ef          	jal	ra,10013de8 <__udivsi3>
1000f39c:	0109d993          	srli	s3,s3,0x10
1000f3a0:	00050593          	mv	a1,a0
1000f3a4:	00050b13          	mv	s6,a0
1000f3a8:	00098513          	mv	a0,s3
1000f3ac:	211040ef          	jal	ra,10013dbc <__mulsi3>
1000f3b0:	00050413          	mv	s0,a0
1000f3b4:	000b8593          	mv	a1,s7
1000f3b8:	00090513          	mv	a0,s2
1000f3bc:	275040ef          	jal	ra,10013e30 <__umodsi3>
1000f3c0:	01051513          	slli	a0,a0,0x10
1000f3c4:	010ad713          	srli	a4,s5,0x10
1000f3c8:	00a76733          	or	a4,a4,a0
1000f3cc:	000b0913          	mv	s2,s6
1000f3d0:	00877e63          	bgeu	a4,s0,1000f3ec <__udivdi3+0x34c>
1000f3d4:	01470733          	add	a4,a4,s4
1000f3d8:	fffb0913          	addi	s2,s6,-1
1000f3dc:	01476863          	bltu	a4,s4,1000f3ec <__udivdi3+0x34c>
1000f3e0:	00877663          	bgeu	a4,s0,1000f3ec <__udivdi3+0x34c>
1000f3e4:	ffeb0913          	addi	s2,s6,-2
1000f3e8:	01470733          	add	a4,a4,s4
1000f3ec:	40870433          	sub	s0,a4,s0
1000f3f0:	000b8593          	mv	a1,s7
1000f3f4:	00040513          	mv	a0,s0
1000f3f8:	1f1040ef          	jal	ra,10013de8 <__udivsi3>
1000f3fc:	00050593          	mv	a1,a0
1000f400:	00050b13          	mv	s6,a0
1000f404:	00098513          	mv	a0,s3
1000f408:	1b5040ef          	jal	ra,10013dbc <__mulsi3>
1000f40c:	00050993          	mv	s3,a0
1000f410:	000b8593          	mv	a1,s7
1000f414:	00040513          	mv	a0,s0
1000f418:	219040ef          	jal	ra,10013e30 <__umodsi3>
1000f41c:	010a9793          	slli	a5,s5,0x10
1000f420:	01051513          	slli	a0,a0,0x10
1000f424:	0107d793          	srli	a5,a5,0x10
1000f428:	00a7e7b3          	or	a5,a5,a0
1000f42c:	000b0713          	mv	a4,s6
1000f430:	0137fe63          	bgeu	a5,s3,1000f44c <__udivdi3+0x3ac>
1000f434:	014787b3          	add	a5,a5,s4
1000f438:	fffb0713          	addi	a4,s6,-1
1000f43c:	0147e863          	bltu	a5,s4,1000f44c <__udivdi3+0x3ac>
1000f440:	0137f663          	bgeu	a5,s3,1000f44c <__udivdi3+0x3ac>
1000f444:	ffeb0713          	addi	a4,s6,-2
1000f448:	014787b3          	add	a5,a5,s4
1000f44c:	01091913          	slli	s2,s2,0x10
1000f450:	413789b3          	sub	s3,a5,s3
1000f454:	00e96933          	or	s2,s2,a4
1000f458:	e01ff06f          	j	1000f258 <__udivdi3+0x1b8>
1000f45c:	1ed5ec63          	bltu	a1,a3,1000f654 <__udivdi3+0x5b4>
1000f460:	000107b7          	lui	a5,0x10
1000f464:	04f6f463          	bgeu	a3,a5,1000f4ac <__udivdi3+0x40c>
1000f468:	1006b513          	sltiu	a0,a3,256
1000f46c:	00154513          	xori	a0,a0,1
1000f470:	00351513          	slli	a0,a0,0x3
1000f474:	100147b7          	lui	a5,0x10014
1000f478:	00a6d733          	srl	a4,a3,a0
1000f47c:	f1c78793          	addi	a5,a5,-228 # 10013f1c <__clz_tab>
1000f480:	00e787b3          	add	a5,a5,a4
1000f484:	0007c703          	lbu	a4,0(a5)
1000f488:	02000793          	li	a5,32
1000f48c:	00a70733          	add	a4,a4,a0
1000f490:	40e78933          	sub	s2,a5,a4
1000f494:	02e79663          	bne	a5,a4,1000f4c0 <__udivdi3+0x420>
1000f498:	00100793          	li	a5,1
1000f49c:	e8b6e2e3          	bltu	a3,a1,1000f320 <__udivdi3+0x280>
1000f4a0:	00c9b7b3          	sltu	a5,s3,a2
1000f4a4:	0017c793          	xori	a5,a5,1
1000f4a8:	e79ff06f          	j	1000f320 <__udivdi3+0x280>
1000f4ac:	010007b7          	lui	a5,0x1000
1000f4b0:	01000513          	li	a0,16
1000f4b4:	fcf6e0e3          	bltu	a3,a5,1000f474 <__udivdi3+0x3d4>
1000f4b8:	01800513          	li	a0,24
1000f4bc:	fb9ff06f          	j	1000f474 <__udivdi3+0x3d4>
1000f4c0:	012696b3          	sll	a3,a3,s2
1000f4c4:	00e65b33          	srl	s6,a2,a4
1000f4c8:	00db6b33          	or	s6,s6,a3
1000f4cc:	00e5da33          	srl	s4,a1,a4
1000f4d0:	010b5c13          	srli	s8,s6,0x10
1000f4d4:	00e9d733          	srl	a4,s3,a4
1000f4d8:	012595b3          	sll	a1,a1,s2
1000f4dc:	00b76ab3          	or	s5,a4,a1
1000f4e0:	000a0513          	mv	a0,s4
1000f4e4:	000c0593          	mv	a1,s8
1000f4e8:	010b1b93          	slli	s7,s6,0x10
1000f4ec:	012614b3          	sll	s1,a2,s2
1000f4f0:	010bdb93          	srli	s7,s7,0x10
1000f4f4:	0f5040ef          	jal	ra,10013de8 <__udivsi3>
1000f4f8:	00050593          	mv	a1,a0
1000f4fc:	00050c93          	mv	s9,a0
1000f500:	000b8513          	mv	a0,s7
1000f504:	0b9040ef          	jal	ra,10013dbc <__mulsi3>
1000f508:	00050413          	mv	s0,a0
1000f50c:	000c0593          	mv	a1,s8
1000f510:	000a0513          	mv	a0,s4
1000f514:	11d040ef          	jal	ra,10013e30 <__umodsi3>
1000f518:	01051513          	slli	a0,a0,0x10
1000f51c:	010ad693          	srli	a3,s5,0x10
1000f520:	00a6e6b3          	or	a3,a3,a0
1000f524:	000c8a13          	mv	s4,s9
1000f528:	0086fe63          	bgeu	a3,s0,1000f544 <__udivdi3+0x4a4>
1000f52c:	016686b3          	add	a3,a3,s6
1000f530:	fffc8a13          	addi	s4,s9,-1
1000f534:	0166e863          	bltu	a3,s6,1000f544 <__udivdi3+0x4a4>
1000f538:	0086f663          	bgeu	a3,s0,1000f544 <__udivdi3+0x4a4>
1000f53c:	ffec8a13          	addi	s4,s9,-2
1000f540:	016686b3          	add	a3,a3,s6
1000f544:	40868433          	sub	s0,a3,s0
1000f548:	000c0593          	mv	a1,s8
1000f54c:	00040513          	mv	a0,s0
1000f550:	099040ef          	jal	ra,10013de8 <__udivsi3>
1000f554:	00050593          	mv	a1,a0
1000f558:	00050c93          	mv	s9,a0
1000f55c:	000b8513          	mv	a0,s7
1000f560:	05d040ef          	jal	ra,10013dbc <__mulsi3>
1000f564:	00050b93          	mv	s7,a0
1000f568:	000c0593          	mv	a1,s8
1000f56c:	00040513          	mv	a0,s0
1000f570:	0c1040ef          	jal	ra,10013e30 <__umodsi3>
1000f574:	010a9713          	slli	a4,s5,0x10
1000f578:	01051513          	slli	a0,a0,0x10
1000f57c:	01075713          	srli	a4,a4,0x10
1000f580:	00a76733          	or	a4,a4,a0
1000f584:	000c8693          	mv	a3,s9
1000f588:	01777e63          	bgeu	a4,s7,1000f5a4 <__udivdi3+0x504>
1000f58c:	01670733          	add	a4,a4,s6
1000f590:	fffc8693          	addi	a3,s9,-1
1000f594:	01676863          	bltu	a4,s6,1000f5a4 <__udivdi3+0x504>
1000f598:	01777663          	bgeu	a4,s7,1000f5a4 <__udivdi3+0x504>
1000f59c:	ffec8693          	addi	a3,s9,-2
1000f5a0:	01670733          	add	a4,a4,s6
1000f5a4:	010a1793          	slli	a5,s4,0x10
1000f5a8:	00010e37          	lui	t3,0x10
1000f5ac:	00d7e7b3          	or	a5,a5,a3
1000f5b0:	fffe0313          	addi	t1,t3,-1 # ffff <__heap_size+0xefff>
1000f5b4:	41770833          	sub	a6,a4,s7
1000f5b8:	0067f733          	and	a4,a5,t1
1000f5bc:	0064f333          	and	t1,s1,t1
1000f5c0:	0107de93          	srli	t4,a5,0x10
1000f5c4:	0104d493          	srli	s1,s1,0x10
1000f5c8:	00070513          	mv	a0,a4
1000f5cc:	00030593          	mv	a1,t1
1000f5d0:	7ec040ef          	jal	ra,10013dbc <__mulsi3>
1000f5d4:	00050893          	mv	a7,a0
1000f5d8:	00048593          	mv	a1,s1
1000f5dc:	00070513          	mv	a0,a4
1000f5e0:	7dc040ef          	jal	ra,10013dbc <__mulsi3>
1000f5e4:	00050713          	mv	a4,a0
1000f5e8:	00030593          	mv	a1,t1
1000f5ec:	000e8513          	mv	a0,t4
1000f5f0:	7cc040ef          	jal	ra,10013dbc <__mulsi3>
1000f5f4:	00050313          	mv	t1,a0
1000f5f8:	00048593          	mv	a1,s1
1000f5fc:	000e8513          	mv	a0,t4
1000f600:	7bc040ef          	jal	ra,10013dbc <__mulsi3>
1000f604:	00670733          	add	a4,a4,t1
1000f608:	0108d693          	srli	a3,a7,0x10
1000f60c:	00d70733          	add	a4,a4,a3
1000f610:	00677463          	bgeu	a4,t1,1000f618 <__udivdi3+0x578>
1000f614:	01c50533          	add	a0,a0,t3
1000f618:	01075693          	srli	a3,a4,0x10
1000f61c:	00a686b3          	add	a3,a3,a0
1000f620:	02d86663          	bltu	a6,a3,1000f64c <__udivdi3+0x5ac>
1000f624:	bcd81ce3          	bne	a6,a3,1000f1fc <__udivdi3+0x15c>
1000f628:	00010637          	lui	a2,0x10
1000f62c:	fff60613          	addi	a2,a2,-1 # ffff <__heap_size+0xefff>
1000f630:	00c77733          	and	a4,a4,a2
1000f634:	01071713          	slli	a4,a4,0x10
1000f638:	00c8f8b3          	and	a7,a7,a2
1000f63c:	012996b3          	sll	a3,s3,s2
1000f640:	01170733          	add	a4,a4,a7
1000f644:	00000913          	li	s2,0
1000f648:	cce6fce3          	bgeu	a3,a4,1000f320 <__udivdi3+0x280>
1000f64c:	fff78793          	addi	a5,a5,-1 # ffffff <__heap_size+0xffefff>
1000f650:	badff06f          	j	1000f1fc <__udivdi3+0x15c>
1000f654:	00000913          	li	s2,0
1000f658:	00000793          	li	a5,0
1000f65c:	cc5ff06f          	j	1000f320 <__udivdi3+0x280>

1000f660 <__umoddi3>:
1000f660:	fd010113          	addi	sp,sp,-48
1000f664:	02812423          	sw	s0,40(sp)
1000f668:	02912223          	sw	s1,36(sp)
1000f66c:	02112623          	sw	ra,44(sp)
1000f670:	03212023          	sw	s2,32(sp)
1000f674:	01312e23          	sw	s3,28(sp)
1000f678:	01412c23          	sw	s4,24(sp)
1000f67c:	01512a23          	sw	s5,20(sp)
1000f680:	01612823          	sw	s6,16(sp)
1000f684:	01712623          	sw	s7,12(sp)
1000f688:	01812423          	sw	s8,8(sp)
1000f68c:	01912223          	sw	s9,4(sp)
1000f690:	01a12023          	sw	s10,0(sp)
1000f694:	00050413          	mv	s0,a0
1000f698:	00058493          	mv	s1,a1
1000f69c:	24069c63          	bnez	a3,1000f8f4 <__umoddi3+0x294>
1000f6a0:	100147b7          	lui	a5,0x10014
1000f6a4:	00060a13          	mv	s4,a2
1000f6a8:	f1c78793          	addi	a5,a5,-228 # 10013f1c <__clz_tab>
1000f6ac:	12c5fe63          	bgeu	a1,a2,1000f7e8 <__umoddi3+0x188>
1000f6b0:	00010737          	lui	a4,0x10
1000f6b4:	12e67063          	bgeu	a2,a4,1000f7d4 <__umoddi3+0x174>
1000f6b8:	10063713          	sltiu	a4,a2,256
1000f6bc:	00174713          	xori	a4,a4,1
1000f6c0:	00371713          	slli	a4,a4,0x3
1000f6c4:	00e656b3          	srl	a3,a2,a4
1000f6c8:	00d787b3          	add	a5,a5,a3
1000f6cc:	0007c783          	lbu	a5,0(a5)
1000f6d0:	00e787b3          	add	a5,a5,a4
1000f6d4:	02000713          	li	a4,32
1000f6d8:	40f70933          	sub	s2,a4,a5
1000f6dc:	00f70c63          	beq	a4,a5,1000f6f4 <__umoddi3+0x94>
1000f6e0:	012595b3          	sll	a1,a1,s2
1000f6e4:	00f557b3          	srl	a5,a0,a5
1000f6e8:	01261a33          	sll	s4,a2,s2
1000f6ec:	00b7e4b3          	or	s1,a5,a1
1000f6f0:	01251433          	sll	s0,a0,s2
1000f6f4:	010a5a93          	srli	s5,s4,0x10
1000f6f8:	000a8593          	mv	a1,s5
1000f6fc:	010a1b13          	slli	s6,s4,0x10
1000f700:	00048513          	mv	a0,s1
1000f704:	6e4040ef          	jal	ra,10013de8 <__udivsi3>
1000f708:	010b5b13          	srli	s6,s6,0x10
1000f70c:	000b0593          	mv	a1,s6
1000f710:	6ac040ef          	jal	ra,10013dbc <__mulsi3>
1000f714:	00050993          	mv	s3,a0
1000f718:	000a8593          	mv	a1,s5
1000f71c:	00048513          	mv	a0,s1
1000f720:	710040ef          	jal	ra,10013e30 <__umodsi3>
1000f724:	01051513          	slli	a0,a0,0x10
1000f728:	01045793          	srli	a5,s0,0x10
1000f72c:	00a7e7b3          	or	a5,a5,a0
1000f730:	0137fa63          	bgeu	a5,s3,1000f744 <__umoddi3+0xe4>
1000f734:	014787b3          	add	a5,a5,s4
1000f738:	0147e663          	bltu	a5,s4,1000f744 <__umoddi3+0xe4>
1000f73c:	0137f463          	bgeu	a5,s3,1000f744 <__umoddi3+0xe4>
1000f740:	014787b3          	add	a5,a5,s4
1000f744:	413784b3          	sub	s1,a5,s3
1000f748:	000a8593          	mv	a1,s5
1000f74c:	00048513          	mv	a0,s1
1000f750:	698040ef          	jal	ra,10013de8 <__udivsi3>
1000f754:	000b0593          	mv	a1,s6
1000f758:	664040ef          	jal	ra,10013dbc <__mulsi3>
1000f75c:	00050993          	mv	s3,a0
1000f760:	000a8593          	mv	a1,s5
1000f764:	00048513          	mv	a0,s1
1000f768:	6c8040ef          	jal	ra,10013e30 <__umodsi3>
1000f76c:	01041413          	slli	s0,s0,0x10
1000f770:	01051513          	slli	a0,a0,0x10
1000f774:	01045413          	srli	s0,s0,0x10
1000f778:	00a46433          	or	s0,s0,a0
1000f77c:	01347a63          	bgeu	s0,s3,1000f790 <__umoddi3+0x130>
1000f780:	01440433          	add	s0,s0,s4
1000f784:	01446663          	bltu	s0,s4,1000f790 <__umoddi3+0x130>
1000f788:	01347463          	bgeu	s0,s3,1000f790 <__umoddi3+0x130>
1000f78c:	01440433          	add	s0,s0,s4
1000f790:	41340433          	sub	s0,s0,s3
1000f794:	01245533          	srl	a0,s0,s2
1000f798:	00000593          	li	a1,0
1000f79c:	02c12083          	lw	ra,44(sp)
1000f7a0:	02812403          	lw	s0,40(sp)
1000f7a4:	02412483          	lw	s1,36(sp)
1000f7a8:	02012903          	lw	s2,32(sp)
1000f7ac:	01c12983          	lw	s3,28(sp)
1000f7b0:	01812a03          	lw	s4,24(sp)
1000f7b4:	01412a83          	lw	s5,20(sp)
1000f7b8:	01012b03          	lw	s6,16(sp)
1000f7bc:	00c12b83          	lw	s7,12(sp)
1000f7c0:	00812c03          	lw	s8,8(sp)
1000f7c4:	00412c83          	lw	s9,4(sp)
1000f7c8:	00012d03          	lw	s10,0(sp)
1000f7cc:	03010113          	addi	sp,sp,48
1000f7d0:	00008067          	ret
1000f7d4:	010006b7          	lui	a3,0x1000
1000f7d8:	01000713          	li	a4,16
1000f7dc:	eed664e3          	bltu	a2,a3,1000f6c4 <__umoddi3+0x64>
1000f7e0:	01800713          	li	a4,24
1000f7e4:	ee1ff06f          	j	1000f6c4 <__umoddi3+0x64>
1000f7e8:	00061463          	bnez	a2,1000f7f0 <__umoddi3+0x190>
1000f7ec:	00100073          	ebreak
1000f7f0:	00010737          	lui	a4,0x10
1000f7f4:	0ee67663          	bgeu	a2,a4,1000f8e0 <__umoddi3+0x280>
1000f7f8:	10063713          	sltiu	a4,a2,256
1000f7fc:	00174713          	xori	a4,a4,1
1000f800:	00371713          	slli	a4,a4,0x3
1000f804:	00e656b3          	srl	a3,a2,a4
1000f808:	00d787b3          	add	a5,a5,a3
1000f80c:	0007c783          	lbu	a5,0(a5)
1000f810:	40c584b3          	sub	s1,a1,a2
1000f814:	00e787b3          	add	a5,a5,a4
1000f818:	02000713          	li	a4,32
1000f81c:	40f70933          	sub	s2,a4,a5
1000f820:	ecf70ae3          	beq	a4,a5,1000f6f4 <__umoddi3+0x94>
1000f824:	01261a33          	sll	s4,a2,s2
1000f828:	00f5dbb3          	srl	s7,a1,a5
1000f82c:	010a5b13          	srli	s6,s4,0x10
1000f830:	00f557b3          	srl	a5,a0,a5
1000f834:	012595b3          	sll	a1,a1,s2
1000f838:	00b7e9b3          	or	s3,a5,a1
1000f83c:	01251433          	sll	s0,a0,s2
1000f840:	000b0593          	mv	a1,s6
1000f844:	010a1a93          	slli	s5,s4,0x10
1000f848:	000b8513          	mv	a0,s7
1000f84c:	59c040ef          	jal	ra,10013de8 <__udivsi3>
1000f850:	010ada93          	srli	s5,s5,0x10
1000f854:	000a8593          	mv	a1,s5
1000f858:	564040ef          	jal	ra,10013dbc <__mulsi3>
1000f85c:	00050493          	mv	s1,a0
1000f860:	000b0593          	mv	a1,s6
1000f864:	000b8513          	mv	a0,s7
1000f868:	5c8040ef          	jal	ra,10013e30 <__umodsi3>
1000f86c:	01051513          	slli	a0,a0,0x10
1000f870:	0109d713          	srli	a4,s3,0x10
1000f874:	00a76733          	or	a4,a4,a0
1000f878:	00977a63          	bgeu	a4,s1,1000f88c <__umoddi3+0x22c>
1000f87c:	01470733          	add	a4,a4,s4
1000f880:	01476663          	bltu	a4,s4,1000f88c <__umoddi3+0x22c>
1000f884:	00977463          	bgeu	a4,s1,1000f88c <__umoddi3+0x22c>
1000f888:	01470733          	add	a4,a4,s4
1000f88c:	409704b3          	sub	s1,a4,s1
1000f890:	000b0593          	mv	a1,s6
1000f894:	00048513          	mv	a0,s1
1000f898:	550040ef          	jal	ra,10013de8 <__udivsi3>
1000f89c:	000a8593          	mv	a1,s5
1000f8a0:	51c040ef          	jal	ra,10013dbc <__mulsi3>
1000f8a4:	00050a93          	mv	s5,a0
1000f8a8:	000b0593          	mv	a1,s6
1000f8ac:	00048513          	mv	a0,s1
1000f8b0:	580040ef          	jal	ra,10013e30 <__umodsi3>
1000f8b4:	01099793          	slli	a5,s3,0x10
1000f8b8:	01051513          	slli	a0,a0,0x10
1000f8bc:	0107d793          	srli	a5,a5,0x10
1000f8c0:	00a7e7b3          	or	a5,a5,a0
1000f8c4:	0157fa63          	bgeu	a5,s5,1000f8d8 <__umoddi3+0x278>
1000f8c8:	014787b3          	add	a5,a5,s4
1000f8cc:	0147e663          	bltu	a5,s4,1000f8d8 <__umoddi3+0x278>
1000f8d0:	0157f463          	bgeu	a5,s5,1000f8d8 <__umoddi3+0x278>
1000f8d4:	014787b3          	add	a5,a5,s4
1000f8d8:	415784b3          	sub	s1,a5,s5
1000f8dc:	e19ff06f          	j	1000f6f4 <__umoddi3+0x94>
1000f8e0:	010006b7          	lui	a3,0x1000
1000f8e4:	01000713          	li	a4,16
1000f8e8:	f0d66ee3          	bltu	a2,a3,1000f804 <__umoddi3+0x1a4>
1000f8ec:	01800713          	li	a4,24
1000f8f0:	f15ff06f          	j	1000f804 <__umoddi3+0x1a4>
1000f8f4:	ead5e4e3          	bltu	a1,a3,1000f79c <__umoddi3+0x13c>
1000f8f8:	000107b7          	lui	a5,0x10
1000f8fc:	04f6fe63          	bgeu	a3,a5,1000f958 <__umoddi3+0x2f8>
1000f900:	1006b793          	sltiu	a5,a3,256
1000f904:	0017c793          	xori	a5,a5,1
1000f908:	00379793          	slli	a5,a5,0x3
1000f90c:	10014737          	lui	a4,0x10014
1000f910:	00f6d833          	srl	a6,a3,a5
1000f914:	f1c70713          	addi	a4,a4,-228 # 10013f1c <__clz_tab>
1000f918:	01070733          	add	a4,a4,a6
1000f91c:	00074983          	lbu	s3,0(a4)
1000f920:	00f989b3          	add	s3,s3,a5
1000f924:	02000793          	li	a5,32
1000f928:	41378933          	sub	s2,a5,s3
1000f92c:	05379063          	bne	a5,s3,1000f96c <__umoddi3+0x30c>
1000f930:	00b6e463          	bltu	a3,a1,1000f938 <__umoddi3+0x2d8>
1000f934:	00c56c63          	bltu	a0,a2,1000f94c <__umoddi3+0x2ec>
1000f938:	40c50633          	sub	a2,a0,a2
1000f93c:	40d586b3          	sub	a3,a1,a3
1000f940:	00c535b3          	sltu	a1,a0,a2
1000f944:	40b684b3          	sub	s1,a3,a1
1000f948:	00060413          	mv	s0,a2
1000f94c:	00040513          	mv	a0,s0
1000f950:	00048593          	mv	a1,s1
1000f954:	e49ff06f          	j	1000f79c <__umoddi3+0x13c>
1000f958:	01000737          	lui	a4,0x1000
1000f95c:	01000793          	li	a5,16
1000f960:	fae6e6e3          	bltu	a3,a4,1000f90c <__umoddi3+0x2ac>
1000f964:	01800793          	li	a5,24
1000f968:	fa5ff06f          	j	1000f90c <__umoddi3+0x2ac>
1000f96c:	012696b3          	sll	a3,a3,s2
1000f970:	01365b33          	srl	s6,a2,s3
1000f974:	00db6b33          	or	s6,s6,a3
1000f978:	0135d4b3          	srl	s1,a1,s3
1000f97c:	01355a33          	srl	s4,a0,s3
1000f980:	012595b3          	sll	a1,a1,s2
1000f984:	010b5c93          	srli	s9,s6,0x10
1000f988:	00ba6a33          	or	s4,s4,a1
1000f98c:	01251ab3          	sll	s5,a0,s2
1000f990:	000c8593          	mv	a1,s9
1000f994:	00048513          	mv	a0,s1
1000f998:	010b1c13          	slli	s8,s6,0x10
1000f99c:	01261bb3          	sll	s7,a2,s2
1000f9a0:	010c5c13          	srli	s8,s8,0x10
1000f9a4:	444040ef          	jal	ra,10013de8 <__udivsi3>
1000f9a8:	00050593          	mv	a1,a0
1000f9ac:	00050d13          	mv	s10,a0
1000f9b0:	000c0513          	mv	a0,s8
1000f9b4:	408040ef          	jal	ra,10013dbc <__mulsi3>
1000f9b8:	00050413          	mv	s0,a0
1000f9bc:	000c8593          	mv	a1,s9
1000f9c0:	00048513          	mv	a0,s1
1000f9c4:	46c040ef          	jal	ra,10013e30 <__umodsi3>
1000f9c8:	01051513          	slli	a0,a0,0x10
1000f9cc:	010a5793          	srli	a5,s4,0x10
1000f9d0:	00a7e7b3          	or	a5,a5,a0
1000f9d4:	000d0493          	mv	s1,s10
1000f9d8:	0087fe63          	bgeu	a5,s0,1000f9f4 <__umoddi3+0x394>
1000f9dc:	016787b3          	add	a5,a5,s6
1000f9e0:	fffd0493          	addi	s1,s10,-1
1000f9e4:	0167e863          	bltu	a5,s6,1000f9f4 <__umoddi3+0x394>
1000f9e8:	0087f663          	bgeu	a5,s0,1000f9f4 <__umoddi3+0x394>
1000f9ec:	ffed0493          	addi	s1,s10,-2
1000f9f0:	016787b3          	add	a5,a5,s6
1000f9f4:	40878433          	sub	s0,a5,s0
1000f9f8:	000c8593          	mv	a1,s9
1000f9fc:	00040513          	mv	a0,s0
1000fa00:	3e8040ef          	jal	ra,10013de8 <__udivsi3>
1000fa04:	00050593          	mv	a1,a0
1000fa08:	00050d13          	mv	s10,a0
1000fa0c:	000c0513          	mv	a0,s8
1000fa10:	3ac040ef          	jal	ra,10013dbc <__mulsi3>
1000fa14:	000c8593          	mv	a1,s9
1000fa18:	00050c13          	mv	s8,a0
1000fa1c:	00040513          	mv	a0,s0
1000fa20:	410040ef          	jal	ra,10013e30 <__umodsi3>
1000fa24:	010a1593          	slli	a1,s4,0x10
1000fa28:	01051513          	slli	a0,a0,0x10
1000fa2c:	0105d593          	srli	a1,a1,0x10
1000fa30:	00a5e5b3          	or	a1,a1,a0
1000fa34:	000d0793          	mv	a5,s10
1000fa38:	0185fe63          	bgeu	a1,s8,1000fa54 <__umoddi3+0x3f4>
1000fa3c:	016585b3          	add	a1,a1,s6
1000fa40:	fffd0793          	addi	a5,s10,-1
1000fa44:	0165e863          	bltu	a1,s6,1000fa54 <__umoddi3+0x3f4>
1000fa48:	0185f663          	bgeu	a1,s8,1000fa54 <__umoddi3+0x3f4>
1000fa4c:	ffed0793          	addi	a5,s10,-2
1000fa50:	016585b3          	add	a1,a1,s6
1000fa54:	00010eb7          	lui	t4,0x10
1000fa58:	01049493          	slli	s1,s1,0x10
1000fa5c:	00f4e4b3          	or	s1,s1,a5
1000fa60:	fffe8793          	addi	a5,t4,-1 # ffff <__heap_size+0xefff>
1000fa64:	00f4f8b3          	and	a7,s1,a5
1000fa68:	00fbf7b3          	and	a5,s7,a5
1000fa6c:	41858733          	sub	a4,a1,s8
1000fa70:	0104d493          	srli	s1,s1,0x10
1000fa74:	010bde13          	srli	t3,s7,0x10
1000fa78:	00088513          	mv	a0,a7
1000fa7c:	00078593          	mv	a1,a5
1000fa80:	33c040ef          	jal	ra,10013dbc <__mulsi3>
1000fa84:	00050813          	mv	a6,a0
1000fa88:	000e0593          	mv	a1,t3
1000fa8c:	00088513          	mv	a0,a7
1000fa90:	32c040ef          	jal	ra,10013dbc <__mulsi3>
1000fa94:	00050893          	mv	a7,a0
1000fa98:	00078593          	mv	a1,a5
1000fa9c:	00048513          	mv	a0,s1
1000faa0:	31c040ef          	jal	ra,10013dbc <__mulsi3>
1000faa4:	00050313          	mv	t1,a0
1000faa8:	000e0593          	mv	a1,t3
1000faac:	00048513          	mv	a0,s1
1000fab0:	30c040ef          	jal	ra,10013dbc <__mulsi3>
1000fab4:	01085793          	srli	a5,a6,0x10
1000fab8:	006888b3          	add	a7,a7,t1
1000fabc:	011787b3          	add	a5,a5,a7
1000fac0:	00050613          	mv	a2,a0
1000fac4:	0067f463          	bgeu	a5,t1,1000facc <__umoddi3+0x46c>
1000fac8:	01d50633          	add	a2,a0,t4
1000facc:	0107d693          	srli	a3,a5,0x10
1000fad0:	00c686b3          	add	a3,a3,a2
1000fad4:	00010637          	lui	a2,0x10
1000fad8:	fff60613          	addi	a2,a2,-1 # ffff <__heap_size+0xefff>
1000fadc:	00c7f7b3          	and	a5,a5,a2
1000fae0:	01079793          	slli	a5,a5,0x10
1000fae4:	00c87833          	and	a6,a6,a2
1000fae8:	010787b3          	add	a5,a5,a6
1000faec:	00d76663          	bltu	a4,a3,1000faf8 <__umoddi3+0x498>
1000faf0:	00d71e63          	bne	a4,a3,1000fb0c <__umoddi3+0x4ac>
1000faf4:	00fafc63          	bgeu	s5,a5,1000fb0c <__umoddi3+0x4ac>
1000faf8:	41778633          	sub	a2,a5,s7
1000fafc:	00c7b7b3          	sltu	a5,a5,a2
1000fb00:	016787b3          	add	a5,a5,s6
1000fb04:	40f686b3          	sub	a3,a3,a5
1000fb08:	00060793          	mv	a5,a2
1000fb0c:	40fa87b3          	sub	a5,s5,a5
1000fb10:	00fabab3          	sltu	s5,s5,a5
1000fb14:	40d705b3          	sub	a1,a4,a3
1000fb18:	415585b3          	sub	a1,a1,s5
1000fb1c:	013599b3          	sll	s3,a1,s3
1000fb20:	0127d7b3          	srl	a5,a5,s2
1000fb24:	00f9e533          	or	a0,s3,a5
1000fb28:	0125d5b3          	srl	a1,a1,s2
1000fb2c:	c71ff06f          	j	1000f79c <__umoddi3+0x13c>

1000fb30 <__divdf3>:
1000fb30:	fb010113          	addi	sp,sp,-80
1000fb34:	05212023          	sw	s2,64(sp)
1000fb38:	0145d913          	srli	s2,a1,0x14
1000fb3c:	04912223          	sw	s1,68(sp)
1000fb40:	03312e23          	sw	s3,60(sp)
1000fb44:	03412c23          	sw	s4,56(sp)
1000fb48:	03512a23          	sw	s5,52(sp)
1000fb4c:	03612823          	sw	s6,48(sp)
1000fb50:	00c59493          	slli	s1,a1,0xc
1000fb54:	04112623          	sw	ra,76(sp)
1000fb58:	04812423          	sw	s0,72(sp)
1000fb5c:	03712623          	sw	s7,44(sp)
1000fb60:	03812423          	sw	s8,40(sp)
1000fb64:	03912223          	sw	s9,36(sp)
1000fb68:	03a12023          	sw	s10,32(sp)
1000fb6c:	01b12e23          	sw	s11,28(sp)
1000fb70:	7ff97913          	andi	s2,s2,2047
1000fb74:	00050993          	mv	s3,a0
1000fb78:	00060b13          	mv	s6,a2
1000fb7c:	00068a93          	mv	s5,a3
1000fb80:	00c4d493          	srli	s1,s1,0xc
1000fb84:	01f5da13          	srli	s4,a1,0x1f
1000fb88:	0a090063          	beqz	s2,1000fc28 <__divdf3+0xf8>
1000fb8c:	7ff00793          	li	a5,2047
1000fb90:	0ef90e63          	beq	s2,a5,1000fc8c <__divdf3+0x15c>
1000fb94:	01d55c93          	srli	s9,a0,0x1d
1000fb98:	00349493          	slli	s1,s1,0x3
1000fb9c:	009cecb3          	or	s9,s9,s1
1000fba0:	008007b7          	lui	a5,0x800
1000fba4:	00fcecb3          	or	s9,s9,a5
1000fba8:	00351413          	slli	s0,a0,0x3
1000fbac:	c0190913          	addi	s2,s2,-1023
1000fbb0:	00000b93          	li	s7,0
1000fbb4:	014ad793          	srli	a5,s5,0x14
1000fbb8:	00ca9993          	slli	s3,s5,0xc
1000fbbc:	7ff7f793          	andi	a5,a5,2047
1000fbc0:	00c9d993          	srli	s3,s3,0xc
1000fbc4:	01fada93          	srli	s5,s5,0x1f
1000fbc8:	10078063          	beqz	a5,1000fcc8 <__divdf3+0x198>
1000fbcc:	7ff00713          	li	a4,2047
1000fbd0:	16e78063          	beq	a5,a4,1000fd30 <__divdf3+0x200>
1000fbd4:	00399993          	slli	s3,s3,0x3
1000fbd8:	01db5713          	srli	a4,s6,0x1d
1000fbdc:	01376733          	or	a4,a4,s3
1000fbe0:	008009b7          	lui	s3,0x800
1000fbe4:	013769b3          	or	s3,a4,s3
1000fbe8:	003b1813          	slli	a6,s6,0x3
1000fbec:	c0178793          	addi	a5,a5,-1023 # 7ffc01 <__heap_size+0x7fec01>
1000fbf0:	00000713          	li	a4,0
1000fbf4:	40f90933          	sub	s2,s2,a5
1000fbf8:	002b9793          	slli	a5,s7,0x2
1000fbfc:	00e7e7b3          	or	a5,a5,a4
1000fc00:	fff78793          	addi	a5,a5,-1
1000fc04:	00e00693          	li	a3,14
1000fc08:	015a44b3          	xor	s1,s4,s5
1000fc0c:	14f6ee63          	bltu	a3,a5,1000fd68 <__divdf3+0x238>
1000fc10:	100156b7          	lui	a3,0x10015
1000fc14:	00279793          	slli	a5,a5,0x2
1000fc18:	b4c68693          	addi	a3,a3,-1204 # 10014b4c <zeroes.0+0x10>
1000fc1c:	00d787b3          	add	a5,a5,a3
1000fc20:	0007a783          	lw	a5,0(a5)
1000fc24:	00078067          	jr	a5
1000fc28:	00a4ecb3          	or	s9,s1,a0
1000fc2c:	060c8e63          	beqz	s9,1000fca8 <__divdf3+0x178>
1000fc30:	04048063          	beqz	s1,1000fc70 <__divdf3+0x140>
1000fc34:	00048513          	mv	a0,s1
1000fc38:	cb4f20ef          	jal	ra,100020ec <__clzsi2>
1000fc3c:	ff550793          	addi	a5,a0,-11
1000fc40:	01c00713          	li	a4,28
1000fc44:	02f74c63          	blt	a4,a5,1000fc7c <__divdf3+0x14c>
1000fc48:	01d00c93          	li	s9,29
1000fc4c:	ff850413          	addi	s0,a0,-8
1000fc50:	40fc8cb3          	sub	s9,s9,a5
1000fc54:	008494b3          	sll	s1,s1,s0
1000fc58:	0199dcb3          	srl	s9,s3,s9
1000fc5c:	009cecb3          	or	s9,s9,s1
1000fc60:	00899433          	sll	s0,s3,s0
1000fc64:	c0d00913          	li	s2,-1011
1000fc68:	40a90933          	sub	s2,s2,a0
1000fc6c:	f45ff06f          	j	1000fbb0 <__divdf3+0x80>
1000fc70:	c7cf20ef          	jal	ra,100020ec <__clzsi2>
1000fc74:	02050513          	addi	a0,a0,32
1000fc78:	fc5ff06f          	j	1000fc3c <__divdf3+0x10c>
1000fc7c:	fd850c93          	addi	s9,a0,-40
1000fc80:	01999cb3          	sll	s9,s3,s9
1000fc84:	00000413          	li	s0,0
1000fc88:	fddff06f          	j	1000fc64 <__divdf3+0x134>
1000fc8c:	00a4ecb3          	or	s9,s1,a0
1000fc90:	020c8463          	beqz	s9,1000fcb8 <__divdf3+0x188>
1000fc94:	00050413          	mv	s0,a0
1000fc98:	00048c93          	mv	s9,s1
1000fc9c:	7ff00913          	li	s2,2047
1000fca0:	00300b93          	li	s7,3
1000fca4:	f11ff06f          	j	1000fbb4 <__divdf3+0x84>
1000fca8:	00000413          	li	s0,0
1000fcac:	00000913          	li	s2,0
1000fcb0:	00100b93          	li	s7,1
1000fcb4:	f01ff06f          	j	1000fbb4 <__divdf3+0x84>
1000fcb8:	00000413          	li	s0,0
1000fcbc:	7ff00913          	li	s2,2047
1000fcc0:	00200b93          	li	s7,2
1000fcc4:	ef1ff06f          	j	1000fbb4 <__divdf3+0x84>
1000fcc8:	0169e833          	or	a6,s3,s6
1000fccc:	06080e63          	beqz	a6,1000fd48 <__divdf3+0x218>
1000fcd0:	04098063          	beqz	s3,1000fd10 <__divdf3+0x1e0>
1000fcd4:	00098513          	mv	a0,s3
1000fcd8:	c14f20ef          	jal	ra,100020ec <__clzsi2>
1000fcdc:	ff550713          	addi	a4,a0,-11
1000fce0:	01c00793          	li	a5,28
1000fce4:	02e7ce63          	blt	a5,a4,1000fd20 <__divdf3+0x1f0>
1000fce8:	01d00793          	li	a5,29
1000fcec:	ff850813          	addi	a6,a0,-8
1000fcf0:	40e787b3          	sub	a5,a5,a4
1000fcf4:	010999b3          	sll	s3,s3,a6
1000fcf8:	00fb57b3          	srl	a5,s6,a5
1000fcfc:	0137e9b3          	or	s3,a5,s3
1000fd00:	010b1833          	sll	a6,s6,a6
1000fd04:	c0d00793          	li	a5,-1011
1000fd08:	40a787b3          	sub	a5,a5,a0
1000fd0c:	ee5ff06f          	j	1000fbf0 <__divdf3+0xc0>
1000fd10:	000b0513          	mv	a0,s6
1000fd14:	bd8f20ef          	jal	ra,100020ec <__clzsi2>
1000fd18:	02050513          	addi	a0,a0,32
1000fd1c:	fc1ff06f          	j	1000fcdc <__divdf3+0x1ac>
1000fd20:	fd850993          	addi	s3,a0,-40
1000fd24:	013b19b3          	sll	s3,s6,s3
1000fd28:	00000813          	li	a6,0
1000fd2c:	fd9ff06f          	j	1000fd04 <__divdf3+0x1d4>
1000fd30:	0169e833          	or	a6,s3,s6
1000fd34:	02080263          	beqz	a6,1000fd58 <__divdf3+0x228>
1000fd38:	000b0813          	mv	a6,s6
1000fd3c:	7ff00793          	li	a5,2047
1000fd40:	00300713          	li	a4,3
1000fd44:	eb1ff06f          	j	1000fbf4 <__divdf3+0xc4>
1000fd48:	00000993          	li	s3,0
1000fd4c:	00000793          	li	a5,0
1000fd50:	00100713          	li	a4,1
1000fd54:	ea1ff06f          	j	1000fbf4 <__divdf3+0xc4>
1000fd58:	00000993          	li	s3,0
1000fd5c:	7ff00793          	li	a5,2047
1000fd60:	00200713          	li	a4,2
1000fd64:	e91ff06f          	j	1000fbf4 <__divdf3+0xc4>
1000fd68:	0199e663          	bltu	s3,s9,1000fd74 <__divdf3+0x244>
1000fd6c:	453c9a63          	bne	s9,s3,100101c0 <__divdf3+0x690>
1000fd70:	45046863          	bltu	s0,a6,100101c0 <__divdf3+0x690>
1000fd74:	01fc9713          	slli	a4,s9,0x1f
1000fd78:	00145793          	srli	a5,s0,0x1
1000fd7c:	01f41d93          	slli	s11,s0,0x1f
1000fd80:	001cdc93          	srli	s9,s9,0x1
1000fd84:	00f76433          	or	s0,a4,a5
1000fd88:	01885a93          	srli	s5,a6,0x18
1000fd8c:	00899b93          	slli	s7,s3,0x8
1000fd90:	017aeab3          	or	s5,s5,s7
1000fd94:	010bdb93          	srli	s7,s7,0x10
1000fd98:	000b8593          	mv	a1,s7
1000fd9c:	010a9c13          	slli	s8,s5,0x10
1000fda0:	000c8513          	mv	a0,s9
1000fda4:	00881b13          	slli	s6,a6,0x8
1000fda8:	010c5c13          	srli	s8,s8,0x10
1000fdac:	03c040ef          	jal	ra,10013de8 <__udivsi3>
1000fdb0:	00050593          	mv	a1,a0
1000fdb4:	00050d13          	mv	s10,a0
1000fdb8:	000c0513          	mv	a0,s8
1000fdbc:	000040ef          	jal	ra,10013dbc <__mulsi3>
1000fdc0:	00050993          	mv	s3,a0
1000fdc4:	000b8593          	mv	a1,s7
1000fdc8:	000c8513          	mv	a0,s9
1000fdcc:	064040ef          	jal	ra,10013e30 <__umodsi3>
1000fdd0:	01051513          	slli	a0,a0,0x10
1000fdd4:	01045713          	srli	a4,s0,0x10
1000fdd8:	00a76733          	or	a4,a4,a0
1000fddc:	000d0a13          	mv	s4,s10
1000fde0:	01377e63          	bgeu	a4,s3,1000fdfc <__divdf3+0x2cc>
1000fde4:	01570733          	add	a4,a4,s5
1000fde8:	fffd0a13          	addi	s4,s10,-1
1000fdec:	01576863          	bltu	a4,s5,1000fdfc <__divdf3+0x2cc>
1000fdf0:	01377663          	bgeu	a4,s3,1000fdfc <__divdf3+0x2cc>
1000fdf4:	ffed0a13          	addi	s4,s10,-2
1000fdf8:	01570733          	add	a4,a4,s5
1000fdfc:	413709b3          	sub	s3,a4,s3
1000fe00:	000b8593          	mv	a1,s7
1000fe04:	00098513          	mv	a0,s3
1000fe08:	7e1030ef          	jal	ra,10013de8 <__udivsi3>
1000fe0c:	00050593          	mv	a1,a0
1000fe10:	00050d13          	mv	s10,a0
1000fe14:	000c0513          	mv	a0,s8
1000fe18:	7a5030ef          	jal	ra,10013dbc <__mulsi3>
1000fe1c:	00050c93          	mv	s9,a0
1000fe20:	000b8593          	mv	a1,s7
1000fe24:	00098513          	mv	a0,s3
1000fe28:	008040ef          	jal	ra,10013e30 <__umodsi3>
1000fe2c:	01041413          	slli	s0,s0,0x10
1000fe30:	01051513          	slli	a0,a0,0x10
1000fe34:	01045413          	srli	s0,s0,0x10
1000fe38:	00a46433          	or	s0,s0,a0
1000fe3c:	000d0793          	mv	a5,s10
1000fe40:	01947e63          	bgeu	s0,s9,1000fe5c <__divdf3+0x32c>
1000fe44:	01540433          	add	s0,s0,s5
1000fe48:	fffd0793          	addi	a5,s10,-1
1000fe4c:	01546863          	bltu	s0,s5,1000fe5c <__divdf3+0x32c>
1000fe50:	01947663          	bgeu	s0,s9,1000fe5c <__divdf3+0x32c>
1000fe54:	ffed0793          	addi	a5,s10,-2
1000fe58:	01540433          	add	s0,s0,s5
1000fe5c:	010a1713          	slli	a4,s4,0x10
1000fe60:	00010337          	lui	t1,0x10
1000fe64:	00f76733          	or	a4,a4,a5
1000fe68:	41940433          	sub	s0,s0,s9
1000fe6c:	fff30c93          	addi	s9,t1,-1 # ffff <__heap_size+0xefff>
1000fe70:	019777b3          	and	a5,a4,s9
1000fe74:	019b7cb3          	and	s9,s6,s9
1000fe78:	01075e13          	srli	t3,a4,0x10
1000fe7c:	010b5d13          	srli	s10,s6,0x10
1000fe80:	00078513          	mv	a0,a5
1000fe84:	000c8593          	mv	a1,s9
1000fe88:	735030ef          	jal	ra,10013dbc <__mulsi3>
1000fe8c:	00050813          	mv	a6,a0
1000fe90:	000d0593          	mv	a1,s10
1000fe94:	00078513          	mv	a0,a5
1000fe98:	725030ef          	jal	ra,10013dbc <__mulsi3>
1000fe9c:	00050793          	mv	a5,a0
1000fea0:	000c8593          	mv	a1,s9
1000fea4:	000e0513          	mv	a0,t3
1000fea8:	715030ef          	jal	ra,10013dbc <__mulsi3>
1000feac:	00050893          	mv	a7,a0
1000feb0:	000d0593          	mv	a1,s10
1000feb4:	000e0513          	mv	a0,t3
1000feb8:	705030ef          	jal	ra,10013dbc <__mulsi3>
1000febc:	01085a13          	srli	s4,a6,0x10
1000fec0:	011787b3          	add	a5,a5,a7
1000fec4:	00fa0a33          	add	s4,s4,a5
1000fec8:	00050693          	mv	a3,a0
1000fecc:	011a7463          	bgeu	s4,a7,1000fed4 <__divdf3+0x3a4>
1000fed0:	006506b3          	add	a3,a0,t1
1000fed4:	010a5793          	srli	a5,s4,0x10
1000fed8:	00d787b3          	add	a5,a5,a3
1000fedc:	000106b7          	lui	a3,0x10
1000fee0:	fff68693          	addi	a3,a3,-1 # ffff <__heap_size+0xefff>
1000fee4:	00da7a33          	and	s4,s4,a3
1000fee8:	010a1a13          	slli	s4,s4,0x10
1000feec:	00d87833          	and	a6,a6,a3
1000fef0:	010a0a33          	add	s4,s4,a6
1000fef4:	00f46863          	bltu	s0,a5,1000ff04 <__divdf3+0x3d4>
1000fef8:	00070993          	mv	s3,a4
1000fefc:	04f41463          	bne	s0,a5,1000ff44 <__divdf3+0x414>
1000ff00:	054df263          	bgeu	s11,s4,1000ff44 <__divdf3+0x414>
1000ff04:	016d8db3          	add	s11,s11,s6
1000ff08:	016db6b3          	sltu	a3,s11,s6
1000ff0c:	015686b3          	add	a3,a3,s5
1000ff10:	00d40433          	add	s0,s0,a3
1000ff14:	fff70993          	addi	s3,a4,-1 # ffffff <__heap_size+0xffefff>
1000ff18:	008ae663          	bltu	s5,s0,1000ff24 <__divdf3+0x3f4>
1000ff1c:	028a9463          	bne	s5,s0,1000ff44 <__divdf3+0x414>
1000ff20:	036de263          	bltu	s11,s6,1000ff44 <__divdf3+0x414>
1000ff24:	00f46663          	bltu	s0,a5,1000ff30 <__divdf3+0x400>
1000ff28:	00879e63          	bne	a5,s0,1000ff44 <__divdf3+0x414>
1000ff2c:	014dfc63          	bgeu	s11,s4,1000ff44 <__divdf3+0x414>
1000ff30:	016d8db3          	add	s11,s11,s6
1000ff34:	ffe70993          	addi	s3,a4,-2
1000ff38:	016db733          	sltu	a4,s11,s6
1000ff3c:	01570733          	add	a4,a4,s5
1000ff40:	00e40433          	add	s0,s0,a4
1000ff44:	414d8a33          	sub	s4,s11,s4
1000ff48:	40f40433          	sub	s0,s0,a5
1000ff4c:	014db7b3          	sltu	a5,s11,s4
1000ff50:	40f40433          	sub	s0,s0,a5
1000ff54:	fff00813          	li	a6,-1
1000ff58:	1a8a8263          	beq	s5,s0,100100fc <__divdf3+0x5cc>
1000ff5c:	000b8593          	mv	a1,s7
1000ff60:	00040513          	mv	a0,s0
1000ff64:	685030ef          	jal	ra,10013de8 <__udivsi3>
1000ff68:	00050593          	mv	a1,a0
1000ff6c:	00a12623          	sw	a0,12(sp)
1000ff70:	000c0513          	mv	a0,s8
1000ff74:	649030ef          	jal	ra,10013dbc <__mulsi3>
1000ff78:	00a12423          	sw	a0,8(sp)
1000ff7c:	000b8593          	mv	a1,s7
1000ff80:	00040513          	mv	a0,s0
1000ff84:	6ad030ef          	jal	ra,10013e30 <__umodsi3>
1000ff88:	00c12683          	lw	a3,12(sp)
1000ff8c:	00812783          	lw	a5,8(sp)
1000ff90:	01051513          	slli	a0,a0,0x10
1000ff94:	010a5713          	srli	a4,s4,0x10
1000ff98:	00a76733          	or	a4,a4,a0
1000ff9c:	00068d93          	mv	s11,a3
1000ffa0:	00f77e63          	bgeu	a4,a5,1000ffbc <__divdf3+0x48c>
1000ffa4:	01570733          	add	a4,a4,s5
1000ffa8:	fff68d93          	addi	s11,a3,-1
1000ffac:	01576863          	bltu	a4,s5,1000ffbc <__divdf3+0x48c>
1000ffb0:	00f77663          	bgeu	a4,a5,1000ffbc <__divdf3+0x48c>
1000ffb4:	ffe68d93          	addi	s11,a3,-2
1000ffb8:	01570733          	add	a4,a4,s5
1000ffbc:	40f70433          	sub	s0,a4,a5
1000ffc0:	000b8593          	mv	a1,s7
1000ffc4:	00040513          	mv	a0,s0
1000ffc8:	621030ef          	jal	ra,10013de8 <__udivsi3>
1000ffcc:	00050593          	mv	a1,a0
1000ffd0:	00a12423          	sw	a0,8(sp)
1000ffd4:	000c0513          	mv	a0,s8
1000ffd8:	5e5030ef          	jal	ra,10013dbc <__mulsi3>
1000ffdc:	00050c13          	mv	s8,a0
1000ffe0:	000b8593          	mv	a1,s7
1000ffe4:	00040513          	mv	a0,s0
1000ffe8:	649030ef          	jal	ra,10013e30 <__umodsi3>
1000ffec:	00812783          	lw	a5,8(sp)
1000fff0:	010a1713          	slli	a4,s4,0x10
1000fff4:	01051513          	slli	a0,a0,0x10
1000fff8:	01075713          	srli	a4,a4,0x10
1000fffc:	00a76733          	or	a4,a4,a0
10010000:	00078693          	mv	a3,a5
10010004:	01877e63          	bgeu	a4,s8,10010020 <__divdf3+0x4f0>
10010008:	01570733          	add	a4,a4,s5
1001000c:	fff78693          	addi	a3,a5,-1
10010010:	01576863          	bltu	a4,s5,10010020 <__divdf3+0x4f0>
10010014:	01877663          	bgeu	a4,s8,10010020 <__divdf3+0x4f0>
10010018:	ffe78693          	addi	a3,a5,-2
1001001c:	01570733          	add	a4,a4,s5
10010020:	010d9793          	slli	a5,s11,0x10
10010024:	00d7e7b3          	or	a5,a5,a3
10010028:	01079813          	slli	a6,a5,0x10
1001002c:	01085813          	srli	a6,a6,0x10
10010030:	41870733          	sub	a4,a4,s8
10010034:	0107de13          	srli	t3,a5,0x10
10010038:	00080513          	mv	a0,a6
1001003c:	000c8593          	mv	a1,s9
10010040:	57d030ef          	jal	ra,10013dbc <__mulsi3>
10010044:	00050893          	mv	a7,a0
10010048:	000d0593          	mv	a1,s10
1001004c:	00080513          	mv	a0,a6
10010050:	56d030ef          	jal	ra,10013dbc <__mulsi3>
10010054:	00050813          	mv	a6,a0
10010058:	000c8593          	mv	a1,s9
1001005c:	000e0513          	mv	a0,t3
10010060:	55d030ef          	jal	ra,10013dbc <__mulsi3>
10010064:	00050313          	mv	t1,a0
10010068:	000d0593          	mv	a1,s10
1001006c:	000e0513          	mv	a0,t3
10010070:	54d030ef          	jal	ra,10013dbc <__mulsi3>
10010074:	0108d693          	srli	a3,a7,0x10
10010078:	00680833          	add	a6,a6,t1
1001007c:	010686b3          	add	a3,a3,a6
10010080:	00050593          	mv	a1,a0
10010084:	0066f663          	bgeu	a3,t1,10010090 <__divdf3+0x560>
10010088:	00010637          	lui	a2,0x10
1001008c:	00c505b3          	add	a1,a0,a2
10010090:	0106d613          	srli	a2,a3,0x10
10010094:	00b60633          	add	a2,a2,a1
10010098:	000105b7          	lui	a1,0x10
1001009c:	fff58593          	addi	a1,a1,-1 # ffff <__heap_size+0xefff>
100100a0:	00b6f6b3          	and	a3,a3,a1
100100a4:	01069693          	slli	a3,a3,0x10
100100a8:	00b8f8b3          	and	a7,a7,a1
100100ac:	011686b3          	add	a3,a3,a7
100100b0:	00c76863          	bltu	a4,a2,100100c0 <__divdf3+0x590>
100100b4:	24c71a63          	bne	a4,a2,10010308 <__divdf3+0x7d8>
100100b8:	00078813          	mv	a6,a5
100100bc:	04068063          	beqz	a3,100100fc <__divdf3+0x5cc>
100100c0:	00ea8733          	add	a4,s5,a4
100100c4:	fff78813          	addi	a6,a5,-1
100100c8:	03576463          	bltu	a4,s5,100100f0 <__divdf3+0x5c0>
100100cc:	00c76663          	bltu	a4,a2,100100d8 <__divdf3+0x5a8>
100100d0:	22c71a63          	bne	a4,a2,10010304 <__divdf3+0x7d4>
100100d4:	02db7063          	bgeu	s6,a3,100100f4 <__divdf3+0x5c4>
100100d8:	ffe78813          	addi	a6,a5,-2
100100dc:	001b1793          	slli	a5,s6,0x1
100100e0:	0167bb33          	sltu	s6,a5,s6
100100e4:	015b0b33          	add	s6,s6,s5
100100e8:	01670733          	add	a4,a4,s6
100100ec:	00078b13          	mv	s6,a5
100100f0:	00c71463          	bne	a4,a2,100100f8 <__divdf3+0x5c8>
100100f4:	00db0463          	beq	s6,a3,100100fc <__divdf3+0x5cc>
100100f8:	00186813          	ori	a6,a6,1
100100fc:	3ff90793          	addi	a5,s2,1023
10010100:	12f05063          	blez	a5,10010220 <__divdf3+0x6f0>
10010104:	00787713          	andi	a4,a6,7
10010108:	02070063          	beqz	a4,10010128 <__divdf3+0x5f8>
1001010c:	00f87713          	andi	a4,a6,15
10010110:	00400693          	li	a3,4
10010114:	00d70a63          	beq	a4,a3,10010128 <__divdf3+0x5f8>
10010118:	00480713          	addi	a4,a6,4
1001011c:	01073833          	sltu	a6,a4,a6
10010120:	010989b3          	add	s3,s3,a6
10010124:	00070813          	mv	a6,a4
10010128:	01000737          	lui	a4,0x1000
1001012c:	00e9f733          	and	a4,s3,a4
10010130:	00070a63          	beqz	a4,10010144 <__divdf3+0x614>
10010134:	ff0007b7          	lui	a5,0xff000
10010138:	fff78793          	addi	a5,a5,-1 # feffffff <_sp+0xeefd7a93>
1001013c:	00f9f9b3          	and	s3,s3,a5
10010140:	40090793          	addi	a5,s2,1024
10010144:	7fe00713          	li	a4,2046
10010148:	0af74663          	blt	a4,a5,100101f4 <__divdf3+0x6c4>
1001014c:	00385813          	srli	a6,a6,0x3
10010150:	01d99713          	slli	a4,s3,0x1d
10010154:	01076733          	or	a4,a4,a6
10010158:	0039d593          	srli	a1,s3,0x3
1001015c:	7ff006b7          	lui	a3,0x7ff00
10010160:	01479793          	slli	a5,a5,0x14
10010164:	00c59593          	slli	a1,a1,0xc
10010168:	04c12083          	lw	ra,76(sp)
1001016c:	04812403          	lw	s0,72(sp)
10010170:	00d7f7b3          	and	a5,a5,a3
10010174:	00c5d593          	srli	a1,a1,0xc
10010178:	00b7e7b3          	or	a5,a5,a1
1001017c:	01f49493          	slli	s1,s1,0x1f
10010180:	0097e6b3          	or	a3,a5,s1
10010184:	04012903          	lw	s2,64(sp)
10010188:	04412483          	lw	s1,68(sp)
1001018c:	03c12983          	lw	s3,60(sp)
10010190:	03812a03          	lw	s4,56(sp)
10010194:	03412a83          	lw	s5,52(sp)
10010198:	03012b03          	lw	s6,48(sp)
1001019c:	02c12b83          	lw	s7,44(sp)
100101a0:	02812c03          	lw	s8,40(sp)
100101a4:	02412c83          	lw	s9,36(sp)
100101a8:	02012d03          	lw	s10,32(sp)
100101ac:	01c12d83          	lw	s11,28(sp)
100101b0:	00070513          	mv	a0,a4
100101b4:	00068593          	mv	a1,a3
100101b8:	05010113          	addi	sp,sp,80
100101bc:	00008067          	ret
100101c0:	fff90913          	addi	s2,s2,-1
100101c4:	00000d93          	li	s11,0
100101c8:	bc1ff06f          	j	1000fd88 <__divdf3+0x258>
100101cc:	000a0493          	mv	s1,s4
100101d0:	000c8993          	mv	s3,s9
100101d4:	00040813          	mv	a6,s0
100101d8:	000b8713          	mv	a4,s7
100101dc:	00300793          	li	a5,3
100101e0:	10f70063          	beq	a4,a5,100102e0 <__divdf3+0x7b0>
100101e4:	00100793          	li	a5,1
100101e8:	0ef70663          	beq	a4,a5,100102d4 <__divdf3+0x7a4>
100101ec:	00200793          	li	a5,2
100101f0:	f0f716e3          	bne	a4,a5,100100fc <__divdf3+0x5cc>
100101f4:	00000593          	li	a1,0
100101f8:	00000713          	li	a4,0
100101fc:	7ff00793          	li	a5,2047
10010200:	f5dff06f          	j	1001015c <__divdf3+0x62c>
10010204:	000a8493          	mv	s1,s5
10010208:	fd5ff06f          	j	100101dc <__divdf3+0x6ac>
1001020c:	000809b7          	lui	s3,0x80
10010210:	00000813          	li	a6,0
10010214:	00000493          	li	s1,0
10010218:	00300713          	li	a4,3
1001021c:	fc1ff06f          	j	100101dc <__divdf3+0x6ac>
10010220:	00100593          	li	a1,1
10010224:	40f585b3          	sub	a1,a1,a5
10010228:	03800713          	li	a4,56
1001022c:	0ab74463          	blt	a4,a1,100102d4 <__divdf3+0x7a4>
10010230:	01f00713          	li	a4,31
10010234:	06b74663          	blt	a4,a1,100102a0 <__divdf3+0x770>
10010238:	41e90913          	addi	s2,s2,1054
1001023c:	012997b3          	sll	a5,s3,s2
10010240:	00b85733          	srl	a4,a6,a1
10010244:	01281933          	sll	s2,a6,s2
10010248:	00e7e7b3          	or	a5,a5,a4
1001024c:	01203933          	snez	s2,s2
10010250:	0127e7b3          	or	a5,a5,s2
10010254:	00b9d5b3          	srl	a1,s3,a1
10010258:	0077f713          	andi	a4,a5,7
1001025c:	02070063          	beqz	a4,1001027c <__divdf3+0x74c>
10010260:	00f7f713          	andi	a4,a5,15
10010264:	00400693          	li	a3,4
10010268:	00d70a63          	beq	a4,a3,1001027c <__divdf3+0x74c>
1001026c:	00478713          	addi	a4,a5,4
10010270:	00f737b3          	sltu	a5,a4,a5
10010274:	00f585b3          	add	a1,a1,a5
10010278:	00070793          	mv	a5,a4
1001027c:	00800737          	lui	a4,0x800
10010280:	00e5f733          	and	a4,a1,a4
10010284:	06071863          	bnez	a4,100102f4 <__divdf3+0x7c4>
10010288:	01d59713          	slli	a4,a1,0x1d
1001028c:	0037d793          	srli	a5,a5,0x3
10010290:	00f76733          	or	a4,a4,a5
10010294:	0035d593          	srli	a1,a1,0x3
10010298:	00000793          	li	a5,0
1001029c:	ec1ff06f          	j	1001015c <__divdf3+0x62c>
100102a0:	fe100713          	li	a4,-31
100102a4:	40f707b3          	sub	a5,a4,a5
100102a8:	02000693          	li	a3,32
100102ac:	00f9d7b3          	srl	a5,s3,a5
100102b0:	00000713          	li	a4,0
100102b4:	00d58663          	beq	a1,a3,100102c0 <__divdf3+0x790>
100102b8:	43e90713          	addi	a4,s2,1086
100102bc:	00e99733          	sll	a4,s3,a4
100102c0:	01076733          	or	a4,a4,a6
100102c4:	00e03733          	snez	a4,a4
100102c8:	00e7e7b3          	or	a5,a5,a4
100102cc:	00000593          	li	a1,0
100102d0:	f89ff06f          	j	10010258 <__divdf3+0x728>
100102d4:	00000593          	li	a1,0
100102d8:	00000713          	li	a4,0
100102dc:	fbdff06f          	j	10010298 <__divdf3+0x768>
100102e0:	000805b7          	lui	a1,0x80
100102e4:	00000713          	li	a4,0
100102e8:	7ff00793          	li	a5,2047
100102ec:	00000493          	li	s1,0
100102f0:	e6dff06f          	j	1001015c <__divdf3+0x62c>
100102f4:	00000593          	li	a1,0
100102f8:	00000713          	li	a4,0
100102fc:	00100793          	li	a5,1
10010300:	e5dff06f          	j	1001015c <__divdf3+0x62c>
10010304:	00080793          	mv	a5,a6
10010308:	00078813          	mv	a6,a5
1001030c:	dedff06f          	j	100100f8 <__divdf3+0x5c8>

10010310 <__muldf3>:
10010310:	fd010113          	addi	sp,sp,-48
10010314:	01312e23          	sw	s3,28(sp)
10010318:	0145d993          	srli	s3,a1,0x14
1001031c:	02812423          	sw	s0,40(sp)
10010320:	02912223          	sw	s1,36(sp)
10010324:	01412c23          	sw	s4,24(sp)
10010328:	01512a23          	sw	s5,20(sp)
1001032c:	01712623          	sw	s7,12(sp)
10010330:	00c59493          	slli	s1,a1,0xc
10010334:	02112623          	sw	ra,44(sp)
10010338:	03212023          	sw	s2,32(sp)
1001033c:	01612823          	sw	s6,16(sp)
10010340:	7ff9f993          	andi	s3,s3,2047
10010344:	00050413          	mv	s0,a0
10010348:	00060b93          	mv	s7,a2
1001034c:	00068a13          	mv	s4,a3
10010350:	00c4d493          	srli	s1,s1,0xc
10010354:	01f5da93          	srli	s5,a1,0x1f
10010358:	3c098863          	beqz	s3,10010728 <__muldf3+0x418>
1001035c:	7ff00793          	li	a5,2047
10010360:	42f98663          	beq	s3,a5,1001078c <__muldf3+0x47c>
10010364:	00349493          	slli	s1,s1,0x3
10010368:	01d55793          	srli	a5,a0,0x1d
1001036c:	0097e7b3          	or	a5,a5,s1
10010370:	008004b7          	lui	s1,0x800
10010374:	0097e4b3          	or	s1,a5,s1
10010378:	00351913          	slli	s2,a0,0x3
1001037c:	c0198993          	addi	s3,s3,-1023 # 7fc01 <__heap_size+0x7ec01>
10010380:	00000b13          	li	s6,0
10010384:	014a5713          	srli	a4,s4,0x14
10010388:	00ca1413          	slli	s0,s4,0xc
1001038c:	7ff77713          	andi	a4,a4,2047
10010390:	00c45413          	srli	s0,s0,0xc
10010394:	01fa5a13          	srli	s4,s4,0x1f
10010398:	42070663          	beqz	a4,100107c4 <__muldf3+0x4b4>
1001039c:	7ff00793          	li	a5,2047
100103a0:	48f70663          	beq	a4,a5,1001082c <__muldf3+0x51c>
100103a4:	00341413          	slli	s0,s0,0x3
100103a8:	01dbd793          	srli	a5,s7,0x1d
100103ac:	0087e7b3          	or	a5,a5,s0
100103b0:	00800437          	lui	s0,0x800
100103b4:	0087e433          	or	s0,a5,s0
100103b8:	c0170713          	addi	a4,a4,-1023 # 7ffc01 <__heap_size+0x7fec01>
100103bc:	003b9793          	slli	a5,s7,0x3
100103c0:	00000613          	li	a2,0
100103c4:	00e989b3          	add	s3,s3,a4
100103c8:	002b1713          	slli	a4,s6,0x2
100103cc:	00c76733          	or	a4,a4,a2
100103d0:	00a00693          	li	a3,10
100103d4:	014ac833          	xor	a6,s5,s4
100103d8:	00198893          	addi	a7,s3,1
100103dc:	4ce6c863          	blt	a3,a4,100108ac <__muldf3+0x59c>
100103e0:	00200693          	li	a3,2
100103e4:	48e6c063          	blt	a3,a4,10010864 <__muldf3+0x554>
100103e8:	fff70713          	addi	a4,a4,-1
100103ec:	00100693          	li	a3,1
100103f0:	48e6fc63          	bgeu	a3,a4,10010888 <__muldf3+0x578>
100103f4:	00010a37          	lui	s4,0x10
100103f8:	fffa0393          	addi	t2,s4,-1 # ffff <__heap_size+0xefff>
100103fc:	0107d293          	srli	t0,a5,0x10
10010400:	00797e33          	and	t3,s2,t2
10010404:	0077f7b3          	and	a5,a5,t2
10010408:	01095f93          	srli	t6,s2,0x10
1001040c:	000e0513          	mv	a0,t3
10010410:	00078593          	mv	a1,a5
10010414:	1a9030ef          	jal	ra,10013dbc <__mulsi3>
10010418:	00050e93          	mv	t4,a0
1001041c:	00028593          	mv	a1,t0
10010420:	000e0513          	mv	a0,t3
10010424:	199030ef          	jal	ra,10013dbc <__mulsi3>
10010428:	00050713          	mv	a4,a0
1001042c:	00078593          	mv	a1,a5
10010430:	000f8513          	mv	a0,t6
10010434:	189030ef          	jal	ra,10013dbc <__mulsi3>
10010438:	00050913          	mv	s2,a0
1001043c:	00028593          	mv	a1,t0
10010440:	000f8513          	mv	a0,t6
10010444:	179030ef          	jal	ra,10013dbc <__mulsi3>
10010448:	010ed313          	srli	t1,t4,0x10
1001044c:	01270733          	add	a4,a4,s2
10010450:	00e30333          	add	t1,t1,a4
10010454:	00050f13          	mv	t5,a0
10010458:	01237463          	bgeu	t1,s2,10010460 <__muldf3+0x150>
1001045c:	01450f33          	add	t5,a0,s4
10010460:	01035913          	srli	s2,t1,0x10
10010464:	00737333          	and	t1,t1,t2
10010468:	007efeb3          	and	t4,t4,t2
1001046c:	01031313          	slli	t1,t1,0x10
10010470:	007473b3          	and	t2,s0,t2
10010474:	01d30333          	add	t1,t1,t4
10010478:	01045a13          	srli	s4,s0,0x10
1001047c:	000e0513          	mv	a0,t3
10010480:	00038593          	mv	a1,t2
10010484:	139030ef          	jal	ra,10013dbc <__mulsi3>
10010488:	00050e93          	mv	t4,a0
1001048c:	000a0593          	mv	a1,s4
10010490:	000e0513          	mv	a0,t3
10010494:	129030ef          	jal	ra,10013dbc <__mulsi3>
10010498:	00050e13          	mv	t3,a0
1001049c:	00038593          	mv	a1,t2
100104a0:	000f8513          	mv	a0,t6
100104a4:	119030ef          	jal	ra,10013dbc <__mulsi3>
100104a8:	00050413          	mv	s0,a0
100104ac:	000a0593          	mv	a1,s4
100104b0:	000f8513          	mv	a0,t6
100104b4:	109030ef          	jal	ra,10013dbc <__mulsi3>
100104b8:	010ed713          	srli	a4,t4,0x10
100104bc:	008e0e33          	add	t3,t3,s0
100104c0:	01c70733          	add	a4,a4,t3
100104c4:	00050693          	mv	a3,a0
100104c8:	00877663          	bgeu	a4,s0,100104d4 <__muldf3+0x1c4>
100104cc:	00010637          	lui	a2,0x10
100104d0:	00c506b3          	add	a3,a0,a2
100104d4:	00010b37          	lui	s6,0x10
100104d8:	fffb0e13          	addi	t3,s6,-1 # ffff <__heap_size+0xefff>
100104dc:	01075f93          	srli	t6,a4,0x10
100104e0:	01c77733          	and	a4,a4,t3
100104e4:	01071713          	slli	a4,a4,0x10
100104e8:	01cefeb3          	and	t4,t4,t3
100104ec:	01d70eb3          	add	t4,a4,t4
100104f0:	01c4fe33          	and	t3,s1,t3
100104f4:	00df8fb3          	add	t6,t6,a3
100104f8:	01d90933          	add	s2,s2,t4
100104fc:	0104da93          	srli	s5,s1,0x10
10010500:	000e0513          	mv	a0,t3
10010504:	00078593          	mv	a1,a5
10010508:	0b5030ef          	jal	ra,10013dbc <__mulsi3>
1001050c:	00050413          	mv	s0,a0
10010510:	00028593          	mv	a1,t0
10010514:	000e0513          	mv	a0,t3
10010518:	0a5030ef          	jal	ra,10013dbc <__mulsi3>
1001051c:	00050493          	mv	s1,a0
10010520:	00078593          	mv	a1,a5
10010524:	000a8513          	mv	a0,s5
10010528:	095030ef          	jal	ra,10013dbc <__mulsi3>
1001052c:	00050b93          	mv	s7,a0
10010530:	00028593          	mv	a1,t0
10010534:	000a8513          	mv	a0,s5
10010538:	085030ef          	jal	ra,10013dbc <__mulsi3>
1001053c:	01045793          	srli	a5,s0,0x10
10010540:	017484b3          	add	s1,s1,s7
10010544:	009787b3          	add	a5,a5,s1
10010548:	00050713          	mv	a4,a0
1001054c:	0177f463          	bgeu	a5,s7,10010554 <__muldf3+0x244>
10010550:	01650733          	add	a4,a0,s6
10010554:	000104b7          	lui	s1,0x10
10010558:	fff48693          	addi	a3,s1,-1 # ffff <__heap_size+0xefff>
1001055c:	0107d293          	srli	t0,a5,0x10
10010560:	00e282b3          	add	t0,t0,a4
10010564:	00d7f733          	and	a4,a5,a3
10010568:	00d47433          	and	s0,s0,a3
1001056c:	01071713          	slli	a4,a4,0x10
10010570:	00870733          	add	a4,a4,s0
10010574:	000e0513          	mv	a0,t3
10010578:	00038593          	mv	a1,t2
1001057c:	041030ef          	jal	ra,10013dbc <__mulsi3>
10010580:	00050413          	mv	s0,a0
10010584:	000a0593          	mv	a1,s4
10010588:	000e0513          	mv	a0,t3
1001058c:	031030ef          	jal	ra,10013dbc <__mulsi3>
10010590:	00050e13          	mv	t3,a0
10010594:	00038593          	mv	a1,t2
10010598:	000a8513          	mv	a0,s5
1001059c:	021030ef          	jal	ra,10013dbc <__mulsi3>
100105a0:	00050393          	mv	t2,a0
100105a4:	000a0593          	mv	a1,s4
100105a8:	000a8513          	mv	a0,s5
100105ac:	011030ef          	jal	ra,10013dbc <__mulsi3>
100105b0:	01045793          	srli	a5,s0,0x10
100105b4:	007e0e33          	add	t3,t3,t2
100105b8:	01c78e33          	add	t3,a5,t3
100105bc:	00050593          	mv	a1,a0
100105c0:	007e7463          	bgeu	t3,t2,100105c8 <__muldf3+0x2b8>
100105c4:	009505b3          	add	a1,a0,s1
100105c8:	000106b7          	lui	a3,0x10
100105cc:	fff68693          	addi	a3,a3,-1 # ffff <__heap_size+0xefff>
100105d0:	00de77b3          	and	a5,t3,a3
100105d4:	00d47433          	and	s0,s0,a3
100105d8:	01079793          	slli	a5,a5,0x10
100105dc:	012f0f33          	add	t5,t5,s2
100105e0:	008787b3          	add	a5,a5,s0
100105e4:	01df3eb3          	sltu	t4,t5,t4
100105e8:	01f787b3          	add	a5,a5,t6
100105ec:	01d78533          	add	a0,a5,t4
100105f0:	00ef0f33          	add	t5,t5,a4
100105f4:	00ef3733          	sltu	a4,t5,a4
100105f8:	005506b3          	add	a3,a0,t0
100105fc:	00e68633          	add	a2,a3,a4
10010600:	01f7b433          	sltu	s0,a5,t6
10010604:	01d53533          	sltu	a0,a0,t4
10010608:	010e5793          	srli	a5,t3,0x10
1001060c:	00e63733          	sltu	a4,a2,a4
10010610:	00a46433          	or	s0,s0,a0
10010614:	0056b6b3          	sltu	a3,a3,t0
10010618:	00f40433          	add	s0,s0,a5
1001061c:	00e6e6b3          	or	a3,a3,a4
10010620:	00d40433          	add	s0,s0,a3
10010624:	00b40433          	add	s0,s0,a1
10010628:	01765793          	srli	a5,a2,0x17
1001062c:	00941413          	slli	s0,s0,0x9
10010630:	00f46433          	or	s0,s0,a5
10010634:	009f1793          	slli	a5,t5,0x9
10010638:	0067e7b3          	or	a5,a5,t1
1001063c:	00f037b3          	snez	a5,a5
10010640:	017f5f13          	srli	t5,t5,0x17
10010644:	00961713          	slli	a4,a2,0x9
10010648:	01e7e7b3          	or	a5,a5,t5
1001064c:	00e7e7b3          	or	a5,a5,a4
10010650:	01000737          	lui	a4,0x1000
10010654:	00e47733          	and	a4,s0,a4
10010658:	28070663          	beqz	a4,100108e4 <__muldf3+0x5d4>
1001065c:	0017d713          	srli	a4,a5,0x1
10010660:	0017f793          	andi	a5,a5,1
10010664:	00f76733          	or	a4,a4,a5
10010668:	01f41793          	slli	a5,s0,0x1f
1001066c:	00f767b3          	or	a5,a4,a5
10010670:	00145413          	srli	s0,s0,0x1
10010674:	3ff88693          	addi	a3,a7,1023
10010678:	26d05a63          	blez	a3,100108ec <__muldf3+0x5dc>
1001067c:	0077f713          	andi	a4,a5,7
10010680:	02070063          	beqz	a4,100106a0 <__muldf3+0x390>
10010684:	00f7f713          	andi	a4,a5,15
10010688:	00400613          	li	a2,4
1001068c:	00c70a63          	beq	a4,a2,100106a0 <__muldf3+0x390>
10010690:	00478713          	addi	a4,a5,4
10010694:	00f737b3          	sltu	a5,a4,a5
10010698:	00f40433          	add	s0,s0,a5
1001069c:	00070793          	mv	a5,a4
100106a0:	01000737          	lui	a4,0x1000
100106a4:	00e47733          	and	a4,s0,a4
100106a8:	00070a63          	beqz	a4,100106bc <__muldf3+0x3ac>
100106ac:	ff000737          	lui	a4,0xff000
100106b0:	fff70713          	addi	a4,a4,-1 # feffffff <_sp+0xeefd7a93>
100106b4:	00e47433          	and	s0,s0,a4
100106b8:	40088693          	addi	a3,a7,1024
100106bc:	7fe00713          	li	a4,2046
100106c0:	2ed74e63          	blt	a4,a3,100109bc <__muldf3+0x6ac>
100106c4:	01d41713          	slli	a4,s0,0x1d
100106c8:	0037d793          	srli	a5,a5,0x3
100106cc:	00f76733          	or	a4,a4,a5
100106d0:	00345413          	srli	s0,s0,0x3
100106d4:	7ff007b7          	lui	a5,0x7ff00
100106d8:	01469693          	slli	a3,a3,0x14
100106dc:	00c41413          	slli	s0,s0,0xc
100106e0:	00f6f6b3          	and	a3,a3,a5
100106e4:	00c45413          	srli	s0,s0,0xc
100106e8:	02c12083          	lw	ra,44(sp)
100106ec:	0086e6b3          	or	a3,a3,s0
100106f0:	02812403          	lw	s0,40(sp)
100106f4:	01f81813          	slli	a6,a6,0x1f
100106f8:	0106e7b3          	or	a5,a3,a6
100106fc:	02412483          	lw	s1,36(sp)
10010700:	02012903          	lw	s2,32(sp)
10010704:	01c12983          	lw	s3,28(sp)
10010708:	01812a03          	lw	s4,24(sp)
1001070c:	01412a83          	lw	s5,20(sp)
10010710:	01012b03          	lw	s6,16(sp)
10010714:	00c12b83          	lw	s7,12(sp)
10010718:	00070513          	mv	a0,a4
1001071c:	00078593          	mv	a1,a5
10010720:	03010113          	addi	sp,sp,48
10010724:	00008067          	ret
10010728:	00a4e933          	or	s2,s1,a0
1001072c:	06090c63          	beqz	s2,100107a4 <__muldf3+0x494>
10010730:	04048063          	beqz	s1,10010770 <__muldf3+0x460>
10010734:	00048513          	mv	a0,s1
10010738:	9b5f10ef          	jal	ra,100020ec <__clzsi2>
1001073c:	ff550713          	addi	a4,a0,-11
10010740:	01c00793          	li	a5,28
10010744:	02e7cc63          	blt	a5,a4,1001077c <__muldf3+0x46c>
10010748:	01d00793          	li	a5,29
1001074c:	ff850913          	addi	s2,a0,-8
10010750:	40e787b3          	sub	a5,a5,a4
10010754:	012494b3          	sll	s1,s1,s2
10010758:	00f457b3          	srl	a5,s0,a5
1001075c:	0097e4b3          	or	s1,a5,s1
10010760:	01241933          	sll	s2,s0,s2
10010764:	c0d00993          	li	s3,-1011
10010768:	40a989b3          	sub	s3,s3,a0
1001076c:	c15ff06f          	j	10010380 <__muldf3+0x70>
10010770:	97df10ef          	jal	ra,100020ec <__clzsi2>
10010774:	02050513          	addi	a0,a0,32
10010778:	fc5ff06f          	j	1001073c <__muldf3+0x42c>
1001077c:	fd850493          	addi	s1,a0,-40
10010780:	009414b3          	sll	s1,s0,s1
10010784:	00000913          	li	s2,0
10010788:	fddff06f          	j	10010764 <__muldf3+0x454>
1001078c:	00a4e933          	or	s2,s1,a0
10010790:	02090263          	beqz	s2,100107b4 <__muldf3+0x4a4>
10010794:	00050913          	mv	s2,a0
10010798:	7ff00993          	li	s3,2047
1001079c:	00300b13          	li	s6,3
100107a0:	be5ff06f          	j	10010384 <__muldf3+0x74>
100107a4:	00000493          	li	s1,0
100107a8:	00000993          	li	s3,0
100107ac:	00100b13          	li	s6,1
100107b0:	bd5ff06f          	j	10010384 <__muldf3+0x74>
100107b4:	00000493          	li	s1,0
100107b8:	7ff00993          	li	s3,2047
100107bc:	00200b13          	li	s6,2
100107c0:	bc5ff06f          	j	10010384 <__muldf3+0x74>
100107c4:	017467b3          	or	a5,s0,s7
100107c8:	06078e63          	beqz	a5,10010844 <__muldf3+0x534>
100107cc:	04040063          	beqz	s0,1001080c <__muldf3+0x4fc>
100107d0:	00040513          	mv	a0,s0
100107d4:	919f10ef          	jal	ra,100020ec <__clzsi2>
100107d8:	ff550693          	addi	a3,a0,-11
100107dc:	01c00793          	li	a5,28
100107e0:	02d7ce63          	blt	a5,a3,1001081c <__muldf3+0x50c>
100107e4:	01d00713          	li	a4,29
100107e8:	ff850793          	addi	a5,a0,-8
100107ec:	40d70733          	sub	a4,a4,a3
100107f0:	00f41433          	sll	s0,s0,a5
100107f4:	00ebd733          	srl	a4,s7,a4
100107f8:	00876433          	or	s0,a4,s0
100107fc:	00fb97b3          	sll	a5,s7,a5
10010800:	c0d00713          	li	a4,-1011
10010804:	40a70733          	sub	a4,a4,a0
10010808:	bb9ff06f          	j	100103c0 <__muldf3+0xb0>
1001080c:	000b8513          	mv	a0,s7
10010810:	8ddf10ef          	jal	ra,100020ec <__clzsi2>
10010814:	02050513          	addi	a0,a0,32
10010818:	fc1ff06f          	j	100107d8 <__muldf3+0x4c8>
1001081c:	fd850413          	addi	s0,a0,-40
10010820:	008b9433          	sll	s0,s7,s0
10010824:	00000793          	li	a5,0
10010828:	fd9ff06f          	j	10010800 <__muldf3+0x4f0>
1001082c:	017467b3          	or	a5,s0,s7
10010830:	02078263          	beqz	a5,10010854 <__muldf3+0x544>
10010834:	000b8793          	mv	a5,s7
10010838:	7ff00713          	li	a4,2047
1001083c:	00300613          	li	a2,3
10010840:	b85ff06f          	j	100103c4 <__muldf3+0xb4>
10010844:	00000413          	li	s0,0
10010848:	00000713          	li	a4,0
1001084c:	00100613          	li	a2,1
10010850:	b75ff06f          	j	100103c4 <__muldf3+0xb4>
10010854:	00000413          	li	s0,0
10010858:	7ff00713          	li	a4,2047
1001085c:	00200613          	li	a2,2
10010860:	b65ff06f          	j	100103c4 <__muldf3+0xb4>
10010864:	00100693          	li	a3,1
10010868:	00e696b3          	sll	a3,a3,a4
1001086c:	5306f713          	andi	a4,a3,1328
10010870:	04071863          	bnez	a4,100108c0 <__muldf3+0x5b0>
10010874:	2406f593          	andi	a1,a3,576
10010878:	12059463          	bnez	a1,100109a0 <__muldf3+0x690>
1001087c:	0886f693          	andi	a3,a3,136
10010880:	b6068ae3          	beqz	a3,100103f4 <__muldf3+0xe4>
10010884:	000a0813          	mv	a6,s4
10010888:	00200713          	li	a4,2
1001088c:	12e60863          	beq	a2,a4,100109bc <__muldf3+0x6ac>
10010890:	00300713          	li	a4,3
10010894:	10e60e63          	beq	a2,a4,100109b0 <__muldf3+0x6a0>
10010898:	00100713          	li	a4,1
1001089c:	dce61ce3          	bne	a2,a4,10010674 <__muldf3+0x364>
100108a0:	00000413          	li	s0,0
100108a4:	00000713          	li	a4,0
100108a8:	0bc0006f          	j	10010964 <__muldf3+0x654>
100108ac:	00f00693          	li	a3,15
100108b0:	02d70063          	beq	a4,a3,100108d0 <__muldf3+0x5c0>
100108b4:	00b00693          	li	a3,11
100108b8:	fcd706e3          	beq	a4,a3,10010884 <__muldf3+0x574>
100108bc:	000a8813          	mv	a6,s5
100108c0:	00048413          	mv	s0,s1
100108c4:	00090793          	mv	a5,s2
100108c8:	000b0613          	mv	a2,s6
100108cc:	fbdff06f          	j	10010888 <__muldf3+0x578>
100108d0:	00080437          	lui	s0,0x80
100108d4:	00000793          	li	a5,0
100108d8:	00000813          	li	a6,0
100108dc:	00300613          	li	a2,3
100108e0:	fb1ff06f          	j	10010890 <__muldf3+0x580>
100108e4:	00098893          	mv	a7,s3
100108e8:	d8dff06f          	j	10010674 <__muldf3+0x364>
100108ec:	00100613          	li	a2,1
100108f0:	40d60633          	sub	a2,a2,a3
100108f4:	03800713          	li	a4,56
100108f8:	fac744e3          	blt	a4,a2,100108a0 <__muldf3+0x590>
100108fc:	01f00713          	li	a4,31
10010900:	06c74663          	blt	a4,a2,1001096c <__muldf3+0x65c>
10010904:	41e88893          	addi	a7,a7,1054
10010908:	01141733          	sll	a4,s0,a7
1001090c:	00c7d6b3          	srl	a3,a5,a2
10010910:	011798b3          	sll	a7,a5,a7
10010914:	00d76733          	or	a4,a4,a3
10010918:	011038b3          	snez	a7,a7
1001091c:	011767b3          	or	a5,a4,a7
10010920:	00c45433          	srl	s0,s0,a2
10010924:	0077f713          	andi	a4,a5,7
10010928:	02070063          	beqz	a4,10010948 <__muldf3+0x638>
1001092c:	00f7f713          	andi	a4,a5,15
10010930:	00400693          	li	a3,4
10010934:	00d70a63          	beq	a4,a3,10010948 <__muldf3+0x638>
10010938:	00478713          	addi	a4,a5,4 # 7ff00004 <_sp+0x6fed7a98>
1001093c:	00f737b3          	sltu	a5,a4,a5
10010940:	00f40433          	add	s0,s0,a5
10010944:	00070793          	mv	a5,a4
10010948:	00800737          	lui	a4,0x800
1001094c:	00e47733          	and	a4,s0,a4
10010950:	06071e63          	bnez	a4,100109cc <__muldf3+0x6bc>
10010954:	01d41713          	slli	a4,s0,0x1d
10010958:	0037d793          	srli	a5,a5,0x3
1001095c:	00f76733          	or	a4,a4,a5
10010960:	00345413          	srli	s0,s0,0x3
10010964:	00000693          	li	a3,0
10010968:	d6dff06f          	j	100106d4 <__muldf3+0x3c4>
1001096c:	fe100713          	li	a4,-31
10010970:	40d70733          	sub	a4,a4,a3
10010974:	02000593          	li	a1,32
10010978:	00e45733          	srl	a4,s0,a4
1001097c:	00000693          	li	a3,0
10010980:	00b60663          	beq	a2,a1,1001098c <__muldf3+0x67c>
10010984:	43e88893          	addi	a7,a7,1086
10010988:	011416b3          	sll	a3,s0,a7
1001098c:	00f6e6b3          	or	a3,a3,a5
10010990:	00d036b3          	snez	a3,a3
10010994:	00d767b3          	or	a5,a4,a3
10010998:	00000413          	li	s0,0
1001099c:	f89ff06f          	j	10010924 <__muldf3+0x614>
100109a0:	00080437          	lui	s0,0x80
100109a4:	7ff00693          	li	a3,2047
100109a8:	00000813          	li	a6,0
100109ac:	d29ff06f          	j	100106d4 <__muldf3+0x3c4>
100109b0:	00080437          	lui	s0,0x80
100109b4:	00000713          	li	a4,0
100109b8:	fedff06f          	j	100109a4 <__muldf3+0x694>
100109bc:	00000413          	li	s0,0
100109c0:	00000713          	li	a4,0
100109c4:	7ff00693          	li	a3,2047
100109c8:	d0dff06f          	j	100106d4 <__muldf3+0x3c4>
100109cc:	00000413          	li	s0,0
100109d0:	00000713          	li	a4,0
100109d4:	00100693          	li	a3,1
100109d8:	cfdff06f          	j	100106d4 <__muldf3+0x3c4>

100109dc <__eqtf2>:
100109dc:	00c52783          	lw	a5,12(a0)
100109e0:	0005af03          	lw	t5,0(a1) # 80000 <__heap_size+0x7f000>
100109e4:	0045af83          	lw	t6,4(a1)
100109e8:	0085a283          	lw	t0,8(a1)
100109ec:	00c5a583          	lw	a1,12(a1)
100109f0:	00008737          	lui	a4,0x8
100109f4:	0107d693          	srli	a3,a5,0x10
100109f8:	fff70713          	addi	a4,a4,-1 # 7fff <__heap_size+0x6fff>
100109fc:	01079813          	slli	a6,a5,0x10
10010a00:	01059e93          	slli	t4,a1,0x10
10010a04:	01f7d613          	srli	a2,a5,0x1f
10010a08:	00e6f6b3          	and	a3,a3,a4
10010a0c:	0105d793          	srli	a5,a1,0x10
10010a10:	00052883          	lw	a7,0(a0)
10010a14:	00452303          	lw	t1,4(a0)
10010a18:	00852e03          	lw	t3,8(a0)
10010a1c:	ff010113          	addi	sp,sp,-16
10010a20:	01085813          	srli	a6,a6,0x10
10010a24:	010ede93          	srli	t4,t4,0x10
10010a28:	00e7f7b3          	and	a5,a5,a4
10010a2c:	01f5d593          	srli	a1,a1,0x1f
10010a30:	02e69063          	bne	a3,a4,10010a50 <__eqtf2+0x74>
10010a34:	0068e733          	or	a4,a7,t1
10010a38:	01c76733          	or	a4,a4,t3
10010a3c:	01076733          	or	a4,a4,a6
10010a40:	00100513          	li	a0,1
10010a44:	04071a63          	bnez	a4,10010a98 <__eqtf2+0xbc>
10010a48:	04d79863          	bne	a5,a3,10010a98 <__eqtf2+0xbc>
10010a4c:	0080006f          	j	10010a54 <__eqtf2+0x78>
10010a50:	00e79c63          	bne	a5,a4,10010a68 <__eqtf2+0x8c>
10010a54:	01ff6733          	or	a4,t5,t6
10010a58:	00576733          	or	a4,a4,t0
10010a5c:	01d76733          	or	a4,a4,t4
10010a60:	00100513          	li	a0,1
10010a64:	02071a63          	bnez	a4,10010a98 <__eqtf2+0xbc>
10010a68:	00100513          	li	a0,1
10010a6c:	02d79663          	bne	a5,a3,10010a98 <__eqtf2+0xbc>
10010a70:	03e89463          	bne	a7,t5,10010a98 <__eqtf2+0xbc>
10010a74:	03f31263          	bne	t1,t6,10010a98 <__eqtf2+0xbc>
10010a78:	025e1063          	bne	t3,t0,10010a98 <__eqtf2+0xbc>
10010a7c:	01d81e63          	bne	a6,t4,10010a98 <__eqtf2+0xbc>
10010a80:	02b60063          	beq	a2,a1,10010aa0 <__eqtf2+0xc4>
10010a84:	00079a63          	bnez	a5,10010a98 <__eqtf2+0xbc>
10010a88:	0068e533          	or	a0,a7,t1
10010a8c:	01c56533          	or	a0,a0,t3
10010a90:	01056533          	or	a0,a0,a6
10010a94:	00a03533          	snez	a0,a0
10010a98:	01010113          	addi	sp,sp,16
10010a9c:	00008067          	ret
10010aa0:	00000513          	li	a0,0
10010aa4:	ff5ff06f          	j	10010a98 <__eqtf2+0xbc>

10010aa8 <__getf2>:
10010aa8:	00052f83          	lw	t6,0(a0)
10010aac:	00452803          	lw	a6,4(a0)
10010ab0:	00852e03          	lw	t3,8(a0)
10010ab4:	00c52503          	lw	a0,12(a0)
10010ab8:	00c5a683          	lw	a3,12(a1)
10010abc:	000087b7          	lui	a5,0x8
10010ac0:	01055613          	srli	a2,a0,0x10
10010ac4:	fff78793          	addi	a5,a5,-1 # 7fff <__heap_size+0x6fff>
10010ac8:	01069313          	slli	t1,a3,0x10
10010acc:	0106d713          	srli	a4,a3,0x10
10010ad0:	0005a283          	lw	t0,0(a1)
10010ad4:	0045a883          	lw	a7,4(a1)
10010ad8:	0085ae83          	lw	t4,8(a1)
10010adc:	00f67633          	and	a2,a2,a5
10010ae0:	01051593          	slli	a1,a0,0x10
10010ae4:	ff010113          	addi	sp,sp,-16
10010ae8:	0105d593          	srli	a1,a1,0x10
10010aec:	01f55513          	srli	a0,a0,0x1f
10010af0:	01035313          	srli	t1,t1,0x10
10010af4:	00f77733          	and	a4,a4,a5
10010af8:	01f6d693          	srli	a3,a3,0x1f
10010afc:	00f61e63          	bne	a2,a5,10010b18 <__getf2+0x70>
10010b00:	01f867b3          	or	a5,a6,t6
10010b04:	01c7e7b3          	or	a5,a5,t3
10010b08:	00b7e7b3          	or	a5,a5,a1
10010b0c:	0c078863          	beqz	a5,10010bdc <__getf2+0x134>
10010b10:	ffe00513          	li	a0,-2
10010b14:	0640006f          	j	10010b78 <__getf2+0xd0>
10010b18:	00f71a63          	bne	a4,a5,10010b2c <__getf2+0x84>
10010b1c:	0112e7b3          	or	a5,t0,a7
10010b20:	01d7e7b3          	or	a5,a5,t4
10010b24:	0067e7b3          	or	a5,a5,t1
10010b28:	fe0794e3          	bnez	a5,10010b10 <__getf2+0x68>
10010b2c:	0a061a63          	bnez	a2,10010be0 <__getf2+0x138>
10010b30:	01f867b3          	or	a5,a6,t6
10010b34:	01c7e7b3          	or	a5,a5,t3
10010b38:	00b7e7b3          	or	a5,a5,a1
10010b3c:	0017b793          	seqz	a5,a5
10010b40:	00071a63          	bnez	a4,10010b54 <__getf2+0xac>
10010b44:	0112ef33          	or	t5,t0,a7
10010b48:	01df6f33          	or	t5,t5,t4
10010b4c:	006f6f33          	or	t5,t5,t1
10010b50:	060f0a63          	beqz	t5,10010bc4 <__getf2+0x11c>
10010b54:	00079c63          	bnez	a5,10010b6c <__getf2+0xc4>
10010b58:	00a69463          	bne	a3,a0,10010b60 <__getf2+0xb8>
10010b5c:	02c75263          	bge	a4,a2,10010b80 <__getf2+0xd8>
10010b60:	04050e63          	beqz	a0,10010bbc <__getf2+0x114>
10010b64:	fff00513          	li	a0,-1
10010b68:	0100006f          	j	10010b78 <__getf2+0xd0>
10010b6c:	fff00513          	li	a0,-1
10010b70:	00068463          	beqz	a3,10010b78 <__getf2+0xd0>
10010b74:	00068513          	mv	a0,a3
10010b78:	01010113          	addi	sp,sp,16
10010b7c:	00008067          	ret
10010b80:	00e65663          	bge	a2,a4,10010b8c <__getf2+0xe4>
10010b84:	fe051ae3          	bnez	a0,10010b78 <__getf2+0xd0>
10010b88:	fddff06f          	j	10010b64 <__getf2+0xbc>
10010b8c:	fcb36ae3          	bltu	t1,a1,10010b60 <__getf2+0xb8>
10010b90:	02659e63          	bne	a1,t1,10010bcc <__getf2+0x124>
10010b94:	fdcee6e3          	bltu	t4,t3,10010b60 <__getf2+0xb8>
10010b98:	03de1e63          	bne	t3,t4,10010bd4 <__getf2+0x12c>
10010b9c:	fd08e2e3          	bltu	a7,a6,10010b60 <__getf2+0xb8>
10010ba0:	01181463          	bne	a6,a7,10010ba8 <__getf2+0x100>
10010ba4:	fbf2eee3          	bltu	t0,t6,10010b60 <__getf2+0xb8>
10010ba8:	fd186ee3          	bltu	a6,a7,10010b84 <__getf2+0xdc>
10010bac:	01181463          	bne	a6,a7,10010bb4 <__getf2+0x10c>
10010bb0:	fc5feae3          	bltu	t6,t0,10010b84 <__getf2+0xdc>
10010bb4:	00000513          	li	a0,0
10010bb8:	fc1ff06f          	j	10010b78 <__getf2+0xd0>
10010bbc:	00100513          	li	a0,1
10010bc0:	fb9ff06f          	j	10010b78 <__getf2+0xd0>
10010bc4:	fe0798e3          	bnez	a5,10010bb4 <__getf2+0x10c>
10010bc8:	f99ff06f          	j	10010b60 <__getf2+0xb8>
10010bcc:	fa65ece3          	bltu	a1,t1,10010b84 <__getf2+0xdc>
10010bd0:	fe5ff06f          	j	10010bb4 <__getf2+0x10c>
10010bd4:	fbde68e3          	bltu	t3,t4,10010b84 <__getf2+0xdc>
10010bd8:	fddff06f          	j	10010bb4 <__getf2+0x10c>
10010bdc:	f4c700e3          	beq	a4,a2,10010b1c <__getf2+0x74>
10010be0:	f6071ce3          	bnez	a4,10010b58 <__getf2+0xb0>
10010be4:	00000793          	li	a5,0
10010be8:	f5dff06f          	j	10010b44 <__getf2+0x9c>

10010bec <__letf2>:
10010bec:	00052f83          	lw	t6,0(a0)
10010bf0:	00452803          	lw	a6,4(a0)
10010bf4:	00852e03          	lw	t3,8(a0)
10010bf8:	00c52503          	lw	a0,12(a0)
10010bfc:	00c5a683          	lw	a3,12(a1)
10010c00:	000087b7          	lui	a5,0x8
10010c04:	01055613          	srli	a2,a0,0x10
10010c08:	fff78793          	addi	a5,a5,-1 # 7fff <__heap_size+0x6fff>
10010c0c:	01069313          	slli	t1,a3,0x10
10010c10:	0106d713          	srli	a4,a3,0x10
10010c14:	0005a283          	lw	t0,0(a1)
10010c18:	0045a883          	lw	a7,4(a1)
10010c1c:	0085ae83          	lw	t4,8(a1)
10010c20:	00f67633          	and	a2,a2,a5
10010c24:	01051593          	slli	a1,a0,0x10
10010c28:	ff010113          	addi	sp,sp,-16
10010c2c:	0105d593          	srli	a1,a1,0x10
10010c30:	01f55513          	srli	a0,a0,0x1f
10010c34:	01035313          	srli	t1,t1,0x10
10010c38:	00f77733          	and	a4,a4,a5
10010c3c:	01f6d693          	srli	a3,a3,0x1f
10010c40:	00f61e63          	bne	a2,a5,10010c5c <__letf2+0x70>
10010c44:	01f867b3          	or	a5,a6,t6
10010c48:	01c7e7b3          	or	a5,a5,t3
10010c4c:	00b7e7b3          	or	a5,a5,a1
10010c50:	0c078863          	beqz	a5,10010d20 <__letf2+0x134>
10010c54:	00200513          	li	a0,2
10010c58:	0640006f          	j	10010cbc <__letf2+0xd0>
10010c5c:	00f71a63          	bne	a4,a5,10010c70 <__letf2+0x84>
10010c60:	0112e7b3          	or	a5,t0,a7
10010c64:	01d7e7b3          	or	a5,a5,t4
10010c68:	0067e7b3          	or	a5,a5,t1
10010c6c:	fe0794e3          	bnez	a5,10010c54 <__letf2+0x68>
10010c70:	0a061a63          	bnez	a2,10010d24 <__letf2+0x138>
10010c74:	01f867b3          	or	a5,a6,t6
10010c78:	01c7e7b3          	or	a5,a5,t3
10010c7c:	00b7e7b3          	or	a5,a5,a1
10010c80:	0017b793          	seqz	a5,a5
10010c84:	00071a63          	bnez	a4,10010c98 <__letf2+0xac>
10010c88:	0112ef33          	or	t5,t0,a7
10010c8c:	01df6f33          	or	t5,t5,t4
10010c90:	006f6f33          	or	t5,t5,t1
10010c94:	060f0a63          	beqz	t5,10010d08 <__letf2+0x11c>
10010c98:	00079c63          	bnez	a5,10010cb0 <__letf2+0xc4>
10010c9c:	00a69463          	bne	a3,a0,10010ca4 <__letf2+0xb8>
10010ca0:	02c75263          	bge	a4,a2,10010cc4 <__letf2+0xd8>
10010ca4:	04050e63          	beqz	a0,10010d00 <__letf2+0x114>
10010ca8:	fff00513          	li	a0,-1
10010cac:	0100006f          	j	10010cbc <__letf2+0xd0>
10010cb0:	fff00513          	li	a0,-1
10010cb4:	00068463          	beqz	a3,10010cbc <__letf2+0xd0>
10010cb8:	00068513          	mv	a0,a3
10010cbc:	01010113          	addi	sp,sp,16
10010cc0:	00008067          	ret
10010cc4:	00e65663          	bge	a2,a4,10010cd0 <__letf2+0xe4>
10010cc8:	fe051ae3          	bnez	a0,10010cbc <__letf2+0xd0>
10010ccc:	fddff06f          	j	10010ca8 <__letf2+0xbc>
10010cd0:	fcb36ae3          	bltu	t1,a1,10010ca4 <__letf2+0xb8>
10010cd4:	02659e63          	bne	a1,t1,10010d10 <__letf2+0x124>
10010cd8:	fdcee6e3          	bltu	t4,t3,10010ca4 <__letf2+0xb8>
10010cdc:	03de1e63          	bne	t3,t4,10010d18 <__letf2+0x12c>
10010ce0:	fd08e2e3          	bltu	a7,a6,10010ca4 <__letf2+0xb8>
10010ce4:	01181463          	bne	a6,a7,10010cec <__letf2+0x100>
10010ce8:	fbf2eee3          	bltu	t0,t6,10010ca4 <__letf2+0xb8>
10010cec:	fd186ee3          	bltu	a6,a7,10010cc8 <__letf2+0xdc>
10010cf0:	01181463          	bne	a6,a7,10010cf8 <__letf2+0x10c>
10010cf4:	fc5feae3          	bltu	t6,t0,10010cc8 <__letf2+0xdc>
10010cf8:	00000513          	li	a0,0
10010cfc:	fc1ff06f          	j	10010cbc <__letf2+0xd0>
10010d00:	00100513          	li	a0,1
10010d04:	fb9ff06f          	j	10010cbc <__letf2+0xd0>
10010d08:	fe0798e3          	bnez	a5,10010cf8 <__letf2+0x10c>
10010d0c:	f99ff06f          	j	10010ca4 <__letf2+0xb8>
10010d10:	fa65ece3          	bltu	a1,t1,10010cc8 <__letf2+0xdc>
10010d14:	fe5ff06f          	j	10010cf8 <__letf2+0x10c>
10010d18:	fbde68e3          	bltu	t3,t4,10010cc8 <__letf2+0xdc>
10010d1c:	fddff06f          	j	10010cf8 <__letf2+0x10c>
10010d20:	f4c700e3          	beq	a4,a2,10010c60 <__letf2+0x74>
10010d24:	f6071ce3          	bnez	a4,10010c9c <__letf2+0xb0>
10010d28:	00000793          	li	a5,0
10010d2c:	f5dff06f          	j	10010c88 <__letf2+0x9c>

10010d30 <__multf3>:
10010d30:	f6010113          	addi	sp,sp,-160
10010d34:	09312623          	sw	s3,140(sp)
10010d38:	00c5a983          	lw	s3,12(a1)
10010d3c:	0005a783          	lw	a5,0(a1)
10010d40:	0085a683          	lw	a3,8(a1)
10010d44:	08912a23          	sw	s1,148(sp)
10010d48:	00050493          	mv	s1,a0
10010d4c:	0045a503          	lw	a0,4(a1)
10010d50:	01099713          	slli	a4,s3,0x10
10010d54:	09412423          	sw	s4,136(sp)
10010d58:	09512223          	sw	s5,132(sp)
10010d5c:	00c62a03          	lw	s4,12(a2) # 1000c <__heap_size+0xf00c>
10010d60:	00062a83          	lw	s5,0(a2)
10010d64:	09612023          	sw	s6,128(sp)
10010d68:	07712e23          	sw	s7,124(sp)
10010d6c:	00862b03          	lw	s6,8(a2)
10010d70:	00462b83          	lw	s7,4(a2)
10010d74:	00008637          	lui	a2,0x8
10010d78:	09212823          	sw	s2,144(sp)
10010d7c:	01075713          	srli	a4,a4,0x10
10010d80:	0109d913          	srli	s2,s3,0x10
10010d84:	fff60613          	addi	a2,a2,-1 # 7fff <__heap_size+0x6fff>
10010d88:	05312623          	sw	s3,76(sp)
10010d8c:	08112e23          	sw	ra,156(sp)
10010d90:	08812c23          	sw	s0,152(sp)
10010d94:	07812c23          	sw	s8,120(sp)
10010d98:	07912a23          	sw	s9,116(sp)
10010d9c:	07a12823          	sw	s10,112(sp)
10010da0:	07b12623          	sw	s11,108(sp)
10010da4:	04f12023          	sw	a5,64(sp)
10010da8:	04a12223          	sw	a0,68(sp)
10010dac:	04d12423          	sw	a3,72(sp)
10010db0:	00f12823          	sw	a5,16(sp)
10010db4:	00a12a23          	sw	a0,20(sp)
10010db8:	00d12c23          	sw	a3,24(sp)
10010dbc:	00e12e23          	sw	a4,28(sp)
10010dc0:	00c97933          	and	s2,s2,a2
10010dc4:	01f9d993          	srli	s3,s3,0x1f
10010dc8:	580906e3          	beqz	s2,10011b54 <__multf3+0xe24>
10010dcc:	6ac902e3          	beq	s2,a2,10011c70 <__multf3+0xf40>
10010dd0:	000107b7          	lui	a5,0x10
10010dd4:	00f76733          	or	a4,a4,a5
10010dd8:	00e12e23          	sw	a4,28(sp)
10010ddc:	01010613          	addi	a2,sp,16
10010de0:	01c10793          	addi	a5,sp,28
10010de4:	0007a703          	lw	a4,0(a5) # 10000 <__heap_size+0xf000>
10010de8:	ffc7a683          	lw	a3,-4(a5)
10010dec:	ffc78793          	addi	a5,a5,-4
10010df0:	00371713          	slli	a4,a4,0x3
10010df4:	01d6d693          	srli	a3,a3,0x1d
10010df8:	00d76733          	or	a4,a4,a3
10010dfc:	00e7a223          	sw	a4,4(a5)
10010e00:	fef612e3          	bne	a2,a5,10010de4 <__multf3+0xb4>
10010e04:	01012783          	lw	a5,16(sp)
10010e08:	00379793          	slli	a5,a5,0x3
10010e0c:	00f12823          	sw	a5,16(sp)
10010e10:	ffffc7b7          	lui	a5,0xffffc
10010e14:	00178793          	addi	a5,a5,1 # ffffc001 <_sp+0xeffd3a95>
10010e18:	00f90933          	add	s2,s2,a5
10010e1c:	00000c13          	li	s8,0
10010e20:	010a1513          	slli	a0,s4,0x10
10010e24:	00008737          	lui	a4,0x8
10010e28:	010a5793          	srli	a5,s4,0x10
10010e2c:	01055513          	srli	a0,a0,0x10
10010e30:	fff70713          	addi	a4,a4,-1 # 7fff <__heap_size+0x6fff>
10010e34:	05412623          	sw	s4,76(sp)
10010e38:	05512023          	sw	s5,64(sp)
10010e3c:	05712223          	sw	s7,68(sp)
10010e40:	05612423          	sw	s6,72(sp)
10010e44:	03512023          	sw	s5,32(sp)
10010e48:	03712223          	sw	s7,36(sp)
10010e4c:	03612423          	sw	s6,40(sp)
10010e50:	02a12623          	sw	a0,44(sp)
10010e54:	00e7f7b3          	and	a5,a5,a4
10010e58:	01fa5a13          	srli	s4,s4,0x1f
10010e5c:	62078ee3          	beqz	a5,10011c98 <__multf3+0xf68>
10010e60:	00e79463          	bne	a5,a4,10010e68 <__multf3+0x138>
10010e64:	7510006f          	j	10011db4 <__multf3+0x1084>
10010e68:	00010737          	lui	a4,0x10
10010e6c:	00e56533          	or	a0,a0,a4
10010e70:	02a12623          	sw	a0,44(sp)
10010e74:	02010593          	addi	a1,sp,32
10010e78:	02c10713          	addi	a4,sp,44
10010e7c:	00072683          	lw	a3,0(a4) # 10000 <__heap_size+0xf000>
10010e80:	ffc72603          	lw	a2,-4(a4)
10010e84:	ffc70713          	addi	a4,a4,-4
10010e88:	00369693          	slli	a3,a3,0x3
10010e8c:	01d65613          	srli	a2,a2,0x1d
10010e90:	00c6e6b3          	or	a3,a3,a2
10010e94:	00d72223          	sw	a3,4(a4)
10010e98:	fee592e3          	bne	a1,a4,10010e7c <__multf3+0x14c>
10010e9c:	02012703          	lw	a4,32(sp)
10010ea0:	00371713          	slli	a4,a4,0x3
10010ea4:	02e12023          	sw	a4,32(sp)
10010ea8:	ffffc737          	lui	a4,0xffffc
10010eac:	00170713          	addi	a4,a4,1 # ffffc001 <_sp+0xeffd3a95>
10010eb0:	00e787b3          	add	a5,a5,a4
10010eb4:	00000693          	li	a3,0
10010eb8:	012787b3          	add	a5,a5,s2
10010ebc:	00f12423          	sw	a5,8(sp)
10010ec0:	00178c93          	addi	s9,a5,1
10010ec4:	002c1793          	slli	a5,s8,0x2
10010ec8:	00d7e7b3          	or	a5,a5,a3
10010ecc:	00a00713          	li	a4,10
10010ed0:	0149c433          	xor	s0,s3,s4
10010ed4:	00f75463          	bge	a4,a5,10010edc <__multf3+0x1ac>
10010ed8:	74d0006f          	j	10011e24 <__multf3+0x10f4>
10010edc:	00200713          	li	a4,2
10010ee0:	00f75463          	bge	a4,a5,10010ee8 <__multf3+0x1b8>
10010ee4:	6fd0006f          	j	10011de0 <__multf3+0x10b0>
10010ee8:	fff78793          	addi	a5,a5,-1
10010eec:	00100713          	li	a4,1
10010ef0:	00f76463          	bltu	a4,a5,10010ef8 <__multf3+0x1c8>
10010ef4:	7950006f          	j	10011e88 <__multf3+0x1158>
10010ef8:	01012283          	lw	t0,16(sp)
10010efc:	02012f83          	lw	t6,32(sp)
10010f00:	00010337          	lui	t1,0x10
10010f04:	fff30793          	addi	a5,t1,-1 # ffff <__heap_size+0xefff>
10010f08:	00f2f833          	and	a6,t0,a5
10010f0c:	00fff7b3          	and	a5,t6,a5
10010f10:	0102de93          	srli	t4,t0,0x10
10010f14:	010fd713          	srli	a4,t6,0x10
10010f18:	00080513          	mv	a0,a6
10010f1c:	00078593          	mv	a1,a5
10010f20:	69d020ef          	jal	ra,10013dbc <__mulsi3>
10010f24:	00050e13          	mv	t3,a0
10010f28:	00070593          	mv	a1,a4
10010f2c:	00080513          	mv	a0,a6
10010f30:	68d020ef          	jal	ra,10013dbc <__mulsi3>
10010f34:	00050813          	mv	a6,a0
10010f38:	00078593          	mv	a1,a5
10010f3c:	000e8513          	mv	a0,t4
10010f40:	67d020ef          	jal	ra,10013dbc <__mulsi3>
10010f44:	00050893          	mv	a7,a0
10010f48:	00070593          	mv	a1,a4
10010f4c:	000e8513          	mv	a0,t4
10010f50:	66d020ef          	jal	ra,10013dbc <__mulsi3>
10010f54:	010e5713          	srli	a4,t3,0x10
10010f58:	01180833          	add	a6,a6,a7
10010f5c:	01070733          	add	a4,a4,a6
10010f60:	00050793          	mv	a5,a0
10010f64:	01177463          	bgeu	a4,a7,10010f6c <__multf3+0x23c>
10010f68:	006507b3          	add	a5,a0,t1
10010f6c:	01075693          	srli	a3,a4,0x10
10010f70:	00f687b3          	add	a5,a3,a5
10010f74:	00010337          	lui	t1,0x10
10010f78:	02412e83          	lw	t4,36(sp)
10010f7c:	04f12223          	sw	a5,68(sp)
10010f80:	fff30793          	addi	a5,t1,-1 # ffff <__heap_size+0xefff>
10010f84:	00f77733          	and	a4,a4,a5
10010f88:	01071713          	slli	a4,a4,0x10
10010f8c:	00fe7533          	and	a0,t3,a5
10010f90:	00a70533          	add	a0,a4,a0
10010f94:	00fef833          	and	a6,t4,a5
10010f98:	00f2f733          	and	a4,t0,a5
10010f9c:	04a12023          	sw	a0,64(sp)
10010fa0:	0102d893          	srli	a7,t0,0x10
10010fa4:	010edf13          	srli	t5,t4,0x10
10010fa8:	00070513          	mv	a0,a4
10010fac:	00080593          	mv	a1,a6
10010fb0:	60d020ef          	jal	ra,10013dbc <__mulsi3>
10010fb4:	00050e13          	mv	t3,a0
10010fb8:	000f0593          	mv	a1,t5
10010fbc:	00070513          	mv	a0,a4
10010fc0:	5fd020ef          	jal	ra,10013dbc <__mulsi3>
10010fc4:	00050713          	mv	a4,a0
10010fc8:	00080593          	mv	a1,a6
10010fcc:	00088513          	mv	a0,a7
10010fd0:	5ed020ef          	jal	ra,10013dbc <__mulsi3>
10010fd4:	00050813          	mv	a6,a0
10010fd8:	000f0593          	mv	a1,t5
10010fdc:	00088513          	mv	a0,a7
10010fe0:	5dd020ef          	jal	ra,10013dbc <__mulsi3>
10010fe4:	010e5893          	srli	a7,t3,0x10
10010fe8:	01070733          	add	a4,a4,a6
10010fec:	00e888b3          	add	a7,a7,a4
10010ff0:	00050a13          	mv	s4,a0
10010ff4:	0108f463          	bgeu	a7,a6,10010ffc <__multf3+0x2cc>
10010ff8:	00650a33          	add	s4,a0,t1
10010ffc:	01412f03          	lw	t5,20(sp)
10011000:	0108d713          	srli	a4,a7,0x10
10011004:	00f8f8b3          	and	a7,a7,a5
10011008:	00fe7533          	and	a0,t3,a5
1001100c:	00e12623          	sw	a4,12(sp)
10011010:	01089893          	slli	a7,a7,0x10
10011014:	00ff7733          	and	a4,t5,a5
10011018:	00fff7b3          	and	a5,t6,a5
1001101c:	00a888b3          	add	a7,a7,a0
10011020:	010f5393          	srli	t2,t5,0x10
10011024:	010fd313          	srli	t1,t6,0x10
10011028:	00070513          	mv	a0,a4
1001102c:	00078593          	mv	a1,a5
10011030:	58d020ef          	jal	ra,10013dbc <__mulsi3>
10011034:	00050813          	mv	a6,a0
10011038:	00030593          	mv	a1,t1
1001103c:	00070513          	mv	a0,a4
10011040:	57d020ef          	jal	ra,10013dbc <__mulsi3>
10011044:	00050713          	mv	a4,a0
10011048:	00078593          	mv	a1,a5
1001104c:	00038513          	mv	a0,t2
10011050:	56d020ef          	jal	ra,10013dbc <__mulsi3>
10011054:	00050e13          	mv	t3,a0
10011058:	00030593          	mv	a1,t1
1001105c:	00038513          	mv	a0,t2
10011060:	55d020ef          	jal	ra,10013dbc <__mulsi3>
10011064:	01085313          	srli	t1,a6,0x10
10011068:	01c70733          	add	a4,a4,t3
1001106c:	00e30333          	add	t1,t1,a4
10011070:	00050793          	mv	a5,a0
10011074:	01c37663          	bgeu	t1,t3,10011080 <__multf3+0x350>
10011078:	00010737          	lui	a4,0x10
1001107c:	00e507b3          	add	a5,a0,a4
10011080:	00010e37          	lui	t3,0x10
10011084:	fffe0593          	addi	a1,t3,-1 # ffff <__heap_size+0xefff>
10011088:	01035b93          	srli	s7,t1,0x10
1001108c:	00b37333          	and	t1,t1,a1
10011090:	00b87833          	and	a6,a6,a1
10011094:	00bf7933          	and	s2,t5,a1
10011098:	00bef3b3          	and	t2,t4,a1
1001109c:	01031313          	slli	t1,t1,0x10
100110a0:	00fb8bb3          	add	s7,s7,a5
100110a4:	01030333          	add	t1,t1,a6
100110a8:	010ed793          	srli	a5,t4,0x10
100110ac:	010f5813          	srli	a6,t5,0x10
100110b0:	00090513          	mv	a0,s2
100110b4:	00038593          	mv	a1,t2
100110b8:	505020ef          	jal	ra,10013dbc <__mulsi3>
100110bc:	00050713          	mv	a4,a0
100110c0:	00078593          	mv	a1,a5
100110c4:	00090513          	mv	a0,s2
100110c8:	4f5020ef          	jal	ra,10013dbc <__mulsi3>
100110cc:	00050913          	mv	s2,a0
100110d0:	00038593          	mv	a1,t2
100110d4:	00080513          	mv	a0,a6
100110d8:	4e5020ef          	jal	ra,10013dbc <__mulsi3>
100110dc:	00050393          	mv	t2,a0
100110e0:	00078593          	mv	a1,a5
100110e4:	00080513          	mv	a0,a6
100110e8:	4d5020ef          	jal	ra,10013dbc <__mulsi3>
100110ec:	01075813          	srli	a6,a4,0x10
100110f0:	007906b3          	add	a3,s2,t2
100110f4:	00d80833          	add	a6,a6,a3
100110f8:	00050793          	mv	a5,a0
100110fc:	00787463          	bgeu	a6,t2,10011104 <__multf3+0x3d4>
10011100:	01c507b3          	add	a5,a0,t3
10011104:	00010e37          	lui	t3,0x10
10011108:	fffe0593          	addi	a1,t3,-1 # ffff <__heap_size+0xefff>
1001110c:	02812383          	lw	t2,40(sp)
10011110:	01085b13          	srli	s6,a6,0x10
10011114:	00b87833          	and	a6,a6,a1
10011118:	00b77733          	and	a4,a4,a1
1001111c:	01081813          	slli	a6,a6,0x10
10011120:	00b2f933          	and	s2,t0,a1
10011124:	00e80833          	add	a6,a6,a4
10011128:	00b3f733          	and	a4,t2,a1
1001112c:	00fb0b33          	add	s6,s6,a5
10011130:	0102dc13          	srli	s8,t0,0x10
10011134:	0103da93          	srli	s5,t2,0x10
10011138:	00090513          	mv	a0,s2
1001113c:	00070593          	mv	a1,a4
10011140:	47d020ef          	jal	ra,10013dbc <__mulsi3>
10011144:	00050793          	mv	a5,a0
10011148:	000a8593          	mv	a1,s5
1001114c:	00090513          	mv	a0,s2
10011150:	46d020ef          	jal	ra,10013dbc <__mulsi3>
10011154:	00050993          	mv	s3,a0
10011158:	00070593          	mv	a1,a4
1001115c:	000c0513          	mv	a0,s8
10011160:	45d020ef          	jal	ra,10013dbc <__mulsi3>
10011164:	00050913          	mv	s2,a0
10011168:	000a8593          	mv	a1,s5
1001116c:	000c0513          	mv	a0,s8
10011170:	44d020ef          	jal	ra,10013dbc <__mulsi3>
10011174:	0107d713          	srli	a4,a5,0x10
10011178:	012986b3          	add	a3,s3,s2
1001117c:	00d70733          	add	a4,a4,a3
10011180:	01277463          	bgeu	a4,s2,10011188 <__multf3+0x458>
10011184:	01c50533          	add	a0,a0,t3
10011188:	00010d37          	lui	s10,0x10
1001118c:	fffd0913          	addi	s2,s10,-1 # ffff <__heap_size+0xefff>
10011190:	01812e03          	lw	t3,24(sp)
10011194:	01075a93          	srli	s5,a4,0x10
10011198:	01277733          	and	a4,a4,s2
1001119c:	0127f7b3          	and	a5,a5,s2
100111a0:	01071713          	slli	a4,a4,0x10
100111a4:	00f70733          	add	a4,a4,a5
100111a8:	012e77b3          	and	a5,t3,s2
100111ac:	012ff933          	and	s2,t6,s2
100111b0:	00aa8ab3          	add	s5,s5,a0
100111b4:	010e5d93          	srli	s11,t3,0x10
100111b8:	010fdc13          	srli	s8,t6,0x10
100111bc:	00078513          	mv	a0,a5
100111c0:	00090593          	mv	a1,s2
100111c4:	3f9020ef          	jal	ra,10013dbc <__mulsi3>
100111c8:	00050993          	mv	s3,a0
100111cc:	000c0593          	mv	a1,s8
100111d0:	00078513          	mv	a0,a5
100111d4:	3e9020ef          	jal	ra,10013dbc <__mulsi3>
100111d8:	00050793          	mv	a5,a0
100111dc:	00090593          	mv	a1,s2
100111e0:	000d8513          	mv	a0,s11
100111e4:	3d9020ef          	jal	ra,10013dbc <__mulsi3>
100111e8:	00050913          	mv	s2,a0
100111ec:	000c0593          	mv	a1,s8
100111f0:	000d8513          	mv	a0,s11
100111f4:	3c9020ef          	jal	ra,10013dbc <__mulsi3>
100111f8:	012787b3          	add	a5,a5,s2
100111fc:	0109d693          	srli	a3,s3,0x10
10011200:	00d787b3          	add	a5,a5,a3
10011204:	0127f463          	bgeu	a5,s2,1001120c <__multf3+0x4dc>
10011208:	01a50533          	add	a0,a0,s10
1001120c:	00010937          	lui	s2,0x10
10011210:	fff90593          	addi	a1,s2,-1 # ffff <__heap_size+0xefff>
10011214:	04412603          	lw	a2,68(sp)
10011218:	0107d693          	srli	a3,a5,0x10
1001121c:	00b7f7b3          	and	a5,a5,a1
10011220:	01079793          	slli	a5,a5,0x10
10011224:	00b9f9b3          	and	s3,s3,a1
10011228:	013789b3          	add	s3,a5,s3
1001122c:	00c12783          	lw	a5,12(sp)
10011230:	00c88633          	add	a2,a7,a2
10011234:	011638b3          	sltu	a7,a2,a7
10011238:	011787b3          	add	a5,a5,a7
1001123c:	00660633          	add	a2,a2,t1
10011240:	01478a33          	add	s4,a5,s4
10011244:	017a07b3          	add	a5,s4,s7
10011248:	04c12223          	sw	a2,68(sp)
1001124c:	00663633          	sltu	a2,a2,t1
10011250:	00c78333          	add	t1,a5,a2
10011254:	00a68533          	add	a0,a3,a0
10011258:	0177b7b3          	sltu	a5,a5,s7
1001125c:	010306b3          	add	a3,t1,a6
10011260:	00c33333          	sltu	t1,t1,a2
10011264:	011a3a33          	sltu	s4,s4,a7
10011268:	0067e7b3          	or	a5,a5,t1
1001126c:	014787b3          	add	a5,a5,s4
10011270:	0106b833          	sltu	a6,a3,a6
10011274:	016787b3          	add	a5,a5,s6
10011278:	01078a33          	add	s4,a5,a6
1001127c:	00e686b3          	add	a3,a3,a4
10011280:	00e6b733          	sltu	a4,a3,a4
10011284:	015a08b3          	add	a7,s4,s5
10011288:	00e88333          	add	t1,a7,a4
1001128c:	013686b3          	add	a3,a3,s3
10011290:	00a30633          	add	a2,t1,a0
10011294:	04d12423          	sw	a3,72(sp)
10011298:	0136b6b3          	sltu	a3,a3,s3
1001129c:	00d609b3          	add	s3,a2,a3
100112a0:	010a3a33          	sltu	s4,s4,a6
100112a4:	0167b7b3          	sltu	a5,a5,s6
100112a8:	0158b8b3          	sltu	a7,a7,s5
100112ac:	00e33333          	sltu	t1,t1,a4
100112b0:	02c12803          	lw	a6,44(sp)
100112b4:	05312623          	sw	s3,76(sp)
100112b8:	0147e7b3          	or	a5,a5,s4
100112bc:	00d9b9b3          	sltu	s3,s3,a3
100112c0:	0068e8b3          	or	a7,a7,t1
100112c4:	00a63633          	sltu	a2,a2,a0
100112c8:	01366633          	or	a2,a2,s3
100112cc:	011787b3          	add	a5,a5,a7
100112d0:	00c787b3          	add	a5,a5,a2
100112d4:	04f12823          	sw	a5,80(sp)
100112d8:	0102da13          	srli	s4,t0,0x10
100112dc:	00b877b3          	and	a5,a6,a1
100112e0:	00b2f2b3          	and	t0,t0,a1
100112e4:	01085993          	srli	s3,a6,0x10
100112e8:	00028513          	mv	a0,t0
100112ec:	00078593          	mv	a1,a5
100112f0:	2cd020ef          	jal	ra,10013dbc <__mulsi3>
100112f4:	00050713          	mv	a4,a0
100112f8:	00098593          	mv	a1,s3
100112fc:	00028513          	mv	a0,t0
10011300:	2bd020ef          	jal	ra,10013dbc <__mulsi3>
10011304:	00050893          	mv	a7,a0
10011308:	00078593          	mv	a1,a5
1001130c:	000a0513          	mv	a0,s4
10011310:	2ad020ef          	jal	ra,10013dbc <__mulsi3>
10011314:	00050313          	mv	t1,a0
10011318:	00098593          	mv	a1,s3
1001131c:	000a0513          	mv	a0,s4
10011320:	29d020ef          	jal	ra,10013dbc <__mulsi3>
10011324:	01075613          	srli	a2,a4,0x10
10011328:	006888b3          	add	a7,a7,t1
1001132c:	01160633          	add	a2,a2,a7
10011330:	00050793          	mv	a5,a0
10011334:	00667463          	bgeu	a2,t1,1001133c <__multf3+0x60c>
10011338:	012507b3          	add	a5,a0,s2
1001133c:	01065a13          	srli	s4,a2,0x10
10011340:	000102b7          	lui	t0,0x10
10011344:	01c12883          	lw	a7,28(sp)
10011348:	00fa0a33          	add	s4,s4,a5
1001134c:	fff28793          	addi	a5,t0,-1 # ffff <__heap_size+0xefff>
10011350:	00f67633          	and	a2,a2,a5
10011354:	00f77733          	and	a4,a4,a5
10011358:	01061613          	slli	a2,a2,0x10
1001135c:	00e60333          	add	t1,a2,a4
10011360:	00f8f933          	and	s2,a7,a5
10011364:	010fd713          	srli	a4,t6,0x10
10011368:	00ffffb3          	and	t6,t6,a5
1001136c:	0108d993          	srli	s3,a7,0x10
10011370:	00090513          	mv	a0,s2
10011374:	000f8593          	mv	a1,t6
10011378:	245020ef          	jal	ra,10013dbc <__mulsi3>
1001137c:	00050793          	mv	a5,a0
10011380:	00070593          	mv	a1,a4
10011384:	00090513          	mv	a0,s2
10011388:	235020ef          	jal	ra,10013dbc <__mulsi3>
1001138c:	00050913          	mv	s2,a0
10011390:	000f8593          	mv	a1,t6
10011394:	00098513          	mv	a0,s3
10011398:	225020ef          	jal	ra,10013dbc <__mulsi3>
1001139c:	00050f93          	mv	t6,a0
100113a0:	00070593          	mv	a1,a4
100113a4:	00098513          	mv	a0,s3
100113a8:	215020ef          	jal	ra,10013dbc <__mulsi3>
100113ac:	0107d693          	srli	a3,a5,0x10
100113b0:	01f90933          	add	s2,s2,t6
100113b4:	012686b3          	add	a3,a3,s2
100113b8:	00050713          	mv	a4,a0
100113bc:	01f6f463          	bgeu	a3,t6,100113c4 <__multf3+0x694>
100113c0:	00550733          	add	a4,a0,t0
100113c4:	00010fb7          	lui	t6,0x10
100113c8:	ffff8613          	addi	a2,t6,-1 # ffff <__heap_size+0xefff>
100113cc:	0106d993          	srli	s3,a3,0x10
100113d0:	00c6f6b3          	and	a3,a3,a2
100113d4:	01069693          	slli	a3,a3,0x10
100113d8:	00c7f7b3          	and	a5,a5,a2
100113dc:	00cf7933          	and	s2,t5,a2
100113e0:	00c3f2b3          	and	t0,t2,a2
100113e4:	00e989b3          	add	s3,s3,a4
100113e8:	00f68b33          	add	s6,a3,a5
100113ec:	010f5713          	srli	a4,t5,0x10
100113f0:	0103da93          	srli	s5,t2,0x10
100113f4:	00090513          	mv	a0,s2
100113f8:	00028593          	mv	a1,t0
100113fc:	1c1020ef          	jal	ra,10013dbc <__mulsi3>
10011400:	00050793          	mv	a5,a0
10011404:	000a8593          	mv	a1,s5
10011408:	00090513          	mv	a0,s2
1001140c:	1b1020ef          	jal	ra,10013dbc <__mulsi3>
10011410:	00050913          	mv	s2,a0
10011414:	00028593          	mv	a1,t0
10011418:	00070513          	mv	a0,a4
1001141c:	1a1020ef          	jal	ra,10013dbc <__mulsi3>
10011420:	00050293          	mv	t0,a0
10011424:	000a8593          	mv	a1,s5
10011428:	00070513          	mv	a0,a4
1001142c:	191020ef          	jal	ra,10013dbc <__mulsi3>
10011430:	0107d713          	srli	a4,a5,0x10
10011434:	005906b3          	add	a3,s2,t0
10011438:	00d70733          	add	a4,a4,a3
1001143c:	00577463          	bgeu	a4,t0,10011444 <__multf3+0x714>
10011440:	01f50533          	add	a0,a0,t6
10011444:	000102b7          	lui	t0,0x10
10011448:	fff28693          	addi	a3,t0,-1 # ffff <__heap_size+0xefff>
1001144c:	01075913          	srli	s2,a4,0x10
10011450:	00d77733          	and	a4,a4,a3
10011454:	00d7f7b3          	and	a5,a5,a3
10011458:	00de7ab3          	and	s5,t3,a3
1001145c:	00deffb3          	and	t6,t4,a3
10011460:	01071713          	slli	a4,a4,0x10
10011464:	00a90933          	add	s2,s2,a0
10011468:	00f70733          	add	a4,a4,a5
1001146c:	010e5d13          	srli	s10,t3,0x10
10011470:	010edc13          	srli	s8,t4,0x10
10011474:	000a8513          	mv	a0,s5
10011478:	000f8593          	mv	a1,t6
1001147c:	141020ef          	jal	ra,10013dbc <__mulsi3>
10011480:	00050793          	mv	a5,a0
10011484:	000c0593          	mv	a1,s8
10011488:	000a8513          	mv	a0,s5
1001148c:	131020ef          	jal	ra,10013dbc <__mulsi3>
10011490:	00050b93          	mv	s7,a0
10011494:	000f8593          	mv	a1,t6
10011498:	000d0513          	mv	a0,s10
1001149c:	121020ef          	jal	ra,10013dbc <__mulsi3>
100114a0:	00050a93          	mv	s5,a0
100114a4:	000c0593          	mv	a1,s8
100114a8:	000d0513          	mv	a0,s10
100114ac:	111020ef          	jal	ra,10013dbc <__mulsi3>
100114b0:	0107df93          	srli	t6,a5,0x10
100114b4:	015b86b3          	add	a3,s7,s5
100114b8:	00df8fb3          	add	t6,t6,a3
100114bc:	015ff463          	bgeu	t6,s5,100114c4 <__multf3+0x794>
100114c0:	00550533          	add	a0,a0,t0
100114c4:	00010ab7          	lui	s5,0x10
100114c8:	fffa8293          	addi	t0,s5,-1 # ffff <__heap_size+0xefff>
100114cc:	010fdb93          	srli	s7,t6,0x10
100114d0:	005fffb3          	and	t6,t6,t0
100114d4:	0057f7b3          	and	a5,a5,t0
100114d8:	010f9f93          	slli	t6,t6,0x10
100114dc:	00ff8fb3          	add	t6,t6,a5
100114e0:	04c12783          	lw	a5,76(sp)
100114e4:	00ab8bb3          	add	s7,s7,a0
100114e8:	00f307b3          	add	a5,t1,a5
100114ec:	0067b633          	sltu	a2,a5,t1
100114f0:	05012303          	lw	t1,80(sp)
100114f4:	016787b3          	add	a5,a5,s6
100114f8:	0167b6b3          	sltu	a3,a5,s6
100114fc:	006a0333          	add	t1,s4,t1
10011500:	00c30d33          	add	s10,t1,a2
10011504:	013d0b33          	add	s6,s10,s3
10011508:	00db0c33          	add	s8,s6,a3
1001150c:	00e787b3          	add	a5,a5,a4
10011510:	00e7b733          	sltu	a4,a5,a4
10011514:	012c05b3          	add	a1,s8,s2
10011518:	00e58533          	add	a0,a1,a4
1001151c:	01f787b3          	add	a5,a5,t6
10011520:	04f12623          	sw	a5,76(sp)
10011524:	01433333          	sltu	t1,t1,s4
10011528:	01f7b7b3          	sltu	a5,a5,t6
1001152c:	00cd3d33          	sltu	s10,s10,a2
10011530:	01750fb3          	add	t6,a0,s7
10011534:	013b3b33          	sltu	s6,s6,s3
10011538:	00dc3c33          	sltu	s8,s8,a3
1001153c:	00ff8db3          	add	s11,t6,a5
10011540:	00e53533          	sltu	a0,a0,a4
10011544:	01a36333          	or	t1,t1,s10
10011548:	018b6b33          	or	s6,s6,s8
1001154c:	0125b5b3          	sltu	a1,a1,s2
10011550:	00a5e5b3          	or	a1,a1,a0
10011554:	05b12823          	sw	s11,80(sp)
10011558:	01630333          	add	t1,t1,s6
1001155c:	00fdbdb3          	sltu	s11,s11,a5
10011560:	017fbfb3          	sltu	t6,t6,s7
10011564:	00b30333          	add	t1,t1,a1
10011568:	01bfefb3          	or	t6,t6,s11
1001156c:	01f307b3          	add	a5,t1,t6
10011570:	005e7333          	and	t1,t3,t0
10011574:	0053f2b3          	and	t0,t2,t0
10011578:	04f12a23          	sw	a5,84(sp)
1001157c:	010e5913          	srli	s2,t3,0x10
10011580:	0103d713          	srli	a4,t2,0x10
10011584:	00030513          	mv	a0,t1
10011588:	00028593          	mv	a1,t0
1001158c:	031020ef          	jal	ra,10013dbc <__mulsi3>
10011590:	00050793          	mv	a5,a0
10011594:	00070593          	mv	a1,a4
10011598:	00030513          	mv	a0,t1
1001159c:	021020ef          	jal	ra,10013dbc <__mulsi3>
100115a0:	00050313          	mv	t1,a0
100115a4:	00028593          	mv	a1,t0
100115a8:	00090513          	mv	a0,s2
100115ac:	011020ef          	jal	ra,10013dbc <__mulsi3>
100115b0:	00050f93          	mv	t6,a0
100115b4:	00070593          	mv	a1,a4
100115b8:	00090513          	mv	a0,s2
100115bc:	001020ef          	jal	ra,10013dbc <__mulsi3>
100115c0:	0107d613          	srli	a2,a5,0x10
100115c4:	01f30333          	add	t1,t1,t6
100115c8:	00660633          	add	a2,a2,t1
100115cc:	00050713          	mv	a4,a0
100115d0:	01f67463          	bgeu	a2,t6,100115d8 <__multf3+0x8a8>
100115d4:	01550733          	add	a4,a0,s5
100115d8:	01065993          	srli	s3,a2,0x10
100115dc:	00010fb7          	lui	t6,0x10
100115e0:	00e989b3          	add	s3,s3,a4
100115e4:	ffff8713          	addi	a4,t6,-1 # ffff <__heap_size+0xefff>
100115e8:	00e67633          	and	a2,a2,a4
100115ec:	01061613          	slli	a2,a2,0x10
100115f0:	00e7f7b3          	and	a5,a5,a4
100115f4:	010f5a13          	srli	s4,t5,0x10
100115f8:	00ef7f33          	and	t5,t5,a4
100115fc:	00e87733          	and	a4,a6,a4
10011600:	00f607b3          	add	a5,a2,a5
10011604:	01085913          	srli	s2,a6,0x10
10011608:	000f0513          	mv	a0,t5
1001160c:	00070593          	mv	a1,a4
10011610:	7ac020ef          	jal	ra,10013dbc <__mulsi3>
10011614:	00050313          	mv	t1,a0
10011618:	00090593          	mv	a1,s2
1001161c:	000f0513          	mv	a0,t5
10011620:	79c020ef          	jal	ra,10013dbc <__mulsi3>
10011624:	00050f13          	mv	t5,a0
10011628:	00070593          	mv	a1,a4
1001162c:	000a0513          	mv	a0,s4
10011630:	78c020ef          	jal	ra,10013dbc <__mulsi3>
10011634:	00050293          	mv	t0,a0
10011638:	00090593          	mv	a1,s2
1001163c:	000a0513          	mv	a0,s4
10011640:	77c020ef          	jal	ra,10013dbc <__mulsi3>
10011644:	01035693          	srli	a3,t1,0x10
10011648:	005f0f33          	add	t5,t5,t0
1001164c:	01e686b3          	add	a3,a3,t5
10011650:	00050713          	mv	a4,a0
10011654:	0056f463          	bgeu	a3,t0,1001165c <__multf3+0x92c>
10011658:	01f50733          	add	a4,a0,t6
1001165c:	000102b7          	lui	t0,0x10
10011660:	fff28613          	addi	a2,t0,-1 # ffff <__heap_size+0xefff>
10011664:	0106d913          	srli	s2,a3,0x10
10011668:	00c6f6b3          	and	a3,a3,a2
1001166c:	00c37333          	and	t1,t1,a2
10011670:	01069693          	slli	a3,a3,0x10
10011674:	00668a33          	add	s4,a3,t1
10011678:	010edf13          	srli	t5,t4,0x10
1001167c:	00c8f333          	and	t1,a7,a2
10011680:	00cefeb3          	and	t4,t4,a2
10011684:	00e90933          	add	s2,s2,a4
10011688:	00030513          	mv	a0,t1
1001168c:	0108d713          	srli	a4,a7,0x10
10011690:	000e8593          	mv	a1,t4
10011694:	728020ef          	jal	ra,10013dbc <__mulsi3>
10011698:	00050f93          	mv	t6,a0
1001169c:	000f0593          	mv	a1,t5
100116a0:	00030513          	mv	a0,t1
100116a4:	718020ef          	jal	ra,10013dbc <__mulsi3>
100116a8:	00050a93          	mv	s5,a0
100116ac:	000e8593          	mv	a1,t4
100116b0:	00070513          	mv	a0,a4
100116b4:	708020ef          	jal	ra,10013dbc <__mulsi3>
100116b8:	00050313          	mv	t1,a0
100116bc:	000f0593          	mv	a1,t5
100116c0:	00070513          	mv	a0,a4
100116c4:	6f8020ef          	jal	ra,10013dbc <__mulsi3>
100116c8:	00050713          	mv	a4,a0
100116cc:	010fdf13          	srli	t5,t6,0x10
100116d0:	006a8533          	add	a0,s5,t1
100116d4:	00af0f33          	add	t5,t5,a0
100116d8:	006f7463          	bgeu	t5,t1,100116e0 <__multf3+0x9b0>
100116dc:	00570733          	add	a4,a4,t0
100116e0:	010f5293          	srli	t0,t5,0x10
100116e4:	00010337          	lui	t1,0x10
100116e8:	00e282b3          	add	t0,t0,a4
100116ec:	fff30713          	addi	a4,t1,-1 # ffff <__heap_size+0xefff>
100116f0:	00ef7f33          	and	t5,t5,a4
100116f4:	00efffb3          	and	t6,t6,a4
100116f8:	010f1f13          	slli	t5,t5,0x10
100116fc:	01ff0f33          	add	t5,t5,t6
10011700:	010e5a93          	srli	s5,t3,0x10
10011704:	00e87fb3          	and	t6,a6,a4
10011708:	00ee7e33          	and	t3,t3,a4
1001170c:	01085b13          	srli	s6,a6,0x10
10011710:	000e0513          	mv	a0,t3
10011714:	000f8593          	mv	a1,t6
10011718:	6a4020ef          	jal	ra,10013dbc <__mulsi3>
1001171c:	00050e93          	mv	t4,a0
10011720:	000b0593          	mv	a1,s6
10011724:	000e0513          	mv	a0,t3
10011728:	694020ef          	jal	ra,10013dbc <__mulsi3>
1001172c:	00050713          	mv	a4,a0
10011730:	000f8593          	mv	a1,t6
10011734:	000a8513          	mv	a0,s5
10011738:	684020ef          	jal	ra,10013dbc <__mulsi3>
1001173c:	00050f93          	mv	t6,a0
10011740:	000b0593          	mv	a1,s6
10011744:	000a8513          	mv	a0,s5
10011748:	674020ef          	jal	ra,10013dbc <__mulsi3>
1001174c:	01f70733          	add	a4,a4,t6
10011750:	010ed693          	srli	a3,t4,0x10
10011754:	00d70733          	add	a4,a4,a3
10011758:	01f77463          	bgeu	a4,t6,10011760 <__multf3+0xa30>
1001175c:	00650533          	add	a0,a0,t1
10011760:	00010337          	lui	t1,0x10
10011764:	fff30593          	addi	a1,t1,-1 # ffff <__heap_size+0xefff>
10011768:	01075f93          	srli	t6,a4,0x10
1001176c:	00b77733          	and	a4,a4,a1
10011770:	00befeb3          	and	t4,t4,a1
10011774:	00b8fb33          	and	s6,a7,a1
10011778:	0103db93          	srli	s7,t2,0x10
1001177c:	01071713          	slli	a4,a4,0x10
10011780:	00b3f3b3          	and	t2,t2,a1
10011784:	00af8fb3          	add	t6,t6,a0
10011788:	01d70733          	add	a4,a4,t4
1001178c:	0108de13          	srli	t3,a7,0x10
10011790:	000b0513          	mv	a0,s6
10011794:	00038593          	mv	a1,t2
10011798:	624020ef          	jal	ra,10013dbc <__mulsi3>
1001179c:	00050a93          	mv	s5,a0
100117a0:	000b8593          	mv	a1,s7
100117a4:	000b0513          	mv	a0,s6
100117a8:	614020ef          	jal	ra,10013dbc <__mulsi3>
100117ac:	00050b13          	mv	s6,a0
100117b0:	00038593          	mv	a1,t2
100117b4:	000e0513          	mv	a0,t3
100117b8:	604020ef          	jal	ra,10013dbc <__mulsi3>
100117bc:	00050393          	mv	t2,a0
100117c0:	000b8593          	mv	a1,s7
100117c4:	000e0513          	mv	a0,t3
100117c8:	5f4020ef          	jal	ra,10013dbc <__mulsi3>
100117cc:	010ade93          	srli	t4,s5,0x10
100117d0:	007b06b3          	add	a3,s6,t2
100117d4:	00de8eb3          	add	t4,t4,a3
100117d8:	007ef463          	bgeu	t4,t2,100117e0 <__multf3+0xab0>
100117dc:	00650533          	add	a0,a0,t1
100117e0:	05012583          	lw	a1,80(sp)
100117e4:	00010e37          	lui	t3,0x10
100117e8:	fffe0313          	addi	t1,t3,-1 # ffff <__heap_size+0xefff>
100117ec:	00b785b3          	add	a1,a5,a1
100117f0:	00f5b633          	sltu	a2,a1,a5
100117f4:	05412783          	lw	a5,84(sp)
100117f8:	014585b3          	add	a1,a1,s4
100117fc:	0145b6b3          	sltu	a3,a1,s4
10011800:	00f987b3          	add	a5,s3,a5
10011804:	00c78bb3          	add	s7,a5,a2
10011808:	012b8a33          	add	s4,s7,s2
1001180c:	00da0b33          	add	s6,s4,a3
10011810:	01e585b3          	add	a1,a1,t5
10011814:	010ed393          	srli	t2,t4,0x10
10011818:	006efeb3          	and	t4,t4,t1
1001181c:	00a383b3          	add	t2,t2,a0
10011820:	006afab3          	and	s5,s5,t1
10011824:	005b0533          	add	a0,s6,t0
10011828:	04b12823          	sw	a1,80(sp)
1001182c:	010e9e93          	slli	t4,t4,0x10
10011830:	01e5b5b3          	sltu	a1,a1,t5
10011834:	015e8eb3          	add	t4,t4,s5
10011838:	00cbbbb3          	sltu	s7,s7,a2
1001183c:	00b50ab3          	add	s5,a0,a1
10011840:	00db3b33          	sltu	s6,s6,a3
10011844:	0137b7b3          	sltu	a5,a5,s3
10011848:	012a3a33          	sltu	s4,s4,s2
1001184c:	00ea8f33          	add	t5,s5,a4
10011850:	0177e7b3          	or	a5,a5,s7
10011854:	00babab3          	sltu	s5,s5,a1
10011858:	016a6a33          	or	s4,s4,s6
1001185c:	00553533          	sltu	a0,a0,t0
10011860:	01556533          	or	a0,a0,s5
10011864:	014787b3          	add	a5,a5,s4
10011868:	00a787b3          	add	a5,a5,a0
1001186c:	00ef3733          	sltu	a4,t5,a4
10011870:	01f787b3          	add	a5,a5,t6
10011874:	00e785b3          	add	a1,a5,a4
10011878:	01df0f33          	add	t5,t5,t4
1001187c:	007586b3          	add	a3,a1,t2
10011880:	05e12a23          	sw	t5,84(sp)
10011884:	01df3f33          	sltu	t5,t5,t4
10011888:	01e68633          	add	a2,a3,t5
1001188c:	00e5b5b3          	sltu	a1,a1,a4
10011890:	04c12c23          	sw	a2,88(sp)
10011894:	01f7b7b3          	sltu	a5,a5,t6
10011898:	01e63633          	sltu	a2,a2,t5
1001189c:	0076b6b3          	sltu	a3,a3,t2
100118a0:	00b7e7b3          	or	a5,a5,a1
100118a4:	00c6e6b3          	or	a3,a3,a2
100118a8:	00d787b3          	add	a5,a5,a3
100118ac:	04f12e23          	sw	a5,92(sp)
100118b0:	0108df13          	srli	t5,a7,0x10
100118b4:	01085793          	srli	a5,a6,0x10
100118b8:	0068f8b3          	and	a7,a7,t1
100118bc:	00687833          	and	a6,a6,t1
100118c0:	00088513          	mv	a0,a7
100118c4:	00080593          	mv	a1,a6
100118c8:	4f4020ef          	jal	ra,10013dbc <__mulsi3>
100118cc:	00050e93          	mv	t4,a0
100118d0:	00078593          	mv	a1,a5
100118d4:	00088513          	mv	a0,a7
100118d8:	4e4020ef          	jal	ra,10013dbc <__mulsi3>
100118dc:	00050713          	mv	a4,a0
100118e0:	00080593          	mv	a1,a6
100118e4:	000f0513          	mv	a0,t5
100118e8:	4d4020ef          	jal	ra,10013dbc <__mulsi3>
100118ec:	00050813          	mv	a6,a0
100118f0:	00078593          	mv	a1,a5
100118f4:	000f0513          	mv	a0,t5
100118f8:	4c4020ef          	jal	ra,10013dbc <__mulsi3>
100118fc:	010ed793          	srli	a5,t4,0x10
10011900:	01070733          	add	a4,a4,a6
10011904:	00e787b3          	add	a5,a5,a4
10011908:	00050693          	mv	a3,a0
1001190c:	0107f463          	bgeu	a5,a6,10011914 <__multf3+0xbe4>
10011910:	01c506b3          	add	a3,a0,t3
10011914:	05812603          	lw	a2,88(sp)
10011918:	0067f733          	and	a4,a5,t1
1001191c:	05c12583          	lw	a1,92(sp)
10011920:	01071713          	slli	a4,a4,0x10
10011924:	006efeb3          	and	t4,t4,t1
10011928:	01d70733          	add	a4,a4,t4
1001192c:	00c70633          	add	a2,a4,a2
10011930:	0107d793          	srli	a5,a5,0x10
10011934:	00b787b3          	add	a5,a5,a1
10011938:	00e63733          	sltu	a4,a2,a4
1001193c:	00e787b3          	add	a5,a5,a4
10011940:	00d78533          	add	a0,a5,a3
10011944:	04412703          	lw	a4,68(sp)
10011948:	04012783          	lw	a5,64(sp)
1001194c:	04a12e23          	sw	a0,92(sp)
10011950:	04c12c23          	sw	a2,88(sp)
10011954:	00f76733          	or	a4,a4,a5
10011958:	04812783          	lw	a5,72(sp)
1001195c:	05010593          	addi	a1,sp,80
10011960:	00f76733          	or	a4,a4,a5
10011964:	04c12783          	lw	a5,76(sp)
10011968:	00d79793          	slli	a5,a5,0xd
1001196c:	00e7e7b3          	or	a5,a5,a4
10011970:	04010713          	addi	a4,sp,64
10011974:	00c72683          	lw	a3,12(a4) # 1000c <__heap_size+0xf00c>
10011978:	01072603          	lw	a2,16(a4)
1001197c:	00470713          	addi	a4,a4,4
10011980:	0136d693          	srli	a3,a3,0x13
10011984:	00d61613          	slli	a2,a2,0xd
10011988:	00c6e6b3          	or	a3,a3,a2
1001198c:	fed72e23          	sw	a3,-4(a4)
10011990:	fee592e3          	bne	a1,a4,10011974 <__multf3+0xc44>
10011994:	04812683          	lw	a3,72(sp)
10011998:	04012703          	lw	a4,64(sp)
1001199c:	00f037b3          	snez	a5,a5
100119a0:	02d12c23          	sw	a3,56(sp)
100119a4:	04412683          	lw	a3,68(sp)
100119a8:	00e7e7b3          	or	a5,a5,a4
100119ac:	04c12703          	lw	a4,76(sp)
100119b0:	02d12a23          	sw	a3,52(sp)
100119b4:	001006b7          	lui	a3,0x100
100119b8:	02e12e23          	sw	a4,60(sp)
100119bc:	02f12823          	sw	a5,48(sp)
100119c0:	00d77733          	and	a4,a4,a3
100119c4:	4e070463          	beqz	a4,10011eac <__multf3+0x117c>
100119c8:	01f79793          	slli	a5,a5,0x1f
100119cc:	03010713          	addi	a4,sp,48
100119d0:	03c10593          	addi	a1,sp,60
100119d4:	00072683          	lw	a3,0(a4)
100119d8:	00472603          	lw	a2,4(a4)
100119dc:	00470713          	addi	a4,a4,4
100119e0:	0016d693          	srli	a3,a3,0x1
100119e4:	01f61613          	slli	a2,a2,0x1f
100119e8:	00c6e6b3          	or	a3,a3,a2
100119ec:	fed72e23          	sw	a3,-4(a4)
100119f0:	fee592e3          	bne	a1,a4,100119d4 <__multf3+0xca4>
100119f4:	03c12703          	lw	a4,60(sp)
100119f8:	00f037b3          	snez	a5,a5
100119fc:	00175713          	srli	a4,a4,0x1
10011a00:	02e12e23          	sw	a4,60(sp)
10011a04:	03012703          	lw	a4,48(sp)
10011a08:	00f767b3          	or	a5,a4,a5
10011a0c:	02f12823          	sw	a5,48(sp)
10011a10:	000047b7          	lui	a5,0x4
10011a14:	fff78793          	addi	a5,a5,-1 # 3fff <__heap_size+0x2fff>
10011a18:	00fc87b3          	add	a5,s9,a5
10011a1c:	4af05863          	blez	a5,10011ecc <__multf3+0x119c>
10011a20:	03012703          	lw	a4,48(sp)
10011a24:	00777693          	andi	a3,a4,7
10011a28:	04068463          	beqz	a3,10011a70 <__multf3+0xd40>
10011a2c:	00f77693          	andi	a3,a4,15
10011a30:	00400613          	li	a2,4
10011a34:	02c68e63          	beq	a3,a2,10011a70 <__multf3+0xd40>
10011a38:	03412683          	lw	a3,52(sp)
10011a3c:	00470713          	addi	a4,a4,4
10011a40:	02e12823          	sw	a4,48(sp)
10011a44:	00473713          	sltiu	a4,a4,4
10011a48:	00d706b3          	add	a3,a4,a3
10011a4c:	02d12a23          	sw	a3,52(sp)
10011a50:	00e6b6b3          	sltu	a3,a3,a4
10011a54:	03812703          	lw	a4,56(sp)
10011a58:	00e68733          	add	a4,a3,a4
10011a5c:	02e12c23          	sw	a4,56(sp)
10011a60:	00d73733          	sltu	a4,a4,a3
10011a64:	03c12683          	lw	a3,60(sp)
10011a68:	00d70733          	add	a4,a4,a3
10011a6c:	02e12e23          	sw	a4,60(sp)
10011a70:	03c12703          	lw	a4,60(sp)
10011a74:	001006b7          	lui	a3,0x100
10011a78:	00d776b3          	and	a3,a4,a3
10011a7c:	00068e63          	beqz	a3,10011a98 <__multf3+0xd68>
10011a80:	fff007b7          	lui	a5,0xfff00
10011a84:	fff78793          	addi	a5,a5,-1 # ffefffff <_sp+0xefed7a93>
10011a88:	00f77733          	and	a4,a4,a5
10011a8c:	000047b7          	lui	a5,0x4
10011a90:	02e12e23          	sw	a4,60(sp)
10011a94:	00fc87b3          	add	a5,s9,a5
10011a98:	03010713          	addi	a4,sp,48
10011a9c:	03c10593          	addi	a1,sp,60
10011aa0:	00072683          	lw	a3,0(a4)
10011aa4:	00472603          	lw	a2,4(a4)
10011aa8:	00470713          	addi	a4,a4,4
10011aac:	0036d693          	srli	a3,a3,0x3
10011ab0:	01d61613          	slli	a2,a2,0x1d
10011ab4:	00c6e6b3          	or	a3,a3,a2
10011ab8:	fed72e23          	sw	a3,-4(a4)
10011abc:	feb712e3          	bne	a4,a1,10011aa0 <__multf3+0xd70>
10011ac0:	000086b7          	lui	a3,0x8
10011ac4:	ffe68613          	addi	a2,a3,-2 # 7ffe <__heap_size+0x6ffe>
10011ac8:	03c12703          	lw	a4,60(sp)
10011acc:	3ef64463          	blt	a2,a5,10011eb4 <__multf3+0x1184>
10011ad0:	00375713          	srli	a4,a4,0x3
10011ad4:	02e12e23          	sw	a4,60(sp)
10011ad8:	01179793          	slli	a5,a5,0x11
10011adc:	0117d793          	srli	a5,a5,0x11
10011ae0:	00f41413          	slli	s0,s0,0xf
10011ae4:	00f46433          	or	s0,s0,a5
10011ae8:	03012783          	lw	a5,48(sp)
10011aec:	03c12703          	lw	a4,60(sp)
10011af0:	04811723          	sh	s0,78(sp)
10011af4:	00f4a023          	sw	a5,0(s1)
10011af8:	03412783          	lw	a5,52(sp)
10011afc:	04e11623          	sh	a4,76(sp)
10011b00:	09c12083          	lw	ra,156(sp)
10011b04:	00f4a223          	sw	a5,4(s1)
10011b08:	03812783          	lw	a5,56(sp)
10011b0c:	09812403          	lw	s0,152(sp)
10011b10:	09012903          	lw	s2,144(sp)
10011b14:	00f4a423          	sw	a5,8(s1)
10011b18:	04c12783          	lw	a5,76(sp)
10011b1c:	08c12983          	lw	s3,140(sp)
10011b20:	08812a03          	lw	s4,136(sp)
10011b24:	00f4a623          	sw	a5,12(s1)
10011b28:	08412a83          	lw	s5,132(sp)
10011b2c:	08012b03          	lw	s6,128(sp)
10011b30:	07c12b83          	lw	s7,124(sp)
10011b34:	07812c03          	lw	s8,120(sp)
10011b38:	07412c83          	lw	s9,116(sp)
10011b3c:	07012d03          	lw	s10,112(sp)
10011b40:	06c12d83          	lw	s11,108(sp)
10011b44:	00048513          	mv	a0,s1
10011b48:	09412483          	lw	s1,148(sp)
10011b4c:	0a010113          	addi	sp,sp,160
10011b50:	00008067          	ret
10011b54:	00a7e633          	or	a2,a5,a0
10011b58:	00d66633          	or	a2,a2,a3
10011b5c:	00e66633          	or	a2,a2,a4
10011b60:	12060663          	beqz	a2,10011c8c <__multf3+0xf5c>
10011b64:	08070463          	beqz	a4,10011bec <__multf3+0xebc>
10011b68:	00070513          	mv	a0,a4
10011b6c:	d80f00ef          	jal	ra,100020ec <__clzsi2>
10011b70:	00050413          	mv	s0,a0
10011b74:	ff440593          	addi	a1,s0,-12 # 7fff4 <__heap_size+0x7eff4>
10011b78:	4055d793          	srai	a5,a1,0x5
10011b7c:	01f5f593          	andi	a1,a1,31
10011b80:	40f00733          	neg	a4,a5
10011b84:	08058e63          	beqz	a1,10011c20 <__multf3+0xef0>
10011b88:	00271713          	slli	a4,a4,0x2
10011b8c:	00c70693          	addi	a3,a4,12
10011b90:	02000513          	li	a0,32
10011b94:	01010893          	addi	a7,sp,16
10011b98:	40b50533          	sub	a0,a0,a1
10011b9c:	00d886b3          	add	a3,a7,a3
10011ba0:	40e00733          	neg	a4,a4
10011ba4:	0ad89463          	bne	a7,a3,10011c4c <__multf3+0xf1c>
10011ba8:	fff78613          	addi	a2,a5,-1 # 3fff <__heap_size+0x2fff>
10011bac:	00279793          	slli	a5,a5,0x2
10011bb0:	01010713          	addi	a4,sp,16
10011bb4:	05078793          	addi	a5,a5,80
10011bb8:	00e787b3          	add	a5,a5,a4
10011bbc:	01012703          	lw	a4,16(sp)
10011bc0:	00b71733          	sll	a4,a4,a1
10011bc4:	fae7a823          	sw	a4,-80(a5)
10011bc8:	00160613          	addi	a2,a2,1
10011bcc:	ffffc937          	lui	s2,0xffffc
10011bd0:	00261613          	slli	a2,a2,0x2
10011bd4:	00000593          	li	a1,0
10011bd8:	01010513          	addi	a0,sp,16
10011bdc:	01190913          	addi	s2,s2,17 # ffffc011 <_sp+0xeffd3aa5>
10011be0:	fc0f00ef          	jal	ra,100023a0 <memset>
10011be4:	40890933          	sub	s2,s2,s0
10011be8:	a34ff06f          	j	10010e1c <__multf3+0xec>
10011bec:	00068a63          	beqz	a3,10011c00 <__multf3+0xed0>
10011bf0:	00068513          	mv	a0,a3
10011bf4:	cf8f00ef          	jal	ra,100020ec <__clzsi2>
10011bf8:	02050413          	addi	s0,a0,32
10011bfc:	f79ff06f          	j	10011b74 <__multf3+0xe44>
10011c00:	00050863          	beqz	a0,10011c10 <__multf3+0xee0>
10011c04:	ce8f00ef          	jal	ra,100020ec <__clzsi2>
10011c08:	04050413          	addi	s0,a0,64
10011c0c:	f69ff06f          	j	10011b74 <__multf3+0xe44>
10011c10:	00078513          	mv	a0,a5
10011c14:	cd8f00ef          	jal	ra,100020ec <__clzsi2>
10011c18:	06050413          	addi	s0,a0,96
10011c1c:	f59ff06f          	j	10011b74 <__multf3+0xe44>
10011c20:	01c10693          	addi	a3,sp,28
10011c24:	00271713          	slli	a4,a4,0x2
10011c28:	00300613          	li	a2,3
10011c2c:	00e685b3          	add	a1,a3,a4
10011c30:	0005a583          	lw	a1,0(a1)
10011c34:	fff60613          	addi	a2,a2,-1
10011c38:	ffc68693          	addi	a3,a3,-4
10011c3c:	00b6a223          	sw	a1,4(a3)
10011c40:	fef656e3          	bge	a2,a5,10011c2c <__multf3+0xefc>
10011c44:	fff78613          	addi	a2,a5,-1
10011c48:	f81ff06f          	j	10011bc8 <__multf3+0xe98>
10011c4c:	0006a603          	lw	a2,0(a3)
10011c50:	ffc6a803          	lw	a6,-4(a3)
10011c54:	00e68333          	add	t1,a3,a4
10011c58:	00b61633          	sll	a2,a2,a1
10011c5c:	00a85833          	srl	a6,a6,a0
10011c60:	01066633          	or	a2,a2,a6
10011c64:	00c32023          	sw	a2,0(t1)
10011c68:	ffc68693          	addi	a3,a3,-4
10011c6c:	f39ff06f          	j	10011ba4 <__multf3+0xe74>
10011c70:	00a7e7b3          	or	a5,a5,a0
10011c74:	00d7e7b3          	or	a5,a5,a3
10011c78:	00e7e7b3          	or	a5,a5,a4
10011c7c:	00300c13          	li	s8,3
10011c80:	9a079063          	bnez	a5,10010e20 <__multf3+0xf0>
10011c84:	00200c13          	li	s8,2
10011c88:	998ff06f          	j	10010e20 <__multf3+0xf0>
10011c8c:	00000913          	li	s2,0
10011c90:	00100c13          	li	s8,1
10011c94:	98cff06f          	j	10010e20 <__multf3+0xf0>
10011c98:	017ae7b3          	or	a5,s5,s7
10011c9c:	0167e7b3          	or	a5,a5,s6
10011ca0:	00a7e7b3          	or	a5,a5,a0
10011ca4:	12078863          	beqz	a5,10011dd4 <__multf3+0x10a4>
10011ca8:	08050263          	beqz	a0,10011d2c <__multf3+0xffc>
10011cac:	c40f00ef          	jal	ra,100020ec <__clzsi2>
10011cb0:	00050413          	mv	s0,a0
10011cb4:	ff440593          	addi	a1,s0,-12
10011cb8:	4055d793          	srai	a5,a1,0x5
10011cbc:	01f5f593          	andi	a1,a1,31
10011cc0:	40f00733          	neg	a4,a5
10011cc4:	0a058063          	beqz	a1,10011d64 <__multf3+0x1034>
10011cc8:	00271713          	slli	a4,a4,0x2
10011ccc:	00c70693          	addi	a3,a4,12
10011cd0:	02000513          	li	a0,32
10011cd4:	02010893          	addi	a7,sp,32
10011cd8:	40b50533          	sub	a0,a0,a1
10011cdc:	00d886b3          	add	a3,a7,a3
10011ce0:	40e00733          	neg	a4,a4
10011ce4:	0ad89663          	bne	a7,a3,10011d90 <__multf3+0x1060>
10011ce8:	fff78613          	addi	a2,a5,-1
10011cec:	00279793          	slli	a5,a5,0x2
10011cf0:	01010713          	addi	a4,sp,16
10011cf4:	05078793          	addi	a5,a5,80
10011cf8:	00e787b3          	add	a5,a5,a4
10011cfc:	02012703          	lw	a4,32(sp)
10011d00:	00b71733          	sll	a4,a4,a1
10011d04:	fce7a023          	sw	a4,-64(a5)
10011d08:	00160613          	addi	a2,a2,1
10011d0c:	00261613          	slli	a2,a2,0x2
10011d10:	00000593          	li	a1,0
10011d14:	02010513          	addi	a0,sp,32
10011d18:	e88f00ef          	jal	ra,100023a0 <memset>
10011d1c:	ffffc7b7          	lui	a5,0xffffc
10011d20:	01178793          	addi	a5,a5,17 # ffffc011 <_sp+0xeffd3aa5>
10011d24:	408787b3          	sub	a5,a5,s0
10011d28:	98cff06f          	j	10010eb4 <__multf3+0x184>
10011d2c:	000b0a63          	beqz	s6,10011d40 <__multf3+0x1010>
10011d30:	000b0513          	mv	a0,s6
10011d34:	bb8f00ef          	jal	ra,100020ec <__clzsi2>
10011d38:	02050413          	addi	s0,a0,32
10011d3c:	f79ff06f          	j	10011cb4 <__multf3+0xf84>
10011d40:	000b8a63          	beqz	s7,10011d54 <__multf3+0x1024>
10011d44:	000b8513          	mv	a0,s7
10011d48:	ba4f00ef          	jal	ra,100020ec <__clzsi2>
10011d4c:	04050413          	addi	s0,a0,64
10011d50:	f65ff06f          	j	10011cb4 <__multf3+0xf84>
10011d54:	000a8513          	mv	a0,s5
10011d58:	b94f00ef          	jal	ra,100020ec <__clzsi2>
10011d5c:	06050413          	addi	s0,a0,96
10011d60:	f55ff06f          	j	10011cb4 <__multf3+0xf84>
10011d64:	02c10693          	addi	a3,sp,44
10011d68:	00271713          	slli	a4,a4,0x2
10011d6c:	00300613          	li	a2,3
10011d70:	00e685b3          	add	a1,a3,a4
10011d74:	0005a583          	lw	a1,0(a1)
10011d78:	fff60613          	addi	a2,a2,-1
10011d7c:	ffc68693          	addi	a3,a3,-4
10011d80:	00b6a223          	sw	a1,4(a3)
10011d84:	fef656e3          	bge	a2,a5,10011d70 <__multf3+0x1040>
10011d88:	fff78613          	addi	a2,a5,-1
10011d8c:	f7dff06f          	j	10011d08 <__multf3+0xfd8>
10011d90:	0006a603          	lw	a2,0(a3)
10011d94:	ffc6a803          	lw	a6,-4(a3)
10011d98:	00e68333          	add	t1,a3,a4
10011d9c:	00b61633          	sll	a2,a2,a1
10011da0:	00a85833          	srl	a6,a6,a0
10011da4:	01066633          	or	a2,a2,a6
10011da8:	00c32023          	sw	a2,0(t1)
10011dac:	ffc68693          	addi	a3,a3,-4
10011db0:	f35ff06f          	j	10011ce4 <__multf3+0xfb4>
10011db4:	017aeab3          	or	s5,s5,s7
10011db8:	016aeab3          	or	s5,s5,s6
10011dbc:	00aaeab3          	or	s5,s5,a0
10011dc0:	00300693          	li	a3,3
10011dc4:	000a8463          	beqz	s5,10011dcc <__multf3+0x109c>
10011dc8:	8f0ff06f          	j	10010eb8 <__multf3+0x188>
10011dcc:	00200693          	li	a3,2
10011dd0:	8e8ff06f          	j	10010eb8 <__multf3+0x188>
10011dd4:	00000793          	li	a5,0
10011dd8:	00100693          	li	a3,1
10011ddc:	8dcff06f          	j	10010eb8 <__multf3+0x188>
10011de0:	00100713          	li	a4,1
10011de4:	00f717b3          	sll	a5,a4,a5
10011de8:	5307f713          	andi	a4,a5,1328
10011dec:	04071663          	bnez	a4,10011e38 <__multf3+0x1108>
10011df0:	0887f713          	andi	a4,a5,136
10011df4:	08071863          	bnez	a4,10011e84 <__multf3+0x1154>
10011df8:	2407f793          	andi	a5,a5,576
10011dfc:	00079463          	bnez	a5,10011e04 <__multf3+0x10d4>
10011e00:	8f8ff06f          	j	10010ef8 <__multf3+0x1c8>
10011e04:	000087b7          	lui	a5,0x8
10011e08:	02f12e23          	sw	a5,60(sp)
10011e0c:	02012c23          	sw	zero,56(sp)
10011e10:	02012a23          	sw	zero,52(sp)
10011e14:	02012823          	sw	zero,48(sp)
10011e18:	fff78793          	addi	a5,a5,-1 # 7fff <__heap_size+0x6fff>
10011e1c:	00000413          	li	s0,0
10011e20:	cb9ff06f          	j	10011ad8 <__multf3+0xda8>
10011e24:	00f00713          	li	a4,15
10011e28:	fce78ee3          	beq	a5,a4,10011e04 <__multf3+0x10d4>
10011e2c:	00b00713          	li	a4,11
10011e30:	04e78a63          	beq	a5,a4,10011e84 <__multf3+0x1154>
10011e34:	00098413          	mv	s0,s3
10011e38:	01012783          	lw	a5,16(sp)
10011e3c:	02f12823          	sw	a5,48(sp)
10011e40:	01412783          	lw	a5,20(sp)
10011e44:	02f12a23          	sw	a5,52(sp)
10011e48:	01812783          	lw	a5,24(sp)
10011e4c:	02f12c23          	sw	a5,56(sp)
10011e50:	01c12783          	lw	a5,28(sp)
10011e54:	02f12e23          	sw	a5,60(sp)
10011e58:	00200793          	li	a5,2
10011e5c:	26fc0e63          	beq	s8,a5,100120d8 <__multf3+0x13a8>
10011e60:	00300793          	li	a5,3
10011e64:	fafc00e3          	beq	s8,a5,10011e04 <__multf3+0x10d4>
10011e68:	00100793          	li	a5,1
10011e6c:	bafc12e3          	bne	s8,a5,10011a10 <__multf3+0xce0>
10011e70:	02012e23          	sw	zero,60(sp)
10011e74:	02012c23          	sw	zero,56(sp)
10011e78:	02012a23          	sw	zero,52(sp)
10011e7c:	02012823          	sw	zero,48(sp)
10011e80:	2180006f          	j	10012098 <__multf3+0x1368>
10011e84:	000a0413          	mv	s0,s4
10011e88:	02012783          	lw	a5,32(sp)
10011e8c:	00068c13          	mv	s8,a3
10011e90:	02f12823          	sw	a5,48(sp)
10011e94:	02412783          	lw	a5,36(sp)
10011e98:	02f12a23          	sw	a5,52(sp)
10011e9c:	02812783          	lw	a5,40(sp)
10011ea0:	02f12c23          	sw	a5,56(sp)
10011ea4:	02c12783          	lw	a5,44(sp)
10011ea8:	fadff06f          	j	10011e54 <__multf3+0x1124>
10011eac:	00812c83          	lw	s9,8(sp)
10011eb0:	b61ff06f          	j	10011a10 <__multf3+0xce0>
10011eb4:	02012e23          	sw	zero,60(sp)
10011eb8:	02012c23          	sw	zero,56(sp)
10011ebc:	02012a23          	sw	zero,52(sp)
10011ec0:	02012823          	sw	zero,48(sp)
10011ec4:	fff68793          	addi	a5,a3,-1
10011ec8:	c11ff06f          	j	10011ad8 <__multf3+0xda8>
10011ecc:	00100713          	li	a4,1
10011ed0:	40f707b3          	sub	a5,a4,a5
10011ed4:	07400713          	li	a4,116
10011ed8:	1cf74463          	blt	a4,a5,100120a0 <__multf3+0x1370>
10011edc:	03010993          	addi	s3,sp,48
10011ee0:	4057d513          	srai	a0,a5,0x5
10011ee4:	00098693          	mv	a3,s3
10011ee8:	00000913          	li	s2,0
10011eec:	00000713          	li	a4,0
10011ef0:	04a71263          	bne	a4,a0,10011f34 <__multf3+0x1204>
10011ef4:	01f7f793          	andi	a5,a5,31
10011ef8:	00251693          	slli	a3,a0,0x2
10011efc:	04079663          	bnez	a5,10011f48 <__multf3+0x1218>
10011f00:	00300613          	li	a2,3
10011f04:	00098793          	mv	a5,s3
10011f08:	00000713          	li	a4,0
10011f0c:	40a60633          	sub	a2,a2,a0
10011f10:	00d785b3          	add	a1,a5,a3
10011f14:	0005a583          	lw	a1,0(a1)
10011f18:	00170713          	addi	a4,a4,1
10011f1c:	00478793          	addi	a5,a5,4
10011f20:	feb7ae23          	sw	a1,-4(a5)
10011f24:	fee656e3          	bge	a2,a4,10011f10 <__multf3+0x11e0>
10011f28:	00400793          	li	a5,4
10011f2c:	40a78533          	sub	a0,a5,a0
10011f30:	0780006f          	j	10011fa8 <__multf3+0x1278>
10011f34:	0006a603          	lw	a2,0(a3)
10011f38:	00170713          	addi	a4,a4,1
10011f3c:	00468693          	addi	a3,a3,4
10011f40:	00c96933          	or	s2,s2,a2
10011f44:	fadff06f          	j	10011ef0 <__multf3+0x11c0>
10011f48:	05068713          	addi	a4,a3,80
10011f4c:	01010613          	addi	a2,sp,16
10011f50:	00c70733          	add	a4,a4,a2
10011f54:	fd072703          	lw	a4,-48(a4)
10011f58:	02000593          	li	a1,32
10011f5c:	40f585b3          	sub	a1,a1,a5
10011f60:	00b71733          	sll	a4,a4,a1
10011f64:	00e96933          	or	s2,s2,a4
10011f68:	00300713          	li	a4,3
10011f6c:	00d986b3          	add	a3,s3,a3
10011f70:	00098893          	mv	a7,s3
10011f74:	00000813          	li	a6,0
10011f78:	40a70733          	sub	a4,a4,a0
10011f7c:	00468693          	addi	a3,a3,4
10011f80:	0ce84263          	blt	a6,a4,10012044 <__multf3+0x1314>
10011f84:	00400693          	li	a3,4
10011f88:	00271713          	slli	a4,a4,0x2
10011f8c:	40a68533          	sub	a0,a3,a0
10011f90:	05070713          	addi	a4,a4,80
10011f94:	01010693          	addi	a3,sp,16
10011f98:	00d70733          	add	a4,a4,a3
10011f9c:	03c12683          	lw	a3,60(sp)
10011fa0:	00f6d7b3          	srl	a5,a3,a5
10011fa4:	fcf72823          	sw	a5,-48(a4)
10011fa8:	00400a13          	li	s4,4
10011fac:	40aa0633          	sub	a2,s4,a0
10011fb0:	00251513          	slli	a0,a0,0x2
10011fb4:	00261613          	slli	a2,a2,0x2
10011fb8:	00000593          	li	a1,0
10011fbc:	00a98533          	add	a0,s3,a0
10011fc0:	be0f00ef          	jal	ra,100023a0 <memset>
10011fc4:	03012703          	lw	a4,48(sp)
10011fc8:	012037b3          	snez	a5,s2
10011fcc:	00e7e7b3          	or	a5,a5,a4
10011fd0:	02f12823          	sw	a5,48(sp)
10011fd4:	0077f713          	andi	a4,a5,7
10011fd8:	04070263          	beqz	a4,1001201c <__multf3+0x12ec>
10011fdc:	00f7f713          	andi	a4,a5,15
10011fe0:	03470e63          	beq	a4,s4,1001201c <__multf3+0x12ec>
10011fe4:	03412703          	lw	a4,52(sp)
10011fe8:	00478793          	addi	a5,a5,4
10011fec:	02f12823          	sw	a5,48(sp)
10011ff0:	0047b793          	sltiu	a5,a5,4
10011ff4:	00e78733          	add	a4,a5,a4
10011ff8:	02e12a23          	sw	a4,52(sp)
10011ffc:	00f73733          	sltu	a4,a4,a5
10012000:	03812783          	lw	a5,56(sp)
10012004:	00f707b3          	add	a5,a4,a5
10012008:	02f12c23          	sw	a5,56(sp)
1001200c:	00e7b7b3          	sltu	a5,a5,a4
10012010:	03c12703          	lw	a4,60(sp)
10012014:	00e787b3          	add	a5,a5,a4
10012018:	02f12e23          	sw	a5,60(sp)
1001201c:	03c12703          	lw	a4,60(sp)
10012020:	000807b7          	lui	a5,0x80
10012024:	00e7f7b3          	and	a5,a5,a4
10012028:	04078063          	beqz	a5,10012068 <__multf3+0x1338>
1001202c:	02012e23          	sw	zero,60(sp)
10012030:	02012c23          	sw	zero,56(sp)
10012034:	02012a23          	sw	zero,52(sp)
10012038:	02012823          	sw	zero,48(sp)
1001203c:	00100793          	li	a5,1
10012040:	a99ff06f          	j	10011ad8 <__multf3+0xda8>
10012044:	ffc6a603          	lw	a2,-4(a3)
10012048:	0006a303          	lw	t1,0(a3)
1001204c:	00180813          	addi	a6,a6,1
10012050:	00f65633          	srl	a2,a2,a5
10012054:	00b31333          	sll	t1,t1,a1
10012058:	00666633          	or	a2,a2,t1
1001205c:	00c8a023          	sw	a2,0(a7)
10012060:	00488893          	addi	a7,a7,4
10012064:	f19ff06f          	j	10011f7c <__multf3+0x124c>
10012068:	00c98693          	addi	a3,s3,12
1001206c:	0009a783          	lw	a5,0(s3)
10012070:	0049a703          	lw	a4,4(s3)
10012074:	00498993          	addi	s3,s3,4
10012078:	0037d793          	srli	a5,a5,0x3
1001207c:	01d71713          	slli	a4,a4,0x1d
10012080:	00e7e7b3          	or	a5,a5,a4
10012084:	fef9ae23          	sw	a5,-4(s3)
10012088:	fed992e3          	bne	s3,a3,1001206c <__multf3+0x133c>
1001208c:	03c12783          	lw	a5,60(sp)
10012090:	0037d793          	srli	a5,a5,0x3
10012094:	02f12e23          	sw	a5,60(sp)
10012098:	00000793          	li	a5,0
1001209c:	a3dff06f          	j	10011ad8 <__multf3+0xda8>
100120a0:	03412783          	lw	a5,52(sp)
100120a4:	03012703          	lw	a4,48(sp)
100120a8:	00f76733          	or	a4,a4,a5
100120ac:	03812783          	lw	a5,56(sp)
100120b0:	00f76733          	or	a4,a4,a5
100120b4:	03c12783          	lw	a5,60(sp)
100120b8:	00f76733          	or	a4,a4,a5
100120bc:	00000793          	li	a5,0
100120c0:	a0070ce3          	beqz	a4,10011ad8 <__multf3+0xda8>
100120c4:	02012e23          	sw	zero,60(sp)
100120c8:	02012c23          	sw	zero,56(sp)
100120cc:	02012a23          	sw	zero,52(sp)
100120d0:	02012823          	sw	zero,48(sp)
100120d4:	a05ff06f          	j	10011ad8 <__multf3+0xda8>
100120d8:	000087b7          	lui	a5,0x8
100120dc:	02012e23          	sw	zero,60(sp)
100120e0:	02012c23          	sw	zero,56(sp)
100120e4:	02012a23          	sw	zero,52(sp)
100120e8:	02012823          	sw	zero,48(sp)
100120ec:	fff78793          	addi	a5,a5,-1 # 7fff <__heap_size+0x6fff>
100120f0:	9e9ff06f          	j	10011ad8 <__multf3+0xda8>

100120f4 <__subtf3>:
100120f4:	f9010113          	addi	sp,sp,-112
100120f8:	0085a783          	lw	a5,8(a1)
100120fc:	05312e23          	sw	s3,92(sp)
10012100:	00c5a983          	lw	s3,12(a1)
10012104:	0005a683          	lw	a3,0(a1)
10012108:	0045a703          	lw	a4,4(a1)
1001210c:	05412c23          	sw	s4,88(sp)
10012110:	05712623          	sw	s7,76(sp)
10012114:	00050a13          	mv	s4,a0
10012118:	02f12c23          	sw	a5,56(sp)
1001211c:	00f12c23          	sw	a5,24(sp)
10012120:	00062883          	lw	a7,0(a2)
10012124:	01099793          	slli	a5,s3,0x10
10012128:	00462503          	lw	a0,4(a2)
1001212c:	00862583          	lw	a1,8(a2)
10012130:	00c62b83          	lw	s7,12(a2)
10012134:	06812423          	sw	s0,104(sp)
10012138:	0107d793          	srli	a5,a5,0x10
1001213c:	00199413          	slli	s0,s3,0x1
10012140:	02d12823          	sw	a3,48(sp)
10012144:	03312e23          	sw	s3,60(sp)
10012148:	00d12823          	sw	a3,16(sp)
1001214c:	06112623          	sw	ra,108(sp)
10012150:	06912223          	sw	s1,100(sp)
10012154:	07212023          	sw	s2,96(sp)
10012158:	05512a23          	sw	s5,84(sp)
1001215c:	05612823          	sw	s6,80(sp)
10012160:	05812423          	sw	s8,72(sp)
10012164:	05912223          	sw	s9,68(sp)
10012168:	02e12a23          	sw	a4,52(sp)
1001216c:	00e12a23          	sw	a4,20(sp)
10012170:	00f12e23          	sw	a5,28(sp)
10012174:	01145413          	srli	s0,s0,0x11
10012178:	01f9d993          	srli	s3,s3,0x1f
1001217c:	01010813          	addi	a6,sp,16
10012180:	01c10693          	addi	a3,sp,28
10012184:	0006a783          	lw	a5,0(a3)
10012188:	ffc6a703          	lw	a4,-4(a3)
1001218c:	ffc68693          	addi	a3,a3,-4
10012190:	00379793          	slli	a5,a5,0x3
10012194:	01d75713          	srli	a4,a4,0x1d
10012198:	00e7e7b3          	or	a5,a5,a4
1001219c:	00f6a223          	sw	a5,4(a3)
100121a0:	fed812e3          	bne	a6,a3,10012184 <__subtf3+0x90>
100121a4:	01012903          	lw	s2,16(sp)
100121a8:	010b9793          	slli	a5,s7,0x10
100121ac:	001b9b13          	slli	s6,s7,0x1
100121b0:	00391913          	slli	s2,s2,0x3
100121b4:	0107d793          	srli	a5,a5,0x10
100121b8:	02a12a23          	sw	a0,52(sp)
100121bc:	03712e23          	sw	s7,60(sp)
100121c0:	02a12223          	sw	a0,36(sp)
100121c4:	01212823          	sw	s2,16(sp)
100121c8:	03112823          	sw	a7,48(sp)
100121cc:	02b12c23          	sw	a1,56(sp)
100121d0:	03112023          	sw	a7,32(sp)
100121d4:	02b12423          	sw	a1,40(sp)
100121d8:	02f12623          	sw	a5,44(sp)
100121dc:	011b5b13          	srli	s6,s6,0x11
100121e0:	01fbdb93          	srli	s7,s7,0x1f
100121e4:	02010513          	addi	a0,sp,32
100121e8:	02c10713          	addi	a4,sp,44
100121ec:	00072783          	lw	a5,0(a4)
100121f0:	ffc72603          	lw	a2,-4(a4)
100121f4:	ffc70713          	addi	a4,a4,-4
100121f8:	00379793          	slli	a5,a5,0x3
100121fc:	01d65613          	srli	a2,a2,0x1d
10012200:	00c7e7b3          	or	a5,a5,a2
10012204:	00f72223          	sw	a5,4(a4)
10012208:	fee512e3          	bne	a0,a4,100121ec <__subtf3+0xf8>
1001220c:	02012483          	lw	s1,32(sp)
10012210:	000087b7          	lui	a5,0x8
10012214:	fff78793          	addi	a5,a5,-1 # 7fff <__heap_size+0x6fff>
10012218:	00349493          	slli	s1,s1,0x3
1001221c:	02912023          	sw	s1,32(sp)
10012220:	02fb1063          	bne	s6,a5,10012240 <__subtf3+0x14c>
10012224:	02812603          	lw	a2,40(sp)
10012228:	02412783          	lw	a5,36(sp)
1001222c:	00c7e7b3          	or	a5,a5,a2
10012230:	02c12603          	lw	a2,44(sp)
10012234:	00c7e7b3          	or	a5,a5,a2
10012238:	0097e7b3          	or	a5,a5,s1
1001223c:	00079463          	bnez	a5,10012244 <__subtf3+0x150>
10012240:	001bcb93          	xori	s7,s7,1
10012244:	416405b3          	sub	a1,s0,s6
10012248:	113b94e3          	bne	s7,s3,10012b50 <__subtf3+0xa5c>
1001224c:	2eb05463          	blez	a1,10012534 <__subtf3+0x440>
10012250:	01412c03          	lw	s8,20(sp)
10012254:	01812b83          	lw	s7,24(sp)
10012258:	01c12a83          	lw	s5,28(sp)
1001225c:	0a0b1a63          	bnez	s6,10012310 <__subtf3+0x21c>
10012260:	02412603          	lw	a2,36(sp)
10012264:	02812783          	lw	a5,40(sp)
10012268:	02c12803          	lw	a6,44(sp)
1001226c:	00f666b3          	or	a3,a2,a5
10012270:	0106e6b3          	or	a3,a3,a6
10012274:	0096e6b3          	or	a3,a3,s1
10012278:	00069e63          	bnez	a3,10012294 <__subtf3+0x1a0>
1001227c:	03212823          	sw	s2,48(sp)
10012280:	03812a23          	sw	s8,52(sp)
10012284:	03712c23          	sw	s7,56(sp)
10012288:	03512e23          	sw	s5,60(sp)
1001228c:	00058413          	mv	s0,a1
10012290:	2ec0006f          	j	1001257c <__subtf3+0x488>
10012294:	fff58693          	addi	a3,a1,-1
10012298:	04069863          	bnez	a3,100122e8 <__subtf3+0x1f4>
1001229c:	009904b3          	add	s1,s2,s1
100122a0:	01860633          	add	a2,a2,s8
100122a4:	02912823          	sw	s1,48(sp)
100122a8:	0124b4b3          	sltu	s1,s1,s2
100122ac:	00960733          	add	a4,a2,s1
100122b0:	02e12a23          	sw	a4,52(sp)
100122b4:	01863633          	sltu	a2,a2,s8
100122b8:	00973733          	sltu	a4,a4,s1
100122bc:	00e66633          	or	a2,a2,a4
100122c0:	017787b3          	add	a5,a5,s7
100122c4:	00c78733          	add	a4,a5,a2
100122c8:	02e12c23          	sw	a4,56(sp)
100122cc:	0177b7b3          	sltu	a5,a5,s7
100122d0:	00c73733          	sltu	a4,a4,a2
100122d4:	00e7e7b3          	or	a5,a5,a4
100122d8:	01580833          	add	a6,a6,s5
100122dc:	010787b3          	add	a5,a5,a6
100122e0:	00100413          	li	s0,1
100122e4:	19c0006f          	j	10012480 <__subtf3+0x38c>
100122e8:	000087b7          	lui	a5,0x8
100122ec:	fff78793          	addi	a5,a5,-1 # 7fff <__heap_size+0x6fff>
100122f0:	f8f586e3          	beq	a1,a5,1001227c <__subtf3+0x188>
100122f4:	07400793          	li	a5,116
100122f8:	04d7da63          	bge	a5,a3,1001234c <__subtf3+0x258>
100122fc:	02012623          	sw	zero,44(sp)
10012300:	02012423          	sw	zero,40(sp)
10012304:	02012223          	sw	zero,36(sp)
10012308:	00100793          	li	a5,1
1001230c:	11c0006f          	j	10012428 <__subtf3+0x334>
10012310:	000087b7          	lui	a5,0x8
10012314:	fff78793          	addi	a5,a5,-1 # 7fff <__heap_size+0x6fff>
10012318:	00f41c63          	bne	s0,a5,10012330 <__subtf3+0x23c>
1001231c:	03212823          	sw	s2,48(sp)
10012320:	03812a23          	sw	s8,52(sp)
10012324:	03712c23          	sw	s7,56(sp)
10012328:	03512e23          	sw	s5,60(sp)
1001232c:	2500006f          	j	1001257c <__subtf3+0x488>
10012330:	02c12783          	lw	a5,44(sp)
10012334:	000806b7          	lui	a3,0x80
10012338:	00d7e7b3          	or	a5,a5,a3
1001233c:	02f12623          	sw	a5,44(sp)
10012340:	07400793          	li	a5,116
10012344:	fab7cce3          	blt	a5,a1,100122fc <__subtf3+0x208>
10012348:	00058693          	mv	a3,a1
1001234c:	4056d793          	srai	a5,a3,0x5
10012350:	00070593          	mv	a1,a4
10012354:	00000493          	li	s1,0
10012358:	00000613          	li	a2,0
1001235c:	02f61e63          	bne	a2,a5,10012398 <__subtf3+0x2a4>
10012360:	01f6f693          	andi	a3,a3,31
10012364:	00279593          	slli	a1,a5,0x2
10012368:	04069263          	bnez	a3,100123ac <__subtf3+0x2b8>
1001236c:	00300613          	li	a2,3
10012370:	40f60633          	sub	a2,a2,a5
10012374:	00b70833          	add	a6,a4,a1
10012378:	00082803          	lw	a6,0(a6)
1001237c:	00168693          	addi	a3,a3,1 # 80001 <__heap_size+0x7f001>
10012380:	00470713          	addi	a4,a4,4
10012384:	ff072e23          	sw	a6,-4(a4)
10012388:	fed656e3          	bge	a2,a3,10012374 <__subtf3+0x280>
1001238c:	00400713          	li	a4,4
10012390:	40f707b3          	sub	a5,a4,a5
10012394:	06c0006f          	j	10012400 <__subtf3+0x30c>
10012398:	0005a803          	lw	a6,0(a1)
1001239c:	00160613          	addi	a2,a2,1
100123a0:	00458593          	addi	a1,a1,4
100123a4:	0104e4b3          	or	s1,s1,a6
100123a8:	fb5ff06f          	j	1001235c <__subtf3+0x268>
100123ac:	04058613          	addi	a2,a1,64
100123b0:	00260633          	add	a2,a2,sp
100123b4:	fe062603          	lw	a2,-32(a2)
100123b8:	02000893          	li	a7,32
100123bc:	40d888b3          	sub	a7,a7,a3
100123c0:	01161633          	sll	a2,a2,a7
100123c4:	00c4e4b3          	or	s1,s1,a2
100123c8:	00300613          	li	a2,3
100123cc:	00b505b3          	add	a1,a0,a1
100123d0:	00000313          	li	t1,0
100123d4:	40f60633          	sub	a2,a2,a5
100123d8:	00458593          	addi	a1,a1,4
100123dc:	12c34a63          	blt	t1,a2,10012510 <__subtf3+0x41c>
100123e0:	00400713          	li	a4,4
100123e4:	00261613          	slli	a2,a2,0x2
100123e8:	40f707b3          	sub	a5,a4,a5
100123ec:	04060713          	addi	a4,a2,64
100123f0:	00270633          	add	a2,a4,sp
100123f4:	02c12703          	lw	a4,44(sp)
100123f8:	00d75733          	srl	a4,a4,a3
100123fc:	fee62023          	sw	a4,-32(a2)
10012400:	00400613          	li	a2,4
10012404:	40f60633          	sub	a2,a2,a5
10012408:	00279793          	slli	a5,a5,0x2
1001240c:	00f50533          	add	a0,a0,a5
10012410:	00261613          	slli	a2,a2,0x2
10012414:	00000593          	li	a1,0
10012418:	f89ef0ef          	jal	ra,100023a0 <memset>
1001241c:	02012703          	lw	a4,32(sp)
10012420:	009037b3          	snez	a5,s1
10012424:	00f767b3          	or	a5,a4,a5
10012428:	02f12023          	sw	a5,32(sp)
1001242c:	02012783          	lw	a5,32(sp)
10012430:	02412703          	lw	a4,36(sp)
10012434:	00f907b3          	add	a5,s2,a5
10012438:	00ec0733          	add	a4,s8,a4
1001243c:	02f12823          	sw	a5,48(sp)
10012440:	0127b7b3          	sltu	a5,a5,s2
10012444:	00f706b3          	add	a3,a4,a5
10012448:	02d12a23          	sw	a3,52(sp)
1001244c:	00f6b6b3          	sltu	a3,a3,a5
10012450:	02812783          	lw	a5,40(sp)
10012454:	01873733          	sltu	a4,a4,s8
10012458:	00d76733          	or	a4,a4,a3
1001245c:	00fb87b3          	add	a5,s7,a5
10012460:	00e786b3          	add	a3,a5,a4
10012464:	02d12c23          	sw	a3,56(sp)
10012468:	00e6b6b3          	sltu	a3,a3,a4
1001246c:	02c12703          	lw	a4,44(sp)
10012470:	0177b7b3          	sltu	a5,a5,s7
10012474:	00d7e7b3          	or	a5,a5,a3
10012478:	00ea8733          	add	a4,s5,a4
1001247c:	00e787b3          	add	a5,a5,a4
10012480:	00080737          	lui	a4,0x80
10012484:	02f12e23          	sw	a5,60(sp)
10012488:	00e7f733          	and	a4,a5,a4
1001248c:	0e070863          	beqz	a4,1001257c <__subtf3+0x488>
10012490:	fff80737          	lui	a4,0xfff80
10012494:	fff70713          	addi	a4,a4,-1 # fff7ffff <_sp+0xeff57a93>
10012498:	00e7f7b3          	and	a5,a5,a4
1001249c:	02f12e23          	sw	a5,60(sp)
100124a0:	03012783          	lw	a5,48(sp)
100124a4:	00140413          	addi	s0,s0,1
100124a8:	03c10593          	addi	a1,sp,60
100124ac:	01f79713          	slli	a4,a5,0x1f
100124b0:	03010793          	addi	a5,sp,48
100124b4:	0007a683          	lw	a3,0(a5)
100124b8:	0047a603          	lw	a2,4(a5)
100124bc:	00478793          	addi	a5,a5,4
100124c0:	0016d693          	srli	a3,a3,0x1
100124c4:	01f61613          	slli	a2,a2,0x1f
100124c8:	00c6e6b3          	or	a3,a3,a2
100124cc:	fed7ae23          	sw	a3,-4(a5)
100124d0:	feb792e3          	bne	a5,a1,100124b4 <__subtf3+0x3c0>
100124d4:	03c12783          	lw	a5,60(sp)
100124d8:	0017d793          	srli	a5,a5,0x1
100124dc:	02f12e23          	sw	a5,60(sp)
100124e0:	00e037b3          	snez	a5,a4
100124e4:	03012703          	lw	a4,48(sp)
100124e8:	00f767b3          	or	a5,a4,a5
100124ec:	02f12823          	sw	a5,48(sp)
100124f0:	000087b7          	lui	a5,0x8
100124f4:	fff78793          	addi	a5,a5,-1 # 7fff <__heap_size+0x6fff>
100124f8:	08f41263          	bne	s0,a5,1001257c <__subtf3+0x488>
100124fc:	02012e23          	sw	zero,60(sp)
10012500:	02012c23          	sw	zero,56(sp)
10012504:	02012a23          	sw	zero,52(sp)
10012508:	02012823          	sw	zero,48(sp)
1001250c:	0700006f          	j	1001257c <__subtf3+0x488>
10012510:	ffc5a803          	lw	a6,-4(a1)
10012514:	0005ae03          	lw	t3,0(a1)
10012518:	00130313          	addi	t1,t1,1
1001251c:	00d85833          	srl	a6,a6,a3
10012520:	011e1e33          	sll	t3,t3,a7
10012524:	01c86833          	or	a6,a6,t3
10012528:	01072023          	sw	a6,0(a4)
1001252c:	00470713          	addi	a4,a4,4
10012530:	ea9ff06f          	j	100123d8 <__subtf3+0x2e4>
10012534:	02412a83          	lw	s5,36(sp)
10012538:	02812b83          	lw	s7,40(sp)
1001253c:	02c12c03          	lw	s8,44(sp)
10012540:	40058063          	beqz	a1,10012940 <__subtf3+0x84c>
10012544:	408b0633          	sub	a2,s6,s0
10012548:	20041a63          	bnez	s0,1001275c <__subtf3+0x668>
1001254c:	01412703          	lw	a4,20(sp)
10012550:	01812783          	lw	a5,24(sp)
10012554:	01c12503          	lw	a0,28(sp)
10012558:	00f765b3          	or	a1,a4,a5
1001255c:	00a5e5b3          	or	a1,a1,a0
10012560:	0125e5b3          	or	a1,a1,s2
10012564:	18059063          	bnez	a1,100126e4 <__subtf3+0x5f0>
10012568:	02912823          	sw	s1,48(sp)
1001256c:	03512a23          	sw	s5,52(sp)
10012570:	03712c23          	sw	s7,56(sp)
10012574:	03812e23          	sw	s8,60(sp)
10012578:	00060413          	mv	s0,a2
1001257c:	03012783          	lw	a5,48(sp)
10012580:	0077f713          	andi	a4,a5,7
10012584:	04070463          	beqz	a4,100125cc <__subtf3+0x4d8>
10012588:	00f7f713          	andi	a4,a5,15
1001258c:	00400693          	li	a3,4
10012590:	02d70e63          	beq	a4,a3,100125cc <__subtf3+0x4d8>
10012594:	03412703          	lw	a4,52(sp)
10012598:	00478793          	addi	a5,a5,4
1001259c:	02f12823          	sw	a5,48(sp)
100125a0:	0047b793          	sltiu	a5,a5,4
100125a4:	00e78733          	add	a4,a5,a4
100125a8:	02e12a23          	sw	a4,52(sp)
100125ac:	00f73733          	sltu	a4,a4,a5
100125b0:	03812783          	lw	a5,56(sp)
100125b4:	00f707b3          	add	a5,a4,a5
100125b8:	02f12c23          	sw	a5,56(sp)
100125bc:	00e7b7b3          	sltu	a5,a5,a4
100125c0:	03c12703          	lw	a4,60(sp)
100125c4:	00e787b3          	add	a5,a5,a4
100125c8:	02f12e23          	sw	a5,60(sp)
100125cc:	03c12783          	lw	a5,60(sp)
100125d0:	00080737          	lui	a4,0x80
100125d4:	00e7f733          	and	a4,a5,a4
100125d8:	02070463          	beqz	a4,10012600 <__subtf3+0x50c>
100125dc:	00008737          	lui	a4,0x8
100125e0:	00140413          	addi	s0,s0,1
100125e4:	fff70713          	addi	a4,a4,-1 # 7fff <__heap_size+0x6fff>
100125e8:	00e41463          	bne	s0,a4,100125f0 <__subtf3+0x4fc>
100125ec:	0100106f          	j	100135fc <__subtf3+0x1508>
100125f0:	fff80737          	lui	a4,0xfff80
100125f4:	fff70713          	addi	a4,a4,-1 # fff7ffff <_sp+0xeff57a93>
100125f8:	00e7f7b3          	and	a5,a5,a4
100125fc:	02f12e23          	sw	a5,60(sp)
10012600:	03010793          	addi	a5,sp,48
10012604:	03c10613          	addi	a2,sp,60
10012608:	0007a703          	lw	a4,0(a5)
1001260c:	0047a683          	lw	a3,4(a5)
10012610:	00478793          	addi	a5,a5,4
10012614:	00375713          	srli	a4,a4,0x3
10012618:	01d69693          	slli	a3,a3,0x1d
1001261c:	00d76733          	or	a4,a4,a3
10012620:	fee7ae23          	sw	a4,-4(a5)
10012624:	fef612e3          	bne	a2,a5,10012608 <__subtf3+0x514>
10012628:	03c12703          	lw	a4,60(sp)
1001262c:	000086b7          	lui	a3,0x8
10012630:	fff68793          	addi	a5,a3,-1 # 7fff <__heap_size+0x6fff>
10012634:	00375713          	srli	a4,a4,0x3
10012638:	02e12e23          	sw	a4,60(sp)
1001263c:	02f41a63          	bne	s0,a5,10012670 <__subtf3+0x57c>
10012640:	03412603          	lw	a2,52(sp)
10012644:	03012783          	lw	a5,48(sp)
10012648:	00c7e7b3          	or	a5,a5,a2
1001264c:	03812603          	lw	a2,56(sp)
10012650:	00c7e7b3          	or	a5,a5,a2
10012654:	00e7e7b3          	or	a5,a5,a4
10012658:	00078c63          	beqz	a5,10012670 <__subtf3+0x57c>
1001265c:	02d12e23          	sw	a3,60(sp)
10012660:	02012c23          	sw	zero,56(sp)
10012664:	02012a23          	sw	zero,52(sp)
10012668:	02012823          	sw	zero,48(sp)
1001266c:	00000993          	li	s3,0
10012670:	03c12783          	lw	a5,60(sp)
10012674:	01141413          	slli	s0,s0,0x11
10012678:	01145413          	srli	s0,s0,0x11
1001267c:	00f11623          	sh	a5,12(sp)
10012680:	03012783          	lw	a5,48(sp)
10012684:	00f99993          	slli	s3,s3,0xf
10012688:	0089e9b3          	or	s3,s3,s0
1001268c:	00fa2023          	sw	a5,0(s4)
10012690:	03412783          	lw	a5,52(sp)
10012694:	01311723          	sh	s3,14(sp)
10012698:	06c12083          	lw	ra,108(sp)
1001269c:	00fa2223          	sw	a5,4(s4)
100126a0:	03812783          	lw	a5,56(sp)
100126a4:	06812403          	lw	s0,104(sp)
100126a8:	06412483          	lw	s1,100(sp)
100126ac:	00fa2423          	sw	a5,8(s4)
100126b0:	00c12783          	lw	a5,12(sp)
100126b4:	06012903          	lw	s2,96(sp)
100126b8:	05c12983          	lw	s3,92(sp)
100126bc:	00fa2623          	sw	a5,12(s4)
100126c0:	05412a83          	lw	s5,84(sp)
100126c4:	05012b03          	lw	s6,80(sp)
100126c8:	04c12b83          	lw	s7,76(sp)
100126cc:	04812c03          	lw	s8,72(sp)
100126d0:	04412c83          	lw	s9,68(sp)
100126d4:	000a0513          	mv	a0,s4
100126d8:	05812a03          	lw	s4,88(sp)
100126dc:	07010113          	addi	sp,sp,112
100126e0:	00008067          	ret
100126e4:	fff60893          	addi	a7,a2,-1
100126e8:	04089663          	bnez	a7,10012734 <__subtf3+0x640>
100126ec:	00990933          	add	s2,s2,s1
100126f0:	01570733          	add	a4,a4,s5
100126f4:	03212823          	sw	s2,48(sp)
100126f8:	00993933          	sltu	s2,s2,s1
100126fc:	012706b3          	add	a3,a4,s2
10012700:	02d12a23          	sw	a3,52(sp)
10012704:	01573733          	sltu	a4,a4,s5
10012708:	0126b6b3          	sltu	a3,a3,s2
1001270c:	00d76733          	or	a4,a4,a3
10012710:	017787b3          	add	a5,a5,s7
10012714:	00e786b3          	add	a3,a5,a4
10012718:	02d12c23          	sw	a3,56(sp)
1001271c:	0177b7b3          	sltu	a5,a5,s7
10012720:	00e6b6b3          	sltu	a3,a3,a4
10012724:	00d7e7b3          	or	a5,a5,a3
10012728:	01850533          	add	a0,a0,s8
1001272c:	00a787b3          	add	a5,a5,a0
10012730:	bb1ff06f          	j	100122e0 <__subtf3+0x1ec>
10012734:	000087b7          	lui	a5,0x8
10012738:	fff78793          	addi	a5,a5,-1 # 7fff <__heap_size+0x6fff>
1001273c:	e2f606e3          	beq	a2,a5,10012568 <__subtf3+0x474>
10012740:	07400793          	li	a5,116
10012744:	0517dc63          	bge	a5,a7,1001279c <__subtf3+0x6a8>
10012748:	00012e23          	sw	zero,28(sp)
1001274c:	00012c23          	sw	zero,24(sp)
10012750:	00012a23          	sw	zero,20(sp)
10012754:	00100793          	li	a5,1
10012758:	1640006f          	j	100128bc <__subtf3+0x7c8>
1001275c:	000087b7          	lui	a5,0x8
10012760:	fff78793          	addi	a5,a5,-1 # 7fff <__heap_size+0x6fff>
10012764:	00fb1e63          	bne	s6,a5,10012780 <__subtf3+0x68c>
10012768:	02912823          	sw	s1,48(sp)
1001276c:	03512a23          	sw	s5,52(sp)
10012770:	03712c23          	sw	s7,56(sp)
10012774:	03812e23          	sw	s8,60(sp)
10012778:	000b0413          	mv	s0,s6
1001277c:	e01ff06f          	j	1001257c <__subtf3+0x488>
10012780:	01c12783          	lw	a5,28(sp)
10012784:	00080737          	lui	a4,0x80
10012788:	00e7e7b3          	or	a5,a5,a4
1001278c:	00f12e23          	sw	a5,28(sp)
10012790:	07400793          	li	a5,116
10012794:	fac7cae3          	blt	a5,a2,10012748 <__subtf3+0x654>
10012798:	00060893          	mv	a7,a2
1001279c:	41f8d793          	srai	a5,a7,0x1f
100127a0:	01f7f793          	andi	a5,a5,31
100127a4:	011787b3          	add	a5,a5,a7
100127a8:	4057d793          	srai	a5,a5,0x5
100127ac:	00068613          	mv	a2,a3
100127b0:	00000413          	li	s0,0
100127b4:	00000713          	li	a4,0
100127b8:	04f74663          	blt	a4,a5,10012804 <__subtf3+0x710>
100127bc:	00078593          	mv	a1,a5
100127c0:	0007d463          	bgez	a5,100127c8 <__subtf3+0x6d4>
100127c4:	00000593          	li	a1,0
100127c8:	01f8f513          	andi	a0,a7,31
100127cc:	00279613          	slli	a2,a5,0x2
100127d0:	04051463          	bnez	a0,10012818 <__subtf3+0x724>
100127d4:	00300593          	li	a1,3
100127d8:	00000713          	li	a4,0
100127dc:	40f585b3          	sub	a1,a1,a5
100127e0:	00c68533          	add	a0,a3,a2
100127e4:	00052503          	lw	a0,0(a0)
100127e8:	00170713          	addi	a4,a4,1 # 80001 <__heap_size+0x7f001>
100127ec:	00468693          	addi	a3,a3,4
100127f0:	fea6ae23          	sw	a0,-4(a3)
100127f4:	fee5d6e3          	bge	a1,a4,100127e0 <__subtf3+0x6ec>
100127f8:	00400713          	li	a4,4
100127fc:	40f707b3          	sub	a5,a4,a5
10012800:	08c0006f          	j	1001288c <__subtf3+0x798>
10012804:	00062583          	lw	a1,0(a2)
10012808:	00170713          	addi	a4,a4,1
1001280c:	00460613          	addi	a2,a2,4
10012810:	00b46433          	or	s0,s0,a1
10012814:	fa5ff06f          	j	100127b8 <__subtf3+0x6c4>
10012818:	80000737          	lui	a4,0x80000
1001281c:	01f70713          	addi	a4,a4,31 # 8000001f <_sp+0x6ffd7ab3>
10012820:	00e8f733          	and	a4,a7,a4
10012824:	00075863          	bgez	a4,10012834 <__subtf3+0x740>
10012828:	fff70713          	addi	a4,a4,-1
1001282c:	fe076713          	ori	a4,a4,-32
10012830:	00170713          	addi	a4,a4,1
10012834:	00259593          	slli	a1,a1,0x2
10012838:	02000893          	li	a7,32
1001283c:	40e888b3          	sub	a7,a7,a4
10012840:	04058713          	addi	a4,a1,64
10012844:	002705b3          	add	a1,a4,sp
10012848:	fd05a703          	lw	a4,-48(a1)
1001284c:	00c80633          	add	a2,a6,a2
10012850:	00000313          	li	t1,0
10012854:	01171733          	sll	a4,a4,a7
10012858:	00e46433          	or	s0,s0,a4
1001285c:	00300713          	li	a4,3
10012860:	40f70733          	sub	a4,a4,a5
10012864:	00460613          	addi	a2,a2,4
10012868:	0ae34a63          	blt	t1,a4,1001291c <__subtf3+0x828>
1001286c:	00400693          	li	a3,4
10012870:	40f687b3          	sub	a5,a3,a5
10012874:	01c12683          	lw	a3,28(sp)
10012878:	00271713          	slli	a4,a4,0x2
1001287c:	04070713          	addi	a4,a4,64
10012880:	00270733          	add	a4,a4,sp
10012884:	00a6d6b3          	srl	a3,a3,a0
10012888:	fcd72823          	sw	a3,-48(a4)
1001288c:	00400713          	li	a4,4
10012890:	00000613          	li	a2,0
10012894:	00f74663          	blt	a4,a5,100128a0 <__subtf3+0x7ac>
10012898:	40f70733          	sub	a4,a4,a5
1001289c:	00271613          	slli	a2,a4,0x2
100128a0:	00279793          	slli	a5,a5,0x2
100128a4:	00f80533          	add	a0,a6,a5
100128a8:	00000593          	li	a1,0
100128ac:	af5ef0ef          	jal	ra,100023a0 <memset>
100128b0:	01012703          	lw	a4,16(sp)
100128b4:	008037b3          	snez	a5,s0
100128b8:	00f767b3          	or	a5,a4,a5
100128bc:	00f12823          	sw	a5,16(sp)
100128c0:	01012783          	lw	a5,16(sp)
100128c4:	01412703          	lw	a4,20(sp)
100128c8:	000b0413          	mv	s0,s6
100128cc:	00f487b3          	add	a5,s1,a5
100128d0:	00ea8733          	add	a4,s5,a4
100128d4:	02f12823          	sw	a5,48(sp)
100128d8:	0097b7b3          	sltu	a5,a5,s1
100128dc:	00f706b3          	add	a3,a4,a5
100128e0:	02d12a23          	sw	a3,52(sp)
100128e4:	00f6b6b3          	sltu	a3,a3,a5
100128e8:	01812783          	lw	a5,24(sp)
100128ec:	01573733          	sltu	a4,a4,s5
100128f0:	00d76733          	or	a4,a4,a3
100128f4:	00fb87b3          	add	a5,s7,a5
100128f8:	00e786b3          	add	a3,a5,a4
100128fc:	02d12c23          	sw	a3,56(sp)
10012900:	00e6b6b3          	sltu	a3,a3,a4
10012904:	01c12703          	lw	a4,28(sp)
10012908:	0177b7b3          	sltu	a5,a5,s7
1001290c:	00d7e7b3          	or	a5,a5,a3
10012910:	00ec0733          	add	a4,s8,a4
10012914:	00e787b3          	add	a5,a5,a4
10012918:	b69ff06f          	j	10012480 <__subtf3+0x38c>
1001291c:	ffc62583          	lw	a1,-4(a2)
10012920:	00062e03          	lw	t3,0(a2)
10012924:	00130313          	addi	t1,t1,1
10012928:	00a5d5b3          	srl	a1,a1,a0
1001292c:	011e1e33          	sll	t3,t3,a7
10012930:	01c5e5b3          	or	a1,a1,t3
10012934:	00b6a023          	sw	a1,0(a3)
10012938:	00468693          	addi	a3,a3,4
1001293c:	f29ff06f          	j	10012864 <__subtf3+0x770>
10012940:	00008837          	lui	a6,0x8
10012944:	00140693          	addi	a3,s0,1
10012948:	ffe80893          	addi	a7,a6,-2 # 7ffe <__heap_size+0x6ffe>
1001294c:	0116f8b3          	and	a7,a3,a7
10012950:	01412503          	lw	a0,20(sp)
10012954:	01812583          	lw	a1,24(sp)
10012958:	01c12703          	lw	a4,28(sp)
1001295c:	03010793          	addi	a5,sp,48
10012960:	03c10613          	addi	a2,sp,60
10012964:	14089863          	bnez	a7,10012ab4 <__subtf3+0x9c0>
10012968:	00b566b3          	or	a3,a0,a1
1001296c:	00e6e6b3          	or	a3,a3,a4
10012970:	0126e6b3          	or	a3,a3,s2
10012974:	0a041863          	bnez	s0,10012a24 <__subtf3+0x930>
10012978:	00069c63          	bnez	a3,10012990 <__subtf3+0x89c>
1001297c:	02912823          	sw	s1,48(sp)
10012980:	03512a23          	sw	s5,52(sp)
10012984:	03712c23          	sw	s7,56(sp)
10012988:	03812e23          	sw	s8,60(sp)
1001298c:	bf1ff06f          	j	1001257c <__subtf3+0x488>
10012990:	017ae7b3          	or	a5,s5,s7
10012994:	0187e7b3          	or	a5,a5,s8
10012998:	0097e7b3          	or	a5,a5,s1
1001299c:	00079c63          	bnez	a5,100129b4 <__subtf3+0x8c0>
100129a0:	03212823          	sw	s2,48(sp)
100129a4:	02a12a23          	sw	a0,52(sp)
100129a8:	02b12c23          	sw	a1,56(sp)
100129ac:	02e12e23          	sw	a4,60(sp)
100129b0:	bcdff06f          	j	1001257c <__subtf3+0x488>
100129b4:	009904b3          	add	s1,s2,s1
100129b8:	01550ab3          	add	s5,a0,s5
100129bc:	02912823          	sw	s1,48(sp)
100129c0:	0124b4b3          	sltu	s1,s1,s2
100129c4:	009a87b3          	add	a5,s5,s1
100129c8:	02f12a23          	sw	a5,52(sp)
100129cc:	00aabab3          	sltu	s5,s5,a0
100129d0:	0097b7b3          	sltu	a5,a5,s1
100129d4:	00faeab3          	or	s5,s5,a5
100129d8:	01758bb3          	add	s7,a1,s7
100129dc:	015b87b3          	add	a5,s7,s5
100129e0:	02f12c23          	sw	a5,56(sp)
100129e4:	00bbbbb3          	sltu	s7,s7,a1
100129e8:	0157b7b3          	sltu	a5,a5,s5
100129ec:	00fbebb3          	or	s7,s7,a5
100129f0:	01870733          	add	a4,a4,s8
100129f4:	00eb8bb3          	add	s7,s7,a4
100129f8:	000807b7          	lui	a5,0x80
100129fc:	00fbf7b3          	and	a5,s7,a5
10012a00:	00079663          	bnez	a5,10012a0c <__subtf3+0x918>
10012a04:	03712e23          	sw	s7,60(sp)
10012a08:	b75ff06f          	j	1001257c <__subtf3+0x488>
10012a0c:	fff807b7          	lui	a5,0xfff80
10012a10:	fff78793          	addi	a5,a5,-1 # fff7ffff <_sp+0xeff57a93>
10012a14:	00fbfbb3          	and	s7,s7,a5
10012a18:	03712e23          	sw	s7,60(sp)
10012a1c:	00100413          	li	s0,1
10012a20:	b5dff06f          	j	1001257c <__subtf3+0x488>
10012a24:	00069e63          	bnez	a3,10012a40 <__subtf3+0x94c>
10012a28:	02912823          	sw	s1,48(sp)
10012a2c:	03512a23          	sw	s5,52(sp)
10012a30:	03712c23          	sw	s7,56(sp)
10012a34:	03812e23          	sw	s8,60(sp)
10012a38:	fff80413          	addi	s0,a6,-1
10012a3c:	b41ff06f          	j	1001257c <__subtf3+0x488>
10012a40:	017aeab3          	or	s5,s5,s7
10012a44:	018aeab3          	or	s5,s5,s8
10012a48:	009aeab3          	or	s5,s5,s1
10012a4c:	000a9c63          	bnez	s5,10012a64 <__subtf3+0x970>
10012a50:	03212823          	sw	s2,48(sp)
10012a54:	02a12a23          	sw	a0,52(sp)
10012a58:	02b12c23          	sw	a1,56(sp)
10012a5c:	02e12e23          	sw	a4,60(sp)
10012a60:	fd9ff06f          	j	10012a38 <__subtf3+0x944>
10012a64:	03012e23          	sw	a6,60(sp)
10012a68:	02012c23          	sw	zero,56(sp)
10012a6c:	02012a23          	sw	zero,52(sp)
10012a70:	02012823          	sw	zero,48(sp)
10012a74:	00060713          	mv	a4,a2
10012a78:	00072683          	lw	a3,0(a4)
10012a7c:	ffc72603          	lw	a2,-4(a4)
10012a80:	ffc70713          	addi	a4,a4,-4
10012a84:	00369693          	slli	a3,a3,0x3
10012a88:	01d65613          	srli	a2,a2,0x1d
10012a8c:	00c6e6b3          	or	a3,a3,a2
10012a90:	00d72223          	sw	a3,4(a4)
10012a94:	fee792e3          	bne	a5,a4,10012a78 <__subtf3+0x984>
10012a98:	03012783          	lw	a5,48(sp)
10012a9c:	00008437          	lui	s0,0x8
10012aa0:	00000993          	li	s3,0
10012aa4:	00379793          	slli	a5,a5,0x3
10012aa8:	02f12823          	sw	a5,48(sp)
10012aac:	fff40413          	addi	s0,s0,-1 # 7fff <__heap_size+0x6fff>
10012ab0:	acdff06f          	j	1001257c <__subtf3+0x488>
10012ab4:	009904b3          	add	s1,s2,s1
10012ab8:	01550ab3          	add	s5,a0,s5
10012abc:	02912823          	sw	s1,48(sp)
10012ac0:	0124b4b3          	sltu	s1,s1,s2
10012ac4:	009a8833          	add	a6,s5,s1
10012ac8:	03012a23          	sw	a6,52(sp)
10012acc:	00aabab3          	sltu	s5,s5,a0
10012ad0:	00983833          	sltu	a6,a6,s1
10012ad4:	010aeab3          	or	s5,s5,a6
10012ad8:	01758bb3          	add	s7,a1,s7
10012adc:	015b8533          	add	a0,s7,s5
10012ae0:	02a12c23          	sw	a0,56(sp)
10012ae4:	00bbbbb3          	sltu	s7,s7,a1
10012ae8:	01553533          	sltu	a0,a0,s5
10012aec:	00abebb3          	or	s7,s7,a0
10012af0:	01870733          	add	a4,a4,s8
10012af4:	00eb8bb3          	add	s7,s7,a4
10012af8:	03712e23          	sw	s7,60(sp)
10012afc:	0007a703          	lw	a4,0(a5)
10012b00:	0047a583          	lw	a1,4(a5)
10012b04:	00478793          	addi	a5,a5,4
10012b08:	00175713          	srli	a4,a4,0x1
10012b0c:	01f59593          	slli	a1,a1,0x1f
10012b10:	00b76733          	or	a4,a4,a1
10012b14:	fee7ae23          	sw	a4,-4(a5)
10012b18:	fef612e3          	bne	a2,a5,10012afc <__subtf3+0xa08>
10012b1c:	00008737          	lui	a4,0x8
10012b20:	fff70713          	addi	a4,a4,-1 # 7fff <__heap_size+0x6fff>
10012b24:	03c12783          	lw	a5,60(sp)
10012b28:	00e68a63          	beq	a3,a4,10012b3c <__subtf3+0xa48>
10012b2c:	0017d793          	srli	a5,a5,0x1
10012b30:	02f12e23          	sw	a5,60(sp)
10012b34:	00068413          	mv	s0,a3
10012b38:	a45ff06f          	j	1001257c <__subtf3+0x488>
10012b3c:	02012e23          	sw	zero,60(sp)
10012b40:	02012c23          	sw	zero,56(sp)
10012b44:	02012a23          	sw	zero,52(sp)
10012b48:	02012823          	sw	zero,48(sp)
10012b4c:	fe9ff06f          	j	10012b34 <__subtf3+0xa40>
10012b50:	26b05863          	blez	a1,10012dc0 <__subtf3+0xccc>
10012b54:	01412c03          	lw	s8,20(sp)
10012b58:	01812b83          	lw	s7,24(sp)
10012b5c:	01c12a83          	lw	s5,28(sp)
10012b60:	0a0b1263          	bnez	s6,10012c04 <__subtf3+0xb10>
10012b64:	02412603          	lw	a2,36(sp)
10012b68:	02812803          	lw	a6,40(sp)
10012b6c:	02c12783          	lw	a5,44(sp)
10012b70:	010666b3          	or	a3,a2,a6
10012b74:	00f6e6b3          	or	a3,a3,a5
10012b78:	0096e6b3          	or	a3,a3,s1
10012b7c:	f0068063          	beqz	a3,1001227c <__subtf3+0x188>
10012b80:	fff58893          	addi	a7,a1,-1
10012b84:	04089c63          	bnez	a7,10012bdc <__subtf3+0xae8>
10012b88:	40990733          	sub	a4,s2,s1
10012b8c:	40cc06b3          	sub	a3,s8,a2
10012b90:	00e935b3          	sltu	a1,s2,a4
10012b94:	00dc3533          	sltu	a0,s8,a3
10012b98:	40b686b3          	sub	a3,a3,a1
10012b9c:	00000593          	li	a1,0
10012ba0:	00e97663          	bgeu	s2,a4,10012bac <__subtf3+0xab8>
10012ba4:	41860633          	sub	a2,a2,s8
10012ba8:	00163593          	seqz	a1,a2
10012bac:	00a5e5b3          	or	a1,a1,a0
10012bb0:	410b8633          	sub	a2,s7,a6
10012bb4:	00cbb533          	sltu	a0,s7,a2
10012bb8:	40b60633          	sub	a2,a2,a1
10012bbc:	00058663          	beqz	a1,10012bc8 <__subtf3+0xad4>
10012bc0:	41780833          	sub	a6,a6,s7
10012bc4:	00183893          	seqz	a7,a6
10012bc8:	40fa87b3          	sub	a5,s5,a5
10012bcc:	00a8e5b3          	or	a1,a7,a0
10012bd0:	40b787b3          	sub	a5,a5,a1
10012bd4:	00100413          	li	s0,1
10012bd8:	1980006f          	j	10012d70 <__subtf3+0xc7c>
10012bdc:	000087b7          	lui	a5,0x8
10012be0:	fff78793          	addi	a5,a5,-1 # 7fff <__heap_size+0x6fff>
10012be4:	e8f58c63          	beq	a1,a5,1001227c <__subtf3+0x188>
10012be8:	07400793          	li	a5,116
10012bec:	0517d063          	bge	a5,a7,10012c2c <__subtf3+0xb38>
10012bf0:	02012623          	sw	zero,44(sp)
10012bf4:	02012423          	sw	zero,40(sp)
10012bf8:	02012223          	sw	zero,36(sp)
10012bfc:	00100793          	li	a5,1
10012c00:	10c0006f          	j	10012d0c <__subtf3+0xc18>
10012c04:	000087b7          	lui	a5,0x8
10012c08:	fff78793          	addi	a5,a5,-1 # 7fff <__heap_size+0x6fff>
10012c0c:	f0f40863          	beq	s0,a5,1001231c <__subtf3+0x228>
10012c10:	02c12783          	lw	a5,44(sp)
10012c14:	000806b7          	lui	a3,0x80
10012c18:	00d7e7b3          	or	a5,a5,a3
10012c1c:	02f12623          	sw	a5,44(sp)
10012c20:	07400793          	li	a5,116
10012c24:	fcb7c6e3          	blt	a5,a1,10012bf0 <__subtf3+0xafc>
10012c28:	00058893          	mv	a7,a1
10012c2c:	4058d793          	srai	a5,a7,0x5
10012c30:	00070613          	mv	a2,a4
10012c34:	00000493          	li	s1,0
10012c38:	00000693          	li	a3,0
10012c3c:	04f69063          	bne	a3,a5,10012c7c <__subtf3+0xb88>
10012c40:	01f8f893          	andi	a7,a7,31
10012c44:	00279613          	slli	a2,a5,0x2
10012c48:	04089463          	bnez	a7,10012c90 <__subtf3+0xb9c>
10012c4c:	00300593          	li	a1,3
10012c50:	00000693          	li	a3,0
10012c54:	40f585b3          	sub	a1,a1,a5
10012c58:	00c70833          	add	a6,a4,a2
10012c5c:	00082803          	lw	a6,0(a6)
10012c60:	00168693          	addi	a3,a3,1 # 80001 <__heap_size+0x7f001>
10012c64:	00470713          	addi	a4,a4,4
10012c68:	ff072e23          	sw	a6,-4(a4)
10012c6c:	fed5d6e3          	bge	a1,a3,10012c58 <__subtf3+0xb64>
10012c70:	00400713          	li	a4,4
10012c74:	40f707b3          	sub	a5,a4,a5
10012c78:	06c0006f          	j	10012ce4 <__subtf3+0xbf0>
10012c7c:	00062583          	lw	a1,0(a2)
10012c80:	00168693          	addi	a3,a3,1
10012c84:	00460613          	addi	a2,a2,4
10012c88:	00b4e4b3          	or	s1,s1,a1
10012c8c:	fb1ff06f          	j	10012c3c <__subtf3+0xb48>
10012c90:	04060693          	addi	a3,a2,64
10012c94:	002686b3          	add	a3,a3,sp
10012c98:	fe06a683          	lw	a3,-32(a3)
10012c9c:	02000813          	li	a6,32
10012ca0:	41180833          	sub	a6,a6,a7
10012ca4:	010696b3          	sll	a3,a3,a6
10012ca8:	00d4e4b3          	or	s1,s1,a3
10012cac:	00300693          	li	a3,3
10012cb0:	00c50633          	add	a2,a0,a2
10012cb4:	00000313          	li	t1,0
10012cb8:	40f686b3          	sub	a3,a3,a5
10012cbc:	00460613          	addi	a2,a2,4
10012cc0:	0cd34e63          	blt	t1,a3,10012d9c <__subtf3+0xca8>
10012cc4:	00400713          	li	a4,4
10012cc8:	00269693          	slli	a3,a3,0x2
10012ccc:	40f707b3          	sub	a5,a4,a5
10012cd0:	04068713          	addi	a4,a3,64
10012cd4:	002706b3          	add	a3,a4,sp
10012cd8:	02c12703          	lw	a4,44(sp)
10012cdc:	01175733          	srl	a4,a4,a7
10012ce0:	fee6a023          	sw	a4,-32(a3)
10012ce4:	00400613          	li	a2,4
10012ce8:	40f60633          	sub	a2,a2,a5
10012cec:	00279793          	slli	a5,a5,0x2
10012cf0:	00f50533          	add	a0,a0,a5
10012cf4:	00261613          	slli	a2,a2,0x2
10012cf8:	00000593          	li	a1,0
10012cfc:	ea4ef0ef          	jal	ra,100023a0 <memset>
10012d00:	02012703          	lw	a4,32(sp)
10012d04:	009037b3          	snez	a5,s1
10012d08:	00f767b3          	or	a5,a4,a5
10012d0c:	02f12023          	sw	a5,32(sp)
10012d10:	02012703          	lw	a4,32(sp)
10012d14:	02412603          	lw	a2,36(sp)
10012d18:	40e90733          	sub	a4,s2,a4
10012d1c:	40cc06b3          	sub	a3,s8,a2
10012d20:	00e937b3          	sltu	a5,s2,a4
10012d24:	00dc35b3          	sltu	a1,s8,a3
10012d28:	40f686b3          	sub	a3,a3,a5
10012d2c:	00000793          	li	a5,0
10012d30:	00e97663          	bgeu	s2,a4,10012d3c <__subtf3+0xc48>
10012d34:	41860633          	sub	a2,a2,s8
10012d38:	00163793          	seqz	a5,a2
10012d3c:	02812503          	lw	a0,40(sp)
10012d40:	00b7e7b3          	or	a5,a5,a1
10012d44:	00000593          	li	a1,0
10012d48:	40ab8633          	sub	a2,s7,a0
10012d4c:	00cbb833          	sltu	a6,s7,a2
10012d50:	40f60633          	sub	a2,a2,a5
10012d54:	00078663          	beqz	a5,10012d60 <__subtf3+0xc6c>
10012d58:	41750533          	sub	a0,a0,s7
10012d5c:	00153593          	seqz	a1,a0
10012d60:	02c12783          	lw	a5,44(sp)
10012d64:	0105e5b3          	or	a1,a1,a6
10012d68:	40fa87b3          	sub	a5,s5,a5
10012d6c:	40b787b3          	sub	a5,a5,a1
10012d70:	02e12823          	sw	a4,48(sp)
10012d74:	00080737          	lui	a4,0x80
10012d78:	02d12a23          	sw	a3,52(sp)
10012d7c:	02f12e23          	sw	a5,60(sp)
10012d80:	02c12c23          	sw	a2,56(sp)
10012d84:	00e7f6b3          	and	a3,a5,a4
10012d88:	fe068a63          	beqz	a3,1001257c <__subtf3+0x488>
10012d8c:	fff70713          	addi	a4,a4,-1 # 7ffff <__heap_size+0x7efff>
10012d90:	00e7f7b3          	and	a5,a5,a4
10012d94:	02f12e23          	sw	a5,60(sp)
10012d98:	5ac0006f          	j	10013344 <__subtf3+0x1250>
10012d9c:	ffc62583          	lw	a1,-4(a2)
10012da0:	00062e03          	lw	t3,0(a2)
10012da4:	00130313          	addi	t1,t1,1
10012da8:	0115d5b3          	srl	a1,a1,a7
10012dac:	010e1e33          	sll	t3,t3,a6
10012db0:	01c5e5b3          	or	a1,a1,t3
10012db4:	00b72023          	sw	a1,0(a4)
10012db8:	00470713          	addi	a4,a4,4
10012dbc:	f01ff06f          	j	10012cbc <__subtf3+0xbc8>
10012dc0:	02412a83          	lw	s5,36(sp)
10012dc4:	02812c03          	lw	s8,40(sp)
10012dc8:	02c12c83          	lw	s9,44(sp)
10012dcc:	2c058063          	beqz	a1,1001308c <__subtf3+0xf98>
10012dd0:	408b0733          	sub	a4,s6,s0
10012dd4:	0a041a63          	bnez	s0,10012e88 <__subtf3+0xd94>
10012dd8:	01412603          	lw	a2,20(sp)
10012ddc:	01812583          	lw	a1,24(sp)
10012de0:	01c12783          	lw	a5,28(sp)
10012de4:	00b66533          	or	a0,a2,a1
10012de8:	00f56533          	or	a0,a0,a5
10012dec:	01256533          	or	a0,a0,s2
10012df0:	02051063          	bnez	a0,10012e10 <__subtf3+0xd1c>
10012df4:	02912823          	sw	s1,48(sp)
10012df8:	03512a23          	sw	s5,52(sp)
10012dfc:	03812c23          	sw	s8,56(sp)
10012e00:	03912e23          	sw	s9,60(sp)
10012e04:	00070413          	mv	s0,a4
10012e08:	000b8993          	mv	s3,s7
10012e0c:	f70ff06f          	j	1001257c <__subtf3+0x488>
10012e10:	fff70893          	addi	a7,a4,-1
10012e14:	04089c63          	bnez	a7,10012e6c <__subtf3+0xd78>
10012e18:	41248733          	sub	a4,s1,s2
10012e1c:	40ca86b3          	sub	a3,s5,a2
10012e20:	00e4b533          	sltu	a0,s1,a4
10012e24:	00dab833          	sltu	a6,s5,a3
10012e28:	40a686b3          	sub	a3,a3,a0
10012e2c:	00000513          	li	a0,0
10012e30:	00e4f663          	bgeu	s1,a4,10012e3c <__subtf3+0xd48>
10012e34:	41560633          	sub	a2,a2,s5
10012e38:	00163513          	seqz	a0,a2
10012e3c:	01056533          	or	a0,a0,a6
10012e40:	40bc0633          	sub	a2,s8,a1
10012e44:	00cc3833          	sltu	a6,s8,a2
10012e48:	40a60633          	sub	a2,a2,a0
10012e4c:	00050663          	beqz	a0,10012e58 <__subtf3+0xd64>
10012e50:	418585b3          	sub	a1,a1,s8
10012e54:	0015b893          	seqz	a7,a1
10012e58:	40fc87b3          	sub	a5,s9,a5
10012e5c:	0108e5b3          	or	a1,a7,a6
10012e60:	40b787b3          	sub	a5,a5,a1
10012e64:	000b8993          	mv	s3,s7
10012e68:	d6dff06f          	j	10012bd4 <__subtf3+0xae0>
10012e6c:	000087b7          	lui	a5,0x8
10012e70:	fff78793          	addi	a5,a5,-1 # 7fff <__heap_size+0x6fff>
10012e74:	f8f700e3          	beq	a4,a5,10012df4 <__subtf3+0xd00>
10012e78:	07400793          	li	a5,116
10012e7c:	1f17ce63          	blt	a5,a7,10013078 <__subtf3+0xf84>
10012e80:	00088713          	mv	a4,a7
10012e84:	0400006f          	j	10012ec4 <__subtf3+0xdd0>
10012e88:	000087b7          	lui	a5,0x8
10012e8c:	fff78793          	addi	a5,a5,-1 # 7fff <__heap_size+0x6fff>
10012e90:	00fb1e63          	bne	s6,a5,10012eac <__subtf3+0xdb8>
10012e94:	02912823          	sw	s1,48(sp)
10012e98:	03512a23          	sw	s5,52(sp)
10012e9c:	03812c23          	sw	s8,56(sp)
10012ea0:	03912e23          	sw	s9,60(sp)
10012ea4:	000b0413          	mv	s0,s6
10012ea8:	f61ff06f          	j	10012e08 <__subtf3+0xd14>
10012eac:	01c12783          	lw	a5,28(sp)
10012eb0:	00080637          	lui	a2,0x80
10012eb4:	00c7e7b3          	or	a5,a5,a2
10012eb8:	00f12e23          	sw	a5,28(sp)
10012ebc:	07400793          	li	a5,116
10012ec0:	1ae7cc63          	blt	a5,a4,10013078 <__subtf3+0xf84>
10012ec4:	41f75793          	srai	a5,a4,0x1f
10012ec8:	01f7f793          	andi	a5,a5,31
10012ecc:	00e787b3          	add	a5,a5,a4
10012ed0:	4057d793          	srai	a5,a5,0x5
10012ed4:	00068593          	mv	a1,a3
10012ed8:	00000413          	li	s0,0
10012edc:	00000613          	li	a2,0
10012ee0:	04f64663          	blt	a2,a5,10012f2c <__subtf3+0xe38>
10012ee4:	00078593          	mv	a1,a5
10012ee8:	0007d463          	bgez	a5,10012ef0 <__subtf3+0xdfc>
10012eec:	00000593          	li	a1,0
10012ef0:	01f77893          	andi	a7,a4,31
10012ef4:	00279613          	slli	a2,a5,0x2
10012ef8:	04089463          	bnez	a7,10012f40 <__subtf3+0xe4c>
10012efc:	00300593          	li	a1,3
10012f00:	00000713          	li	a4,0
10012f04:	40f585b3          	sub	a1,a1,a5
10012f08:	00c68533          	add	a0,a3,a2
10012f0c:	00052503          	lw	a0,0(a0)
10012f10:	00170713          	addi	a4,a4,1
10012f14:	00468693          	addi	a3,a3,4
10012f18:	fea6ae23          	sw	a0,-4(a3)
10012f1c:	fee5d6e3          	bge	a1,a4,10012f08 <__subtf3+0xe14>
10012f20:	00400713          	li	a4,4
10012f24:	40f707b3          	sub	a5,a4,a5
10012f28:	08c0006f          	j	10012fb4 <__subtf3+0xec0>
10012f2c:	0005a503          	lw	a0,0(a1)
10012f30:	00160613          	addi	a2,a2,1 # 80001 <__heap_size+0x7f001>
10012f34:	00458593          	addi	a1,a1,4
10012f38:	00a46433          	or	s0,s0,a0
10012f3c:	fa5ff06f          	j	10012ee0 <__subtf3+0xdec>
10012f40:	80000537          	lui	a0,0x80000
10012f44:	01f50513          	addi	a0,a0,31 # 8000001f <_sp+0x6ffd7ab3>
10012f48:	00a77733          	and	a4,a4,a0
10012f4c:	00075863          	bgez	a4,10012f5c <__subtf3+0xe68>
10012f50:	fff70713          	addi	a4,a4,-1
10012f54:	fe076713          	ori	a4,a4,-32
10012f58:	00170713          	addi	a4,a4,1
10012f5c:	00259593          	slli	a1,a1,0x2
10012f60:	02000513          	li	a0,32
10012f64:	40e50533          	sub	a0,a0,a4
10012f68:	04058713          	addi	a4,a1,64
10012f6c:	002705b3          	add	a1,a4,sp
10012f70:	fd05a703          	lw	a4,-48(a1)
10012f74:	00c80633          	add	a2,a6,a2
10012f78:	00000313          	li	t1,0
10012f7c:	00a71733          	sll	a4,a4,a0
10012f80:	00e46433          	or	s0,s0,a4
10012f84:	00300713          	li	a4,3
10012f88:	40f70733          	sub	a4,a4,a5
10012f8c:	00460613          	addi	a2,a2,4
10012f90:	0ce34263          	blt	t1,a4,10013054 <__subtf3+0xf60>
10012f94:	00400693          	li	a3,4
10012f98:	40f687b3          	sub	a5,a3,a5
10012f9c:	01c12683          	lw	a3,28(sp)
10012fa0:	00271713          	slli	a4,a4,0x2
10012fa4:	04070713          	addi	a4,a4,64
10012fa8:	00270733          	add	a4,a4,sp
10012fac:	0116d6b3          	srl	a3,a3,a7
10012fb0:	fcd72823          	sw	a3,-48(a4)
10012fb4:	00400713          	li	a4,4
10012fb8:	00000613          	li	a2,0
10012fbc:	00f74663          	blt	a4,a5,10012fc8 <__subtf3+0xed4>
10012fc0:	40f70733          	sub	a4,a4,a5
10012fc4:	00271613          	slli	a2,a4,0x2
10012fc8:	00279793          	slli	a5,a5,0x2
10012fcc:	00f80533          	add	a0,a6,a5
10012fd0:	00000593          	li	a1,0
10012fd4:	bccef0ef          	jal	ra,100023a0 <memset>
10012fd8:	01012703          	lw	a4,16(sp)
10012fdc:	008037b3          	snez	a5,s0
10012fe0:	00f767b3          	or	a5,a4,a5
10012fe4:	00f12823          	sw	a5,16(sp)
10012fe8:	01012703          	lw	a4,16(sp)
10012fec:	01412603          	lw	a2,20(sp)
10012ff0:	40e48733          	sub	a4,s1,a4
10012ff4:	40ca86b3          	sub	a3,s5,a2
10012ff8:	00e4b7b3          	sltu	a5,s1,a4
10012ffc:	00dab5b3          	sltu	a1,s5,a3
10013000:	40f686b3          	sub	a3,a3,a5
10013004:	00000793          	li	a5,0
10013008:	00e4f663          	bgeu	s1,a4,10013014 <__subtf3+0xf20>
1001300c:	41560633          	sub	a2,a2,s5
10013010:	00163793          	seqz	a5,a2
10013014:	01812503          	lw	a0,24(sp)
10013018:	00b7e7b3          	or	a5,a5,a1
1001301c:	00000593          	li	a1,0
10013020:	40ac0633          	sub	a2,s8,a0
10013024:	00cc3833          	sltu	a6,s8,a2
10013028:	40f60633          	sub	a2,a2,a5
1001302c:	00078663          	beqz	a5,10013038 <__subtf3+0xf44>
10013030:	41850533          	sub	a0,a0,s8
10013034:	00153593          	seqz	a1,a0
10013038:	01c12783          	lw	a5,28(sp)
1001303c:	0105e5b3          	or	a1,a1,a6
10013040:	000b0413          	mv	s0,s6
10013044:	40fc87b3          	sub	a5,s9,a5
10013048:	40b787b3          	sub	a5,a5,a1
1001304c:	000b8993          	mv	s3,s7
10013050:	d21ff06f          	j	10012d70 <__subtf3+0xc7c>
10013054:	ffc62583          	lw	a1,-4(a2)
10013058:	00062e03          	lw	t3,0(a2)
1001305c:	00130313          	addi	t1,t1,1
10013060:	0115d5b3          	srl	a1,a1,a7
10013064:	00ae1e33          	sll	t3,t3,a0
10013068:	01c5e5b3          	or	a1,a1,t3
1001306c:	00b6a023          	sw	a1,0(a3)
10013070:	00468693          	addi	a3,a3,4
10013074:	f19ff06f          	j	10012f8c <__subtf3+0xe98>
10013078:	00012e23          	sw	zero,28(sp)
1001307c:	00012c23          	sw	zero,24(sp)
10013080:	00012a23          	sw	zero,20(sp)
10013084:	00100793          	li	a5,1
10013088:	f5dff06f          	j	10012fe4 <__subtf3+0xef0>
1001308c:	00008537          	lui	a0,0x8
10013090:	ffe50713          	addi	a4,a0,-2 # 7ffe <__heap_size+0x6ffe>
10013094:	00140793          	addi	a5,s0,1
10013098:	00e7f7b3          	and	a5,a5,a4
1001309c:	01812683          	lw	a3,24(sp)
100130a0:	01412703          	lw	a4,20(sp)
100130a4:	01c12603          	lw	a2,28(sp)
100130a8:	1e079063          	bnez	a5,10013288 <__subtf3+0x1194>
100130ac:	018ae7b3          	or	a5,s5,s8
100130b0:	00d765b3          	or	a1,a4,a3
100130b4:	0197e7b3          	or	a5,a5,s9
100130b8:	00c5e5b3          	or	a1,a1,a2
100130bc:	0097e7b3          	or	a5,a5,s1
100130c0:	0125e5b3          	or	a1,a1,s2
100130c4:	10041a63          	bnez	s0,100131d8 <__subtf3+0x10e4>
100130c8:	02059463          	bnez	a1,100130f0 <__subtf3+0xffc>
100130cc:	02912823          	sw	s1,48(sp)
100130d0:	03512a23          	sw	s5,52(sp)
100130d4:	03812c23          	sw	s8,56(sp)
100130d8:	03912e23          	sw	s9,60(sp)
100130dc:	000b8993          	mv	s3,s7
100130e0:	c8079e63          	bnez	a5,1001257c <__subtf3+0x488>
100130e4:	00000413          	li	s0,0
100130e8:	00000993          	li	s3,0
100130ec:	c90ff06f          	j	1001257c <__subtf3+0x488>
100130f0:	00079c63          	bnez	a5,10013108 <__subtf3+0x1014>
100130f4:	03212823          	sw	s2,48(sp)
100130f8:	02e12a23          	sw	a4,52(sp)
100130fc:	02d12c23          	sw	a3,56(sp)
10013100:	02c12e23          	sw	a2,60(sp)
10013104:	c78ff06f          	j	1001257c <__subtf3+0x488>
10013108:	409907b3          	sub	a5,s2,s1
1001310c:	41570333          	sub	t1,a4,s5
10013110:	00f93533          	sltu	a0,s2,a5
10013114:	00673833          	sltu	a6,a4,t1
10013118:	40a30533          	sub	a0,t1,a0
1001311c:	00000593          	li	a1,0
10013120:	00f97463          	bgeu	s2,a5,10013128 <__subtf3+0x1034>
10013124:	00133593          	seqz	a1,t1
10013128:	0105e5b3          	or	a1,a1,a6
1001312c:	41868833          	sub	a6,a3,s8
10013130:	0106beb3          	sltu	t4,a3,a6
10013134:	40b80e33          	sub	t3,a6,a1
10013138:	00000893          	li	a7,0
1001313c:	00058463          	beqz	a1,10013144 <__subtf3+0x1050>
10013140:	00183893          	seqz	a7,a6
10013144:	01d8e8b3          	or	a7,a7,t4
10013148:	419605b3          	sub	a1,a2,s9
1001314c:	411585b3          	sub	a1,a1,a7
10013150:	000808b7          	lui	a7,0x80
10013154:	02b12e23          	sw	a1,60(sp)
10013158:	03c12c23          	sw	t3,56(sp)
1001315c:	02a12a23          	sw	a0,52(sp)
10013160:	02f12823          	sw	a5,48(sp)
10013164:	0115f8b3          	and	a7,a1,a7
10013168:	06088063          	beqz	a7,100131c8 <__subtf3+0x10d4>
1001316c:	41248933          	sub	s2,s1,s2
10013170:	40ea8733          	sub	a4,s5,a4
10013174:	0124b7b3          	sltu	a5,s1,s2
10013178:	00eabab3          	sltu	s5,s5,a4
1001317c:	40f70733          	sub	a4,a4,a5
10013180:	00000793          	li	a5,0
10013184:	0124f463          	bgeu	s1,s2,1001318c <__subtf3+0x1098>
10013188:	00133793          	seqz	a5,t1
1001318c:	0157eab3          	or	s5,a5,s5
10013190:	40dc06b3          	sub	a3,s8,a3
10013194:	00dc3c33          	sltu	s8,s8,a3
10013198:	00000793          	li	a5,0
1001319c:	415686b3          	sub	a3,a3,s5
100131a0:	000a8463          	beqz	s5,100131a8 <__subtf3+0x10b4>
100131a4:	00183793          	seqz	a5,a6
100131a8:	40cc8633          	sub	a2,s9,a2
100131ac:	0187e7b3          	or	a5,a5,s8
100131b0:	40f60633          	sub	a2,a2,a5
100131b4:	02c12e23          	sw	a2,60(sp)
100131b8:	02d12c23          	sw	a3,56(sp)
100131bc:	02e12a23          	sw	a4,52(sp)
100131c0:	03212823          	sw	s2,48(sp)
100131c4:	c45ff06f          	j	10012e08 <__subtf3+0xd14>
100131c8:	00a7e7b3          	or	a5,a5,a0
100131cc:	01c7e7b3          	or	a5,a5,t3
100131d0:	00b7e7b3          	or	a5,a5,a1
100131d4:	f0dff06f          	j	100130e0 <__subtf3+0xfec>
100131d8:	03010813          	addi	a6,sp,48
100131dc:	04059e63          	bnez	a1,10013238 <__subtf3+0x1144>
100131e0:	02079e63          	bnez	a5,1001321c <__subtf3+0x1128>
100131e4:	02a12e23          	sw	a0,60(sp)
100131e8:	02012c23          	sw	zero,56(sp)
100131ec:	02012a23          	sw	zero,52(sp)
100131f0:	02012823          	sw	zero,48(sp)
100131f4:	03c10793          	addi	a5,sp,60
100131f8:	0007a703          	lw	a4,0(a5)
100131fc:	ffc7a683          	lw	a3,-4(a5)
10013200:	ffc78793          	addi	a5,a5,-4
10013204:	00371713          	slli	a4,a4,0x3
10013208:	01d6d693          	srli	a3,a3,0x1d
1001320c:	00d76733          	or	a4,a4,a3
10013210:	00e7a223          	sw	a4,4(a5)
10013214:	fef812e3          	bne	a6,a5,100131f8 <__subtf3+0x1104>
10013218:	881ff06f          	j	10012a98 <__subtf3+0x9a4>
1001321c:	02912823          	sw	s1,48(sp)
10013220:	03512a23          	sw	s5,52(sp)
10013224:	03812c23          	sw	s8,56(sp)
10013228:	03912e23          	sw	s9,60(sp)
1001322c:	000b8993          	mv	s3,s7
10013230:	fff50413          	addi	s0,a0,-1
10013234:	b48ff06f          	j	1001257c <__subtf3+0x488>
10013238:	00079c63          	bnez	a5,10013250 <__subtf3+0x115c>
1001323c:	03212823          	sw	s2,48(sp)
10013240:	02e12a23          	sw	a4,52(sp)
10013244:	02d12c23          	sw	a3,56(sp)
10013248:	02c12e23          	sw	a2,60(sp)
1001324c:	fe5ff06f          	j	10013230 <__subtf3+0x113c>
10013250:	02a12e23          	sw	a0,60(sp)
10013254:	02012c23          	sw	zero,56(sp)
10013258:	02012a23          	sw	zero,52(sp)
1001325c:	02012823          	sw	zero,48(sp)
10013260:	03c10793          	addi	a5,sp,60
10013264:	0007a703          	lw	a4,0(a5)
10013268:	ffc7a683          	lw	a3,-4(a5)
1001326c:	ffc78793          	addi	a5,a5,-4
10013270:	00371713          	slli	a4,a4,0x3
10013274:	01d6d693          	srli	a3,a3,0x1d
10013278:	00d76733          	or	a4,a4,a3
1001327c:	00e7a223          	sw	a4,4(a5)
10013280:	fef812e3          	bne	a6,a5,10013264 <__subtf3+0x1170>
10013284:	815ff06f          	j	10012a98 <__subtf3+0x9a4>
10013288:	409907b3          	sub	a5,s2,s1
1001328c:	41570e33          	sub	t3,a4,s5
10013290:	00f93833          	sltu	a6,s2,a5
10013294:	01c738b3          	sltu	a7,a4,t3
10013298:	410e0833          	sub	a6,t3,a6
1001329c:	00000513          	li	a0,0
100132a0:	00f97463          	bgeu	s2,a5,100132a8 <__subtf3+0x11b4>
100132a4:	001e3513          	seqz	a0,t3
100132a8:	01156533          	or	a0,a0,a7
100132ac:	418688b3          	sub	a7,a3,s8
100132b0:	0116bf33          	sltu	t5,a3,a7
100132b4:	40a88eb3          	sub	t4,a7,a0
100132b8:	00000313          	li	t1,0
100132bc:	00050463          	beqz	a0,100132c4 <__subtf3+0x11d0>
100132c0:	0018b313          	seqz	t1,a7
100132c4:	01e36333          	or	t1,t1,t5
100132c8:	41960533          	sub	a0,a2,s9
100132cc:	40650533          	sub	a0,a0,t1
100132d0:	00080337          	lui	t1,0x80
100132d4:	02a12e23          	sw	a0,60(sp)
100132d8:	03d12c23          	sw	t4,56(sp)
100132dc:	03012a23          	sw	a6,52(sp)
100132e0:	02f12823          	sw	a5,48(sp)
100132e4:	00657333          	and	t1,a0,t1
100132e8:	16030663          	beqz	t1,10013454 <__subtf3+0x1360>
100132ec:	41248933          	sub	s2,s1,s2
100132f0:	40ea8733          	sub	a4,s5,a4
100132f4:	0124b7b3          	sltu	a5,s1,s2
100132f8:	00eabab3          	sltu	s5,s5,a4
100132fc:	40f70733          	sub	a4,a4,a5
10013300:	00000793          	li	a5,0
10013304:	0124f463          	bgeu	s1,s2,1001330c <__subtf3+0x1218>
10013308:	001e3793          	seqz	a5,t3
1001330c:	40dc06b3          	sub	a3,s8,a3
10013310:	0157eab3          	or	s5,a5,s5
10013314:	00dc3c33          	sltu	s8,s8,a3
10013318:	415686b3          	sub	a3,a3,s5
1001331c:	000a8463          	beqz	s5,10013324 <__subtf3+0x1230>
10013320:	0018b593          	seqz	a1,a7
10013324:	40cc8633          	sub	a2,s9,a2
10013328:	0185e7b3          	or	a5,a1,s8
1001332c:	40f60633          	sub	a2,a2,a5
10013330:	02c12e23          	sw	a2,60(sp)
10013334:	02d12c23          	sw	a3,56(sp)
10013338:	02e12a23          	sw	a4,52(sp)
1001333c:	03212823          	sw	s2,48(sp)
10013340:	000b8993          	mv	s3,s7
10013344:	03c12503          	lw	a0,60(sp)
10013348:	12050063          	beqz	a0,10013468 <__subtf3+0x1374>
1001334c:	da1ee0ef          	jal	ra,100020ec <__clzsi2>
10013350:	ff450493          	addi	s1,a0,-12
10013354:	41f4d793          	srai	a5,s1,0x1f
10013358:	01f7f793          	andi	a5,a5,31
1001335c:	009787b3          	add	a5,a5,s1
10013360:	4057d793          	srai	a5,a5,0x5
10013364:	01f4f593          	andi	a1,s1,31
10013368:	40f006b3          	neg	a3,a5
1001336c:	12058a63          	beqz	a1,100134a0 <__subtf3+0x13ac>
10013370:	80000737          	lui	a4,0x80000
10013374:	01f70713          	addi	a4,a4,31 # 8000001f <_sp+0x6ffd7ab3>
10013378:	00e4f733          	and	a4,s1,a4
1001337c:	00075863          	bgez	a4,1001338c <__subtf3+0x1298>
10013380:	fff70713          	addi	a4,a4,-1
10013384:	fe076713          	ori	a4,a4,-32
10013388:	00170713          	addi	a4,a4,1
1001338c:	00269693          	slli	a3,a3,0x2
10013390:	02000513          	li	a0,32
10013394:	40e50533          	sub	a0,a0,a4
10013398:	03010893          	addi	a7,sp,48
1001339c:	00c68713          	addi	a4,a3,12
100133a0:	00e88733          	add	a4,a7,a4
100133a4:	40d006b3          	neg	a3,a3
100133a8:	12e89263          	bne	a7,a4,100134cc <__subtf3+0x13d8>
100133ac:	03012703          	lw	a4,48(sp)
100133b0:	fff78613          	addi	a2,a5,-1
100133b4:	00279793          	slli	a5,a5,0x2
100133b8:	04078793          	addi	a5,a5,64
100133bc:	002787b3          	add	a5,a5,sp
100133c0:	00b71733          	sll	a4,a4,a1
100133c4:	fee7a823          	sw	a4,-16(a5)
100133c8:	00160613          	addi	a2,a2,1
100133cc:	00261613          	slli	a2,a2,0x2
100133d0:	00000593          	li	a1,0
100133d4:	03010513          	addi	a0,sp,48
100133d8:	fc9ee0ef          	jal	ra,100023a0 <memset>
100133dc:	2084c263          	blt	s1,s0,100135e0 <__subtf3+0x14ec>
100133e0:	408487b3          	sub	a5,s1,s0
100133e4:	00178793          	addi	a5,a5,1
100133e8:	41f7d513          	srai	a0,a5,0x1f
100133ec:	01f57513          	andi	a0,a0,31
100133f0:	00f50533          	add	a0,a0,a5
100133f4:	03010613          	addi	a2,sp,48
100133f8:	40555513          	srai	a0,a0,0x5
100133fc:	00060693          	mv	a3,a2
10013400:	00000413          	li	s0,0
10013404:	00000713          	li	a4,0
10013408:	0ea74463          	blt	a4,a0,100134f0 <__subtf3+0x13fc>
1001340c:	00050693          	mv	a3,a0
10013410:	00055463          	bgez	a0,10013418 <__subtf3+0x1324>
10013414:	00000693          	li	a3,0
10013418:	01f7f813          	andi	a6,a5,31
1001341c:	00251713          	slli	a4,a0,0x2
10013420:	0e081263          	bnez	a6,10013504 <__subtf3+0x1410>
10013424:	00300693          	li	a3,3
10013428:	00000793          	li	a5,0
1001342c:	40a686b3          	sub	a3,a3,a0
10013430:	00e605b3          	add	a1,a2,a4
10013434:	0005a583          	lw	a1,0(a1)
10013438:	00178793          	addi	a5,a5,1
1001343c:	00460613          	addi	a2,a2,4
10013440:	feb62e23          	sw	a1,-4(a2)
10013444:	fef6d6e3          	bge	a3,a5,10013430 <__subtf3+0x133c>
10013448:	00400793          	li	a5,4
1001344c:	40a78533          	sub	a0,a5,a0
10013450:	12c0006f          	j	1001357c <__subtf3+0x1488>
10013454:	0107e7b3          	or	a5,a5,a6
10013458:	01d7e7b3          	or	a5,a5,t4
1001345c:	00a7e7b3          	or	a5,a5,a0
10013460:	c80782e3          	beqz	a5,100130e4 <__subtf3+0xff0>
10013464:	ee1ff06f          	j	10013344 <__subtf3+0x1250>
10013468:	03812503          	lw	a0,56(sp)
1001346c:	00050863          	beqz	a0,1001347c <__subtf3+0x1388>
10013470:	c7dee0ef          	jal	ra,100020ec <__clzsi2>
10013474:	02050513          	addi	a0,a0,32
10013478:	ed9ff06f          	j	10013350 <__subtf3+0x125c>
1001347c:	03412503          	lw	a0,52(sp)
10013480:	00050863          	beqz	a0,10013490 <__subtf3+0x139c>
10013484:	c69ee0ef          	jal	ra,100020ec <__clzsi2>
10013488:	04050513          	addi	a0,a0,64
1001348c:	ec5ff06f          	j	10013350 <__subtf3+0x125c>
10013490:	03012503          	lw	a0,48(sp)
10013494:	c59ee0ef          	jal	ra,100020ec <__clzsi2>
10013498:	06050513          	addi	a0,a0,96
1001349c:	eb5ff06f          	j	10013350 <__subtf3+0x125c>
100134a0:	03c10713          	addi	a4,sp,60
100134a4:	00269693          	slli	a3,a3,0x2
100134a8:	00300613          	li	a2,3
100134ac:	00d705b3          	add	a1,a4,a3
100134b0:	0005a583          	lw	a1,0(a1)
100134b4:	fff60613          	addi	a2,a2,-1
100134b8:	ffc70713          	addi	a4,a4,-4
100134bc:	00b72223          	sw	a1,4(a4)
100134c0:	fef656e3          	bge	a2,a5,100134ac <__subtf3+0x13b8>
100134c4:	fff78613          	addi	a2,a5,-1
100134c8:	f01ff06f          	j	100133c8 <__subtf3+0x12d4>
100134cc:	00072603          	lw	a2,0(a4)
100134d0:	ffc72803          	lw	a6,-4(a4)
100134d4:	00d70333          	add	t1,a4,a3
100134d8:	00b61633          	sll	a2,a2,a1
100134dc:	00a85833          	srl	a6,a6,a0
100134e0:	01066633          	or	a2,a2,a6
100134e4:	00c32023          	sw	a2,0(t1) # 80000 <__heap_size+0x7f000>
100134e8:	ffc70713          	addi	a4,a4,-4
100134ec:	ebdff06f          	j	100133a8 <__subtf3+0x12b4>
100134f0:	0006a583          	lw	a1,0(a3)
100134f4:	00170713          	addi	a4,a4,1
100134f8:	00468693          	addi	a3,a3,4
100134fc:	00b46433          	or	s0,s0,a1
10013500:	f09ff06f          	j	10013408 <__subtf3+0x1314>
10013504:	800005b7          	lui	a1,0x80000
10013508:	01f58593          	addi	a1,a1,31 # 8000001f <_sp+0x6ffd7ab3>
1001350c:	00b7f7b3          	and	a5,a5,a1
10013510:	0007d863          	bgez	a5,10013520 <__subtf3+0x142c>
10013514:	fff78793          	addi	a5,a5,-1
10013518:	fe07e793          	ori	a5,a5,-32
1001351c:	00178793          	addi	a5,a5,1
10013520:	00269693          	slli	a3,a3,0x2
10013524:	02000593          	li	a1,32
10013528:	40f585b3          	sub	a1,a1,a5
1001352c:	04068793          	addi	a5,a3,64
10013530:	002786b3          	add	a3,a5,sp
10013534:	ff06a783          	lw	a5,-16(a3)
10013538:	00000893          	li	a7,0
1001353c:	00b797b3          	sll	a5,a5,a1
10013540:	00f46433          	or	s0,s0,a5
10013544:	03010793          	addi	a5,sp,48
10013548:	00e78733          	add	a4,a5,a4
1001354c:	00300793          	li	a5,3
10013550:	40a787b3          	sub	a5,a5,a0
10013554:	00470713          	addi	a4,a4,4
10013558:	06f8c263          	blt	a7,a5,100135bc <__subtf3+0x14c8>
1001355c:	00400713          	li	a4,4
10013560:	40a70533          	sub	a0,a4,a0
10013564:	03c12703          	lw	a4,60(sp)
10013568:	00279793          	slli	a5,a5,0x2
1001356c:	04078793          	addi	a5,a5,64
10013570:	002787b3          	add	a5,a5,sp
10013574:	01075733          	srl	a4,a4,a6
10013578:	fee7a823          	sw	a4,-16(a5)
1001357c:	00400793          	li	a5,4
10013580:	00000613          	li	a2,0
10013584:	00a7c663          	blt	a5,a0,10013590 <__subtf3+0x149c>
10013588:	40a787b3          	sub	a5,a5,a0
1001358c:	00279613          	slli	a2,a5,0x2
10013590:	03010793          	addi	a5,sp,48
10013594:	00251513          	slli	a0,a0,0x2
10013598:	00a78533          	add	a0,a5,a0
1001359c:	00000593          	li	a1,0
100135a0:	e01ee0ef          	jal	ra,100023a0 <memset>
100135a4:	03012703          	lw	a4,48(sp)
100135a8:	008037b3          	snez	a5,s0
100135ac:	00000413          	li	s0,0
100135b0:	00f767b3          	or	a5,a4,a5
100135b4:	02f12823          	sw	a5,48(sp)
100135b8:	fc5fe06f          	j	1001257c <__subtf3+0x488>
100135bc:	ffc72683          	lw	a3,-4(a4)
100135c0:	00072303          	lw	t1,0(a4)
100135c4:	00188893          	addi	a7,a7,1 # 80001 <__heap_size+0x7f001>
100135c8:	0106d6b3          	srl	a3,a3,a6
100135cc:	00b31333          	sll	t1,t1,a1
100135d0:	0066e6b3          	or	a3,a3,t1
100135d4:	00d62023          	sw	a3,0(a2)
100135d8:	00460613          	addi	a2,a2,4
100135dc:	f79ff06f          	j	10013554 <__subtf3+0x1460>
100135e0:	03c12783          	lw	a5,60(sp)
100135e4:	fff80737          	lui	a4,0xfff80
100135e8:	fff70713          	addi	a4,a4,-1 # fff7ffff <_sp+0xeff57a93>
100135ec:	00e7f7b3          	and	a5,a5,a4
100135f0:	40940433          	sub	s0,s0,s1
100135f4:	02f12e23          	sw	a5,60(sp)
100135f8:	f85fe06f          	j	1001257c <__subtf3+0x488>
100135fc:	02012e23          	sw	zero,60(sp)
10013600:	02012c23          	sw	zero,56(sp)
10013604:	02012a23          	sw	zero,52(sp)
10013608:	02012823          	sw	zero,48(sp)
1001360c:	ff5fe06f          	j	10012600 <__subtf3+0x50c>

10013610 <__fixtfsi>:
10013610:	00052683          	lw	a3,0(a0)
10013614:	00852783          	lw	a5,8(a0)
10013618:	00c52703          	lw	a4,12(a0)
1001361c:	00452603          	lw	a2,4(a0)
10013620:	fe010113          	addi	sp,sp,-32
10013624:	00d12023          	sw	a3,0(sp)
10013628:	00f12423          	sw	a5,8(sp)
1001362c:	00d12823          	sw	a3,16(sp)
10013630:	00f12c23          	sw	a5,24(sp)
10013634:	00171693          	slli	a3,a4,0x1
10013638:	000047b7          	lui	a5,0x4
1001363c:	00c12223          	sw	a2,4(sp)
10013640:	00e12623          	sw	a4,12(sp)
10013644:	0116d693          	srli	a3,a3,0x11
10013648:	ffe78613          	addi	a2,a5,-2 # 3ffe <__heap_size+0x2ffe>
1001364c:	00000513          	li	a0,0
10013650:	00d65e63          	bge	a2,a3,1001366c <__fixtfsi+0x5c>
10013654:	01d78613          	addi	a2,a5,29
10013658:	01f75893          	srli	a7,a4,0x1f
1001365c:	00d65c63          	bge	a2,a3,10013674 <__fixtfsi+0x64>
10013660:	80000537          	lui	a0,0x80000
10013664:	fff54513          	not	a0,a0
10013668:	00a88533          	add	a0,a7,a0
1001366c:	02010113          	addi	sp,sp,32
10013670:	00008067          	ret
10013674:	01071713          	slli	a4,a4,0x10
10013678:	01075713          	srli	a4,a4,0x10
1001367c:	00010637          	lui	a2,0x10
10013680:	06f78793          	addi	a5,a5,111
10013684:	40d787b3          	sub	a5,a5,a3
10013688:	00c76733          	or	a4,a4,a2
1001368c:	4057d693          	srai	a3,a5,0x5
10013690:	00e12e23          	sw	a4,28(sp)
10013694:	01f7f793          	andi	a5,a5,31
10013698:	04078863          	beqz	a5,100136e8 <__fixtfsi+0xd8>
1001369c:	ffe68813          	addi	a6,a3,-2
100136a0:	02000513          	li	a0,32
100136a4:	00269693          	slli	a3,a3,0x2
100136a8:	40f50533          	sub	a0,a0,a5
100136ac:	02068693          	addi	a3,a3,32
100136b0:	00a71533          	sll	a0,a4,a0
100136b4:	00000313          	li	t1,0
100136b8:	00000613          	li	a2,0
100136bc:	00183813          	seqz	a6,a6
100136c0:	002686b3          	add	a3,a3,sp
100136c4:	05064463          	blt	a2,a6,1001370c <__fixtfsi+0xfc>
100136c8:	00030463          	beqz	t1,100136d0 <__fixtfsi+0xc0>
100136cc:	00b12823          	sw	a1,16(sp)
100136d0:	00261613          	slli	a2,a2,0x2
100136d4:	02060693          	addi	a3,a2,32 # 10020 <__heap_size+0xf020>
100136d8:	00268633          	add	a2,a3,sp
100136dc:	00f75733          	srl	a4,a4,a5
100136e0:	fee62823          	sw	a4,-16(a2)
100136e4:	0180006f          	j	100136fc <__fixtfsi+0xec>
100136e8:	00269693          	slli	a3,a3,0x2
100136ec:	02068793          	addi	a5,a3,32
100136f0:	002786b3          	add	a3,a5,sp
100136f4:	ff06a783          	lw	a5,-16(a3)
100136f8:	00f12823          	sw	a5,16(sp)
100136fc:	01012503          	lw	a0,16(sp)
10013700:	f60886e3          	beqz	a7,1001366c <__fixtfsi+0x5c>
10013704:	40a00533          	neg	a0,a0
10013708:	f65ff06f          	j	1001366c <__fixtfsi+0x5c>
1001370c:	ff06a583          	lw	a1,-16(a3)
10013710:	00100313          	li	t1,1
10013714:	00100613          	li	a2,1
10013718:	00f5d5b3          	srl	a1,a1,a5
1001371c:	00a5e5b3          	or	a1,a1,a0
10013720:	fa5ff06f          	j	100136c4 <__fixtfsi+0xb4>

10013724 <__floatsitf>:
10013724:	fc010113          	addi	sp,sp,-64
10013728:	02912a23          	sw	s1,52(sp)
1001372c:	02112e23          	sw	ra,60(sp)
10013730:	02812c23          	sw	s0,56(sp)
10013734:	03212823          	sw	s2,48(sp)
10013738:	03312623          	sw	s3,44(sp)
1001373c:	00050493          	mv	s1,a0
10013740:	12058063          	beqz	a1,10013860 <__floatsitf+0x13c>
10013744:	41f5d793          	srai	a5,a1,0x1f
10013748:	00b7c433          	xor	s0,a5,a1
1001374c:	40f40433          	sub	s0,s0,a5
10013750:	00040513          	mv	a0,s0
10013754:	01f5d913          	srli	s2,a1,0x1f
10013758:	995ee0ef          	jal	ra,100020ec <__clzsi2>
1001375c:	05150793          	addi	a5,a0,81 # 80000051 <_sp+0x6ffd7ae5>
10013760:	000049b7          	lui	s3,0x4
10013764:	01e98993          	addi	s3,s3,30 # 401e <__heap_size+0x301e>
10013768:	4057d713          	srai	a4,a5,0x5
1001376c:	00812823          	sw	s0,16(sp)
10013770:	00012a23          	sw	zero,20(sp)
10013774:	00012c23          	sw	zero,24(sp)
10013778:	00012e23          	sw	zero,28(sp)
1001377c:	01f7f793          	andi	a5,a5,31
10013780:	40a989b3          	sub	s3,s3,a0
10013784:	02078c63          	beqz	a5,100137bc <__floatsitf+0x98>
10013788:	00200693          	li	a3,2
1001378c:	0cd71663          	bne	a4,a3,10013858 <__floatsitf+0x134>
10013790:	02000693          	li	a3,32
10013794:	40f686b3          	sub	a3,a3,a5
10013798:	00d456b3          	srl	a3,s0,a3
1001379c:	00d12e23          	sw	a3,28(sp)
100137a0:	fff70613          	addi	a2,a4,-1
100137a4:	00271713          	slli	a4,a4,0x2
100137a8:	02070713          	addi	a4,a4,32
100137ac:	00270733          	add	a4,a4,sp
100137b0:	00f41433          	sll	s0,s0,a5
100137b4:	fe872823          	sw	s0,-16(a4)
100137b8:	0340006f          	j	100137ec <__floatsitf+0xc8>
100137bc:	00300793          	li	a5,3
100137c0:	40e787b3          	sub	a5,a5,a4
100137c4:	00279793          	slli	a5,a5,0x2
100137c8:	02078793          	addi	a5,a5,32
100137cc:	002787b3          	add	a5,a5,sp
100137d0:	ff07a783          	lw	a5,-16(a5)
100137d4:	00200613          	li	a2,2
100137d8:	00f12e23          	sw	a5,28(sp)
100137dc:	00200793          	li	a5,2
100137e0:	00f71663          	bne	a4,a5,100137ec <__floatsitf+0xc8>
100137e4:	00812c23          	sw	s0,24(sp)
100137e8:	00100613          	li	a2,1
100137ec:	00160613          	addi	a2,a2,1
100137f0:	00000593          	li	a1,0
100137f4:	00261613          	slli	a2,a2,0x2
100137f8:	01010513          	addi	a0,sp,16
100137fc:	ba5ee0ef          	jal	ra,100023a0 <memset>
10013800:	00090593          	mv	a1,s2
10013804:	01c12783          	lw	a5,28(sp)
10013808:	00f59413          	slli	s0,a1,0xf
1001380c:	01346433          	or	s0,s0,s3
10013810:	00f11623          	sh	a5,12(sp)
10013814:	01012783          	lw	a5,16(sp)
10013818:	00811723          	sh	s0,14(sp)
1001381c:	03c12083          	lw	ra,60(sp)
10013820:	00f4a023          	sw	a5,0(s1)
10013824:	01412783          	lw	a5,20(sp)
10013828:	03812403          	lw	s0,56(sp)
1001382c:	03012903          	lw	s2,48(sp)
10013830:	00f4a223          	sw	a5,4(s1)
10013834:	01812783          	lw	a5,24(sp)
10013838:	02c12983          	lw	s3,44(sp)
1001383c:	00048513          	mv	a0,s1
10013840:	00f4a423          	sw	a5,8(s1)
10013844:	00c12783          	lw	a5,12(sp)
10013848:	00f4a623          	sw	a5,12(s1)
1001384c:	03412483          	lw	s1,52(sp)
10013850:	04010113          	addi	sp,sp,64
10013854:	00008067          	ret
10013858:	00300713          	li	a4,3
1001385c:	f45ff06f          	j	100137a0 <__floatsitf+0x7c>
10013860:	00012e23          	sw	zero,28(sp)
10013864:	00012c23          	sw	zero,24(sp)
10013868:	00012a23          	sw	zero,20(sp)
1001386c:	00012823          	sw	zero,16(sp)
10013870:	00000993          	li	s3,0
10013874:	f91ff06f          	j	10013804 <__floatsitf+0xe0>

10013878 <__extenddftf2>:
10013878:	01465793          	srli	a5,a2,0x14
1001387c:	00c61713          	slli	a4,a2,0xc
10013880:	7ff7f793          	andi	a5,a5,2047
10013884:	fc010113          	addi	sp,sp,-64
10013888:	00c75713          	srli	a4,a4,0xc
1001388c:	00178693          	addi	a3,a5,1
10013890:	02812c23          	sw	s0,56(sp)
10013894:	02912a23          	sw	s1,52(sp)
10013898:	03212823          	sw	s2,48(sp)
1001389c:	02112e23          	sw	ra,60(sp)
100138a0:	03312623          	sw	s3,44(sp)
100138a4:	00b12823          	sw	a1,16(sp)
100138a8:	00e12a23          	sw	a4,20(sp)
100138ac:	00012e23          	sw	zero,28(sp)
100138b0:	00012c23          	sw	zero,24(sp)
100138b4:	7fe6f693          	andi	a3,a3,2046
100138b8:	00050913          	mv	s2,a0
100138bc:	00058413          	mv	s0,a1
100138c0:	01f65493          	srli	s1,a2,0x1f
100138c4:	08068463          	beqz	a3,1001394c <__extenddftf2+0xd4>
100138c8:	000046b7          	lui	a3,0x4
100138cc:	c0068693          	addi	a3,a3,-1024 # 3c00 <__heap_size+0x2c00>
100138d0:	00d787b3          	add	a5,a5,a3
100138d4:	00475693          	srli	a3,a4,0x4
100138d8:	00d12e23          	sw	a3,28(sp)
100138dc:	01c71713          	slli	a4,a4,0x1c
100138e0:	0045d693          	srli	a3,a1,0x4
100138e4:	00d76733          	or	a4,a4,a3
100138e8:	01c59413          	slli	s0,a1,0x1c
100138ec:	00e12c23          	sw	a4,24(sp)
100138f0:	00812a23          	sw	s0,20(sp)
100138f4:	00012823          	sw	zero,16(sp)
100138f8:	00f49493          	slli	s1,s1,0xf
100138fc:	00f4e4b3          	or	s1,s1,a5
10013900:	01012783          	lw	a5,16(sp)
10013904:	01c12703          	lw	a4,28(sp)
10013908:	00911723          	sh	s1,14(sp)
1001390c:	00f92023          	sw	a5,0(s2)
10013910:	01412783          	lw	a5,20(sp)
10013914:	00e11623          	sh	a4,12(sp)
10013918:	03c12083          	lw	ra,60(sp)
1001391c:	00f92223          	sw	a5,4(s2)
10013920:	01812783          	lw	a5,24(sp)
10013924:	03812403          	lw	s0,56(sp)
10013928:	03412483          	lw	s1,52(sp)
1001392c:	00f92423          	sw	a5,8(s2)
10013930:	00c12783          	lw	a5,12(sp)
10013934:	02c12983          	lw	s3,44(sp)
10013938:	00090513          	mv	a0,s2
1001393c:	00f92623          	sw	a5,12(s2)
10013940:	03012903          	lw	s2,48(sp)
10013944:	04010113          	addi	sp,sp,64
10013948:	00008067          	ret
1001394c:	00b76533          	or	a0,a4,a1
10013950:	0e079263          	bnez	a5,10013a34 <__extenddftf2+0x1bc>
10013954:	fa0502e3          	beqz	a0,100138f8 <__extenddftf2+0x80>
10013958:	06070063          	beqz	a4,100139b8 <__extenddftf2+0x140>
1001395c:	00070513          	mv	a0,a4
10013960:	f8cee0ef          	jal	ra,100020ec <__clzsi2>
10013964:	00050993          	mv	s3,a0
10013968:	03198713          	addi	a4,s3,49
1001396c:	40575793          	srai	a5,a4,0x5
10013970:	01f77713          	andi	a4,a4,31
10013974:	40f006b3          	neg	a3,a5
10013978:	04070663          	beqz	a4,100139c4 <__extenddftf2+0x14c>
1001397c:	00269693          	slli	a3,a3,0x2
10013980:	00c68613          	addi	a2,a3,12
10013984:	02000513          	li	a0,32
10013988:	01010893          	addi	a7,sp,16
1001398c:	40e50533          	sub	a0,a0,a4
10013990:	00c88633          	add	a2,a7,a2
10013994:	40d006b3          	neg	a3,a3
10013998:	06c89c63          	bne	a7,a2,10013a10 <__extenddftf2+0x198>
1001399c:	fff78613          	addi	a2,a5,-1
100139a0:	00279793          	slli	a5,a5,0x2
100139a4:	02078793          	addi	a5,a5,32
100139a8:	002787b3          	add	a5,a5,sp
100139ac:	00e41733          	sll	a4,s0,a4
100139b0:	fee7a823          	sw	a4,-16(a5)
100139b4:	0380006f          	j	100139ec <__extenddftf2+0x174>
100139b8:	f34ee0ef          	jal	ra,100020ec <__clzsi2>
100139bc:	02050993          	addi	s3,a0,32
100139c0:	fa9ff06f          	j	10013968 <__extenddftf2+0xf0>
100139c4:	01c10713          	addi	a4,sp,28
100139c8:	00269693          	slli	a3,a3,0x2
100139cc:	00300613          	li	a2,3
100139d0:	00d705b3          	add	a1,a4,a3
100139d4:	0005a583          	lw	a1,0(a1)
100139d8:	fff60613          	addi	a2,a2,-1
100139dc:	ffc70713          	addi	a4,a4,-4
100139e0:	00b72223          	sw	a1,4(a4)
100139e4:	fef656e3          	bge	a2,a5,100139d0 <__extenddftf2+0x158>
100139e8:	fff78613          	addi	a2,a5,-1
100139ec:	00160613          	addi	a2,a2,1
100139f0:	00261613          	slli	a2,a2,0x2
100139f4:	00000593          	li	a1,0
100139f8:	01010513          	addi	a0,sp,16
100139fc:	9a5ee0ef          	jal	ra,100023a0 <memset>
10013a00:	000047b7          	lui	a5,0x4
10013a04:	c0c78793          	addi	a5,a5,-1012 # 3c0c <__heap_size+0x2c0c>
10013a08:	413787b3          	sub	a5,a5,s3
10013a0c:	eedff06f          	j	100138f8 <__extenddftf2+0x80>
10013a10:	00062583          	lw	a1,0(a2)
10013a14:	ffc62803          	lw	a6,-4(a2)
10013a18:	00d60333          	add	t1,a2,a3
10013a1c:	00e595b3          	sll	a1,a1,a4
10013a20:	00a85833          	srl	a6,a6,a0
10013a24:	0105e5b3          	or	a1,a1,a6
10013a28:	00b32023          	sw	a1,0(t1)
10013a2c:	ffc60613          	addi	a2,a2,-4
10013a30:	f69ff06f          	j	10013998 <__extenddftf2+0x120>
10013a34:	000087b7          	lui	a5,0x8
10013a38:	02050863          	beqz	a0,10013a68 <__extenddftf2+0x1f0>
10013a3c:	01c71793          	slli	a5,a4,0x1c
10013a40:	0045d693          	srli	a3,a1,0x4
10013a44:	00d7e7b3          	or	a5,a5,a3
10013a48:	00f12c23          	sw	a5,24(sp)
10013a4c:	00475713          	srli	a4,a4,0x4
10013a50:	000087b7          	lui	a5,0x8
10013a54:	01c59413          	slli	s0,a1,0x1c
10013a58:	00f76733          	or	a4,a4,a5
10013a5c:	00812a23          	sw	s0,20(sp)
10013a60:	00012823          	sw	zero,16(sp)
10013a64:	00e12e23          	sw	a4,28(sp)
10013a68:	fff78793          	addi	a5,a5,-1 # 7fff <__heap_size+0x6fff>
10013a6c:	e8dff06f          	j	100138f8 <__extenddftf2+0x80>

10013a70 <__trunctfdf2>:
10013a70:	fd010113          	addi	sp,sp,-48
10013a74:	00852783          	lw	a5,8(a0)
10013a78:	02912223          	sw	s1,36(sp)
10013a7c:	00c52483          	lw	s1,12(a0)
10013a80:	00052683          	lw	a3,0(a0)
10013a84:	00452703          	lw	a4,4(a0)
10013a88:	00f12423          	sw	a5,8(sp)
10013a8c:	00f12c23          	sw	a5,24(sp)
10013a90:	01049793          	slli	a5,s1,0x10
10013a94:	0107d793          	srli	a5,a5,0x10
10013a98:	00d12023          	sw	a3,0(sp)
10013a9c:	00d12823          	sw	a3,16(sp)
10013aa0:	00149693          	slli	a3,s1,0x1
10013aa4:	00912623          	sw	s1,12(sp)
10013aa8:	00f12e23          	sw	a5,28(sp)
10013aac:	02112623          	sw	ra,44(sp)
10013ab0:	02812423          	sw	s0,40(sp)
10013ab4:	00e12223          	sw	a4,4(sp)
10013ab8:	00e12a23          	sw	a4,20(sp)
10013abc:	0116d693          	srli	a3,a3,0x11
10013ac0:	01f4d493          	srli	s1,s1,0x1f
10013ac4:	01010513          	addi	a0,sp,16
10013ac8:	01c10793          	addi	a5,sp,28
10013acc:	0007a703          	lw	a4,0(a5)
10013ad0:	ffc7a603          	lw	a2,-4(a5)
10013ad4:	ffc78793          	addi	a5,a5,-4
10013ad8:	00371713          	slli	a4,a4,0x3
10013adc:	01d65613          	srli	a2,a2,0x1d
10013ae0:	00c76733          	or	a4,a4,a2
10013ae4:	00e7a223          	sw	a4,4(a5)
10013ae8:	fef512e3          	bne	a0,a5,10013acc <__trunctfdf2+0x5c>
10013aec:	01012583          	lw	a1,16(sp)
10013af0:	00008637          	lui	a2,0x8
10013af4:	00168713          	addi	a4,a3,1
10013af8:	00359593          	slli	a1,a1,0x3
10013afc:	ffe60613          	addi	a2,a2,-2 # 7ffe <__heap_size+0x6ffe>
10013b00:	00b12823          	sw	a1,16(sp)
10013b04:	00c77733          	and	a4,a4,a2
10013b08:	1a070663          	beqz	a4,10013cb4 <__trunctfdf2+0x244>
10013b0c:	ffffc737          	lui	a4,0xffffc
10013b10:	40070713          	addi	a4,a4,1024 # ffffc400 <_sp+0xeffd3e94>
10013b14:	00e686b3          	add	a3,a3,a4
10013b18:	7fe00713          	li	a4,2046
10013b1c:	1ed74863          	blt	a4,a3,10013d0c <__trunctfdf2+0x29c>
10013b20:	06d05463          	blez	a3,10013b88 <__trunctfdf2+0x118>
10013b24:	01812603          	lw	a2,24(sp)
10013b28:	01c12783          	lw	a5,28(sp)
10013b2c:	01412703          	lw	a4,20(sp)
10013b30:	01c65513          	srli	a0,a2,0x1c
10013b34:	00479793          	slli	a5,a5,0x4
10013b38:	00a7e7b3          	or	a5,a5,a0
10013b3c:	00f12a23          	sw	a5,20(sp)
10013b40:	00471793          	slli	a5,a4,0x4
10013b44:	00b7e7b3          	or	a5,a5,a1
10013b48:	01c75713          	srli	a4,a4,0x1c
10013b4c:	00461613          	slli	a2,a2,0x4
10013b50:	00f037b3          	snez	a5,a5
10013b54:	00c76733          	or	a4,a4,a2
10013b58:	00e7e7b3          	or	a5,a5,a4
10013b5c:	01412703          	lw	a4,20(sp)
10013b60:	0077f613          	andi	a2,a5,7
10013b64:	1a060a63          	beqz	a2,10013d18 <__trunctfdf2+0x2a8>
10013b68:	00f7f613          	andi	a2,a5,15
10013b6c:	00400593          	li	a1,4
10013b70:	1ab60463          	beq	a2,a1,10013d18 <__trunctfdf2+0x2a8>
10013b74:	00478613          	addi	a2,a5,4
10013b78:	00f637b3          	sltu	a5,a2,a5
10013b7c:	00f70733          	add	a4,a4,a5
10013b80:	00060793          	mv	a5,a2
10013b84:	1940006f          	j	10013d18 <__trunctfdf2+0x2a8>
10013b88:	fcc00713          	li	a4,-52
10013b8c:	00e6da63          	bge	a3,a4,10013ba0 <__trunctfdf2+0x130>
10013b90:	00012a23          	sw	zero,20(sp)
10013b94:	00100793          	li	a5,1
10013b98:	00000693          	li	a3,0
10013b9c:	fc1ff06f          	j	10013b5c <__trunctfdf2+0xec>
10013ba0:	01c12703          	lw	a4,28(sp)
10013ba4:	00080837          	lui	a6,0x80
10013ba8:	00050593          	mv	a1,a0
10013bac:	00e86833          	or	a6,a6,a4
10013bb0:	03d00713          	li	a4,61
10013bb4:	40d706b3          	sub	a3,a4,a3
10013bb8:	01012e23          	sw	a6,28(sp)
10013bbc:	4056d713          	srai	a4,a3,0x5
10013bc0:	00000613          	li	a2,0
10013bc4:	00000413          	li	s0,0
10013bc8:	0005a883          	lw	a7,0(a1)
10013bcc:	00160613          	addi	a2,a2,1
10013bd0:	00458593          	addi	a1,a1,4
10013bd4:	01146433          	or	s0,s0,a7
10013bd8:	fec718e3          	bne	a4,a2,10013bc8 <__trunctfdf2+0x158>
10013bdc:	01f6f693          	andi	a3,a3,31
10013be0:	00271593          	slli	a1,a4,0x2
10013be4:	02069863          	bnez	a3,10013c14 <__trunctfdf2+0x1a4>
10013be8:	00300613          	li	a2,3
10013bec:	40e60633          	sub	a2,a2,a4
10013bf0:	00b78833          	add	a6,a5,a1
10013bf4:	00082803          	lw	a6,0(a6) # 80000 <__heap_size+0x7f000>
10013bf8:	00168693          	addi	a3,a3,1
10013bfc:	00478793          	addi	a5,a5,4
10013c00:	ff07ae23          	sw	a6,-4(a5)
10013c04:	fed656e3          	bge	a2,a3,10013bf0 <__trunctfdf2+0x180>
10013c08:	00400793          	li	a5,4
10013c0c:	40e78733          	sub	a4,a5,a4
10013c10:	0540006f          	j	10013c64 <__trunctfdf2+0x1f4>
10013c14:	02058613          	addi	a2,a1,32
10013c18:	00260633          	add	a2,a2,sp
10013c1c:	ff062603          	lw	a2,-16(a2)
10013c20:	02000313          	li	t1,32
10013c24:	40d30333          	sub	t1,t1,a3
10013c28:	00661633          	sll	a2,a2,t1
10013c2c:	00c46433          	or	s0,s0,a2
10013c30:	00300613          	li	a2,3
10013c34:	00b505b3          	add	a1,a0,a1
10013c38:	00000e13          	li	t3,0
10013c3c:	40e60633          	sub	a2,a2,a4
10013c40:	00458593          	addi	a1,a1,4
10013c44:	04ce4663          	blt	t3,a2,10013c90 <__trunctfdf2+0x220>
10013c48:	00400793          	li	a5,4
10013c4c:	00261613          	slli	a2,a2,0x2
10013c50:	40e78733          	sub	a4,a5,a4
10013c54:	02060793          	addi	a5,a2,32
10013c58:	00278633          	add	a2,a5,sp
10013c5c:	00d85833          	srl	a6,a6,a3
10013c60:	ff062823          	sw	a6,-16(a2)
10013c64:	00400613          	li	a2,4
10013c68:	40e60633          	sub	a2,a2,a4
10013c6c:	00271713          	slli	a4,a4,0x2
10013c70:	00e50533          	add	a0,a0,a4
10013c74:	00261613          	slli	a2,a2,0x2
10013c78:	00000593          	li	a1,0
10013c7c:	f24ee0ef          	jal	ra,100023a0 <memset>
10013c80:	01012703          	lw	a4,16(sp)
10013c84:	008037b3          	snez	a5,s0
10013c88:	00e7e7b3          	or	a5,a5,a4
10013c8c:	f0dff06f          	j	10013b98 <__trunctfdf2+0x128>
10013c90:	ffc5a883          	lw	a7,-4(a1)
10013c94:	0005ae83          	lw	t4,0(a1)
10013c98:	001e0e13          	addi	t3,t3,1
10013c9c:	00d8d8b3          	srl	a7,a7,a3
10013ca0:	006e9eb3          	sll	t4,t4,t1
10013ca4:	01d8e8b3          	or	a7,a7,t4
10013ca8:	0117a023          	sw	a7,0(a5)
10013cac:	00478793          	addi	a5,a5,4
10013cb0:	f91ff06f          	j	10013c40 <__trunctfdf2+0x1d0>
10013cb4:	01412603          	lw	a2,20(sp)
10013cb8:	01812703          	lw	a4,24(sp)
10013cbc:	01c12503          	lw	a0,28(sp)
10013cc0:	00c767b3          	or	a5,a4,a2
10013cc4:	00a7e7b3          	or	a5,a5,a0
10013cc8:	00b7e7b3          	or	a5,a5,a1
10013ccc:	00069863          	bnez	a3,10013cdc <__trunctfdf2+0x26c>
10013cd0:	00f037b3          	snez	a5,a5
10013cd4:	00000713          	li	a4,0
10013cd8:	e89ff06f          	j	10013b60 <__trunctfdf2+0xf0>
10013cdc:	0c078663          	beqz	a5,10013da8 <__trunctfdf2+0x338>
10013ce0:	00471793          	slli	a5,a4,0x4
10013ce4:	01c65613          	srli	a2,a2,0x1c
10013ce8:	01c75713          	srli	a4,a4,0x1c
10013cec:	00451513          	slli	a0,a0,0x4
10013cf0:	004006b7          	lui	a3,0x400
10013cf4:	00f66633          	or	a2,a2,a5
10013cf8:	00a76733          	or	a4,a4,a0
10013cfc:	00d76733          	or	a4,a4,a3
10013d00:	ff867793          	andi	a5,a2,-8
10013d04:	7ff00693          	li	a3,2047
10013d08:	e59ff06f          	j	10013b60 <__trunctfdf2+0xf0>
10013d0c:	00000713          	li	a4,0
10013d10:	00000793          	li	a5,0
10013d14:	7ff00693          	li	a3,2047
10013d18:	00800637          	lui	a2,0x800
10013d1c:	00c77633          	and	a2,a4,a2
10013d20:	00060e63          	beqz	a2,10013d3c <__trunctfdf2+0x2cc>
10013d24:	00168693          	addi	a3,a3,1 # 400001 <__heap_size+0x3ff001>
10013d28:	7ff00613          	li	a2,2047
10013d2c:	08c68263          	beq	a3,a2,10013db0 <__trunctfdf2+0x340>
10013d30:	ff800637          	lui	a2,0xff800
10013d34:	fff60613          	addi	a2,a2,-1 # ff7fffff <_sp+0xef7d7a93>
10013d38:	00c77733          	and	a4,a4,a2
10013d3c:	01d71613          	slli	a2,a4,0x1d
10013d40:	0037d793          	srli	a5,a5,0x3
10013d44:	00f667b3          	or	a5,a2,a5
10013d48:	7ff00613          	li	a2,2047
10013d4c:	00375713          	srli	a4,a4,0x3
10013d50:	00c69e63          	bne	a3,a2,10013d6c <__trunctfdf2+0x2fc>
10013d54:	00e7e7b3          	or	a5,a5,a4
10013d58:	00000713          	li	a4,0
10013d5c:	00078863          	beqz	a5,10013d6c <__trunctfdf2+0x2fc>
10013d60:	00080737          	lui	a4,0x80
10013d64:	00000793          	li	a5,0
10013d68:	00000493          	li	s1,0
10013d6c:	01469693          	slli	a3,a3,0x14
10013d70:	7ff00637          	lui	a2,0x7ff00
10013d74:	00c71713          	slli	a4,a4,0xc
10013d78:	02c12083          	lw	ra,44(sp)
10013d7c:	02812403          	lw	s0,40(sp)
10013d80:	00c75713          	srli	a4,a4,0xc
10013d84:	00c6f6b3          	and	a3,a3,a2
10013d88:	01f49493          	slli	s1,s1,0x1f
10013d8c:	00e6e6b3          	or	a3,a3,a4
10013d90:	0096e733          	or	a4,a3,s1
10013d94:	00078513          	mv	a0,a5
10013d98:	02412483          	lw	s1,36(sp)
10013d9c:	00070593          	mv	a1,a4
10013da0:	03010113          	addi	sp,sp,48
10013da4:	00008067          	ret
10013da8:	00000713          	li	a4,0
10013dac:	f69ff06f          	j	10013d14 <__trunctfdf2+0x2a4>
10013db0:	00000713          	li	a4,0
10013db4:	00000793          	li	a5,0
10013db8:	f85ff06f          	j	10013d3c <__trunctfdf2+0x2cc>

10013dbc <__mulsi3>:
10013dbc:	00050613          	mv	a2,a0
10013dc0:	00000513          	li	a0,0
10013dc4:	0015f693          	andi	a3,a1,1
10013dc8:	00068463          	beqz	a3,10013dd0 <__mulsi3+0x14>
10013dcc:	00c50533          	add	a0,a0,a2
10013dd0:	0015d593          	srli	a1,a1,0x1
10013dd4:	00161613          	slli	a2,a2,0x1
10013dd8:	fe0596e3          	bnez	a1,10013dc4 <__mulsi3+0x8>
10013ddc:	00008067          	ret

10013de0 <__divsi3>:
10013de0:	06054063          	bltz	a0,10013e40 <__umodsi3+0x10>
10013de4:	0605c663          	bltz	a1,10013e50 <__umodsi3+0x20>

10013de8 <__udivsi3>:
10013de8:	00058613          	mv	a2,a1
10013dec:	00050593          	mv	a1,a0
10013df0:	fff00513          	li	a0,-1
10013df4:	02060c63          	beqz	a2,10013e2c <__udivsi3+0x44>
10013df8:	00100693          	li	a3,1
10013dfc:	00b67a63          	bgeu	a2,a1,10013e10 <__udivsi3+0x28>
10013e00:	00c05863          	blez	a2,10013e10 <__udivsi3+0x28>
10013e04:	00161613          	slli	a2,a2,0x1
10013e08:	00169693          	slli	a3,a3,0x1
10013e0c:	feb66ae3          	bltu	a2,a1,10013e00 <__udivsi3+0x18>
10013e10:	00000513          	li	a0,0
10013e14:	00c5e663          	bltu	a1,a2,10013e20 <__udivsi3+0x38>
10013e18:	40c585b3          	sub	a1,a1,a2
10013e1c:	00d56533          	or	a0,a0,a3
10013e20:	0016d693          	srli	a3,a3,0x1
10013e24:	00165613          	srli	a2,a2,0x1
10013e28:	fe0696e3          	bnez	a3,10013e14 <__udivsi3+0x2c>
10013e2c:	00008067          	ret

10013e30 <__umodsi3>:
10013e30:	00008293          	mv	t0,ra
10013e34:	fb5ff0ef          	jal	ra,10013de8 <__udivsi3>
10013e38:	00058513          	mv	a0,a1
10013e3c:	00028067          	jr	t0
10013e40:	40a00533          	neg	a0,a0
10013e44:	00b04863          	bgtz	a1,10013e54 <__umodsi3+0x24>
10013e48:	40b005b3          	neg	a1,a1
10013e4c:	f9dff06f          	j	10013de8 <__udivsi3>
10013e50:	40b005b3          	neg	a1,a1
10013e54:	00008293          	mv	t0,ra
10013e58:	f91ff0ef          	jal	ra,10013de8 <__udivsi3>
10013e5c:	40a00533          	neg	a0,a0
10013e60:	00028067          	jr	t0

10013e64 <__modsi3>:
10013e64:	00008293          	mv	t0,ra
10013e68:	0005ca63          	bltz	a1,10013e7c <__modsi3+0x18>
10013e6c:	00054c63          	bltz	a0,10013e84 <__modsi3+0x20>
10013e70:	f79ff0ef          	jal	ra,10013de8 <__udivsi3>
10013e74:	00058513          	mv	a0,a1
10013e78:	00028067          	jr	t0
10013e7c:	40b005b3          	neg	a1,a1
10013e80:	fe0558e3          	bgez	a0,10013e70 <__modsi3+0xc>
10013e84:	40a00533          	neg	a0,a0
10013e88:	f61ff0ef          	jal	ra,10013de8 <__udivsi3>
10013e8c:	40b00533          	neg	a0,a1
10013e90:	00028067          	jr	t0
